ARM GAS  /tmp/ccYPoyit.s 			page 1


   1              		.cpu cortex-m4
   2              		.arch armv7e-m
   3              		.fpu fpv4-sp-d16
   4              		.eabi_attribute 27, 1
   5              		.eabi_attribute 28, 1
   6              		.eabi_attribute 20, 1
   7              		.eabi_attribute 21, 1
   8              		.eabi_attribute 23, 3
   9              		.eabi_attribute 24, 1
  10              		.eabi_attribute 25, 1
  11              		.eabi_attribute 26, 1
  12              		.eabi_attribute 30, 6
  13              		.eabi_attribute 34, 1
  14              		.eabi_attribute 18, 4
  15              		.file	"stm32f4xx_i2c.c"
  16              		.text
  17              	.Ltext0:
  18              		.cfi_sections	.debug_frame
  19              		.file 1 "../Shared/Libraries/STM32F4xx_StdPeriph_Driver/src/stm32f4xx_i2c.c"
  20              		.section	.text.I2C_DeInit,"ax",%progbits
  21              		.align	1
  22              		.global	I2C_DeInit
  23              		.syntax unified
  24              		.thumb
  25              		.thumb_func
  27              	I2C_DeInit:
  28              	.LFB110:
   1:../Shared/Libraries/STM32F4xx_StdPeriph_Driver/src/stm32f4xx_i2c.c **** /**
   2:../Shared/Libraries/STM32F4xx_StdPeriph_Driver/src/stm32f4xx_i2c.c ****   ******************************************************************************
   3:../Shared/Libraries/STM32F4xx_StdPeriph_Driver/src/stm32f4xx_i2c.c ****   * @file    stm32f4xx_i2c.c
   4:../Shared/Libraries/STM32F4xx_StdPeriph_Driver/src/stm32f4xx_i2c.c ****   * @author  MCD Application Team
   5:../Shared/Libraries/STM32F4xx_StdPeriph_Driver/src/stm32f4xx_i2c.c ****   * @version V1.0.2
   6:../Shared/Libraries/STM32F4xx_StdPeriph_Driver/src/stm32f4xx_i2c.c ****   * @date    05-March-2012
   7:../Shared/Libraries/STM32F4xx_StdPeriph_Driver/src/stm32f4xx_i2c.c ****   * @brief   This file provides firmware functions to manage the following 
   8:../Shared/Libraries/STM32F4xx_StdPeriph_Driver/src/stm32f4xx_i2c.c ****   *          functionalities of the Inter-integrated circuit (I2C)
   9:../Shared/Libraries/STM32F4xx_StdPeriph_Driver/src/stm32f4xx_i2c.c ****   *           - Initialization and Configuration
  10:../Shared/Libraries/STM32F4xx_StdPeriph_Driver/src/stm32f4xx_i2c.c ****   *           - Data transfers
  11:../Shared/Libraries/STM32F4xx_StdPeriph_Driver/src/stm32f4xx_i2c.c ****   *           - PEC management
  12:../Shared/Libraries/STM32F4xx_StdPeriph_Driver/src/stm32f4xx_i2c.c ****   *           - DMA transfers management
  13:../Shared/Libraries/STM32F4xx_StdPeriph_Driver/src/stm32f4xx_i2c.c ****   *           - Interrupts, events and flags management 
  14:../Shared/Libraries/STM32F4xx_StdPeriph_Driver/src/stm32f4xx_i2c.c ****   *           
  15:../Shared/Libraries/STM32F4xx_StdPeriph_Driver/src/stm32f4xx_i2c.c ****   *  @verbatim
  16:../Shared/Libraries/STM32F4xx_StdPeriph_Driver/src/stm32f4xx_i2c.c ****   *    
  17:../Shared/Libraries/STM32F4xx_StdPeriph_Driver/src/stm32f4xx_i2c.c ****   *          ===================================================================
  18:../Shared/Libraries/STM32F4xx_StdPeriph_Driver/src/stm32f4xx_i2c.c ****   *                                 How to use this driver
  19:../Shared/Libraries/STM32F4xx_StdPeriph_Driver/src/stm32f4xx_i2c.c ****   *          ===================================================================
  20:../Shared/Libraries/STM32F4xx_StdPeriph_Driver/src/stm32f4xx_i2c.c ****   *          1. Enable peripheral clock using RCC_APB1PeriphClockCmd(RCC_APB1Periph_I2Cx, ENABLE)
  21:../Shared/Libraries/STM32F4xx_StdPeriph_Driver/src/stm32f4xx_i2c.c ****   *             function for I2C1, I2C2 or I2C3.
  22:../Shared/Libraries/STM32F4xx_StdPeriph_Driver/src/stm32f4xx_i2c.c ****   *
  23:../Shared/Libraries/STM32F4xx_StdPeriph_Driver/src/stm32f4xx_i2c.c ****   *          2. Enable SDA, SCL  and SMBA (when used) GPIO clocks using 
  24:../Shared/Libraries/STM32F4xx_StdPeriph_Driver/src/stm32f4xx_i2c.c ****   *             RCC_AHBPeriphClockCmd() function. 
  25:../Shared/Libraries/STM32F4xx_StdPeriph_Driver/src/stm32f4xx_i2c.c ****   *
  26:../Shared/Libraries/STM32F4xx_StdPeriph_Driver/src/stm32f4xx_i2c.c ****   *          3. Peripherals alternate function: 
  27:../Shared/Libraries/STM32F4xx_StdPeriph_Driver/src/stm32f4xx_i2c.c ****   *                 - Connect the pin to the desired peripherals' Alternate 
  28:../Shared/Libraries/STM32F4xx_StdPeriph_Driver/src/stm32f4xx_i2c.c ****   *                   Function (AF) using GPIO_PinAFConfig() function
  29:../Shared/Libraries/STM32F4xx_StdPeriph_Driver/src/stm32f4xx_i2c.c ****   *                 - Configure the desired pin in alternate function by:
  30:../Shared/Libraries/STM32F4xx_StdPeriph_Driver/src/stm32f4xx_i2c.c ****   *                   GPIO_InitStruct->GPIO_Mode = GPIO_Mode_AF
ARM GAS  /tmp/ccYPoyit.s 			page 2


  31:../Shared/Libraries/STM32F4xx_StdPeriph_Driver/src/stm32f4xx_i2c.c ****   *                 - Select the type, pull-up/pull-down and output speed via 
  32:../Shared/Libraries/STM32F4xx_StdPeriph_Driver/src/stm32f4xx_i2c.c ****   *                   GPIO_PuPd, GPIO_OType and GPIO_Speed members
  33:../Shared/Libraries/STM32F4xx_StdPeriph_Driver/src/stm32f4xx_i2c.c ****   *                 - Call GPIO_Init() function
  34:../Shared/Libraries/STM32F4xx_StdPeriph_Driver/src/stm32f4xx_i2c.c ****   *                 Recommended configuration is Push-Pull, Pull-up, Open-Drain.
  35:../Shared/Libraries/STM32F4xx_StdPeriph_Driver/src/stm32f4xx_i2c.c ****   *                 Add an external pull up if necessary (typically 4.7 KOhm).      
  36:../Shared/Libraries/STM32F4xx_StdPeriph_Driver/src/stm32f4xx_i2c.c ****   *        
  37:../Shared/Libraries/STM32F4xx_StdPeriph_Driver/src/stm32f4xx_i2c.c ****   *          4. Program the Mode, duty cycle , Own address, Ack, Speed and Acknowledged
  38:../Shared/Libraries/STM32F4xx_StdPeriph_Driver/src/stm32f4xx_i2c.c ****   *             Address using the I2C_Init() function.
  39:../Shared/Libraries/STM32F4xx_StdPeriph_Driver/src/stm32f4xx_i2c.c ****   *
  40:../Shared/Libraries/STM32F4xx_StdPeriph_Driver/src/stm32f4xx_i2c.c ****   *          5. Optionally you can enable/configure the following parameters without
  41:../Shared/Libraries/STM32F4xx_StdPeriph_Driver/src/stm32f4xx_i2c.c ****   *             re-initialization (i.e there is no need to call again I2C_Init() function):
  42:../Shared/Libraries/STM32F4xx_StdPeriph_Driver/src/stm32f4xx_i2c.c ****   *              - Enable the acknowledge feature using I2C_AcknowledgeConfig() function
  43:../Shared/Libraries/STM32F4xx_StdPeriph_Driver/src/stm32f4xx_i2c.c ****   *              - Enable the dual addressing mode using I2C_DualAddressCmd() function
  44:../Shared/Libraries/STM32F4xx_StdPeriph_Driver/src/stm32f4xx_i2c.c ****   *              - Enable the general call using the I2C_GeneralCallCmd() function
  45:../Shared/Libraries/STM32F4xx_StdPeriph_Driver/src/stm32f4xx_i2c.c ****   *              - Enable the clock stretching using I2C_StretchClockCmd() function
  46:../Shared/Libraries/STM32F4xx_StdPeriph_Driver/src/stm32f4xx_i2c.c ****   *              - Enable the fast mode duty cycle using the I2C_FastModeDutyCycleConfig()
  47:../Shared/Libraries/STM32F4xx_StdPeriph_Driver/src/stm32f4xx_i2c.c ****   *                function.
  48:../Shared/Libraries/STM32F4xx_StdPeriph_Driver/src/stm32f4xx_i2c.c ****   *              - Configure the NACK position for Master Receiver mode in case of 
  49:../Shared/Libraries/STM32F4xx_StdPeriph_Driver/src/stm32f4xx_i2c.c ****   *                2 bytes reception using the function I2C_NACKPositionConfig().  
  50:../Shared/Libraries/STM32F4xx_StdPeriph_Driver/src/stm32f4xx_i2c.c ****   *              - Enable the PEC Calculation using I2C_CalculatePEC() function
  51:../Shared/Libraries/STM32F4xx_StdPeriph_Driver/src/stm32f4xx_i2c.c ****   *              - For SMBus Mode: 
  52:../Shared/Libraries/STM32F4xx_StdPeriph_Driver/src/stm32f4xx_i2c.c ****   *                   - Enable the Address Resolution Protocol (ARP) using I2C_ARPCmd() function
  53:../Shared/Libraries/STM32F4xx_StdPeriph_Driver/src/stm32f4xx_i2c.c ****   *                   - Configure the SMBusAlert pin using I2C_SMBusAlertConfig() function
  54:../Shared/Libraries/STM32F4xx_StdPeriph_Driver/src/stm32f4xx_i2c.c ****   *
  55:../Shared/Libraries/STM32F4xx_StdPeriph_Driver/src/stm32f4xx_i2c.c ****   *          6. Enable the NVIC and the corresponding interrupt using the function 
  56:../Shared/Libraries/STM32F4xx_StdPeriph_Driver/src/stm32f4xx_i2c.c ****   *             I2C_ITConfig() if you need to use interrupt mode. 
  57:../Shared/Libraries/STM32F4xx_StdPeriph_Driver/src/stm32f4xx_i2c.c ****   *
  58:../Shared/Libraries/STM32F4xx_StdPeriph_Driver/src/stm32f4xx_i2c.c ****   *          7. When using the DMA mode 
  59:../Shared/Libraries/STM32F4xx_StdPeriph_Driver/src/stm32f4xx_i2c.c ****   *                   - Configure the DMA using DMA_Init() function
  60:../Shared/Libraries/STM32F4xx_StdPeriph_Driver/src/stm32f4xx_i2c.c ****   *                   - Active the needed channel Request using I2C_DMACmd() or
  61:../Shared/Libraries/STM32F4xx_StdPeriph_Driver/src/stm32f4xx_i2c.c ****   *                     I2C_DMALastTransferCmd() function.
  62:../Shared/Libraries/STM32F4xx_StdPeriph_Driver/src/stm32f4xx_i2c.c ****   *              @note When using DMA mode, I2C interrupts may be used at the same time to
  63:../Shared/Libraries/STM32F4xx_StdPeriph_Driver/src/stm32f4xx_i2c.c ****   *                    control the communication flow (Start/Stop/Ack... events and errors).
  64:../Shared/Libraries/STM32F4xx_StdPeriph_Driver/src/stm32f4xx_i2c.c ****   * 
  65:../Shared/Libraries/STM32F4xx_StdPeriph_Driver/src/stm32f4xx_i2c.c ****   *          8. Enable the I2C using the I2C_Cmd() function.
  66:../Shared/Libraries/STM32F4xx_StdPeriph_Driver/src/stm32f4xx_i2c.c ****   * 
  67:../Shared/Libraries/STM32F4xx_StdPeriph_Driver/src/stm32f4xx_i2c.c ****   *          9. Enable the DMA using the DMA_Cmd() function when using DMA mode in the 
  68:../Shared/Libraries/STM32F4xx_StdPeriph_Driver/src/stm32f4xx_i2c.c ****   *             transfers. 
  69:../Shared/Libraries/STM32F4xx_StdPeriph_Driver/src/stm32f4xx_i2c.c ****   *
  70:../Shared/Libraries/STM32F4xx_StdPeriph_Driver/src/stm32f4xx_i2c.c ****   *  @endverbatim
  71:../Shared/Libraries/STM32F4xx_StdPeriph_Driver/src/stm32f4xx_i2c.c ****   *  
  72:../Shared/Libraries/STM32F4xx_StdPeriph_Driver/src/stm32f4xx_i2c.c ****   ******************************************************************************
  73:../Shared/Libraries/STM32F4xx_StdPeriph_Driver/src/stm32f4xx_i2c.c ****   * @attention
  74:../Shared/Libraries/STM32F4xx_StdPeriph_Driver/src/stm32f4xx_i2c.c ****   *
  75:../Shared/Libraries/STM32F4xx_StdPeriph_Driver/src/stm32f4xx_i2c.c ****   * <h2><center>&copy; COPYRIGHT 2012 STMicroelectronics</center></h2>
  76:../Shared/Libraries/STM32F4xx_StdPeriph_Driver/src/stm32f4xx_i2c.c ****   *
  77:../Shared/Libraries/STM32F4xx_StdPeriph_Driver/src/stm32f4xx_i2c.c ****   * Licensed under MCD-ST Liberty SW License Agreement V2, (the "License");
  78:../Shared/Libraries/STM32F4xx_StdPeriph_Driver/src/stm32f4xx_i2c.c ****   * You may not use this file except in compliance with the License.
  79:../Shared/Libraries/STM32F4xx_StdPeriph_Driver/src/stm32f4xx_i2c.c ****   * You may obtain a copy of the License at:
  80:../Shared/Libraries/STM32F4xx_StdPeriph_Driver/src/stm32f4xx_i2c.c ****   *
  81:../Shared/Libraries/STM32F4xx_StdPeriph_Driver/src/stm32f4xx_i2c.c ****   *        http://www.st.com/software_license_agreement_liberty_v2
  82:../Shared/Libraries/STM32F4xx_StdPeriph_Driver/src/stm32f4xx_i2c.c ****   *
  83:../Shared/Libraries/STM32F4xx_StdPeriph_Driver/src/stm32f4xx_i2c.c ****   * Unless required by applicable law or agreed to in writing, software 
  84:../Shared/Libraries/STM32F4xx_StdPeriph_Driver/src/stm32f4xx_i2c.c ****   * distributed under the License is distributed on an "AS IS" BASIS, 
  85:../Shared/Libraries/STM32F4xx_StdPeriph_Driver/src/stm32f4xx_i2c.c ****   * WITHOUT WARRANTIES OR CONDITIONS OF ANY KIND, either express or implied.
  86:../Shared/Libraries/STM32F4xx_StdPeriph_Driver/src/stm32f4xx_i2c.c ****   * See the License for the specific language governing permissions and
  87:../Shared/Libraries/STM32F4xx_StdPeriph_Driver/src/stm32f4xx_i2c.c ****   * limitations under the License.
ARM GAS  /tmp/ccYPoyit.s 			page 3


  88:../Shared/Libraries/STM32F4xx_StdPeriph_Driver/src/stm32f4xx_i2c.c ****   *
  89:../Shared/Libraries/STM32F4xx_StdPeriph_Driver/src/stm32f4xx_i2c.c ****   ******************************************************************************
  90:../Shared/Libraries/STM32F4xx_StdPeriph_Driver/src/stm32f4xx_i2c.c ****   */ 
  91:../Shared/Libraries/STM32F4xx_StdPeriph_Driver/src/stm32f4xx_i2c.c **** 
  92:../Shared/Libraries/STM32F4xx_StdPeriph_Driver/src/stm32f4xx_i2c.c **** /* Includes ------------------------------------------------------------------*/
  93:../Shared/Libraries/STM32F4xx_StdPeriph_Driver/src/stm32f4xx_i2c.c **** #include "stm32f4xx_i2c.h"
  94:../Shared/Libraries/STM32F4xx_StdPeriph_Driver/src/stm32f4xx_i2c.c **** #include "stm32f4xx_rcc.h"
  95:../Shared/Libraries/STM32F4xx_StdPeriph_Driver/src/stm32f4xx_i2c.c **** 
  96:../Shared/Libraries/STM32F4xx_StdPeriph_Driver/src/stm32f4xx_i2c.c **** /** @addtogroup STM32F4xx_StdPeriph_Driver
  97:../Shared/Libraries/STM32F4xx_StdPeriph_Driver/src/stm32f4xx_i2c.c ****   * @{
  98:../Shared/Libraries/STM32F4xx_StdPeriph_Driver/src/stm32f4xx_i2c.c ****   */
  99:../Shared/Libraries/STM32F4xx_StdPeriph_Driver/src/stm32f4xx_i2c.c **** 
 100:../Shared/Libraries/STM32F4xx_StdPeriph_Driver/src/stm32f4xx_i2c.c **** /** @defgroup I2C 
 101:../Shared/Libraries/STM32F4xx_StdPeriph_Driver/src/stm32f4xx_i2c.c ****   * @brief I2C driver modules
 102:../Shared/Libraries/STM32F4xx_StdPeriph_Driver/src/stm32f4xx_i2c.c ****   * @{
 103:../Shared/Libraries/STM32F4xx_StdPeriph_Driver/src/stm32f4xx_i2c.c ****   */ 
 104:../Shared/Libraries/STM32F4xx_StdPeriph_Driver/src/stm32f4xx_i2c.c **** 
 105:../Shared/Libraries/STM32F4xx_StdPeriph_Driver/src/stm32f4xx_i2c.c **** /* Private typedef -----------------------------------------------------------*/
 106:../Shared/Libraries/STM32F4xx_StdPeriph_Driver/src/stm32f4xx_i2c.c **** /* Private define ------------------------------------------------------------*/
 107:../Shared/Libraries/STM32F4xx_StdPeriph_Driver/src/stm32f4xx_i2c.c **** 
 108:../Shared/Libraries/STM32F4xx_StdPeriph_Driver/src/stm32f4xx_i2c.c **** #define CR1_CLEAR_MASK    ((uint16_t)0xFBF5)      /*<! I2C registers Masks */
 109:../Shared/Libraries/STM32F4xx_StdPeriph_Driver/src/stm32f4xx_i2c.c **** #define FLAG_MASK         ((uint32_t)0x00FFFFFF)  /*<! I2C FLAG mask */
 110:../Shared/Libraries/STM32F4xx_StdPeriph_Driver/src/stm32f4xx_i2c.c **** #define ITEN_MASK         ((uint32_t)0x07000000)  /*<! I2C Interrupt Enable mask */
 111:../Shared/Libraries/STM32F4xx_StdPeriph_Driver/src/stm32f4xx_i2c.c **** 
 112:../Shared/Libraries/STM32F4xx_StdPeriph_Driver/src/stm32f4xx_i2c.c **** /* Private macro -------------------------------------------------------------*/
 113:../Shared/Libraries/STM32F4xx_StdPeriph_Driver/src/stm32f4xx_i2c.c **** /* Private variables ---------------------------------------------------------*/
 114:../Shared/Libraries/STM32F4xx_StdPeriph_Driver/src/stm32f4xx_i2c.c **** /* Private function prototypes -----------------------------------------------*/
 115:../Shared/Libraries/STM32F4xx_StdPeriph_Driver/src/stm32f4xx_i2c.c **** /* Private functions ---------------------------------------------------------*/
 116:../Shared/Libraries/STM32F4xx_StdPeriph_Driver/src/stm32f4xx_i2c.c **** 
 117:../Shared/Libraries/STM32F4xx_StdPeriph_Driver/src/stm32f4xx_i2c.c **** /** @defgroup I2C_Private_Functions
 118:../Shared/Libraries/STM32F4xx_StdPeriph_Driver/src/stm32f4xx_i2c.c ****   * @{
 119:../Shared/Libraries/STM32F4xx_StdPeriph_Driver/src/stm32f4xx_i2c.c ****   */
 120:../Shared/Libraries/STM32F4xx_StdPeriph_Driver/src/stm32f4xx_i2c.c **** 
 121:../Shared/Libraries/STM32F4xx_StdPeriph_Driver/src/stm32f4xx_i2c.c **** /** @defgroup I2C_Group1 Initialization and Configuration functions
 122:../Shared/Libraries/STM32F4xx_StdPeriph_Driver/src/stm32f4xx_i2c.c ****  *  @brief   Initialization and Configuration functions 
 123:../Shared/Libraries/STM32F4xx_StdPeriph_Driver/src/stm32f4xx_i2c.c ****  *
 124:../Shared/Libraries/STM32F4xx_StdPeriph_Driver/src/stm32f4xx_i2c.c **** @verbatim   
 125:../Shared/Libraries/STM32F4xx_StdPeriph_Driver/src/stm32f4xx_i2c.c ****  ===============================================================================
 126:../Shared/Libraries/STM32F4xx_StdPeriph_Driver/src/stm32f4xx_i2c.c ****                    Initialization and Configuration functions
 127:../Shared/Libraries/STM32F4xx_StdPeriph_Driver/src/stm32f4xx_i2c.c ****  ===============================================================================  
 128:../Shared/Libraries/STM32F4xx_StdPeriph_Driver/src/stm32f4xx_i2c.c **** 
 129:../Shared/Libraries/STM32F4xx_StdPeriph_Driver/src/stm32f4xx_i2c.c **** @endverbatim
 130:../Shared/Libraries/STM32F4xx_StdPeriph_Driver/src/stm32f4xx_i2c.c ****   * @{
 131:../Shared/Libraries/STM32F4xx_StdPeriph_Driver/src/stm32f4xx_i2c.c ****   */
 132:../Shared/Libraries/STM32F4xx_StdPeriph_Driver/src/stm32f4xx_i2c.c **** 
 133:../Shared/Libraries/STM32F4xx_StdPeriph_Driver/src/stm32f4xx_i2c.c **** /**
 134:../Shared/Libraries/STM32F4xx_StdPeriph_Driver/src/stm32f4xx_i2c.c ****   * @brief  Deinitialize the I2Cx peripheral registers to their default reset values.
 135:../Shared/Libraries/STM32F4xx_StdPeriph_Driver/src/stm32f4xx_i2c.c ****   * @param  I2Cx: where x can be 1, 2 or 3 to select the I2C peripheral.
 136:../Shared/Libraries/STM32F4xx_StdPeriph_Driver/src/stm32f4xx_i2c.c ****   * @retval None
 137:../Shared/Libraries/STM32F4xx_StdPeriph_Driver/src/stm32f4xx_i2c.c ****   */
 138:../Shared/Libraries/STM32F4xx_StdPeriph_Driver/src/stm32f4xx_i2c.c **** void I2C_DeInit(I2C_TypeDef* I2Cx)
 139:../Shared/Libraries/STM32F4xx_StdPeriph_Driver/src/stm32f4xx_i2c.c **** {
  29              		.loc 1 139 1
  30              		.cfi_startproc
  31              		@ args = 0, pretend = 0, frame = 8
  32              		@ frame_needed = 1, uses_anonymous_args = 0
  33 0000 80B5     		push	{r7, lr}
ARM GAS  /tmp/ccYPoyit.s 			page 4


  34              	.LCFI0:
  35              		.cfi_def_cfa_offset 8
  36              		.cfi_offset 7, -8
  37              		.cfi_offset 14, -4
  38 0002 82B0     		sub	sp, sp, #8
  39              	.LCFI1:
  40              		.cfi_def_cfa_offset 16
  41 0004 00AF     		add	r7, sp, #0
  42              	.LCFI2:
  43              		.cfi_def_cfa_register 7
  44 0006 7860     		str	r0, [r7, #4]
 140:../Shared/Libraries/STM32F4xx_StdPeriph_Driver/src/stm32f4xx_i2c.c ****   /* Check the parameters */
 141:../Shared/Libraries/STM32F4xx_StdPeriph_Driver/src/stm32f4xx_i2c.c ****   assert_param(IS_I2C_ALL_PERIPH(I2Cx));
 142:../Shared/Libraries/STM32F4xx_StdPeriph_Driver/src/stm32f4xx_i2c.c **** 
 143:../Shared/Libraries/STM32F4xx_StdPeriph_Driver/src/stm32f4xx_i2c.c ****   if (I2Cx == I2C1)
  45              		.loc 1 143 6
  46 0008 7B68     		ldr	r3, [r7, #4]
  47 000a 174A     		ldr	r2, .L6
  48 000c 9342     		cmp	r3, r2
  49 000e 0AD1     		bne	.L2
 144:../Shared/Libraries/STM32F4xx_StdPeriph_Driver/src/stm32f4xx_i2c.c ****   {
 145:../Shared/Libraries/STM32F4xx_StdPeriph_Driver/src/stm32f4xx_i2c.c ****     /* Enable I2C1 reset state */
 146:../Shared/Libraries/STM32F4xx_StdPeriph_Driver/src/stm32f4xx_i2c.c ****     RCC_APB1PeriphResetCmd(RCC_APB1Periph_I2C1, ENABLE);
  50              		.loc 1 146 5
  51 0010 0121     		movs	r1, #1
  52 0012 4FF40010 		mov	r0, #2097152
  53 0016 FFF7FEFF 		bl	RCC_APB1PeriphResetCmd
 147:../Shared/Libraries/STM32F4xx_StdPeriph_Driver/src/stm32f4xx_i2c.c ****     /* Release I2C1 from reset state */
 148:../Shared/Libraries/STM32F4xx_StdPeriph_Driver/src/stm32f4xx_i2c.c ****     RCC_APB1PeriphResetCmd(RCC_APB1Periph_I2C1, DISABLE);    
  54              		.loc 1 148 5
  55 001a 0021     		movs	r1, #0
  56 001c 4FF40010 		mov	r0, #2097152
  57 0020 FFF7FEFF 		bl	RCC_APB1PeriphResetCmd
 149:../Shared/Libraries/STM32F4xx_StdPeriph_Driver/src/stm32f4xx_i2c.c ****   }
 150:../Shared/Libraries/STM32F4xx_StdPeriph_Driver/src/stm32f4xx_i2c.c ****   else if (I2Cx == I2C2)
 151:../Shared/Libraries/STM32F4xx_StdPeriph_Driver/src/stm32f4xx_i2c.c ****   {
 152:../Shared/Libraries/STM32F4xx_StdPeriph_Driver/src/stm32f4xx_i2c.c ****     /* Enable I2C2 reset state */
 153:../Shared/Libraries/STM32F4xx_StdPeriph_Driver/src/stm32f4xx_i2c.c ****     RCC_APB1PeriphResetCmd(RCC_APB1Periph_I2C2, ENABLE);
 154:../Shared/Libraries/STM32F4xx_StdPeriph_Driver/src/stm32f4xx_i2c.c ****     /* Release I2C2 from reset state */
 155:../Shared/Libraries/STM32F4xx_StdPeriph_Driver/src/stm32f4xx_i2c.c ****     RCC_APB1PeriphResetCmd(RCC_APB1Periph_I2C2, DISABLE);      
 156:../Shared/Libraries/STM32F4xx_StdPeriph_Driver/src/stm32f4xx_i2c.c ****   }
 157:../Shared/Libraries/STM32F4xx_StdPeriph_Driver/src/stm32f4xx_i2c.c ****   else 
 158:../Shared/Libraries/STM32F4xx_StdPeriph_Driver/src/stm32f4xx_i2c.c ****   {
 159:../Shared/Libraries/STM32F4xx_StdPeriph_Driver/src/stm32f4xx_i2c.c ****     if (I2Cx == I2C3)
 160:../Shared/Libraries/STM32F4xx_StdPeriph_Driver/src/stm32f4xx_i2c.c ****     {
 161:../Shared/Libraries/STM32F4xx_StdPeriph_Driver/src/stm32f4xx_i2c.c ****       /* Enable I2C3 reset state */
 162:../Shared/Libraries/STM32F4xx_StdPeriph_Driver/src/stm32f4xx_i2c.c ****       RCC_APB1PeriphResetCmd(RCC_APB1Periph_I2C3, ENABLE);
 163:../Shared/Libraries/STM32F4xx_StdPeriph_Driver/src/stm32f4xx_i2c.c ****       /* Release I2C3 from reset state */
 164:../Shared/Libraries/STM32F4xx_StdPeriph_Driver/src/stm32f4xx_i2c.c ****       RCC_APB1PeriphResetCmd(RCC_APB1Periph_I2C3, DISABLE);     
 165:../Shared/Libraries/STM32F4xx_StdPeriph_Driver/src/stm32f4xx_i2c.c ****     }
 166:../Shared/Libraries/STM32F4xx_StdPeriph_Driver/src/stm32f4xx_i2c.c ****   }
 167:../Shared/Libraries/STM32F4xx_StdPeriph_Driver/src/stm32f4xx_i2c.c **** }
  58              		.loc 1 167 1
  59 0024 1CE0     		b	.L5
  60              	.L2:
 150:../Shared/Libraries/STM32F4xx_StdPeriph_Driver/src/stm32f4xx_i2c.c ****   {
  61              		.loc 1 150 11
ARM GAS  /tmp/ccYPoyit.s 			page 5


  62 0026 7B68     		ldr	r3, [r7, #4]
  63 0028 104A     		ldr	r2, .L6+4
  64 002a 9342     		cmp	r3, r2
  65 002c 0AD1     		bne	.L4
 153:../Shared/Libraries/STM32F4xx_StdPeriph_Driver/src/stm32f4xx_i2c.c ****     /* Release I2C2 from reset state */
  66              		.loc 1 153 5
  67 002e 0121     		movs	r1, #1
  68 0030 4FF48000 		mov	r0, #4194304
  69 0034 FFF7FEFF 		bl	RCC_APB1PeriphResetCmd
 155:../Shared/Libraries/STM32F4xx_StdPeriph_Driver/src/stm32f4xx_i2c.c ****   }
  70              		.loc 1 155 5
  71 0038 0021     		movs	r1, #0
  72 003a 4FF48000 		mov	r0, #4194304
  73 003e FFF7FEFF 		bl	RCC_APB1PeriphResetCmd
  74              		.loc 1 167 1
  75 0042 0DE0     		b	.L5
  76              	.L4:
 159:../Shared/Libraries/STM32F4xx_StdPeriph_Driver/src/stm32f4xx_i2c.c ****     {
  77              		.loc 1 159 8
  78 0044 7B68     		ldr	r3, [r7, #4]
  79 0046 0A4A     		ldr	r2, .L6+8
  80 0048 9342     		cmp	r3, r2
  81 004a 09D1     		bne	.L5
 162:../Shared/Libraries/STM32F4xx_StdPeriph_Driver/src/stm32f4xx_i2c.c ****       /* Release I2C3 from reset state */
  82              		.loc 1 162 7
  83 004c 0121     		movs	r1, #1
  84 004e 4FF40000 		mov	r0, #8388608
  85 0052 FFF7FEFF 		bl	RCC_APB1PeriphResetCmd
 164:../Shared/Libraries/STM32F4xx_StdPeriph_Driver/src/stm32f4xx_i2c.c ****     }
  86              		.loc 1 164 7
  87 0056 0021     		movs	r1, #0
  88 0058 4FF40000 		mov	r0, #8388608
  89 005c FFF7FEFF 		bl	RCC_APB1PeriphResetCmd
  90              	.L5:
  91              		.loc 1 167 1
  92 0060 00BF     		nop
  93 0062 0837     		adds	r7, r7, #8
  94              	.LCFI3:
  95              		.cfi_def_cfa_offset 8
  96 0064 BD46     		mov	sp, r7
  97              	.LCFI4:
  98              		.cfi_def_cfa_register 13
  99              		@ sp needed
 100 0066 80BD     		pop	{r7, pc}
 101              	.L7:
 102              		.align	2
 103              	.L6:
 104 0068 00540040 		.word	1073763328
 105 006c 00580040 		.word	1073764352
 106 0070 005C0040 		.word	1073765376
 107              		.cfi_endproc
 108              	.LFE110:
 110              		.section	.text.I2C_Init,"ax",%progbits
 111              		.align	1
 112              		.global	I2C_Init
 113              		.syntax unified
 114              		.thumb
ARM GAS  /tmp/ccYPoyit.s 			page 6


 115              		.thumb_func
 117              	I2C_Init:
 118              	.LFB111:
 168:../Shared/Libraries/STM32F4xx_StdPeriph_Driver/src/stm32f4xx_i2c.c **** 
 169:../Shared/Libraries/STM32F4xx_StdPeriph_Driver/src/stm32f4xx_i2c.c **** /**
 170:../Shared/Libraries/STM32F4xx_StdPeriph_Driver/src/stm32f4xx_i2c.c ****   * @brief  Initializes the I2Cx peripheral according to the specified 
 171:../Shared/Libraries/STM32F4xx_StdPeriph_Driver/src/stm32f4xx_i2c.c ****   *         parameters in the I2C_InitStruct.
 172:../Shared/Libraries/STM32F4xx_StdPeriph_Driver/src/stm32f4xx_i2c.c ****   *           
 173:../Shared/Libraries/STM32F4xx_StdPeriph_Driver/src/stm32f4xx_i2c.c ****   * @note   To use the I2C at 400 KHz (in fast mode), the PCLK1 frequency 
 174:../Shared/Libraries/STM32F4xx_StdPeriph_Driver/src/stm32f4xx_i2c.c ****   *         (I2C peripheral input clock) must be a multiple of 10 MHz.  
 175:../Shared/Libraries/STM32F4xx_StdPeriph_Driver/src/stm32f4xx_i2c.c ****   *           
 176:../Shared/Libraries/STM32F4xx_StdPeriph_Driver/src/stm32f4xx_i2c.c ****   * @param  I2Cx: where x can be 1, 2 or 3 to select the I2C peripheral.
 177:../Shared/Libraries/STM32F4xx_StdPeriph_Driver/src/stm32f4xx_i2c.c ****   * @param  I2C_InitStruct: pointer to a I2C_InitTypeDef structure that contains 
 178:../Shared/Libraries/STM32F4xx_StdPeriph_Driver/src/stm32f4xx_i2c.c ****   *         the configuration information for the specified I2C peripheral.
 179:../Shared/Libraries/STM32F4xx_StdPeriph_Driver/src/stm32f4xx_i2c.c ****   * @retval None
 180:../Shared/Libraries/STM32F4xx_StdPeriph_Driver/src/stm32f4xx_i2c.c ****   */
 181:../Shared/Libraries/STM32F4xx_StdPeriph_Driver/src/stm32f4xx_i2c.c **** void I2C_Init(I2C_TypeDef* I2Cx, I2C_InitTypeDef* I2C_InitStruct)
 182:../Shared/Libraries/STM32F4xx_StdPeriph_Driver/src/stm32f4xx_i2c.c **** {
 119              		.loc 1 182 1
 120              		.cfi_startproc
 121              		@ args = 0, pretend = 0, frame = 40
 122              		@ frame_needed = 1, uses_anonymous_args = 0
 123 0000 80B5     		push	{r7, lr}
 124              	.LCFI5:
 125              		.cfi_def_cfa_offset 8
 126              		.cfi_offset 7, -8
 127              		.cfi_offset 14, -4
 128 0002 8AB0     		sub	sp, sp, #40
 129              	.LCFI6:
 130              		.cfi_def_cfa_offset 48
 131 0004 00AF     		add	r7, sp, #0
 132              	.LCFI7:
 133              		.cfi_def_cfa_register 7
 134 0006 7860     		str	r0, [r7, #4]
 135 0008 3960     		str	r1, [r7]
 183:../Shared/Libraries/STM32F4xx_StdPeriph_Driver/src/stm32f4xx_i2c.c ****   uint16_t tmpreg = 0, freqrange = 0;
 136              		.loc 1 183 12
 137 000a 0023     		movs	r3, #0
 138 000c FB84     		strh	r3, [r7, #38]	@ movhi
 139              		.loc 1 183 24
 140 000e 0023     		movs	r3, #0
 141 0010 7B84     		strh	r3, [r7, #34]	@ movhi
 184:../Shared/Libraries/STM32F4xx_StdPeriph_Driver/src/stm32f4xx_i2c.c ****   uint16_t result = 0x04;
 142              		.loc 1 184 12
 143 0012 0423     		movs	r3, #4
 144 0014 BB84     		strh	r3, [r7, #36]	@ movhi
 185:../Shared/Libraries/STM32F4xx_StdPeriph_Driver/src/stm32f4xx_i2c.c ****   uint32_t pclk1 = 8000000;
 145              		.loc 1 185 12
 146 0016 574B     		ldr	r3, .L15
 147 0018 FB61     		str	r3, [r7, #28]
 186:../Shared/Libraries/STM32F4xx_StdPeriph_Driver/src/stm32f4xx_i2c.c ****   RCC_ClocksTypeDef  rcc_clocks;
 187:../Shared/Libraries/STM32F4xx_StdPeriph_Driver/src/stm32f4xx_i2c.c ****   /* Check the parameters */
 188:../Shared/Libraries/STM32F4xx_StdPeriph_Driver/src/stm32f4xx_i2c.c ****   assert_param(IS_I2C_ALL_PERIPH(I2Cx));
 189:../Shared/Libraries/STM32F4xx_StdPeriph_Driver/src/stm32f4xx_i2c.c ****   assert_param(IS_I2C_CLOCK_SPEED(I2C_InitStruct->I2C_ClockSpeed));
 190:../Shared/Libraries/STM32F4xx_StdPeriph_Driver/src/stm32f4xx_i2c.c ****   assert_param(IS_I2C_MODE(I2C_InitStruct->I2C_Mode));
 191:../Shared/Libraries/STM32F4xx_StdPeriph_Driver/src/stm32f4xx_i2c.c ****   assert_param(IS_I2C_DUTY_CYCLE(I2C_InitStruct->I2C_DutyCycle));
 192:../Shared/Libraries/STM32F4xx_StdPeriph_Driver/src/stm32f4xx_i2c.c ****   assert_param(IS_I2C_OWN_ADDRESS1(I2C_InitStruct->I2C_OwnAddress1));
ARM GAS  /tmp/ccYPoyit.s 			page 7


 193:../Shared/Libraries/STM32F4xx_StdPeriph_Driver/src/stm32f4xx_i2c.c ****   assert_param(IS_I2C_ACK_STATE(I2C_InitStruct->I2C_Ack));
 194:../Shared/Libraries/STM32F4xx_StdPeriph_Driver/src/stm32f4xx_i2c.c ****   assert_param(IS_I2C_ACKNOWLEDGE_ADDRESS(I2C_InitStruct->I2C_AcknowledgedAddress));
 195:../Shared/Libraries/STM32F4xx_StdPeriph_Driver/src/stm32f4xx_i2c.c **** 
 196:../Shared/Libraries/STM32F4xx_StdPeriph_Driver/src/stm32f4xx_i2c.c **** /*---------------------------- I2Cx CR2 Configuration ------------------------*/
 197:../Shared/Libraries/STM32F4xx_StdPeriph_Driver/src/stm32f4xx_i2c.c ****   /* Get the I2Cx CR2 value */
 198:../Shared/Libraries/STM32F4xx_StdPeriph_Driver/src/stm32f4xx_i2c.c ****   tmpreg = I2Cx->CR2;
 148              		.loc 1 198 10
 149 001a 7B68     		ldr	r3, [r7, #4]
 150 001c 9B88     		ldrh	r3, [r3, #4]	@ movhi
 151 001e FB84     		strh	r3, [r7, #38]	@ movhi
 199:../Shared/Libraries/STM32F4xx_StdPeriph_Driver/src/stm32f4xx_i2c.c ****   /* Clear frequency FREQ[5:0] bits */
 200:../Shared/Libraries/STM32F4xx_StdPeriph_Driver/src/stm32f4xx_i2c.c ****   tmpreg &= (uint16_t)~((uint16_t)I2C_CR2_FREQ);
 152              		.loc 1 200 10
 153 0020 FB8C     		ldrh	r3, [r7, #38]	@ movhi
 154 0022 23F03F03 		bic	r3, r3, #63
 155 0026 FB84     		strh	r3, [r7, #38]	@ movhi
 201:../Shared/Libraries/STM32F4xx_StdPeriph_Driver/src/stm32f4xx_i2c.c ****   /* Get pclk1 frequency value */
 202:../Shared/Libraries/STM32F4xx_StdPeriph_Driver/src/stm32f4xx_i2c.c ****   RCC_GetClocksFreq(&rcc_clocks);
 156              		.loc 1 202 3
 157 0028 07F10C03 		add	r3, r7, #12
 158 002c 1846     		mov	r0, r3
 159 002e FFF7FEFF 		bl	RCC_GetClocksFreq
 203:../Shared/Libraries/STM32F4xx_StdPeriph_Driver/src/stm32f4xx_i2c.c ****   pclk1 = rcc_clocks.PCLK1_Frequency;
 160              		.loc 1 203 9
 161 0032 7B69     		ldr	r3, [r7, #20]
 162 0034 FB61     		str	r3, [r7, #28]
 204:../Shared/Libraries/STM32F4xx_StdPeriph_Driver/src/stm32f4xx_i2c.c ****   /* Set frequency bits depending on pclk1 value */
 205:../Shared/Libraries/STM32F4xx_StdPeriph_Driver/src/stm32f4xx_i2c.c ****   freqrange = (uint16_t)(pclk1 / 1000000);
 163              		.loc 1 205 32
 164 0036 FB69     		ldr	r3, [r7, #28]
 165 0038 4F4A     		ldr	r2, .L15+4
 166 003a A2FB0323 		umull	r2, r3, r2, r3
 167 003e 9B0C     		lsrs	r3, r3, #18
 168              		.loc 1 205 13
 169 0040 7B84     		strh	r3, [r7, #34]	@ movhi
 206:../Shared/Libraries/STM32F4xx_StdPeriph_Driver/src/stm32f4xx_i2c.c ****   tmpreg |= freqrange;
 170              		.loc 1 206 10
 171 0042 FA8C     		ldrh	r2, [r7, #38]	@ movhi
 172 0044 7B8C     		ldrh	r3, [r7, #34]	@ movhi
 173 0046 1343     		orrs	r3, r3, r2
 174 0048 FB84     		strh	r3, [r7, #38]	@ movhi
 207:../Shared/Libraries/STM32F4xx_StdPeriph_Driver/src/stm32f4xx_i2c.c ****   /* Write to I2Cx CR2 */
 208:../Shared/Libraries/STM32F4xx_StdPeriph_Driver/src/stm32f4xx_i2c.c ****   I2Cx->CR2 = tmpreg;
 175              		.loc 1 208 13
 176 004a 7B68     		ldr	r3, [r7, #4]
 177 004c FA8C     		ldrh	r2, [r7, #38]	@ movhi
 178 004e 9A80     		strh	r2, [r3, #4]	@ movhi
 209:../Shared/Libraries/STM32F4xx_StdPeriph_Driver/src/stm32f4xx_i2c.c **** 
 210:../Shared/Libraries/STM32F4xx_StdPeriph_Driver/src/stm32f4xx_i2c.c **** /*---------------------------- I2Cx CCR Configuration ------------------------*/
 211:../Shared/Libraries/STM32F4xx_StdPeriph_Driver/src/stm32f4xx_i2c.c ****   /* Disable the selected I2C peripheral to configure TRISE */
 212:../Shared/Libraries/STM32F4xx_StdPeriph_Driver/src/stm32f4xx_i2c.c ****   I2Cx->CR1 &= (uint16_t)~((uint16_t)I2C_CR1_PE);
 179              		.loc 1 212 7
 180 0050 7B68     		ldr	r3, [r7, #4]
 181 0052 1B88     		ldrh	r3, [r3]	@ movhi
 182 0054 9BB2     		uxth	r3, r3
 183              		.loc 1 212 13
 184 0056 23F00103 		bic	r3, r3, #1
ARM GAS  /tmp/ccYPoyit.s 			page 8


 185 005a 9AB2     		uxth	r2, r3
 186 005c 7B68     		ldr	r3, [r7, #4]
 187 005e 1A80     		strh	r2, [r3]	@ movhi
 213:../Shared/Libraries/STM32F4xx_StdPeriph_Driver/src/stm32f4xx_i2c.c ****   /* Reset tmpreg value */
 214:../Shared/Libraries/STM32F4xx_StdPeriph_Driver/src/stm32f4xx_i2c.c ****   /* Clear F/S, DUTY and CCR[11:0] bits */
 215:../Shared/Libraries/STM32F4xx_StdPeriph_Driver/src/stm32f4xx_i2c.c ****   tmpreg = 0;
 188              		.loc 1 215 10
 189 0060 0023     		movs	r3, #0
 190 0062 FB84     		strh	r3, [r7, #38]	@ movhi
 216:../Shared/Libraries/STM32F4xx_StdPeriph_Driver/src/stm32f4xx_i2c.c **** 
 217:../Shared/Libraries/STM32F4xx_StdPeriph_Driver/src/stm32f4xx_i2c.c ****   /* Configure speed in standard mode */
 218:../Shared/Libraries/STM32F4xx_StdPeriph_Driver/src/stm32f4xx_i2c.c ****   if (I2C_InitStruct->I2C_ClockSpeed <= 100000)
 191              		.loc 1 218 21
 192 0064 3B68     		ldr	r3, [r7]
 193 0066 1B68     		ldr	r3, [r3]
 194              		.loc 1 218 6
 195 0068 444A     		ldr	r2, .L15+8
 196 006a 9342     		cmp	r3, r2
 197 006c 15D8     		bhi	.L9
 219:../Shared/Libraries/STM32F4xx_StdPeriph_Driver/src/stm32f4xx_i2c.c ****   {
 220:../Shared/Libraries/STM32F4xx_StdPeriph_Driver/src/stm32f4xx_i2c.c ****     /* Standard mode speed calculate */
 221:../Shared/Libraries/STM32F4xx_StdPeriph_Driver/src/stm32f4xx_i2c.c ****     result = (uint16_t)(pclk1 / (I2C_InitStruct->I2C_ClockSpeed << 1));
 198              		.loc 1 221 48
 199 006e 3B68     		ldr	r3, [r7]
 200 0070 1B68     		ldr	r3, [r3]
 201              		.loc 1 221 65
 202 0072 5B00     		lsls	r3, r3, #1
 203              		.loc 1 221 31
 204 0074 FA69     		ldr	r2, [r7, #28]
 205 0076 B2FBF3F3 		udiv	r3, r2, r3
 206              		.loc 1 221 12
 207 007a BB84     		strh	r3, [r7, #36]	@ movhi
 222:../Shared/Libraries/STM32F4xx_StdPeriph_Driver/src/stm32f4xx_i2c.c ****     /* Test if CCR value is under 0x4*/
 223:../Shared/Libraries/STM32F4xx_StdPeriph_Driver/src/stm32f4xx_i2c.c ****     if (result < 0x04)
 208              		.loc 1 223 8
 209 007c BB8C     		ldrh	r3, [r7, #36]
 210 007e 032B     		cmp	r3, #3
 211 0080 01D8     		bhi	.L10
 224:../Shared/Libraries/STM32F4xx_StdPeriph_Driver/src/stm32f4xx_i2c.c ****     {
 225:../Shared/Libraries/STM32F4xx_StdPeriph_Driver/src/stm32f4xx_i2c.c ****       /* Set minimum allowed value */
 226:../Shared/Libraries/STM32F4xx_StdPeriph_Driver/src/stm32f4xx_i2c.c ****       result = 0x04;  
 212              		.loc 1 226 14
 213 0082 0423     		movs	r3, #4
 214 0084 BB84     		strh	r3, [r7, #36]	@ movhi
 215              	.L10:
 227:../Shared/Libraries/STM32F4xx_StdPeriph_Driver/src/stm32f4xx_i2c.c ****     }
 228:../Shared/Libraries/STM32F4xx_StdPeriph_Driver/src/stm32f4xx_i2c.c ****     /* Set speed value for standard mode */
 229:../Shared/Libraries/STM32F4xx_StdPeriph_Driver/src/stm32f4xx_i2c.c ****     tmpreg |= result;	  
 216              		.loc 1 229 12
 217 0086 FA8C     		ldrh	r2, [r7, #38]	@ movhi
 218 0088 BB8C     		ldrh	r3, [r7, #36]	@ movhi
 219 008a 1343     		orrs	r3, r3, r2
 220 008c FB84     		strh	r3, [r7, #38]	@ movhi
 230:../Shared/Libraries/STM32F4xx_StdPeriph_Driver/src/stm32f4xx_i2c.c ****     /* Set Maximum Rise Time for standard mode */
 231:../Shared/Libraries/STM32F4xx_StdPeriph_Driver/src/stm32f4xx_i2c.c ****     I2Cx->TRISE = freqrange + 1; 
 221              		.loc 1 231 29
 222 008e 7B8C     		ldrh	r3, [r7, #34]	@ movhi
ARM GAS  /tmp/ccYPoyit.s 			page 9


 223 0090 0133     		adds	r3, r3, #1
 224 0092 9AB2     		uxth	r2, r3
 225              		.loc 1 231 17
 226 0094 7B68     		ldr	r3, [r7, #4]
 227 0096 1A84     		strh	r2, [r3, #32]	@ movhi
 228 0098 40E0     		b	.L11
 229              	.L9:
 232:../Shared/Libraries/STM32F4xx_StdPeriph_Driver/src/stm32f4xx_i2c.c ****   }
 233:../Shared/Libraries/STM32F4xx_StdPeriph_Driver/src/stm32f4xx_i2c.c ****   /* Configure speed in fast mode */
 234:../Shared/Libraries/STM32F4xx_StdPeriph_Driver/src/stm32f4xx_i2c.c ****   /* To use the I2C at 400 KHz (in fast mode), the PCLK1 frequency (I2C peripheral
 235:../Shared/Libraries/STM32F4xx_StdPeriph_Driver/src/stm32f4xx_i2c.c ****      input clock) must be a multiple of 10 MHz */
 236:../Shared/Libraries/STM32F4xx_StdPeriph_Driver/src/stm32f4xx_i2c.c ****   else /*(I2C_InitStruct->I2C_ClockSpeed <= 400000)*/
 237:../Shared/Libraries/STM32F4xx_StdPeriph_Driver/src/stm32f4xx_i2c.c ****   {
 238:../Shared/Libraries/STM32F4xx_StdPeriph_Driver/src/stm32f4xx_i2c.c ****     if (I2C_InitStruct->I2C_DutyCycle == I2C_DutyCycle_2)
 230              		.loc 1 238 23
 231 009a 3B68     		ldr	r3, [r7]
 232 009c DB88     		ldrh	r3, [r3, #6]
 233              		.loc 1 238 8
 234 009e 4BF6FF72 		movw	r2, #49151
 235 00a2 9342     		cmp	r3, r2
 236 00a4 09D1     		bne	.L12
 239:../Shared/Libraries/STM32F4xx_StdPeriph_Driver/src/stm32f4xx_i2c.c ****     {
 240:../Shared/Libraries/STM32F4xx_StdPeriph_Driver/src/stm32f4xx_i2c.c ****       /* Fast mode speed calculate: Tlow/Thigh = 2 */
 241:../Shared/Libraries/STM32F4xx_StdPeriph_Driver/src/stm32f4xx_i2c.c ****       result = (uint16_t)(pclk1 / (I2C_InitStruct->I2C_ClockSpeed * 3));
 237              		.loc 1 241 50
 238 00a6 3B68     		ldr	r3, [r7]
 239 00a8 1A68     		ldr	r2, [r3]
 240              		.loc 1 241 67
 241 00aa 1346     		mov	r3, r2
 242 00ac 5B00     		lsls	r3, r3, #1
 243 00ae 1344     		add	r3, r3, r2
 244              		.loc 1 241 33
 245 00b0 FA69     		ldr	r2, [r7, #28]
 246 00b2 B2FBF3F3 		udiv	r3, r2, r3
 247              		.loc 1 241 14
 248 00b6 BB84     		strh	r3, [r7, #36]	@ movhi
 249 00b8 0EE0     		b	.L13
 250              	.L12:
 242:../Shared/Libraries/STM32F4xx_StdPeriph_Driver/src/stm32f4xx_i2c.c ****     }
 243:../Shared/Libraries/STM32F4xx_StdPeriph_Driver/src/stm32f4xx_i2c.c ****     else /*I2C_InitStruct->I2C_DutyCycle == I2C_DutyCycle_16_9*/
 244:../Shared/Libraries/STM32F4xx_StdPeriph_Driver/src/stm32f4xx_i2c.c ****     {
 245:../Shared/Libraries/STM32F4xx_StdPeriph_Driver/src/stm32f4xx_i2c.c ****       /* Fast mode speed calculate: Tlow/Thigh = 16/9 */
 246:../Shared/Libraries/STM32F4xx_StdPeriph_Driver/src/stm32f4xx_i2c.c ****       result = (uint16_t)(pclk1 / (I2C_InitStruct->I2C_ClockSpeed * 25));
 251              		.loc 1 246 50
 252 00ba 3B68     		ldr	r3, [r7]
 253 00bc 1A68     		ldr	r2, [r3]
 254              		.loc 1 246 67
 255 00be 1346     		mov	r3, r2
 256 00c0 9B00     		lsls	r3, r3, #2
 257 00c2 1344     		add	r3, r3, r2
 258 00c4 9A00     		lsls	r2, r3, #2
 259 00c6 1344     		add	r3, r3, r2
 260              		.loc 1 246 33
 261 00c8 FA69     		ldr	r2, [r7, #28]
 262 00ca B2FBF3F3 		udiv	r3, r2, r3
 263              		.loc 1 246 14
 264 00ce BB84     		strh	r3, [r7, #36]	@ movhi
ARM GAS  /tmp/ccYPoyit.s 			page 10


 247:../Shared/Libraries/STM32F4xx_StdPeriph_Driver/src/stm32f4xx_i2c.c ****       /* Set DUTY bit */
 248:../Shared/Libraries/STM32F4xx_StdPeriph_Driver/src/stm32f4xx_i2c.c ****       result |= I2C_DutyCycle_16_9;
 265              		.loc 1 248 14
 266 00d0 BB8C     		ldrh	r3, [r7, #36]	@ movhi
 267 00d2 43F48043 		orr	r3, r3, #16384
 268 00d6 BB84     		strh	r3, [r7, #36]	@ movhi
 269              	.L13:
 249:../Shared/Libraries/STM32F4xx_StdPeriph_Driver/src/stm32f4xx_i2c.c ****     }
 250:../Shared/Libraries/STM32F4xx_StdPeriph_Driver/src/stm32f4xx_i2c.c **** 
 251:../Shared/Libraries/STM32F4xx_StdPeriph_Driver/src/stm32f4xx_i2c.c ****     /* Test if CCR value is under 0x1*/
 252:../Shared/Libraries/STM32F4xx_StdPeriph_Driver/src/stm32f4xx_i2c.c ****     if ((result & I2C_CCR_CCR) == 0)
 270              		.loc 1 252 17
 271 00d8 BB8C     		ldrh	r3, [r7, #36]
 272 00da C3F30B03 		ubfx	r3, r3, #0, #12
 273              		.loc 1 252 8
 274 00de 002B     		cmp	r3, #0
 275 00e0 03D1     		bne	.L14
 253:../Shared/Libraries/STM32F4xx_StdPeriph_Driver/src/stm32f4xx_i2c.c ****     {
 254:../Shared/Libraries/STM32F4xx_StdPeriph_Driver/src/stm32f4xx_i2c.c ****       /* Set minimum allowed value */
 255:../Shared/Libraries/STM32F4xx_StdPeriph_Driver/src/stm32f4xx_i2c.c ****       result |= (uint16_t)0x0001;  
 276              		.loc 1 255 14
 277 00e2 BB8C     		ldrh	r3, [r7, #36]	@ movhi
 278 00e4 43F00103 		orr	r3, r3, #1
 279 00e8 BB84     		strh	r3, [r7, #36]	@ movhi
 280              	.L14:
 256:../Shared/Libraries/STM32F4xx_StdPeriph_Driver/src/stm32f4xx_i2c.c ****     }
 257:../Shared/Libraries/STM32F4xx_StdPeriph_Driver/src/stm32f4xx_i2c.c ****     /* Set speed value and set F/S bit for fast mode */
 258:../Shared/Libraries/STM32F4xx_StdPeriph_Driver/src/stm32f4xx_i2c.c ****     tmpreg |= (uint16_t)(result | I2C_CCR_FS);
 281              		.loc 1 258 12
 282 00ea BA8C     		ldrh	r2, [r7, #36]	@ movhi
 283 00ec FB8C     		ldrh	r3, [r7, #38]	@ movhi
 284 00ee 1343     		orrs	r3, r3, r2
 285 00f0 9BB2     		uxth	r3, r3
 286 00f2 6FEA4343 		mvn	r3, r3, lsl #17
 287 00f6 6FEA5343 		mvn	r3, r3, lsr #17
 288 00fa FB84     		strh	r3, [r7, #38]	@ movhi
 259:../Shared/Libraries/STM32F4xx_StdPeriph_Driver/src/stm32f4xx_i2c.c ****     /* Set Maximum Rise Time for fast mode */
 260:../Shared/Libraries/STM32F4xx_StdPeriph_Driver/src/stm32f4xx_i2c.c ****     I2Cx->TRISE = (uint16_t)(((freqrange * (uint16_t)300) / (uint16_t)1000) + (uint16_t)1);  
 289              		.loc 1 260 42
 290 00fc 7B8C     		ldrh	r3, [r7, #34]
 291 00fe 4FF49672 		mov	r2, #300
 292 0102 02FB03F3 		mul	r3, r2, r3
 293              		.loc 1 260 59
 294 0106 1E4A     		ldr	r2, .L15+12
 295 0108 82FB0312 		smull	r1, r2, r2, r3
 296 010c 9211     		asrs	r2, r2, #6
 297 010e DB17     		asrs	r3, r3, #31
 298 0110 D31A     		subs	r3, r2, r3
 299              		.loc 1 260 19
 300 0112 9BB2     		uxth	r3, r3
 301 0114 0133     		adds	r3, r3, #1
 302 0116 9AB2     		uxth	r2, r3
 303              		.loc 1 260 17
 304 0118 7B68     		ldr	r3, [r7, #4]
 305 011a 1A84     		strh	r2, [r3, #32]	@ movhi
 306              	.L11:
 261:../Shared/Libraries/STM32F4xx_StdPeriph_Driver/src/stm32f4xx_i2c.c ****   }
ARM GAS  /tmp/ccYPoyit.s 			page 11


 262:../Shared/Libraries/STM32F4xx_StdPeriph_Driver/src/stm32f4xx_i2c.c **** 
 263:../Shared/Libraries/STM32F4xx_StdPeriph_Driver/src/stm32f4xx_i2c.c ****   /* Write to I2Cx CCR */
 264:../Shared/Libraries/STM32F4xx_StdPeriph_Driver/src/stm32f4xx_i2c.c ****   I2Cx->CCR = tmpreg;
 307              		.loc 1 264 13
 308 011c 7B68     		ldr	r3, [r7, #4]
 309 011e FA8C     		ldrh	r2, [r7, #38]	@ movhi
 310 0120 9A83     		strh	r2, [r3, #28]	@ movhi
 265:../Shared/Libraries/STM32F4xx_StdPeriph_Driver/src/stm32f4xx_i2c.c ****   /* Enable the selected I2C peripheral */
 266:../Shared/Libraries/STM32F4xx_StdPeriph_Driver/src/stm32f4xx_i2c.c ****   I2Cx->CR1 |= I2C_CR1_PE;
 311              		.loc 1 266 7
 312 0122 7B68     		ldr	r3, [r7, #4]
 313 0124 1B88     		ldrh	r3, [r3]	@ movhi
 314 0126 9BB2     		uxth	r3, r3
 315              		.loc 1 266 13
 316 0128 43F00103 		orr	r3, r3, #1
 317 012c 9AB2     		uxth	r2, r3
 318 012e 7B68     		ldr	r3, [r7, #4]
 319 0130 1A80     		strh	r2, [r3]	@ movhi
 267:../Shared/Libraries/STM32F4xx_StdPeriph_Driver/src/stm32f4xx_i2c.c **** 
 268:../Shared/Libraries/STM32F4xx_StdPeriph_Driver/src/stm32f4xx_i2c.c **** /*---------------------------- I2Cx CR1 Configuration ------------------------*/
 269:../Shared/Libraries/STM32F4xx_StdPeriph_Driver/src/stm32f4xx_i2c.c ****   /* Get the I2Cx CR1 value */
 270:../Shared/Libraries/STM32F4xx_StdPeriph_Driver/src/stm32f4xx_i2c.c ****   tmpreg = I2Cx->CR1;
 320              		.loc 1 270 10
 321 0132 7B68     		ldr	r3, [r7, #4]
 322 0134 1B88     		ldrh	r3, [r3]	@ movhi
 323 0136 FB84     		strh	r3, [r7, #38]	@ movhi
 271:../Shared/Libraries/STM32F4xx_StdPeriph_Driver/src/stm32f4xx_i2c.c ****   /* Clear ACK, SMBTYPE and  SMBUS bits */
 272:../Shared/Libraries/STM32F4xx_StdPeriph_Driver/src/stm32f4xx_i2c.c ****   tmpreg &= CR1_CLEAR_MASK;
 324              		.loc 1 272 10
 325 0138 FB8C     		ldrh	r3, [r7, #38]	@ movhi
 326 013a 23F48163 		bic	r3, r3, #1032
 327 013e 23F00203 		bic	r3, r3, #2
 328 0142 FB84     		strh	r3, [r7, #38]	@ movhi
 273:../Shared/Libraries/STM32F4xx_StdPeriph_Driver/src/stm32f4xx_i2c.c ****   /* Configure I2Cx: mode and acknowledgement */
 274:../Shared/Libraries/STM32F4xx_StdPeriph_Driver/src/stm32f4xx_i2c.c ****   /* Set SMBTYPE and SMBUS bits according to I2C_Mode value */
 275:../Shared/Libraries/STM32F4xx_StdPeriph_Driver/src/stm32f4xx_i2c.c ****   /* Set ACK bit according to I2C_Ack value */
 276:../Shared/Libraries/STM32F4xx_StdPeriph_Driver/src/stm32f4xx_i2c.c ****   tmpreg |= (uint16_t)((uint32_t)I2C_InitStruct->I2C_Mode | I2C_InitStruct->I2C_Ack);
 329              		.loc 1 276 48
 330 0144 3B68     		ldr	r3, [r7]
 331 0146 9A88     		ldrh	r2, [r3, #4]
 332              		.loc 1 276 75
 333 0148 3B68     		ldr	r3, [r7]
 334 014a 5B89     		ldrh	r3, [r3, #10]
 335              		.loc 1 276 13
 336 014c 1343     		orrs	r3, r3, r2
 337 014e 9AB2     		uxth	r2, r3
 338              		.loc 1 276 10
 339 0150 FB8C     		ldrh	r3, [r7, #38]	@ movhi
 340 0152 1343     		orrs	r3, r3, r2
 341 0154 FB84     		strh	r3, [r7, #38]	@ movhi
 277:../Shared/Libraries/STM32F4xx_StdPeriph_Driver/src/stm32f4xx_i2c.c ****   /* Write to I2Cx CR1 */
 278:../Shared/Libraries/STM32F4xx_StdPeriph_Driver/src/stm32f4xx_i2c.c ****   I2Cx->CR1 = tmpreg;
 342              		.loc 1 278 13
 343 0156 7B68     		ldr	r3, [r7, #4]
 344 0158 FA8C     		ldrh	r2, [r7, #38]	@ movhi
 345 015a 1A80     		strh	r2, [r3]	@ movhi
 279:../Shared/Libraries/STM32F4xx_StdPeriph_Driver/src/stm32f4xx_i2c.c **** 
ARM GAS  /tmp/ccYPoyit.s 			page 12


 280:../Shared/Libraries/STM32F4xx_StdPeriph_Driver/src/stm32f4xx_i2c.c **** /*---------------------------- I2Cx OAR1 Configuration -----------------------*/
 281:../Shared/Libraries/STM32F4xx_StdPeriph_Driver/src/stm32f4xx_i2c.c ****   /* Set I2Cx Own Address1 and acknowledged address */
 282:../Shared/Libraries/STM32F4xx_StdPeriph_Driver/src/stm32f4xx_i2c.c ****   I2Cx->OAR1 = (I2C_InitStruct->I2C_AcknowledgedAddress | I2C_InitStruct->I2C_OwnAddress1);
 346              		.loc 1 282 31
 347 015c 3B68     		ldr	r3, [r7]
 348 015e 9A89     		ldrh	r2, [r3, #12]
 349              		.loc 1 282 73
 350 0160 3B68     		ldr	r3, [r7]
 351 0162 1B89     		ldrh	r3, [r3, #8]
 352              		.loc 1 282 14
 353 0164 1343     		orrs	r3, r3, r2
 354 0166 9AB2     		uxth	r2, r3
 355 0168 7B68     		ldr	r3, [r7, #4]
 356 016a 1A81     		strh	r2, [r3, #8]	@ movhi
 283:../Shared/Libraries/STM32F4xx_StdPeriph_Driver/src/stm32f4xx_i2c.c **** }
 357              		.loc 1 283 1
 358 016c 00BF     		nop
 359 016e 2837     		adds	r7, r7, #40
 360              	.LCFI8:
 361              		.cfi_def_cfa_offset 8
 362 0170 BD46     		mov	sp, r7
 363              	.LCFI9:
 364              		.cfi_def_cfa_register 13
 365              		@ sp needed
 366 0172 80BD     		pop	{r7, pc}
 367              	.L16:
 368              		.align	2
 369              	.L15:
 370 0174 00127A00 		.word	8000000
 371 0178 83DE1B43 		.word	1125899907
 372 017c A0860100 		.word	100000
 373 0180 D34D6210 		.word	274877907
 374              		.cfi_endproc
 375              	.LFE111:
 377              		.section	.text.I2C_StructInit,"ax",%progbits
 378              		.align	1
 379              		.global	I2C_StructInit
 380              		.syntax unified
 381              		.thumb
 382              		.thumb_func
 384              	I2C_StructInit:
 385              	.LFB112:
 284:../Shared/Libraries/STM32F4xx_StdPeriph_Driver/src/stm32f4xx_i2c.c **** 
 285:../Shared/Libraries/STM32F4xx_StdPeriph_Driver/src/stm32f4xx_i2c.c **** /**
 286:../Shared/Libraries/STM32F4xx_StdPeriph_Driver/src/stm32f4xx_i2c.c ****   * @brief  Fills each I2C_InitStruct member with its default value.
 287:../Shared/Libraries/STM32F4xx_StdPeriph_Driver/src/stm32f4xx_i2c.c ****   * @param  I2C_InitStruct: pointer to an I2C_InitTypeDef structure which will be initialized.
 288:../Shared/Libraries/STM32F4xx_StdPeriph_Driver/src/stm32f4xx_i2c.c ****   * @retval None
 289:../Shared/Libraries/STM32F4xx_StdPeriph_Driver/src/stm32f4xx_i2c.c ****   */
 290:../Shared/Libraries/STM32F4xx_StdPeriph_Driver/src/stm32f4xx_i2c.c **** void I2C_StructInit(I2C_InitTypeDef* I2C_InitStruct)
 291:../Shared/Libraries/STM32F4xx_StdPeriph_Driver/src/stm32f4xx_i2c.c **** {
 386              		.loc 1 291 1
 387              		.cfi_startproc
 388              		@ args = 0, pretend = 0, frame = 8
 389              		@ frame_needed = 1, uses_anonymous_args = 0
 390              		@ link register save eliminated.
 391 0000 80B4     		push	{r7}
 392              	.LCFI10:
ARM GAS  /tmp/ccYPoyit.s 			page 13


 393              		.cfi_def_cfa_offset 4
 394              		.cfi_offset 7, -4
 395 0002 83B0     		sub	sp, sp, #12
 396              	.LCFI11:
 397              		.cfi_def_cfa_offset 16
 398 0004 00AF     		add	r7, sp, #0
 399              	.LCFI12:
 400              		.cfi_def_cfa_register 7
 401 0006 7860     		str	r0, [r7, #4]
 292:../Shared/Libraries/STM32F4xx_StdPeriph_Driver/src/stm32f4xx_i2c.c **** /*---------------- Reset I2C init structure parameters values ----------------*/
 293:../Shared/Libraries/STM32F4xx_StdPeriph_Driver/src/stm32f4xx_i2c.c ****   /* initialize the I2C_ClockSpeed member */
 294:../Shared/Libraries/STM32F4xx_StdPeriph_Driver/src/stm32f4xx_i2c.c ****   I2C_InitStruct->I2C_ClockSpeed = 5000;
 402              		.loc 1 294 34
 403 0008 7B68     		ldr	r3, [r7, #4]
 404 000a 41F28832 		movw	r2, #5000
 405 000e 1A60     		str	r2, [r3]
 295:../Shared/Libraries/STM32F4xx_StdPeriph_Driver/src/stm32f4xx_i2c.c ****   /* Initialize the I2C_Mode member */
 296:../Shared/Libraries/STM32F4xx_StdPeriph_Driver/src/stm32f4xx_i2c.c ****   I2C_InitStruct->I2C_Mode = I2C_Mode_I2C;
 406              		.loc 1 296 28
 407 0010 7B68     		ldr	r3, [r7, #4]
 408 0012 0022     		movs	r2, #0
 409 0014 9A80     		strh	r2, [r3, #4]	@ movhi
 297:../Shared/Libraries/STM32F4xx_StdPeriph_Driver/src/stm32f4xx_i2c.c ****   /* Initialize the I2C_DutyCycle member */
 298:../Shared/Libraries/STM32F4xx_StdPeriph_Driver/src/stm32f4xx_i2c.c ****   I2C_InitStruct->I2C_DutyCycle = I2C_DutyCycle_2;
 410              		.loc 1 298 33
 411 0016 7B68     		ldr	r3, [r7, #4]
 412 0018 4BF6FF72 		movw	r2, #49151
 413 001c DA80     		strh	r2, [r3, #6]	@ movhi
 299:../Shared/Libraries/STM32F4xx_StdPeriph_Driver/src/stm32f4xx_i2c.c ****   /* Initialize the I2C_OwnAddress1 member */
 300:../Shared/Libraries/STM32F4xx_StdPeriph_Driver/src/stm32f4xx_i2c.c ****   I2C_InitStruct->I2C_OwnAddress1 = 0;
 414              		.loc 1 300 35
 415 001e 7B68     		ldr	r3, [r7, #4]
 416 0020 0022     		movs	r2, #0
 417 0022 1A81     		strh	r2, [r3, #8]	@ movhi
 301:../Shared/Libraries/STM32F4xx_StdPeriph_Driver/src/stm32f4xx_i2c.c ****   /* Initialize the I2C_Ack member */
 302:../Shared/Libraries/STM32F4xx_StdPeriph_Driver/src/stm32f4xx_i2c.c ****   I2C_InitStruct->I2C_Ack = I2C_Ack_Disable;
 418              		.loc 1 302 27
 419 0024 7B68     		ldr	r3, [r7, #4]
 420 0026 0022     		movs	r2, #0
 421 0028 5A81     		strh	r2, [r3, #10]	@ movhi
 303:../Shared/Libraries/STM32F4xx_StdPeriph_Driver/src/stm32f4xx_i2c.c ****   /* Initialize the I2C_AcknowledgedAddress member */
 304:../Shared/Libraries/STM32F4xx_StdPeriph_Driver/src/stm32f4xx_i2c.c ****   I2C_InitStruct->I2C_AcknowledgedAddress = I2C_AcknowledgedAddress_7bit;
 422              		.loc 1 304 43
 423 002a 7B68     		ldr	r3, [r7, #4]
 424 002c 4FF48042 		mov	r2, #16384
 425 0030 9A81     		strh	r2, [r3, #12]	@ movhi
 305:../Shared/Libraries/STM32F4xx_StdPeriph_Driver/src/stm32f4xx_i2c.c **** }
 426              		.loc 1 305 1
 427 0032 00BF     		nop
 428 0034 0C37     		adds	r7, r7, #12
 429              	.LCFI13:
 430              		.cfi_def_cfa_offset 4
 431 0036 BD46     		mov	sp, r7
 432              	.LCFI14:
 433              		.cfi_def_cfa_register 13
 434              		@ sp needed
 435 0038 5DF8047B 		ldr	r7, [sp], #4
ARM GAS  /tmp/ccYPoyit.s 			page 14


 436              	.LCFI15:
 437              		.cfi_restore 7
 438              		.cfi_def_cfa_offset 0
 439 003c 7047     		bx	lr
 440              		.cfi_endproc
 441              	.LFE112:
 443              		.section	.text.I2C_Cmd,"ax",%progbits
 444              		.align	1
 445              		.global	I2C_Cmd
 446              		.syntax unified
 447              		.thumb
 448              		.thumb_func
 450              	I2C_Cmd:
 451              	.LFB113:
 306:../Shared/Libraries/STM32F4xx_StdPeriph_Driver/src/stm32f4xx_i2c.c **** 
 307:../Shared/Libraries/STM32F4xx_StdPeriph_Driver/src/stm32f4xx_i2c.c **** /**
 308:../Shared/Libraries/STM32F4xx_StdPeriph_Driver/src/stm32f4xx_i2c.c ****   * @brief  Enables or disables the specified I2C peripheral.
 309:../Shared/Libraries/STM32F4xx_StdPeriph_Driver/src/stm32f4xx_i2c.c ****   * @param  I2Cx: where x can be 1, 2 or 3 to select the I2C peripheral.
 310:../Shared/Libraries/STM32F4xx_StdPeriph_Driver/src/stm32f4xx_i2c.c ****   * @param  NewState: new state of the I2Cx peripheral. 
 311:../Shared/Libraries/STM32F4xx_StdPeriph_Driver/src/stm32f4xx_i2c.c ****   *          This parameter can be: ENABLE or DISABLE.
 312:../Shared/Libraries/STM32F4xx_StdPeriph_Driver/src/stm32f4xx_i2c.c ****   * @retval None
 313:../Shared/Libraries/STM32F4xx_StdPeriph_Driver/src/stm32f4xx_i2c.c ****   */
 314:../Shared/Libraries/STM32F4xx_StdPeriph_Driver/src/stm32f4xx_i2c.c **** void I2C_Cmd(I2C_TypeDef* I2Cx, FunctionalState NewState)
 315:../Shared/Libraries/STM32F4xx_StdPeriph_Driver/src/stm32f4xx_i2c.c **** {
 452              		.loc 1 315 1
 453              		.cfi_startproc
 454              		@ args = 0, pretend = 0, frame = 8
 455              		@ frame_needed = 1, uses_anonymous_args = 0
 456              		@ link register save eliminated.
 457 0000 80B4     		push	{r7}
 458              	.LCFI16:
 459              		.cfi_def_cfa_offset 4
 460              		.cfi_offset 7, -4
 461 0002 83B0     		sub	sp, sp, #12
 462              	.LCFI17:
 463              		.cfi_def_cfa_offset 16
 464 0004 00AF     		add	r7, sp, #0
 465              	.LCFI18:
 466              		.cfi_def_cfa_register 7
 467 0006 7860     		str	r0, [r7, #4]
 468 0008 0B46     		mov	r3, r1
 469 000a FB70     		strb	r3, [r7, #3]
 316:../Shared/Libraries/STM32F4xx_StdPeriph_Driver/src/stm32f4xx_i2c.c ****   /* Check the parameters */
 317:../Shared/Libraries/STM32F4xx_StdPeriph_Driver/src/stm32f4xx_i2c.c ****   assert_param(IS_I2C_ALL_PERIPH(I2Cx));
 318:../Shared/Libraries/STM32F4xx_StdPeriph_Driver/src/stm32f4xx_i2c.c ****   assert_param(IS_FUNCTIONAL_STATE(NewState));
 319:../Shared/Libraries/STM32F4xx_StdPeriph_Driver/src/stm32f4xx_i2c.c ****   if (NewState != DISABLE)
 470              		.loc 1 319 6
 471 000c FB78     		ldrb	r3, [r7, #3]	@ zero_extendqisi2
 472 000e 002B     		cmp	r3, #0
 473 0010 08D0     		beq	.L19
 320:../Shared/Libraries/STM32F4xx_StdPeriph_Driver/src/stm32f4xx_i2c.c ****   {
 321:../Shared/Libraries/STM32F4xx_StdPeriph_Driver/src/stm32f4xx_i2c.c ****     /* Enable the selected I2C peripheral */
 322:../Shared/Libraries/STM32F4xx_StdPeriph_Driver/src/stm32f4xx_i2c.c ****     I2Cx->CR1 |= I2C_CR1_PE;
 474              		.loc 1 322 9
 475 0012 7B68     		ldr	r3, [r7, #4]
 476 0014 1B88     		ldrh	r3, [r3]	@ movhi
 477 0016 9BB2     		uxth	r3, r3
ARM GAS  /tmp/ccYPoyit.s 			page 15


 478              		.loc 1 322 15
 479 0018 43F00103 		orr	r3, r3, #1
 480 001c 9AB2     		uxth	r2, r3
 481 001e 7B68     		ldr	r3, [r7, #4]
 482 0020 1A80     		strh	r2, [r3]	@ movhi
 323:../Shared/Libraries/STM32F4xx_StdPeriph_Driver/src/stm32f4xx_i2c.c ****   }
 324:../Shared/Libraries/STM32F4xx_StdPeriph_Driver/src/stm32f4xx_i2c.c ****   else
 325:../Shared/Libraries/STM32F4xx_StdPeriph_Driver/src/stm32f4xx_i2c.c ****   {
 326:../Shared/Libraries/STM32F4xx_StdPeriph_Driver/src/stm32f4xx_i2c.c ****     /* Disable the selected I2C peripheral */
 327:../Shared/Libraries/STM32F4xx_StdPeriph_Driver/src/stm32f4xx_i2c.c ****     I2Cx->CR1 &= (uint16_t)~((uint16_t)I2C_CR1_PE);
 328:../Shared/Libraries/STM32F4xx_StdPeriph_Driver/src/stm32f4xx_i2c.c ****   }
 329:../Shared/Libraries/STM32F4xx_StdPeriph_Driver/src/stm32f4xx_i2c.c **** }
 483              		.loc 1 329 1
 484 0022 07E0     		b	.L21
 485              	.L19:
 327:../Shared/Libraries/STM32F4xx_StdPeriph_Driver/src/stm32f4xx_i2c.c ****   }
 486              		.loc 1 327 9
 487 0024 7B68     		ldr	r3, [r7, #4]
 488 0026 1B88     		ldrh	r3, [r3]	@ movhi
 489 0028 9BB2     		uxth	r3, r3
 327:../Shared/Libraries/STM32F4xx_StdPeriph_Driver/src/stm32f4xx_i2c.c ****   }
 490              		.loc 1 327 15
 491 002a 23F00103 		bic	r3, r3, #1
 492 002e 9AB2     		uxth	r2, r3
 493 0030 7B68     		ldr	r3, [r7, #4]
 494 0032 1A80     		strh	r2, [r3]	@ movhi
 495              	.L21:
 496              		.loc 1 329 1
 497 0034 00BF     		nop
 498 0036 0C37     		adds	r7, r7, #12
 499              	.LCFI19:
 500              		.cfi_def_cfa_offset 4
 501 0038 BD46     		mov	sp, r7
 502              	.LCFI20:
 503              		.cfi_def_cfa_register 13
 504              		@ sp needed
 505 003a 5DF8047B 		ldr	r7, [sp], #4
 506              	.LCFI21:
 507              		.cfi_restore 7
 508              		.cfi_def_cfa_offset 0
 509 003e 7047     		bx	lr
 510              		.cfi_endproc
 511              	.LFE113:
 513              		.section	.text.I2C_GenerateSTART,"ax",%progbits
 514              		.align	1
 515              		.global	I2C_GenerateSTART
 516              		.syntax unified
 517              		.thumb
 518              		.thumb_func
 520              	I2C_GenerateSTART:
 521              	.LFB114:
 330:../Shared/Libraries/STM32F4xx_StdPeriph_Driver/src/stm32f4xx_i2c.c **** 
 331:../Shared/Libraries/STM32F4xx_StdPeriph_Driver/src/stm32f4xx_i2c.c **** /**
 332:../Shared/Libraries/STM32F4xx_StdPeriph_Driver/src/stm32f4xx_i2c.c ****   * @brief  Generates I2Cx communication START condition.
 333:../Shared/Libraries/STM32F4xx_StdPeriph_Driver/src/stm32f4xx_i2c.c ****   * @param  I2Cx: where x can be 1, 2 or 3 to select the I2C peripheral.
 334:../Shared/Libraries/STM32F4xx_StdPeriph_Driver/src/stm32f4xx_i2c.c ****   * @param  NewState: new state of the I2C START condition generation.
 335:../Shared/Libraries/STM32F4xx_StdPeriph_Driver/src/stm32f4xx_i2c.c ****   *          This parameter can be: ENABLE or DISABLE.
ARM GAS  /tmp/ccYPoyit.s 			page 16


 336:../Shared/Libraries/STM32F4xx_StdPeriph_Driver/src/stm32f4xx_i2c.c ****   * @retval None.
 337:../Shared/Libraries/STM32F4xx_StdPeriph_Driver/src/stm32f4xx_i2c.c ****   */
 338:../Shared/Libraries/STM32F4xx_StdPeriph_Driver/src/stm32f4xx_i2c.c **** void I2C_GenerateSTART(I2C_TypeDef* I2Cx, FunctionalState NewState)
 339:../Shared/Libraries/STM32F4xx_StdPeriph_Driver/src/stm32f4xx_i2c.c **** {
 522              		.loc 1 339 1
 523              		.cfi_startproc
 524              		@ args = 0, pretend = 0, frame = 8
 525              		@ frame_needed = 1, uses_anonymous_args = 0
 526              		@ link register save eliminated.
 527 0000 80B4     		push	{r7}
 528              	.LCFI22:
 529              		.cfi_def_cfa_offset 4
 530              		.cfi_offset 7, -4
 531 0002 83B0     		sub	sp, sp, #12
 532              	.LCFI23:
 533              		.cfi_def_cfa_offset 16
 534 0004 00AF     		add	r7, sp, #0
 535              	.LCFI24:
 536              		.cfi_def_cfa_register 7
 537 0006 7860     		str	r0, [r7, #4]
 538 0008 0B46     		mov	r3, r1
 539 000a FB70     		strb	r3, [r7, #3]
 340:../Shared/Libraries/STM32F4xx_StdPeriph_Driver/src/stm32f4xx_i2c.c ****   /* Check the parameters */
 341:../Shared/Libraries/STM32F4xx_StdPeriph_Driver/src/stm32f4xx_i2c.c ****   assert_param(IS_I2C_ALL_PERIPH(I2Cx));
 342:../Shared/Libraries/STM32F4xx_StdPeriph_Driver/src/stm32f4xx_i2c.c ****   assert_param(IS_FUNCTIONAL_STATE(NewState));
 343:../Shared/Libraries/STM32F4xx_StdPeriph_Driver/src/stm32f4xx_i2c.c ****   if (NewState != DISABLE)
 540              		.loc 1 343 6
 541 000c FB78     		ldrb	r3, [r7, #3]	@ zero_extendqisi2
 542 000e 002B     		cmp	r3, #0
 543 0010 08D0     		beq	.L23
 344:../Shared/Libraries/STM32F4xx_StdPeriph_Driver/src/stm32f4xx_i2c.c ****   {
 345:../Shared/Libraries/STM32F4xx_StdPeriph_Driver/src/stm32f4xx_i2c.c ****     /* Generate a START condition */
 346:../Shared/Libraries/STM32F4xx_StdPeriph_Driver/src/stm32f4xx_i2c.c ****     I2Cx->CR1 |= I2C_CR1_START;
 544              		.loc 1 346 9
 545 0012 7B68     		ldr	r3, [r7, #4]
 546 0014 1B88     		ldrh	r3, [r3]	@ movhi
 547 0016 9BB2     		uxth	r3, r3
 548              		.loc 1 346 15
 549 0018 43F48073 		orr	r3, r3, #256
 550 001c 9AB2     		uxth	r2, r3
 551 001e 7B68     		ldr	r3, [r7, #4]
 552 0020 1A80     		strh	r2, [r3]	@ movhi
 347:../Shared/Libraries/STM32F4xx_StdPeriph_Driver/src/stm32f4xx_i2c.c ****   }
 348:../Shared/Libraries/STM32F4xx_StdPeriph_Driver/src/stm32f4xx_i2c.c ****   else
 349:../Shared/Libraries/STM32F4xx_StdPeriph_Driver/src/stm32f4xx_i2c.c ****   {
 350:../Shared/Libraries/STM32F4xx_StdPeriph_Driver/src/stm32f4xx_i2c.c ****     /* Disable the START condition generation */
 351:../Shared/Libraries/STM32F4xx_StdPeriph_Driver/src/stm32f4xx_i2c.c ****     I2Cx->CR1 &= (uint16_t)~((uint16_t)I2C_CR1_START);
 352:../Shared/Libraries/STM32F4xx_StdPeriph_Driver/src/stm32f4xx_i2c.c ****   }
 353:../Shared/Libraries/STM32F4xx_StdPeriph_Driver/src/stm32f4xx_i2c.c **** }
 553              		.loc 1 353 1
 554 0022 07E0     		b	.L25
 555              	.L23:
 351:../Shared/Libraries/STM32F4xx_StdPeriph_Driver/src/stm32f4xx_i2c.c ****   }
 556              		.loc 1 351 9
 557 0024 7B68     		ldr	r3, [r7, #4]
 558 0026 1B88     		ldrh	r3, [r3]	@ movhi
 559 0028 9BB2     		uxth	r3, r3
ARM GAS  /tmp/ccYPoyit.s 			page 17


 351:../Shared/Libraries/STM32F4xx_StdPeriph_Driver/src/stm32f4xx_i2c.c ****   }
 560              		.loc 1 351 15
 561 002a 23F48073 		bic	r3, r3, #256
 562 002e 9AB2     		uxth	r2, r3
 563 0030 7B68     		ldr	r3, [r7, #4]
 564 0032 1A80     		strh	r2, [r3]	@ movhi
 565              	.L25:
 566              		.loc 1 353 1
 567 0034 00BF     		nop
 568 0036 0C37     		adds	r7, r7, #12
 569              	.LCFI25:
 570              		.cfi_def_cfa_offset 4
 571 0038 BD46     		mov	sp, r7
 572              	.LCFI26:
 573              		.cfi_def_cfa_register 13
 574              		@ sp needed
 575 003a 5DF8047B 		ldr	r7, [sp], #4
 576              	.LCFI27:
 577              		.cfi_restore 7
 578              		.cfi_def_cfa_offset 0
 579 003e 7047     		bx	lr
 580              		.cfi_endproc
 581              	.LFE114:
 583              		.section	.text.I2C_GenerateSTOP,"ax",%progbits
 584              		.align	1
 585              		.global	I2C_GenerateSTOP
 586              		.syntax unified
 587              		.thumb
 588              		.thumb_func
 590              	I2C_GenerateSTOP:
 591              	.LFB115:
 354:../Shared/Libraries/STM32F4xx_StdPeriph_Driver/src/stm32f4xx_i2c.c **** 
 355:../Shared/Libraries/STM32F4xx_StdPeriph_Driver/src/stm32f4xx_i2c.c **** /**
 356:../Shared/Libraries/STM32F4xx_StdPeriph_Driver/src/stm32f4xx_i2c.c ****   * @brief  Generates I2Cx communication STOP condition.
 357:../Shared/Libraries/STM32F4xx_StdPeriph_Driver/src/stm32f4xx_i2c.c ****   * @param  I2Cx: where x can be 1, 2 or 3 to select the I2C peripheral.
 358:../Shared/Libraries/STM32F4xx_StdPeriph_Driver/src/stm32f4xx_i2c.c ****   * @param  NewState: new state of the I2C STOP condition generation.
 359:../Shared/Libraries/STM32F4xx_StdPeriph_Driver/src/stm32f4xx_i2c.c ****   *          This parameter can be: ENABLE or DISABLE.
 360:../Shared/Libraries/STM32F4xx_StdPeriph_Driver/src/stm32f4xx_i2c.c ****   * @retval None.
 361:../Shared/Libraries/STM32F4xx_StdPeriph_Driver/src/stm32f4xx_i2c.c ****   */
 362:../Shared/Libraries/STM32F4xx_StdPeriph_Driver/src/stm32f4xx_i2c.c **** void I2C_GenerateSTOP(I2C_TypeDef* I2Cx, FunctionalState NewState)
 363:../Shared/Libraries/STM32F4xx_StdPeriph_Driver/src/stm32f4xx_i2c.c **** {
 592              		.loc 1 363 1
 593              		.cfi_startproc
 594              		@ args = 0, pretend = 0, frame = 8
 595              		@ frame_needed = 1, uses_anonymous_args = 0
 596              		@ link register save eliminated.
 597 0000 80B4     		push	{r7}
 598              	.LCFI28:
 599              		.cfi_def_cfa_offset 4
 600              		.cfi_offset 7, -4
 601 0002 83B0     		sub	sp, sp, #12
 602              	.LCFI29:
 603              		.cfi_def_cfa_offset 16
 604 0004 00AF     		add	r7, sp, #0
 605              	.LCFI30:
 606              		.cfi_def_cfa_register 7
 607 0006 7860     		str	r0, [r7, #4]
ARM GAS  /tmp/ccYPoyit.s 			page 18


 608 0008 0B46     		mov	r3, r1
 609 000a FB70     		strb	r3, [r7, #3]
 364:../Shared/Libraries/STM32F4xx_StdPeriph_Driver/src/stm32f4xx_i2c.c ****   /* Check the parameters */
 365:../Shared/Libraries/STM32F4xx_StdPeriph_Driver/src/stm32f4xx_i2c.c ****   assert_param(IS_I2C_ALL_PERIPH(I2Cx));
 366:../Shared/Libraries/STM32F4xx_StdPeriph_Driver/src/stm32f4xx_i2c.c ****   assert_param(IS_FUNCTIONAL_STATE(NewState));
 367:../Shared/Libraries/STM32F4xx_StdPeriph_Driver/src/stm32f4xx_i2c.c ****   if (NewState != DISABLE)
 610              		.loc 1 367 6
 611 000c FB78     		ldrb	r3, [r7, #3]	@ zero_extendqisi2
 612 000e 002B     		cmp	r3, #0
 613 0010 08D0     		beq	.L27
 368:../Shared/Libraries/STM32F4xx_StdPeriph_Driver/src/stm32f4xx_i2c.c ****   {
 369:../Shared/Libraries/STM32F4xx_StdPeriph_Driver/src/stm32f4xx_i2c.c ****     /* Generate a STOP condition */
 370:../Shared/Libraries/STM32F4xx_StdPeriph_Driver/src/stm32f4xx_i2c.c ****     I2Cx->CR1 |= I2C_CR1_STOP;
 614              		.loc 1 370 9
 615 0012 7B68     		ldr	r3, [r7, #4]
 616 0014 1B88     		ldrh	r3, [r3]	@ movhi
 617 0016 9BB2     		uxth	r3, r3
 618              		.loc 1 370 15
 619 0018 43F40073 		orr	r3, r3, #512
 620 001c 9AB2     		uxth	r2, r3
 621 001e 7B68     		ldr	r3, [r7, #4]
 622 0020 1A80     		strh	r2, [r3]	@ movhi
 371:../Shared/Libraries/STM32F4xx_StdPeriph_Driver/src/stm32f4xx_i2c.c ****   }
 372:../Shared/Libraries/STM32F4xx_StdPeriph_Driver/src/stm32f4xx_i2c.c ****   else
 373:../Shared/Libraries/STM32F4xx_StdPeriph_Driver/src/stm32f4xx_i2c.c ****   {
 374:../Shared/Libraries/STM32F4xx_StdPeriph_Driver/src/stm32f4xx_i2c.c ****     /* Disable the STOP condition generation */
 375:../Shared/Libraries/STM32F4xx_StdPeriph_Driver/src/stm32f4xx_i2c.c ****     I2Cx->CR1 &= (uint16_t)~((uint16_t)I2C_CR1_STOP);
 376:../Shared/Libraries/STM32F4xx_StdPeriph_Driver/src/stm32f4xx_i2c.c ****   }
 377:../Shared/Libraries/STM32F4xx_StdPeriph_Driver/src/stm32f4xx_i2c.c **** }
 623              		.loc 1 377 1
 624 0022 07E0     		b	.L29
 625              	.L27:
 375:../Shared/Libraries/STM32F4xx_StdPeriph_Driver/src/stm32f4xx_i2c.c ****   }
 626              		.loc 1 375 9
 627 0024 7B68     		ldr	r3, [r7, #4]
 628 0026 1B88     		ldrh	r3, [r3]	@ movhi
 629 0028 9BB2     		uxth	r3, r3
 375:../Shared/Libraries/STM32F4xx_StdPeriph_Driver/src/stm32f4xx_i2c.c ****   }
 630              		.loc 1 375 15
 631 002a 23F40073 		bic	r3, r3, #512
 632 002e 9AB2     		uxth	r2, r3
 633 0030 7B68     		ldr	r3, [r7, #4]
 634 0032 1A80     		strh	r2, [r3]	@ movhi
 635              	.L29:
 636              		.loc 1 377 1
 637 0034 00BF     		nop
 638 0036 0C37     		adds	r7, r7, #12
 639              	.LCFI31:
 640              		.cfi_def_cfa_offset 4
 641 0038 BD46     		mov	sp, r7
 642              	.LCFI32:
 643              		.cfi_def_cfa_register 13
 644              		@ sp needed
 645 003a 5DF8047B 		ldr	r7, [sp], #4
 646              	.LCFI33:
 647              		.cfi_restore 7
 648              		.cfi_def_cfa_offset 0
ARM GAS  /tmp/ccYPoyit.s 			page 19


 649 003e 7047     		bx	lr
 650              		.cfi_endproc
 651              	.LFE115:
 653              		.section	.text.I2C_Send7bitAddress,"ax",%progbits
 654              		.align	1
 655              		.global	I2C_Send7bitAddress
 656              		.syntax unified
 657              		.thumb
 658              		.thumb_func
 660              	I2C_Send7bitAddress:
 661              	.LFB116:
 378:../Shared/Libraries/STM32F4xx_StdPeriph_Driver/src/stm32f4xx_i2c.c **** 
 379:../Shared/Libraries/STM32F4xx_StdPeriph_Driver/src/stm32f4xx_i2c.c **** /**
 380:../Shared/Libraries/STM32F4xx_StdPeriph_Driver/src/stm32f4xx_i2c.c ****   * @brief  Transmits the address byte to select the slave device.
 381:../Shared/Libraries/STM32F4xx_StdPeriph_Driver/src/stm32f4xx_i2c.c ****   * @param  I2Cx: where x can be 1, 2 or 3 to select the I2C peripheral.
 382:../Shared/Libraries/STM32F4xx_StdPeriph_Driver/src/stm32f4xx_i2c.c ****   * @param  Address: specifies the slave address which will be transmitted
 383:../Shared/Libraries/STM32F4xx_StdPeriph_Driver/src/stm32f4xx_i2c.c ****   * @param  I2C_Direction: specifies whether the I2C device will be a Transmitter
 384:../Shared/Libraries/STM32F4xx_StdPeriph_Driver/src/stm32f4xx_i2c.c ****   *         or a Receiver. 
 385:../Shared/Libraries/STM32F4xx_StdPeriph_Driver/src/stm32f4xx_i2c.c ****   *          This parameter can be one of the following values
 386:../Shared/Libraries/STM32F4xx_StdPeriph_Driver/src/stm32f4xx_i2c.c ****   *            @arg I2C_Direction_Transmitter: Transmitter mode
 387:../Shared/Libraries/STM32F4xx_StdPeriph_Driver/src/stm32f4xx_i2c.c ****   *            @arg I2C_Direction_Receiver: Receiver mode
 388:../Shared/Libraries/STM32F4xx_StdPeriph_Driver/src/stm32f4xx_i2c.c ****   * @retval None.
 389:../Shared/Libraries/STM32F4xx_StdPeriph_Driver/src/stm32f4xx_i2c.c ****   */
 390:../Shared/Libraries/STM32F4xx_StdPeriph_Driver/src/stm32f4xx_i2c.c **** void I2C_Send7bitAddress(I2C_TypeDef* I2Cx, uint8_t Address, uint8_t I2C_Direction)
 391:../Shared/Libraries/STM32F4xx_StdPeriph_Driver/src/stm32f4xx_i2c.c **** {
 662              		.loc 1 391 1
 663              		.cfi_startproc
 664              		@ args = 0, pretend = 0, frame = 8
 665              		@ frame_needed = 1, uses_anonymous_args = 0
 666              		@ link register save eliminated.
 667 0000 80B4     		push	{r7}
 668              	.LCFI34:
 669              		.cfi_def_cfa_offset 4
 670              		.cfi_offset 7, -4
 671 0002 83B0     		sub	sp, sp, #12
 672              	.LCFI35:
 673              		.cfi_def_cfa_offset 16
 674 0004 00AF     		add	r7, sp, #0
 675              	.LCFI36:
 676              		.cfi_def_cfa_register 7
 677 0006 7860     		str	r0, [r7, #4]
 678 0008 0B46     		mov	r3, r1
 679 000a FB70     		strb	r3, [r7, #3]
 680 000c 1346     		mov	r3, r2
 681 000e BB70     		strb	r3, [r7, #2]
 392:../Shared/Libraries/STM32F4xx_StdPeriph_Driver/src/stm32f4xx_i2c.c ****   /* Check the parameters */
 393:../Shared/Libraries/STM32F4xx_StdPeriph_Driver/src/stm32f4xx_i2c.c ****   assert_param(IS_I2C_ALL_PERIPH(I2Cx));
 394:../Shared/Libraries/STM32F4xx_StdPeriph_Driver/src/stm32f4xx_i2c.c ****   assert_param(IS_I2C_DIRECTION(I2C_Direction));
 395:../Shared/Libraries/STM32F4xx_StdPeriph_Driver/src/stm32f4xx_i2c.c ****   /* Test on the direction to set/reset the read/write bit */
 396:../Shared/Libraries/STM32F4xx_StdPeriph_Driver/src/stm32f4xx_i2c.c ****   if (I2C_Direction != I2C_Direction_Transmitter)
 682              		.loc 1 396 6
 683 0010 BB78     		ldrb	r3, [r7, #2]	@ zero_extendqisi2
 684 0012 002B     		cmp	r3, #0
 685 0014 04D0     		beq	.L31
 397:../Shared/Libraries/STM32F4xx_StdPeriph_Driver/src/stm32f4xx_i2c.c ****   {
 398:../Shared/Libraries/STM32F4xx_StdPeriph_Driver/src/stm32f4xx_i2c.c ****     /* Set the address bit0 for read */
 399:../Shared/Libraries/STM32F4xx_StdPeriph_Driver/src/stm32f4xx_i2c.c ****     Address |= I2C_OAR1_ADD0;
ARM GAS  /tmp/ccYPoyit.s 			page 20


 686              		.loc 1 399 13
 687 0016 FB78     		ldrb	r3, [r7, #3]
 688 0018 43F00103 		orr	r3, r3, #1
 689 001c FB70     		strb	r3, [r7, #3]
 690 001e 03E0     		b	.L32
 691              	.L31:
 400:../Shared/Libraries/STM32F4xx_StdPeriph_Driver/src/stm32f4xx_i2c.c ****   }
 401:../Shared/Libraries/STM32F4xx_StdPeriph_Driver/src/stm32f4xx_i2c.c ****   else
 402:../Shared/Libraries/STM32F4xx_StdPeriph_Driver/src/stm32f4xx_i2c.c ****   {
 403:../Shared/Libraries/STM32F4xx_StdPeriph_Driver/src/stm32f4xx_i2c.c ****     /* Reset the address bit0 for write */
 404:../Shared/Libraries/STM32F4xx_StdPeriph_Driver/src/stm32f4xx_i2c.c ****     Address &= (uint8_t)~((uint8_t)I2C_OAR1_ADD0);
 692              		.loc 1 404 13
 693 0020 FB78     		ldrb	r3, [r7, #3]
 694 0022 23F00103 		bic	r3, r3, #1
 695 0026 FB70     		strb	r3, [r7, #3]
 696              	.L32:
 405:../Shared/Libraries/STM32F4xx_StdPeriph_Driver/src/stm32f4xx_i2c.c ****   }
 406:../Shared/Libraries/STM32F4xx_StdPeriph_Driver/src/stm32f4xx_i2c.c ****   /* Send the address */
 407:../Shared/Libraries/STM32F4xx_StdPeriph_Driver/src/stm32f4xx_i2c.c ****   I2Cx->DR = Address;
 697              		.loc 1 407 12
 698 0028 FB78     		ldrb	r3, [r7, #3]	@ zero_extendqisi2
 699 002a 9AB2     		uxth	r2, r3
 700 002c 7B68     		ldr	r3, [r7, #4]
 701 002e 1A82     		strh	r2, [r3, #16]	@ movhi
 408:../Shared/Libraries/STM32F4xx_StdPeriph_Driver/src/stm32f4xx_i2c.c **** }
 702              		.loc 1 408 1
 703 0030 00BF     		nop
 704 0032 0C37     		adds	r7, r7, #12
 705              	.LCFI37:
 706              		.cfi_def_cfa_offset 4
 707 0034 BD46     		mov	sp, r7
 708              	.LCFI38:
 709              		.cfi_def_cfa_register 13
 710              		@ sp needed
 711 0036 5DF8047B 		ldr	r7, [sp], #4
 712              	.LCFI39:
 713              		.cfi_restore 7
 714              		.cfi_def_cfa_offset 0
 715 003a 7047     		bx	lr
 716              		.cfi_endproc
 717              	.LFE116:
 719              		.section	.text.I2C_AcknowledgeConfig,"ax",%progbits
 720              		.align	1
 721              		.global	I2C_AcknowledgeConfig
 722              		.syntax unified
 723              		.thumb
 724              		.thumb_func
 726              	I2C_AcknowledgeConfig:
 727              	.LFB117:
 409:../Shared/Libraries/STM32F4xx_StdPeriph_Driver/src/stm32f4xx_i2c.c **** 
 410:../Shared/Libraries/STM32F4xx_StdPeriph_Driver/src/stm32f4xx_i2c.c **** /**
 411:../Shared/Libraries/STM32F4xx_StdPeriph_Driver/src/stm32f4xx_i2c.c ****   * @brief  Enables or disables the specified I2C acknowledge feature.
 412:../Shared/Libraries/STM32F4xx_StdPeriph_Driver/src/stm32f4xx_i2c.c ****   * @param  I2Cx: where x can be 1, 2 or 3 to select the I2C peripheral.
 413:../Shared/Libraries/STM32F4xx_StdPeriph_Driver/src/stm32f4xx_i2c.c ****   * @param  NewState: new state of the I2C Acknowledgement.
 414:../Shared/Libraries/STM32F4xx_StdPeriph_Driver/src/stm32f4xx_i2c.c ****   *          This parameter can be: ENABLE or DISABLE.
 415:../Shared/Libraries/STM32F4xx_StdPeriph_Driver/src/stm32f4xx_i2c.c ****   * @retval None.
 416:../Shared/Libraries/STM32F4xx_StdPeriph_Driver/src/stm32f4xx_i2c.c ****   */
ARM GAS  /tmp/ccYPoyit.s 			page 21


 417:../Shared/Libraries/STM32F4xx_StdPeriph_Driver/src/stm32f4xx_i2c.c **** void I2C_AcknowledgeConfig(I2C_TypeDef* I2Cx, FunctionalState NewState)
 418:../Shared/Libraries/STM32F4xx_StdPeriph_Driver/src/stm32f4xx_i2c.c **** {
 728              		.loc 1 418 1
 729              		.cfi_startproc
 730              		@ args = 0, pretend = 0, frame = 8
 731              		@ frame_needed = 1, uses_anonymous_args = 0
 732              		@ link register save eliminated.
 733 0000 80B4     		push	{r7}
 734              	.LCFI40:
 735              		.cfi_def_cfa_offset 4
 736              		.cfi_offset 7, -4
 737 0002 83B0     		sub	sp, sp, #12
 738              	.LCFI41:
 739              		.cfi_def_cfa_offset 16
 740 0004 00AF     		add	r7, sp, #0
 741              	.LCFI42:
 742              		.cfi_def_cfa_register 7
 743 0006 7860     		str	r0, [r7, #4]
 744 0008 0B46     		mov	r3, r1
 745 000a FB70     		strb	r3, [r7, #3]
 419:../Shared/Libraries/STM32F4xx_StdPeriph_Driver/src/stm32f4xx_i2c.c ****   /* Check the parameters */
 420:../Shared/Libraries/STM32F4xx_StdPeriph_Driver/src/stm32f4xx_i2c.c ****   assert_param(IS_I2C_ALL_PERIPH(I2Cx));
 421:../Shared/Libraries/STM32F4xx_StdPeriph_Driver/src/stm32f4xx_i2c.c ****   assert_param(IS_FUNCTIONAL_STATE(NewState));
 422:../Shared/Libraries/STM32F4xx_StdPeriph_Driver/src/stm32f4xx_i2c.c ****   if (NewState != DISABLE)
 746              		.loc 1 422 6
 747 000c FB78     		ldrb	r3, [r7, #3]	@ zero_extendqisi2
 748 000e 002B     		cmp	r3, #0
 749 0010 08D0     		beq	.L34
 423:../Shared/Libraries/STM32F4xx_StdPeriph_Driver/src/stm32f4xx_i2c.c ****   {
 424:../Shared/Libraries/STM32F4xx_StdPeriph_Driver/src/stm32f4xx_i2c.c ****     /* Enable the acknowledgement */
 425:../Shared/Libraries/STM32F4xx_StdPeriph_Driver/src/stm32f4xx_i2c.c ****     I2Cx->CR1 |= I2C_CR1_ACK;
 750              		.loc 1 425 9
 751 0012 7B68     		ldr	r3, [r7, #4]
 752 0014 1B88     		ldrh	r3, [r3]	@ movhi
 753 0016 9BB2     		uxth	r3, r3
 754              		.loc 1 425 15
 755 0018 43F48063 		orr	r3, r3, #1024
 756 001c 9AB2     		uxth	r2, r3
 757 001e 7B68     		ldr	r3, [r7, #4]
 758 0020 1A80     		strh	r2, [r3]	@ movhi
 426:../Shared/Libraries/STM32F4xx_StdPeriph_Driver/src/stm32f4xx_i2c.c ****   }
 427:../Shared/Libraries/STM32F4xx_StdPeriph_Driver/src/stm32f4xx_i2c.c ****   else
 428:../Shared/Libraries/STM32F4xx_StdPeriph_Driver/src/stm32f4xx_i2c.c ****   {
 429:../Shared/Libraries/STM32F4xx_StdPeriph_Driver/src/stm32f4xx_i2c.c ****     /* Disable the acknowledgement */
 430:../Shared/Libraries/STM32F4xx_StdPeriph_Driver/src/stm32f4xx_i2c.c ****     I2Cx->CR1 &= (uint16_t)~((uint16_t)I2C_CR1_ACK);
 431:../Shared/Libraries/STM32F4xx_StdPeriph_Driver/src/stm32f4xx_i2c.c ****   }
 432:../Shared/Libraries/STM32F4xx_StdPeriph_Driver/src/stm32f4xx_i2c.c **** }
 759              		.loc 1 432 1
 760 0022 07E0     		b	.L36
 761              	.L34:
 430:../Shared/Libraries/STM32F4xx_StdPeriph_Driver/src/stm32f4xx_i2c.c ****   }
 762              		.loc 1 430 9
 763 0024 7B68     		ldr	r3, [r7, #4]
 764 0026 1B88     		ldrh	r3, [r3]	@ movhi
 765 0028 9BB2     		uxth	r3, r3
 430:../Shared/Libraries/STM32F4xx_StdPeriph_Driver/src/stm32f4xx_i2c.c ****   }
 766              		.loc 1 430 15
ARM GAS  /tmp/ccYPoyit.s 			page 22


 767 002a 23F48063 		bic	r3, r3, #1024
 768 002e 9AB2     		uxth	r2, r3
 769 0030 7B68     		ldr	r3, [r7, #4]
 770 0032 1A80     		strh	r2, [r3]	@ movhi
 771              	.L36:
 772              		.loc 1 432 1
 773 0034 00BF     		nop
 774 0036 0C37     		adds	r7, r7, #12
 775              	.LCFI43:
 776              		.cfi_def_cfa_offset 4
 777 0038 BD46     		mov	sp, r7
 778              	.LCFI44:
 779              		.cfi_def_cfa_register 13
 780              		@ sp needed
 781 003a 5DF8047B 		ldr	r7, [sp], #4
 782              	.LCFI45:
 783              		.cfi_restore 7
 784              		.cfi_def_cfa_offset 0
 785 003e 7047     		bx	lr
 786              		.cfi_endproc
 787              	.LFE117:
 789              		.section	.text.I2C_OwnAddress2Config,"ax",%progbits
 790              		.align	1
 791              		.global	I2C_OwnAddress2Config
 792              		.syntax unified
 793              		.thumb
 794              		.thumb_func
 796              	I2C_OwnAddress2Config:
 797              	.LFB118:
 433:../Shared/Libraries/STM32F4xx_StdPeriph_Driver/src/stm32f4xx_i2c.c **** 
 434:../Shared/Libraries/STM32F4xx_StdPeriph_Driver/src/stm32f4xx_i2c.c **** /**
 435:../Shared/Libraries/STM32F4xx_StdPeriph_Driver/src/stm32f4xx_i2c.c ****   * @brief  Configures the specified I2C own address2.
 436:../Shared/Libraries/STM32F4xx_StdPeriph_Driver/src/stm32f4xx_i2c.c ****   * @param  I2Cx: where x can be 1, 2 or 3 to select the I2C peripheral.
 437:../Shared/Libraries/STM32F4xx_StdPeriph_Driver/src/stm32f4xx_i2c.c ****   * @param  Address: specifies the 7bit I2C own address2.
 438:../Shared/Libraries/STM32F4xx_StdPeriph_Driver/src/stm32f4xx_i2c.c ****   * @retval None.
 439:../Shared/Libraries/STM32F4xx_StdPeriph_Driver/src/stm32f4xx_i2c.c ****   */
 440:../Shared/Libraries/STM32F4xx_StdPeriph_Driver/src/stm32f4xx_i2c.c **** void I2C_OwnAddress2Config(I2C_TypeDef* I2Cx, uint8_t Address)
 441:../Shared/Libraries/STM32F4xx_StdPeriph_Driver/src/stm32f4xx_i2c.c **** {
 798              		.loc 1 441 1
 799              		.cfi_startproc
 800              		@ args = 0, pretend = 0, frame = 16
 801              		@ frame_needed = 1, uses_anonymous_args = 0
 802              		@ link register save eliminated.
 803 0000 80B4     		push	{r7}
 804              	.LCFI46:
 805              		.cfi_def_cfa_offset 4
 806              		.cfi_offset 7, -4
 807 0002 85B0     		sub	sp, sp, #20
 808              	.LCFI47:
 809              		.cfi_def_cfa_offset 24
 810 0004 00AF     		add	r7, sp, #0
 811              	.LCFI48:
 812              		.cfi_def_cfa_register 7
 813 0006 7860     		str	r0, [r7, #4]
 814 0008 0B46     		mov	r3, r1
 815 000a FB70     		strb	r3, [r7, #3]
 442:../Shared/Libraries/STM32F4xx_StdPeriph_Driver/src/stm32f4xx_i2c.c ****   uint16_t tmpreg = 0;
ARM GAS  /tmp/ccYPoyit.s 			page 23


 816              		.loc 1 442 12
 817 000c 0023     		movs	r3, #0
 818 000e FB81     		strh	r3, [r7, #14]	@ movhi
 443:../Shared/Libraries/STM32F4xx_StdPeriph_Driver/src/stm32f4xx_i2c.c **** 
 444:../Shared/Libraries/STM32F4xx_StdPeriph_Driver/src/stm32f4xx_i2c.c ****   /* Check the parameters */
 445:../Shared/Libraries/STM32F4xx_StdPeriph_Driver/src/stm32f4xx_i2c.c ****   assert_param(IS_I2C_ALL_PERIPH(I2Cx));
 446:../Shared/Libraries/STM32F4xx_StdPeriph_Driver/src/stm32f4xx_i2c.c **** 
 447:../Shared/Libraries/STM32F4xx_StdPeriph_Driver/src/stm32f4xx_i2c.c ****   /* Get the old register value */
 448:../Shared/Libraries/STM32F4xx_StdPeriph_Driver/src/stm32f4xx_i2c.c ****   tmpreg = I2Cx->OAR2;
 819              		.loc 1 448 10
 820 0010 7B68     		ldr	r3, [r7, #4]
 821 0012 9B89     		ldrh	r3, [r3, #12]	@ movhi
 822 0014 FB81     		strh	r3, [r7, #14]	@ movhi
 449:../Shared/Libraries/STM32F4xx_StdPeriph_Driver/src/stm32f4xx_i2c.c **** 
 450:../Shared/Libraries/STM32F4xx_StdPeriph_Driver/src/stm32f4xx_i2c.c ****   /* Reset I2Cx Own address2 bit [7:1] */
 451:../Shared/Libraries/STM32F4xx_StdPeriph_Driver/src/stm32f4xx_i2c.c ****   tmpreg &= (uint16_t)~((uint16_t)I2C_OAR2_ADD2);
 823              		.loc 1 451 10
 824 0016 FB89     		ldrh	r3, [r7, #14]	@ movhi
 825 0018 23F0FE03 		bic	r3, r3, #254
 826 001c FB81     		strh	r3, [r7, #14]	@ movhi
 452:../Shared/Libraries/STM32F4xx_StdPeriph_Driver/src/stm32f4xx_i2c.c **** 
 453:../Shared/Libraries/STM32F4xx_StdPeriph_Driver/src/stm32f4xx_i2c.c ****   /* Set I2Cx Own address2 */
 454:../Shared/Libraries/STM32F4xx_StdPeriph_Driver/src/stm32f4xx_i2c.c ****   tmpreg |= (uint16_t)((uint16_t)Address & (uint16_t)0x00FE);
 827              		.loc 1 454 13
 828 001e FB78     		ldrb	r3, [r7, #3]	@ zero_extendqisi2
 829 0020 1BB2     		sxth	r3, r3
 830 0022 03F0FE03 		and	r3, r3, #254
 831 0026 1AB2     		sxth	r2, r3
 832              		.loc 1 454 10
 833 0028 B7F90E30 		ldrsh	r3, [r7, #14]
 834 002c 1343     		orrs	r3, r3, r2
 835 002e 1BB2     		sxth	r3, r3
 836 0030 FB81     		strh	r3, [r7, #14]	@ movhi
 455:../Shared/Libraries/STM32F4xx_StdPeriph_Driver/src/stm32f4xx_i2c.c **** 
 456:../Shared/Libraries/STM32F4xx_StdPeriph_Driver/src/stm32f4xx_i2c.c ****   /* Store the new register value */
 457:../Shared/Libraries/STM32F4xx_StdPeriph_Driver/src/stm32f4xx_i2c.c ****   I2Cx->OAR2 = tmpreg;
 837              		.loc 1 457 14
 838 0032 7B68     		ldr	r3, [r7, #4]
 839 0034 FA89     		ldrh	r2, [r7, #14]	@ movhi
 840 0036 9A81     		strh	r2, [r3, #12]	@ movhi
 458:../Shared/Libraries/STM32F4xx_StdPeriph_Driver/src/stm32f4xx_i2c.c **** }
 841              		.loc 1 458 1
 842 0038 00BF     		nop
 843 003a 1437     		adds	r7, r7, #20
 844              	.LCFI49:
 845              		.cfi_def_cfa_offset 4
 846 003c BD46     		mov	sp, r7
 847              	.LCFI50:
 848              		.cfi_def_cfa_register 13
 849              		@ sp needed
 850 003e 5DF8047B 		ldr	r7, [sp], #4
 851              	.LCFI51:
 852              		.cfi_restore 7
 853              		.cfi_def_cfa_offset 0
 854 0042 7047     		bx	lr
 855              		.cfi_endproc
 856              	.LFE118:
ARM GAS  /tmp/ccYPoyit.s 			page 24


 858              		.section	.text.I2C_DualAddressCmd,"ax",%progbits
 859              		.align	1
 860              		.global	I2C_DualAddressCmd
 861              		.syntax unified
 862              		.thumb
 863              		.thumb_func
 865              	I2C_DualAddressCmd:
 866              	.LFB119:
 459:../Shared/Libraries/STM32F4xx_StdPeriph_Driver/src/stm32f4xx_i2c.c **** 
 460:../Shared/Libraries/STM32F4xx_StdPeriph_Driver/src/stm32f4xx_i2c.c **** /**
 461:../Shared/Libraries/STM32F4xx_StdPeriph_Driver/src/stm32f4xx_i2c.c ****   * @brief  Enables or disables the specified I2C dual addressing mode.
 462:../Shared/Libraries/STM32F4xx_StdPeriph_Driver/src/stm32f4xx_i2c.c ****   * @param  I2Cx: where x can be 1, 2 or 3 to select the I2C peripheral.
 463:../Shared/Libraries/STM32F4xx_StdPeriph_Driver/src/stm32f4xx_i2c.c ****   * @param  NewState: new state of the I2C dual addressing mode.
 464:../Shared/Libraries/STM32F4xx_StdPeriph_Driver/src/stm32f4xx_i2c.c ****   *          This parameter can be: ENABLE or DISABLE.
 465:../Shared/Libraries/STM32F4xx_StdPeriph_Driver/src/stm32f4xx_i2c.c ****   * @retval None
 466:../Shared/Libraries/STM32F4xx_StdPeriph_Driver/src/stm32f4xx_i2c.c ****   */
 467:../Shared/Libraries/STM32F4xx_StdPeriph_Driver/src/stm32f4xx_i2c.c **** void I2C_DualAddressCmd(I2C_TypeDef* I2Cx, FunctionalState NewState)
 468:../Shared/Libraries/STM32F4xx_StdPeriph_Driver/src/stm32f4xx_i2c.c **** {
 867              		.loc 1 468 1
 868              		.cfi_startproc
 869              		@ args = 0, pretend = 0, frame = 8
 870              		@ frame_needed = 1, uses_anonymous_args = 0
 871              		@ link register save eliminated.
 872 0000 80B4     		push	{r7}
 873              	.LCFI52:
 874              		.cfi_def_cfa_offset 4
 875              		.cfi_offset 7, -4
 876 0002 83B0     		sub	sp, sp, #12
 877              	.LCFI53:
 878              		.cfi_def_cfa_offset 16
 879 0004 00AF     		add	r7, sp, #0
 880              	.LCFI54:
 881              		.cfi_def_cfa_register 7
 882 0006 7860     		str	r0, [r7, #4]
 883 0008 0B46     		mov	r3, r1
 884 000a FB70     		strb	r3, [r7, #3]
 469:../Shared/Libraries/STM32F4xx_StdPeriph_Driver/src/stm32f4xx_i2c.c ****   /* Check the parameters */
 470:../Shared/Libraries/STM32F4xx_StdPeriph_Driver/src/stm32f4xx_i2c.c ****   assert_param(IS_I2C_ALL_PERIPH(I2Cx));
 471:../Shared/Libraries/STM32F4xx_StdPeriph_Driver/src/stm32f4xx_i2c.c ****   assert_param(IS_FUNCTIONAL_STATE(NewState));
 472:../Shared/Libraries/STM32F4xx_StdPeriph_Driver/src/stm32f4xx_i2c.c ****   if (NewState != DISABLE)
 885              		.loc 1 472 6
 886 000c FB78     		ldrb	r3, [r7, #3]	@ zero_extendqisi2
 887 000e 002B     		cmp	r3, #0
 888 0010 08D0     		beq	.L39
 473:../Shared/Libraries/STM32F4xx_StdPeriph_Driver/src/stm32f4xx_i2c.c ****   {
 474:../Shared/Libraries/STM32F4xx_StdPeriph_Driver/src/stm32f4xx_i2c.c ****     /* Enable dual addressing mode */
 475:../Shared/Libraries/STM32F4xx_StdPeriph_Driver/src/stm32f4xx_i2c.c ****     I2Cx->OAR2 |= I2C_OAR2_ENDUAL;
 889              		.loc 1 475 9
 890 0012 7B68     		ldr	r3, [r7, #4]
 891 0014 9B89     		ldrh	r3, [r3, #12]	@ movhi
 892 0016 9BB2     		uxth	r3, r3
 893              		.loc 1 475 16
 894 0018 43F00103 		orr	r3, r3, #1
 895 001c 9AB2     		uxth	r2, r3
 896 001e 7B68     		ldr	r3, [r7, #4]
 897 0020 9A81     		strh	r2, [r3, #12]	@ movhi
 476:../Shared/Libraries/STM32F4xx_StdPeriph_Driver/src/stm32f4xx_i2c.c ****   }
ARM GAS  /tmp/ccYPoyit.s 			page 25


 477:../Shared/Libraries/STM32F4xx_StdPeriph_Driver/src/stm32f4xx_i2c.c ****   else
 478:../Shared/Libraries/STM32F4xx_StdPeriph_Driver/src/stm32f4xx_i2c.c ****   {
 479:../Shared/Libraries/STM32F4xx_StdPeriph_Driver/src/stm32f4xx_i2c.c ****     /* Disable dual addressing mode */
 480:../Shared/Libraries/STM32F4xx_StdPeriph_Driver/src/stm32f4xx_i2c.c ****     I2Cx->OAR2 &= (uint16_t)~((uint16_t)I2C_OAR2_ENDUAL);
 481:../Shared/Libraries/STM32F4xx_StdPeriph_Driver/src/stm32f4xx_i2c.c ****   }
 482:../Shared/Libraries/STM32F4xx_StdPeriph_Driver/src/stm32f4xx_i2c.c **** }
 898              		.loc 1 482 1
 899 0022 07E0     		b	.L41
 900              	.L39:
 480:../Shared/Libraries/STM32F4xx_StdPeriph_Driver/src/stm32f4xx_i2c.c ****   }
 901              		.loc 1 480 9
 902 0024 7B68     		ldr	r3, [r7, #4]
 903 0026 9B89     		ldrh	r3, [r3, #12]	@ movhi
 904 0028 9BB2     		uxth	r3, r3
 480:../Shared/Libraries/STM32F4xx_StdPeriph_Driver/src/stm32f4xx_i2c.c ****   }
 905              		.loc 1 480 16
 906 002a 23F00103 		bic	r3, r3, #1
 907 002e 9AB2     		uxth	r2, r3
 908 0030 7B68     		ldr	r3, [r7, #4]
 909 0032 9A81     		strh	r2, [r3, #12]	@ movhi
 910              	.L41:
 911              		.loc 1 482 1
 912 0034 00BF     		nop
 913 0036 0C37     		adds	r7, r7, #12
 914              	.LCFI55:
 915              		.cfi_def_cfa_offset 4
 916 0038 BD46     		mov	sp, r7
 917              	.LCFI56:
 918              		.cfi_def_cfa_register 13
 919              		@ sp needed
 920 003a 5DF8047B 		ldr	r7, [sp], #4
 921              	.LCFI57:
 922              		.cfi_restore 7
 923              		.cfi_def_cfa_offset 0
 924 003e 7047     		bx	lr
 925              		.cfi_endproc
 926              	.LFE119:
 928              		.section	.text.I2C_GeneralCallCmd,"ax",%progbits
 929              		.align	1
 930              		.global	I2C_GeneralCallCmd
 931              		.syntax unified
 932              		.thumb
 933              		.thumb_func
 935              	I2C_GeneralCallCmd:
 936              	.LFB120:
 483:../Shared/Libraries/STM32F4xx_StdPeriph_Driver/src/stm32f4xx_i2c.c **** 
 484:../Shared/Libraries/STM32F4xx_StdPeriph_Driver/src/stm32f4xx_i2c.c **** /**
 485:../Shared/Libraries/STM32F4xx_StdPeriph_Driver/src/stm32f4xx_i2c.c ****   * @brief  Enables or disables the specified I2C general call feature.
 486:../Shared/Libraries/STM32F4xx_StdPeriph_Driver/src/stm32f4xx_i2c.c ****   * @param  I2Cx: where x can be 1, 2 or 3 to select the I2C peripheral.
 487:../Shared/Libraries/STM32F4xx_StdPeriph_Driver/src/stm32f4xx_i2c.c ****   * @param  NewState: new state of the I2C General call.
 488:../Shared/Libraries/STM32F4xx_StdPeriph_Driver/src/stm32f4xx_i2c.c ****   *          This parameter can be: ENABLE or DISABLE.
 489:../Shared/Libraries/STM32F4xx_StdPeriph_Driver/src/stm32f4xx_i2c.c ****   * @retval None
 490:../Shared/Libraries/STM32F4xx_StdPeriph_Driver/src/stm32f4xx_i2c.c ****   */
 491:../Shared/Libraries/STM32F4xx_StdPeriph_Driver/src/stm32f4xx_i2c.c **** void I2C_GeneralCallCmd(I2C_TypeDef* I2Cx, FunctionalState NewState)
 492:../Shared/Libraries/STM32F4xx_StdPeriph_Driver/src/stm32f4xx_i2c.c **** {
 937              		.loc 1 492 1
 938              		.cfi_startproc
ARM GAS  /tmp/ccYPoyit.s 			page 26


 939              		@ args = 0, pretend = 0, frame = 8
 940              		@ frame_needed = 1, uses_anonymous_args = 0
 941              		@ link register save eliminated.
 942 0000 80B4     		push	{r7}
 943              	.LCFI58:
 944              		.cfi_def_cfa_offset 4
 945              		.cfi_offset 7, -4
 946 0002 83B0     		sub	sp, sp, #12
 947              	.LCFI59:
 948              		.cfi_def_cfa_offset 16
 949 0004 00AF     		add	r7, sp, #0
 950              	.LCFI60:
 951              		.cfi_def_cfa_register 7
 952 0006 7860     		str	r0, [r7, #4]
 953 0008 0B46     		mov	r3, r1
 954 000a FB70     		strb	r3, [r7, #3]
 493:../Shared/Libraries/STM32F4xx_StdPeriph_Driver/src/stm32f4xx_i2c.c ****   /* Check the parameters */
 494:../Shared/Libraries/STM32F4xx_StdPeriph_Driver/src/stm32f4xx_i2c.c ****   assert_param(IS_I2C_ALL_PERIPH(I2Cx));
 495:../Shared/Libraries/STM32F4xx_StdPeriph_Driver/src/stm32f4xx_i2c.c ****   assert_param(IS_FUNCTIONAL_STATE(NewState));
 496:../Shared/Libraries/STM32F4xx_StdPeriph_Driver/src/stm32f4xx_i2c.c ****   if (NewState != DISABLE)
 955              		.loc 1 496 6
 956 000c FB78     		ldrb	r3, [r7, #3]	@ zero_extendqisi2
 957 000e 002B     		cmp	r3, #0
 958 0010 08D0     		beq	.L43
 497:../Shared/Libraries/STM32F4xx_StdPeriph_Driver/src/stm32f4xx_i2c.c ****   {
 498:../Shared/Libraries/STM32F4xx_StdPeriph_Driver/src/stm32f4xx_i2c.c ****     /* Enable generall call */
 499:../Shared/Libraries/STM32F4xx_StdPeriph_Driver/src/stm32f4xx_i2c.c ****     I2Cx->CR1 |= I2C_CR1_ENGC;
 959              		.loc 1 499 9
 960 0012 7B68     		ldr	r3, [r7, #4]
 961 0014 1B88     		ldrh	r3, [r3]	@ movhi
 962 0016 9BB2     		uxth	r3, r3
 963              		.loc 1 499 15
 964 0018 43F04003 		orr	r3, r3, #64
 965 001c 9AB2     		uxth	r2, r3
 966 001e 7B68     		ldr	r3, [r7, #4]
 967 0020 1A80     		strh	r2, [r3]	@ movhi
 500:../Shared/Libraries/STM32F4xx_StdPeriph_Driver/src/stm32f4xx_i2c.c ****   }
 501:../Shared/Libraries/STM32F4xx_StdPeriph_Driver/src/stm32f4xx_i2c.c ****   else
 502:../Shared/Libraries/STM32F4xx_StdPeriph_Driver/src/stm32f4xx_i2c.c ****   {
 503:../Shared/Libraries/STM32F4xx_StdPeriph_Driver/src/stm32f4xx_i2c.c ****     /* Disable generall call */
 504:../Shared/Libraries/STM32F4xx_StdPeriph_Driver/src/stm32f4xx_i2c.c ****     I2Cx->CR1 &= (uint16_t)~((uint16_t)I2C_CR1_ENGC);
 505:../Shared/Libraries/STM32F4xx_StdPeriph_Driver/src/stm32f4xx_i2c.c ****   }
 506:../Shared/Libraries/STM32F4xx_StdPeriph_Driver/src/stm32f4xx_i2c.c **** }
 968              		.loc 1 506 1
 969 0022 07E0     		b	.L45
 970              	.L43:
 504:../Shared/Libraries/STM32F4xx_StdPeriph_Driver/src/stm32f4xx_i2c.c ****   }
 971              		.loc 1 504 9
 972 0024 7B68     		ldr	r3, [r7, #4]
 973 0026 1B88     		ldrh	r3, [r3]	@ movhi
 974 0028 9BB2     		uxth	r3, r3
 504:../Shared/Libraries/STM32F4xx_StdPeriph_Driver/src/stm32f4xx_i2c.c ****   }
 975              		.loc 1 504 15
 976 002a 23F04003 		bic	r3, r3, #64
 977 002e 9AB2     		uxth	r2, r3
 978 0030 7B68     		ldr	r3, [r7, #4]
 979 0032 1A80     		strh	r2, [r3]	@ movhi
ARM GAS  /tmp/ccYPoyit.s 			page 27


 980              	.L45:
 981              		.loc 1 506 1
 982 0034 00BF     		nop
 983 0036 0C37     		adds	r7, r7, #12
 984              	.LCFI61:
 985              		.cfi_def_cfa_offset 4
 986 0038 BD46     		mov	sp, r7
 987              	.LCFI62:
 988              		.cfi_def_cfa_register 13
 989              		@ sp needed
 990 003a 5DF8047B 		ldr	r7, [sp], #4
 991              	.LCFI63:
 992              		.cfi_restore 7
 993              		.cfi_def_cfa_offset 0
 994 003e 7047     		bx	lr
 995              		.cfi_endproc
 996              	.LFE120:
 998              		.section	.text.I2C_SoftwareResetCmd,"ax",%progbits
 999              		.align	1
 1000              		.global	I2C_SoftwareResetCmd
 1001              		.syntax unified
 1002              		.thumb
 1003              		.thumb_func
 1005              	I2C_SoftwareResetCmd:
 1006              	.LFB121:
 507:../Shared/Libraries/STM32F4xx_StdPeriph_Driver/src/stm32f4xx_i2c.c **** 
 508:../Shared/Libraries/STM32F4xx_StdPeriph_Driver/src/stm32f4xx_i2c.c **** /**
 509:../Shared/Libraries/STM32F4xx_StdPeriph_Driver/src/stm32f4xx_i2c.c ****   * @brief  Enables or disables the specified I2C software reset.
 510:../Shared/Libraries/STM32F4xx_StdPeriph_Driver/src/stm32f4xx_i2c.c ****   * @note   When software reset is enabled, the I2C IOs are released (this can
 511:../Shared/Libraries/STM32F4xx_StdPeriph_Driver/src/stm32f4xx_i2c.c ****   *         be useful to recover from bus errors).  
 512:../Shared/Libraries/STM32F4xx_StdPeriph_Driver/src/stm32f4xx_i2c.c ****   * @param  I2Cx: where x can be 1, 2 or 3 to select the I2C peripheral.
 513:../Shared/Libraries/STM32F4xx_StdPeriph_Driver/src/stm32f4xx_i2c.c ****   * @param  NewState: new state of the I2C software reset.
 514:../Shared/Libraries/STM32F4xx_StdPeriph_Driver/src/stm32f4xx_i2c.c ****   *          This parameter can be: ENABLE or DISABLE.
 515:../Shared/Libraries/STM32F4xx_StdPeriph_Driver/src/stm32f4xx_i2c.c ****   * @retval None
 516:../Shared/Libraries/STM32F4xx_StdPeriph_Driver/src/stm32f4xx_i2c.c ****   */
 517:../Shared/Libraries/STM32F4xx_StdPeriph_Driver/src/stm32f4xx_i2c.c **** void I2C_SoftwareResetCmd(I2C_TypeDef* I2Cx, FunctionalState NewState)
 518:../Shared/Libraries/STM32F4xx_StdPeriph_Driver/src/stm32f4xx_i2c.c **** {
 1007              		.loc 1 518 1
 1008              		.cfi_startproc
 1009              		@ args = 0, pretend = 0, frame = 8
 1010              		@ frame_needed = 1, uses_anonymous_args = 0
 1011              		@ link register save eliminated.
 1012 0000 80B4     		push	{r7}
 1013              	.LCFI64:
 1014              		.cfi_def_cfa_offset 4
 1015              		.cfi_offset 7, -4
 1016 0002 83B0     		sub	sp, sp, #12
 1017              	.LCFI65:
 1018              		.cfi_def_cfa_offset 16
 1019 0004 00AF     		add	r7, sp, #0
 1020              	.LCFI66:
 1021              		.cfi_def_cfa_register 7
 1022 0006 7860     		str	r0, [r7, #4]
 1023 0008 0B46     		mov	r3, r1
 1024 000a FB70     		strb	r3, [r7, #3]
 519:../Shared/Libraries/STM32F4xx_StdPeriph_Driver/src/stm32f4xx_i2c.c ****   /* Check the parameters */
 520:../Shared/Libraries/STM32F4xx_StdPeriph_Driver/src/stm32f4xx_i2c.c ****   assert_param(IS_I2C_ALL_PERIPH(I2Cx));
ARM GAS  /tmp/ccYPoyit.s 			page 28


 521:../Shared/Libraries/STM32F4xx_StdPeriph_Driver/src/stm32f4xx_i2c.c ****   assert_param(IS_FUNCTIONAL_STATE(NewState));
 522:../Shared/Libraries/STM32F4xx_StdPeriph_Driver/src/stm32f4xx_i2c.c ****   if (NewState != DISABLE)
 1025              		.loc 1 522 6
 1026 000c FB78     		ldrb	r3, [r7, #3]	@ zero_extendqisi2
 1027 000e 002B     		cmp	r3, #0
 1028 0010 0AD0     		beq	.L47
 523:../Shared/Libraries/STM32F4xx_StdPeriph_Driver/src/stm32f4xx_i2c.c ****   {
 524:../Shared/Libraries/STM32F4xx_StdPeriph_Driver/src/stm32f4xx_i2c.c ****     /* Peripheral under reset */
 525:../Shared/Libraries/STM32F4xx_StdPeriph_Driver/src/stm32f4xx_i2c.c ****     I2Cx->CR1 |= I2C_CR1_SWRST;
 1029              		.loc 1 525 9
 1030 0012 7B68     		ldr	r3, [r7, #4]
 1031 0014 1B88     		ldrh	r3, [r3]	@ movhi
 1032 0016 9BB2     		uxth	r3, r3
 1033              		.loc 1 525 15
 1034 0018 6FEA4343 		mvn	r3, r3, lsl #17
 1035 001c 6FEA5343 		mvn	r3, r3, lsr #17
 1036 0020 9AB2     		uxth	r2, r3
 1037 0022 7B68     		ldr	r3, [r7, #4]
 1038 0024 1A80     		strh	r2, [r3]	@ movhi
 526:../Shared/Libraries/STM32F4xx_StdPeriph_Driver/src/stm32f4xx_i2c.c ****   }
 527:../Shared/Libraries/STM32F4xx_StdPeriph_Driver/src/stm32f4xx_i2c.c ****   else
 528:../Shared/Libraries/STM32F4xx_StdPeriph_Driver/src/stm32f4xx_i2c.c ****   {
 529:../Shared/Libraries/STM32F4xx_StdPeriph_Driver/src/stm32f4xx_i2c.c ****     /* Peripheral not under reset */
 530:../Shared/Libraries/STM32F4xx_StdPeriph_Driver/src/stm32f4xx_i2c.c ****     I2Cx->CR1 &= (uint16_t)~((uint16_t)I2C_CR1_SWRST);
 531:../Shared/Libraries/STM32F4xx_StdPeriph_Driver/src/stm32f4xx_i2c.c ****   }
 532:../Shared/Libraries/STM32F4xx_StdPeriph_Driver/src/stm32f4xx_i2c.c **** }
 1039              		.loc 1 532 1
 1040 0026 07E0     		b	.L49
 1041              	.L47:
 530:../Shared/Libraries/STM32F4xx_StdPeriph_Driver/src/stm32f4xx_i2c.c ****   }
 1042              		.loc 1 530 9
 1043 0028 7B68     		ldr	r3, [r7, #4]
 1044 002a 1B88     		ldrh	r3, [r3]	@ movhi
 1045 002c 9BB2     		uxth	r3, r3
 530:../Shared/Libraries/STM32F4xx_StdPeriph_Driver/src/stm32f4xx_i2c.c ****   }
 1046              		.loc 1 530 15
 1047 002e C3F30E03 		ubfx	r3, r3, #0, #15
 1048 0032 9AB2     		uxth	r2, r3
 1049 0034 7B68     		ldr	r3, [r7, #4]
 1050 0036 1A80     		strh	r2, [r3]	@ movhi
 1051              	.L49:
 1052              		.loc 1 532 1
 1053 0038 00BF     		nop
 1054 003a 0C37     		adds	r7, r7, #12
 1055              	.LCFI67:
 1056              		.cfi_def_cfa_offset 4
 1057 003c BD46     		mov	sp, r7
 1058              	.LCFI68:
 1059              		.cfi_def_cfa_register 13
 1060              		@ sp needed
 1061 003e 5DF8047B 		ldr	r7, [sp], #4
 1062              	.LCFI69:
 1063              		.cfi_restore 7
 1064              		.cfi_def_cfa_offset 0
 1065 0042 7047     		bx	lr
 1066              		.cfi_endproc
 1067              	.LFE121:
ARM GAS  /tmp/ccYPoyit.s 			page 29


 1069              		.section	.text.I2C_StretchClockCmd,"ax",%progbits
 1070              		.align	1
 1071              		.global	I2C_StretchClockCmd
 1072              		.syntax unified
 1073              		.thumb
 1074              		.thumb_func
 1076              	I2C_StretchClockCmd:
 1077              	.LFB122:
 533:../Shared/Libraries/STM32F4xx_StdPeriph_Driver/src/stm32f4xx_i2c.c **** 
 534:../Shared/Libraries/STM32F4xx_StdPeriph_Driver/src/stm32f4xx_i2c.c **** /**
 535:../Shared/Libraries/STM32F4xx_StdPeriph_Driver/src/stm32f4xx_i2c.c ****   * @brief  Enables or disables the specified I2C Clock stretching.
 536:../Shared/Libraries/STM32F4xx_StdPeriph_Driver/src/stm32f4xx_i2c.c ****   * @param  I2Cx: where x can be 1, 2 or 3 to select the I2C peripheral.
 537:../Shared/Libraries/STM32F4xx_StdPeriph_Driver/src/stm32f4xx_i2c.c ****   * @param  NewState: new state of the I2Cx Clock stretching.
 538:../Shared/Libraries/STM32F4xx_StdPeriph_Driver/src/stm32f4xx_i2c.c ****   *          This parameter can be: ENABLE or DISABLE.
 539:../Shared/Libraries/STM32F4xx_StdPeriph_Driver/src/stm32f4xx_i2c.c ****   * @retval None
 540:../Shared/Libraries/STM32F4xx_StdPeriph_Driver/src/stm32f4xx_i2c.c ****   */
 541:../Shared/Libraries/STM32F4xx_StdPeriph_Driver/src/stm32f4xx_i2c.c **** void I2C_StretchClockCmd(I2C_TypeDef* I2Cx, FunctionalState NewState)
 542:../Shared/Libraries/STM32F4xx_StdPeriph_Driver/src/stm32f4xx_i2c.c **** {
 1078              		.loc 1 542 1
 1079              		.cfi_startproc
 1080              		@ args = 0, pretend = 0, frame = 8
 1081              		@ frame_needed = 1, uses_anonymous_args = 0
 1082              		@ link register save eliminated.
 1083 0000 80B4     		push	{r7}
 1084              	.LCFI70:
 1085              		.cfi_def_cfa_offset 4
 1086              		.cfi_offset 7, -4
 1087 0002 83B0     		sub	sp, sp, #12
 1088              	.LCFI71:
 1089              		.cfi_def_cfa_offset 16
 1090 0004 00AF     		add	r7, sp, #0
 1091              	.LCFI72:
 1092              		.cfi_def_cfa_register 7
 1093 0006 7860     		str	r0, [r7, #4]
 1094 0008 0B46     		mov	r3, r1
 1095 000a FB70     		strb	r3, [r7, #3]
 543:../Shared/Libraries/STM32F4xx_StdPeriph_Driver/src/stm32f4xx_i2c.c ****   /* Check the parameters */
 544:../Shared/Libraries/STM32F4xx_StdPeriph_Driver/src/stm32f4xx_i2c.c ****   assert_param(IS_I2C_ALL_PERIPH(I2Cx));
 545:../Shared/Libraries/STM32F4xx_StdPeriph_Driver/src/stm32f4xx_i2c.c ****   assert_param(IS_FUNCTIONAL_STATE(NewState));
 546:../Shared/Libraries/STM32F4xx_StdPeriph_Driver/src/stm32f4xx_i2c.c ****   if (NewState == DISABLE)
 1096              		.loc 1 546 6
 1097 000c FB78     		ldrb	r3, [r7, #3]	@ zero_extendqisi2
 1098 000e 002B     		cmp	r3, #0
 1099 0010 08D1     		bne	.L51
 547:../Shared/Libraries/STM32F4xx_StdPeriph_Driver/src/stm32f4xx_i2c.c ****   {
 548:../Shared/Libraries/STM32F4xx_StdPeriph_Driver/src/stm32f4xx_i2c.c ****     /* Enable the selected I2C Clock stretching */
 549:../Shared/Libraries/STM32F4xx_StdPeriph_Driver/src/stm32f4xx_i2c.c ****     I2Cx->CR1 |= I2C_CR1_NOSTRETCH;
 1100              		.loc 1 549 9
 1101 0012 7B68     		ldr	r3, [r7, #4]
 1102 0014 1B88     		ldrh	r3, [r3]	@ movhi
 1103 0016 9BB2     		uxth	r3, r3
 1104              		.loc 1 549 15
 1105 0018 43F08003 		orr	r3, r3, #128
 1106 001c 9AB2     		uxth	r2, r3
 1107 001e 7B68     		ldr	r3, [r7, #4]
 1108 0020 1A80     		strh	r2, [r3]	@ movhi
 550:../Shared/Libraries/STM32F4xx_StdPeriph_Driver/src/stm32f4xx_i2c.c ****   }
ARM GAS  /tmp/ccYPoyit.s 			page 30


 551:../Shared/Libraries/STM32F4xx_StdPeriph_Driver/src/stm32f4xx_i2c.c ****   else
 552:../Shared/Libraries/STM32F4xx_StdPeriph_Driver/src/stm32f4xx_i2c.c ****   {
 553:../Shared/Libraries/STM32F4xx_StdPeriph_Driver/src/stm32f4xx_i2c.c ****     /* Disable the selected I2C Clock stretching */
 554:../Shared/Libraries/STM32F4xx_StdPeriph_Driver/src/stm32f4xx_i2c.c ****     I2Cx->CR1 &= (uint16_t)~((uint16_t)I2C_CR1_NOSTRETCH);
 555:../Shared/Libraries/STM32F4xx_StdPeriph_Driver/src/stm32f4xx_i2c.c ****   }
 556:../Shared/Libraries/STM32F4xx_StdPeriph_Driver/src/stm32f4xx_i2c.c **** }
 1109              		.loc 1 556 1
 1110 0022 07E0     		b	.L53
 1111              	.L51:
 554:../Shared/Libraries/STM32F4xx_StdPeriph_Driver/src/stm32f4xx_i2c.c ****   }
 1112              		.loc 1 554 9
 1113 0024 7B68     		ldr	r3, [r7, #4]
 1114 0026 1B88     		ldrh	r3, [r3]	@ movhi
 1115 0028 9BB2     		uxth	r3, r3
 554:../Shared/Libraries/STM32F4xx_StdPeriph_Driver/src/stm32f4xx_i2c.c ****   }
 1116              		.loc 1 554 15
 1117 002a 23F08003 		bic	r3, r3, #128
 1118 002e 9AB2     		uxth	r2, r3
 1119 0030 7B68     		ldr	r3, [r7, #4]
 1120 0032 1A80     		strh	r2, [r3]	@ movhi
 1121              	.L53:
 1122              		.loc 1 556 1
 1123 0034 00BF     		nop
 1124 0036 0C37     		adds	r7, r7, #12
 1125              	.LCFI73:
 1126              		.cfi_def_cfa_offset 4
 1127 0038 BD46     		mov	sp, r7
 1128              	.LCFI74:
 1129              		.cfi_def_cfa_register 13
 1130              		@ sp needed
 1131 003a 5DF8047B 		ldr	r7, [sp], #4
 1132              	.LCFI75:
 1133              		.cfi_restore 7
 1134              		.cfi_def_cfa_offset 0
 1135 003e 7047     		bx	lr
 1136              		.cfi_endproc
 1137              	.LFE122:
 1139              		.section	.text.I2C_FastModeDutyCycleConfig,"ax",%progbits
 1140              		.align	1
 1141              		.global	I2C_FastModeDutyCycleConfig
 1142              		.syntax unified
 1143              		.thumb
 1144              		.thumb_func
 1146              	I2C_FastModeDutyCycleConfig:
 1147              	.LFB123:
 557:../Shared/Libraries/STM32F4xx_StdPeriph_Driver/src/stm32f4xx_i2c.c **** 
 558:../Shared/Libraries/STM32F4xx_StdPeriph_Driver/src/stm32f4xx_i2c.c **** /**
 559:../Shared/Libraries/STM32F4xx_StdPeriph_Driver/src/stm32f4xx_i2c.c ****   * @brief  Selects the specified I2C fast mode duty cycle.
 560:../Shared/Libraries/STM32F4xx_StdPeriph_Driver/src/stm32f4xx_i2c.c ****   * @param  I2Cx: where x can be 1, 2 or 3 to select the I2C peripheral.
 561:../Shared/Libraries/STM32F4xx_StdPeriph_Driver/src/stm32f4xx_i2c.c ****   * @param  I2C_DutyCycle: specifies the fast mode duty cycle.
 562:../Shared/Libraries/STM32F4xx_StdPeriph_Driver/src/stm32f4xx_i2c.c ****   *          This parameter can be one of the following values:
 563:../Shared/Libraries/STM32F4xx_StdPeriph_Driver/src/stm32f4xx_i2c.c ****   *            @arg I2C_DutyCycle_2: I2C fast mode Tlow/Thigh = 2
 564:../Shared/Libraries/STM32F4xx_StdPeriph_Driver/src/stm32f4xx_i2c.c ****   *            @arg I2C_DutyCycle_16_9: I2C fast mode Tlow/Thigh = 16/9
 565:../Shared/Libraries/STM32F4xx_StdPeriph_Driver/src/stm32f4xx_i2c.c ****   * @retval None
 566:../Shared/Libraries/STM32F4xx_StdPeriph_Driver/src/stm32f4xx_i2c.c ****   */
 567:../Shared/Libraries/STM32F4xx_StdPeriph_Driver/src/stm32f4xx_i2c.c **** void I2C_FastModeDutyCycleConfig(I2C_TypeDef* I2Cx, uint16_t I2C_DutyCycle)
 568:../Shared/Libraries/STM32F4xx_StdPeriph_Driver/src/stm32f4xx_i2c.c **** {
ARM GAS  /tmp/ccYPoyit.s 			page 31


 1148              		.loc 1 568 1
 1149              		.cfi_startproc
 1150              		@ args = 0, pretend = 0, frame = 8
 1151              		@ frame_needed = 1, uses_anonymous_args = 0
 1152              		@ link register save eliminated.
 1153 0000 80B4     		push	{r7}
 1154              	.LCFI76:
 1155              		.cfi_def_cfa_offset 4
 1156              		.cfi_offset 7, -4
 1157 0002 83B0     		sub	sp, sp, #12
 1158              	.LCFI77:
 1159              		.cfi_def_cfa_offset 16
 1160 0004 00AF     		add	r7, sp, #0
 1161              	.LCFI78:
 1162              		.cfi_def_cfa_register 7
 1163 0006 7860     		str	r0, [r7, #4]
 1164 0008 0B46     		mov	r3, r1
 1165 000a 7B80     		strh	r3, [r7, #2]	@ movhi
 569:../Shared/Libraries/STM32F4xx_StdPeriph_Driver/src/stm32f4xx_i2c.c ****   /* Check the parameters */
 570:../Shared/Libraries/STM32F4xx_StdPeriph_Driver/src/stm32f4xx_i2c.c ****   assert_param(IS_I2C_ALL_PERIPH(I2Cx));
 571:../Shared/Libraries/STM32F4xx_StdPeriph_Driver/src/stm32f4xx_i2c.c ****   assert_param(IS_I2C_DUTY_CYCLE(I2C_DutyCycle));
 572:../Shared/Libraries/STM32F4xx_StdPeriph_Driver/src/stm32f4xx_i2c.c ****   if (I2C_DutyCycle != I2C_DutyCycle_16_9)
 1166              		.loc 1 572 6
 1167 000c 7B88     		ldrh	r3, [r7, #2]
 1168 000e B3F5804F 		cmp	r3, #16384
 1169 0012 08D0     		beq	.L55
 573:../Shared/Libraries/STM32F4xx_StdPeriph_Driver/src/stm32f4xx_i2c.c ****   {
 574:../Shared/Libraries/STM32F4xx_StdPeriph_Driver/src/stm32f4xx_i2c.c ****     /* I2C fast mode Tlow/Thigh=2 */
 575:../Shared/Libraries/STM32F4xx_StdPeriph_Driver/src/stm32f4xx_i2c.c ****     I2Cx->CCR &= I2C_DutyCycle_2;
 1170              		.loc 1 575 9
 1171 0014 7B68     		ldr	r3, [r7, #4]
 1172 0016 9B8B     		ldrh	r3, [r3, #28]	@ movhi
 1173 0018 9BB2     		uxth	r3, r3
 1174              		.loc 1 575 15
 1175 001a 23F48043 		bic	r3, r3, #16384
 1176 001e 9AB2     		uxth	r2, r3
 1177 0020 7B68     		ldr	r3, [r7, #4]
 1178 0022 9A83     		strh	r2, [r3, #28]	@ movhi
 576:../Shared/Libraries/STM32F4xx_StdPeriph_Driver/src/stm32f4xx_i2c.c ****   }
 577:../Shared/Libraries/STM32F4xx_StdPeriph_Driver/src/stm32f4xx_i2c.c ****   else
 578:../Shared/Libraries/STM32F4xx_StdPeriph_Driver/src/stm32f4xx_i2c.c ****   {
 579:../Shared/Libraries/STM32F4xx_StdPeriph_Driver/src/stm32f4xx_i2c.c ****     /* I2C fast mode Tlow/Thigh=16/9 */
 580:../Shared/Libraries/STM32F4xx_StdPeriph_Driver/src/stm32f4xx_i2c.c ****     I2Cx->CCR |= I2C_DutyCycle_16_9;
 581:../Shared/Libraries/STM32F4xx_StdPeriph_Driver/src/stm32f4xx_i2c.c ****   }
 582:../Shared/Libraries/STM32F4xx_StdPeriph_Driver/src/stm32f4xx_i2c.c **** }
 1179              		.loc 1 582 1
 1180 0024 07E0     		b	.L57
 1181              	.L55:
 580:../Shared/Libraries/STM32F4xx_StdPeriph_Driver/src/stm32f4xx_i2c.c ****   }
 1182              		.loc 1 580 9
 1183 0026 7B68     		ldr	r3, [r7, #4]
 1184 0028 9B8B     		ldrh	r3, [r3, #28]	@ movhi
 1185 002a 9BB2     		uxth	r3, r3
 580:../Shared/Libraries/STM32F4xx_StdPeriph_Driver/src/stm32f4xx_i2c.c ****   }
 1186              		.loc 1 580 15
 1187 002c 43F48043 		orr	r3, r3, #16384
 1188 0030 9AB2     		uxth	r2, r3
ARM GAS  /tmp/ccYPoyit.s 			page 32


 1189 0032 7B68     		ldr	r3, [r7, #4]
 1190 0034 9A83     		strh	r2, [r3, #28]	@ movhi
 1191              	.L57:
 1192              		.loc 1 582 1
 1193 0036 00BF     		nop
 1194 0038 0C37     		adds	r7, r7, #12
 1195              	.LCFI79:
 1196              		.cfi_def_cfa_offset 4
 1197 003a BD46     		mov	sp, r7
 1198              	.LCFI80:
 1199              		.cfi_def_cfa_register 13
 1200              		@ sp needed
 1201 003c 5DF8047B 		ldr	r7, [sp], #4
 1202              	.LCFI81:
 1203              		.cfi_restore 7
 1204              		.cfi_def_cfa_offset 0
 1205 0040 7047     		bx	lr
 1206              		.cfi_endproc
 1207              	.LFE123:
 1209              		.section	.text.I2C_NACKPositionConfig,"ax",%progbits
 1210              		.align	1
 1211              		.global	I2C_NACKPositionConfig
 1212              		.syntax unified
 1213              		.thumb
 1214              		.thumb_func
 1216              	I2C_NACKPositionConfig:
 1217              	.LFB124:
 583:../Shared/Libraries/STM32F4xx_StdPeriph_Driver/src/stm32f4xx_i2c.c **** 
 584:../Shared/Libraries/STM32F4xx_StdPeriph_Driver/src/stm32f4xx_i2c.c **** /**
 585:../Shared/Libraries/STM32F4xx_StdPeriph_Driver/src/stm32f4xx_i2c.c ****   * @brief  Selects the specified I2C NACK position in master receiver mode.
 586:../Shared/Libraries/STM32F4xx_StdPeriph_Driver/src/stm32f4xx_i2c.c ****   * @note   This function is useful in I2C Master Receiver mode when the number
 587:../Shared/Libraries/STM32F4xx_StdPeriph_Driver/src/stm32f4xx_i2c.c ****   *         of data to be received is equal to 2. In this case, this function 
 588:../Shared/Libraries/STM32F4xx_StdPeriph_Driver/src/stm32f4xx_i2c.c ****   *         should be called (with parameter I2C_NACKPosition_Next) before data 
 589:../Shared/Libraries/STM32F4xx_StdPeriph_Driver/src/stm32f4xx_i2c.c ****   *         reception starts,as described in the 2-byte reception procedure 
 590:../Shared/Libraries/STM32F4xx_StdPeriph_Driver/src/stm32f4xx_i2c.c ****   *         recommended in Reference Manual in Section: Master receiver.                
 591:../Shared/Libraries/STM32F4xx_StdPeriph_Driver/src/stm32f4xx_i2c.c ****   * @param  I2Cx: where x can be 1, 2 or 3 to select the I2C peripheral.
 592:../Shared/Libraries/STM32F4xx_StdPeriph_Driver/src/stm32f4xx_i2c.c ****   * @param  I2C_NACKPosition: specifies the NACK position. 
 593:../Shared/Libraries/STM32F4xx_StdPeriph_Driver/src/stm32f4xx_i2c.c ****   *          This parameter can be one of the following values:
 594:../Shared/Libraries/STM32F4xx_StdPeriph_Driver/src/stm32f4xx_i2c.c ****   *            @arg I2C_NACKPosition_Next: indicates that the next byte will be the last
 595:../Shared/Libraries/STM32F4xx_StdPeriph_Driver/src/stm32f4xx_i2c.c ****   *                                        received byte.  
 596:../Shared/Libraries/STM32F4xx_StdPeriph_Driver/src/stm32f4xx_i2c.c ****   *            @arg I2C_NACKPosition_Current: indicates that current byte is the last 
 597:../Shared/Libraries/STM32F4xx_StdPeriph_Driver/src/stm32f4xx_i2c.c ****   *                                           received byte.
 598:../Shared/Libraries/STM32F4xx_StdPeriph_Driver/src/stm32f4xx_i2c.c ****   *            
 599:../Shared/Libraries/STM32F4xx_StdPeriph_Driver/src/stm32f4xx_i2c.c ****   * @note    This function configures the same bit (POS) as I2C_PECPositionConfig() 
 600:../Shared/Libraries/STM32F4xx_StdPeriph_Driver/src/stm32f4xx_i2c.c ****   *          but is intended to be used in I2C mode while I2C_PECPositionConfig() 
 601:../Shared/Libraries/STM32F4xx_StdPeriph_Driver/src/stm32f4xx_i2c.c ****   *          is intended to used in SMBUS mode. 
 602:../Shared/Libraries/STM32F4xx_StdPeriph_Driver/src/stm32f4xx_i2c.c ****   *            
 603:../Shared/Libraries/STM32F4xx_StdPeriph_Driver/src/stm32f4xx_i2c.c ****   * @retval None
 604:../Shared/Libraries/STM32F4xx_StdPeriph_Driver/src/stm32f4xx_i2c.c ****   */
 605:../Shared/Libraries/STM32F4xx_StdPeriph_Driver/src/stm32f4xx_i2c.c **** void I2C_NACKPositionConfig(I2C_TypeDef* I2Cx, uint16_t I2C_NACKPosition)
 606:../Shared/Libraries/STM32F4xx_StdPeriph_Driver/src/stm32f4xx_i2c.c **** {
 1218              		.loc 1 606 1
 1219              		.cfi_startproc
 1220              		@ args = 0, pretend = 0, frame = 8
 1221              		@ frame_needed = 1, uses_anonymous_args = 0
 1222              		@ link register save eliminated.
 1223 0000 80B4     		push	{r7}
ARM GAS  /tmp/ccYPoyit.s 			page 33


 1224              	.LCFI82:
 1225              		.cfi_def_cfa_offset 4
 1226              		.cfi_offset 7, -4
 1227 0002 83B0     		sub	sp, sp, #12
 1228              	.LCFI83:
 1229              		.cfi_def_cfa_offset 16
 1230 0004 00AF     		add	r7, sp, #0
 1231              	.LCFI84:
 1232              		.cfi_def_cfa_register 7
 1233 0006 7860     		str	r0, [r7, #4]
 1234 0008 0B46     		mov	r3, r1
 1235 000a 7B80     		strh	r3, [r7, #2]	@ movhi
 607:../Shared/Libraries/STM32F4xx_StdPeriph_Driver/src/stm32f4xx_i2c.c ****   /* Check the parameters */
 608:../Shared/Libraries/STM32F4xx_StdPeriph_Driver/src/stm32f4xx_i2c.c ****   assert_param(IS_I2C_ALL_PERIPH(I2Cx));
 609:../Shared/Libraries/STM32F4xx_StdPeriph_Driver/src/stm32f4xx_i2c.c ****   assert_param(IS_I2C_NACK_POSITION(I2C_NACKPosition));
 610:../Shared/Libraries/STM32F4xx_StdPeriph_Driver/src/stm32f4xx_i2c.c ****   
 611:../Shared/Libraries/STM32F4xx_StdPeriph_Driver/src/stm32f4xx_i2c.c ****   /* Check the input parameter */
 612:../Shared/Libraries/STM32F4xx_StdPeriph_Driver/src/stm32f4xx_i2c.c ****   if (I2C_NACKPosition == I2C_NACKPosition_Next)
 1236              		.loc 1 612 6
 1237 000c 7B88     		ldrh	r3, [r7, #2]
 1238 000e B3F5006F 		cmp	r3, #2048
 1239 0012 08D1     		bne	.L59
 613:../Shared/Libraries/STM32F4xx_StdPeriph_Driver/src/stm32f4xx_i2c.c ****   {
 614:../Shared/Libraries/STM32F4xx_StdPeriph_Driver/src/stm32f4xx_i2c.c ****     /* Next byte in shift register is the last received byte */
 615:../Shared/Libraries/STM32F4xx_StdPeriph_Driver/src/stm32f4xx_i2c.c ****     I2Cx->CR1 |= I2C_NACKPosition_Next;
 1240              		.loc 1 615 9
 1241 0014 7B68     		ldr	r3, [r7, #4]
 1242 0016 1B88     		ldrh	r3, [r3]	@ movhi
 1243 0018 9BB2     		uxth	r3, r3
 1244              		.loc 1 615 15
 1245 001a 43F40063 		orr	r3, r3, #2048
 1246 001e 9AB2     		uxth	r2, r3
 1247 0020 7B68     		ldr	r3, [r7, #4]
 1248 0022 1A80     		strh	r2, [r3]	@ movhi
 616:../Shared/Libraries/STM32F4xx_StdPeriph_Driver/src/stm32f4xx_i2c.c ****   }
 617:../Shared/Libraries/STM32F4xx_StdPeriph_Driver/src/stm32f4xx_i2c.c ****   else
 618:../Shared/Libraries/STM32F4xx_StdPeriph_Driver/src/stm32f4xx_i2c.c ****   {
 619:../Shared/Libraries/STM32F4xx_StdPeriph_Driver/src/stm32f4xx_i2c.c ****     /* Current byte in shift register is the last received byte */
 620:../Shared/Libraries/STM32F4xx_StdPeriph_Driver/src/stm32f4xx_i2c.c ****     I2Cx->CR1 &= I2C_NACKPosition_Current;
 621:../Shared/Libraries/STM32F4xx_StdPeriph_Driver/src/stm32f4xx_i2c.c ****   }
 622:../Shared/Libraries/STM32F4xx_StdPeriph_Driver/src/stm32f4xx_i2c.c **** }
 1249              		.loc 1 622 1
 1250 0024 07E0     		b	.L61
 1251              	.L59:
 620:../Shared/Libraries/STM32F4xx_StdPeriph_Driver/src/stm32f4xx_i2c.c ****   }
 1252              		.loc 1 620 9
 1253 0026 7B68     		ldr	r3, [r7, #4]
 1254 0028 1B88     		ldrh	r3, [r3]	@ movhi
 1255 002a 9BB2     		uxth	r3, r3
 620:../Shared/Libraries/STM32F4xx_StdPeriph_Driver/src/stm32f4xx_i2c.c ****   }
 1256              		.loc 1 620 15
 1257 002c 23F40063 		bic	r3, r3, #2048
 1258 0030 9AB2     		uxth	r2, r3
 1259 0032 7B68     		ldr	r3, [r7, #4]
 1260 0034 1A80     		strh	r2, [r3]	@ movhi
 1261              	.L61:
 1262              		.loc 1 622 1
ARM GAS  /tmp/ccYPoyit.s 			page 34


 1263 0036 00BF     		nop
 1264 0038 0C37     		adds	r7, r7, #12
 1265              	.LCFI85:
 1266              		.cfi_def_cfa_offset 4
 1267 003a BD46     		mov	sp, r7
 1268              	.LCFI86:
 1269              		.cfi_def_cfa_register 13
 1270              		@ sp needed
 1271 003c 5DF8047B 		ldr	r7, [sp], #4
 1272              	.LCFI87:
 1273              		.cfi_restore 7
 1274              		.cfi_def_cfa_offset 0
 1275 0040 7047     		bx	lr
 1276              		.cfi_endproc
 1277              	.LFE124:
 1279              		.section	.text.I2C_SMBusAlertConfig,"ax",%progbits
 1280              		.align	1
 1281              		.global	I2C_SMBusAlertConfig
 1282              		.syntax unified
 1283              		.thumb
 1284              		.thumb_func
 1286              	I2C_SMBusAlertConfig:
 1287              	.LFB125:
 623:../Shared/Libraries/STM32F4xx_StdPeriph_Driver/src/stm32f4xx_i2c.c **** 
 624:../Shared/Libraries/STM32F4xx_StdPeriph_Driver/src/stm32f4xx_i2c.c **** /**
 625:../Shared/Libraries/STM32F4xx_StdPeriph_Driver/src/stm32f4xx_i2c.c ****   * @brief  Drives the SMBusAlert pin high or low for the specified I2C.
 626:../Shared/Libraries/STM32F4xx_StdPeriph_Driver/src/stm32f4xx_i2c.c ****   * @param  I2Cx: where x can be 1, 2 or 3 to select the I2C peripheral.
 627:../Shared/Libraries/STM32F4xx_StdPeriph_Driver/src/stm32f4xx_i2c.c ****   * @param  I2C_SMBusAlert: specifies SMBAlert pin level. 
 628:../Shared/Libraries/STM32F4xx_StdPeriph_Driver/src/stm32f4xx_i2c.c ****   *          This parameter can be one of the following values:
 629:../Shared/Libraries/STM32F4xx_StdPeriph_Driver/src/stm32f4xx_i2c.c ****   *            @arg I2C_SMBusAlert_Low: SMBAlert pin driven low
 630:../Shared/Libraries/STM32F4xx_StdPeriph_Driver/src/stm32f4xx_i2c.c ****   *            @arg I2C_SMBusAlert_High: SMBAlert pin driven high
 631:../Shared/Libraries/STM32F4xx_StdPeriph_Driver/src/stm32f4xx_i2c.c ****   * @retval None
 632:../Shared/Libraries/STM32F4xx_StdPeriph_Driver/src/stm32f4xx_i2c.c ****   */
 633:../Shared/Libraries/STM32F4xx_StdPeriph_Driver/src/stm32f4xx_i2c.c **** void I2C_SMBusAlertConfig(I2C_TypeDef* I2Cx, uint16_t I2C_SMBusAlert)
 634:../Shared/Libraries/STM32F4xx_StdPeriph_Driver/src/stm32f4xx_i2c.c **** {
 1288              		.loc 1 634 1
 1289              		.cfi_startproc
 1290              		@ args = 0, pretend = 0, frame = 8
 1291              		@ frame_needed = 1, uses_anonymous_args = 0
 1292              		@ link register save eliminated.
 1293 0000 80B4     		push	{r7}
 1294              	.LCFI88:
 1295              		.cfi_def_cfa_offset 4
 1296              		.cfi_offset 7, -4
 1297 0002 83B0     		sub	sp, sp, #12
 1298              	.LCFI89:
 1299              		.cfi_def_cfa_offset 16
 1300 0004 00AF     		add	r7, sp, #0
 1301              	.LCFI90:
 1302              		.cfi_def_cfa_register 7
 1303 0006 7860     		str	r0, [r7, #4]
 1304 0008 0B46     		mov	r3, r1
 1305 000a 7B80     		strh	r3, [r7, #2]	@ movhi
 635:../Shared/Libraries/STM32F4xx_StdPeriph_Driver/src/stm32f4xx_i2c.c ****   /* Check the parameters */
 636:../Shared/Libraries/STM32F4xx_StdPeriph_Driver/src/stm32f4xx_i2c.c ****   assert_param(IS_I2C_ALL_PERIPH(I2Cx));
 637:../Shared/Libraries/STM32F4xx_StdPeriph_Driver/src/stm32f4xx_i2c.c ****   assert_param(IS_I2C_SMBUS_ALERT(I2C_SMBusAlert));
 638:../Shared/Libraries/STM32F4xx_StdPeriph_Driver/src/stm32f4xx_i2c.c ****   if (I2C_SMBusAlert == I2C_SMBusAlert_Low)
ARM GAS  /tmp/ccYPoyit.s 			page 35


 1306              		.loc 1 638 6
 1307 000c 7B88     		ldrh	r3, [r7, #2]
 1308 000e B3F5005F 		cmp	r3, #8192
 1309 0012 08D1     		bne	.L63
 639:../Shared/Libraries/STM32F4xx_StdPeriph_Driver/src/stm32f4xx_i2c.c ****   {
 640:../Shared/Libraries/STM32F4xx_StdPeriph_Driver/src/stm32f4xx_i2c.c ****     /* Drive the SMBusAlert pin Low */
 641:../Shared/Libraries/STM32F4xx_StdPeriph_Driver/src/stm32f4xx_i2c.c ****     I2Cx->CR1 |= I2C_SMBusAlert_Low;
 1310              		.loc 1 641 9
 1311 0014 7B68     		ldr	r3, [r7, #4]
 1312 0016 1B88     		ldrh	r3, [r3]	@ movhi
 1313 0018 9BB2     		uxth	r3, r3
 1314              		.loc 1 641 15
 1315 001a 43F40053 		orr	r3, r3, #8192
 1316 001e 9AB2     		uxth	r2, r3
 1317 0020 7B68     		ldr	r3, [r7, #4]
 1318 0022 1A80     		strh	r2, [r3]	@ movhi
 642:../Shared/Libraries/STM32F4xx_StdPeriph_Driver/src/stm32f4xx_i2c.c ****   }
 643:../Shared/Libraries/STM32F4xx_StdPeriph_Driver/src/stm32f4xx_i2c.c ****   else
 644:../Shared/Libraries/STM32F4xx_StdPeriph_Driver/src/stm32f4xx_i2c.c ****   {
 645:../Shared/Libraries/STM32F4xx_StdPeriph_Driver/src/stm32f4xx_i2c.c ****     /* Drive the SMBusAlert pin High  */
 646:../Shared/Libraries/STM32F4xx_StdPeriph_Driver/src/stm32f4xx_i2c.c ****     I2Cx->CR1 &= I2C_SMBusAlert_High;
 647:../Shared/Libraries/STM32F4xx_StdPeriph_Driver/src/stm32f4xx_i2c.c ****   }
 648:../Shared/Libraries/STM32F4xx_StdPeriph_Driver/src/stm32f4xx_i2c.c **** }
 1319              		.loc 1 648 1
 1320 0024 07E0     		b	.L65
 1321              	.L63:
 646:../Shared/Libraries/STM32F4xx_StdPeriph_Driver/src/stm32f4xx_i2c.c ****   }
 1322              		.loc 1 646 9
 1323 0026 7B68     		ldr	r3, [r7, #4]
 1324 0028 1B88     		ldrh	r3, [r3]	@ movhi
 1325 002a 9BB2     		uxth	r3, r3
 646:../Shared/Libraries/STM32F4xx_StdPeriph_Driver/src/stm32f4xx_i2c.c ****   }
 1326              		.loc 1 646 15
 1327 002c 23F40053 		bic	r3, r3, #8192
 1328 0030 9AB2     		uxth	r2, r3
 1329 0032 7B68     		ldr	r3, [r7, #4]
 1330 0034 1A80     		strh	r2, [r3]	@ movhi
 1331              	.L65:
 1332              		.loc 1 648 1
 1333 0036 00BF     		nop
 1334 0038 0C37     		adds	r7, r7, #12
 1335              	.LCFI91:
 1336              		.cfi_def_cfa_offset 4
 1337 003a BD46     		mov	sp, r7
 1338              	.LCFI92:
 1339              		.cfi_def_cfa_register 13
 1340              		@ sp needed
 1341 003c 5DF8047B 		ldr	r7, [sp], #4
 1342              	.LCFI93:
 1343              		.cfi_restore 7
 1344              		.cfi_def_cfa_offset 0
 1345 0040 7047     		bx	lr
 1346              		.cfi_endproc
 1347              	.LFE125:
 1349              		.section	.text.I2C_ARPCmd,"ax",%progbits
 1350              		.align	1
 1351              		.global	I2C_ARPCmd
ARM GAS  /tmp/ccYPoyit.s 			page 36


 1352              		.syntax unified
 1353              		.thumb
 1354              		.thumb_func
 1356              	I2C_ARPCmd:
 1357              	.LFB126:
 649:../Shared/Libraries/STM32F4xx_StdPeriph_Driver/src/stm32f4xx_i2c.c **** 
 650:../Shared/Libraries/STM32F4xx_StdPeriph_Driver/src/stm32f4xx_i2c.c **** /**
 651:../Shared/Libraries/STM32F4xx_StdPeriph_Driver/src/stm32f4xx_i2c.c ****   * @brief  Enables or disables the specified I2C ARP.
 652:../Shared/Libraries/STM32F4xx_StdPeriph_Driver/src/stm32f4xx_i2c.c ****   * @param  I2Cx: where x can be 1, 2 or 3 to select the I2C peripheral.
 653:../Shared/Libraries/STM32F4xx_StdPeriph_Driver/src/stm32f4xx_i2c.c ****   * @param  NewState: new state of the I2Cx ARP. 
 654:../Shared/Libraries/STM32F4xx_StdPeriph_Driver/src/stm32f4xx_i2c.c ****   *          This parameter can be: ENABLE or DISABLE.
 655:../Shared/Libraries/STM32F4xx_StdPeriph_Driver/src/stm32f4xx_i2c.c ****   * @retval None
 656:../Shared/Libraries/STM32F4xx_StdPeriph_Driver/src/stm32f4xx_i2c.c ****   */
 657:../Shared/Libraries/STM32F4xx_StdPeriph_Driver/src/stm32f4xx_i2c.c **** void I2C_ARPCmd(I2C_TypeDef* I2Cx, FunctionalState NewState)
 658:../Shared/Libraries/STM32F4xx_StdPeriph_Driver/src/stm32f4xx_i2c.c **** {
 1358              		.loc 1 658 1
 1359              		.cfi_startproc
 1360              		@ args = 0, pretend = 0, frame = 8
 1361              		@ frame_needed = 1, uses_anonymous_args = 0
 1362              		@ link register save eliminated.
 1363 0000 80B4     		push	{r7}
 1364              	.LCFI94:
 1365              		.cfi_def_cfa_offset 4
 1366              		.cfi_offset 7, -4
 1367 0002 83B0     		sub	sp, sp, #12
 1368              	.LCFI95:
 1369              		.cfi_def_cfa_offset 16
 1370 0004 00AF     		add	r7, sp, #0
 1371              	.LCFI96:
 1372              		.cfi_def_cfa_register 7
 1373 0006 7860     		str	r0, [r7, #4]
 1374 0008 0B46     		mov	r3, r1
 1375 000a FB70     		strb	r3, [r7, #3]
 659:../Shared/Libraries/STM32F4xx_StdPeriph_Driver/src/stm32f4xx_i2c.c ****   /* Check the parameters */
 660:../Shared/Libraries/STM32F4xx_StdPeriph_Driver/src/stm32f4xx_i2c.c ****   assert_param(IS_I2C_ALL_PERIPH(I2Cx));
 661:../Shared/Libraries/STM32F4xx_StdPeriph_Driver/src/stm32f4xx_i2c.c ****   assert_param(IS_FUNCTIONAL_STATE(NewState));
 662:../Shared/Libraries/STM32F4xx_StdPeriph_Driver/src/stm32f4xx_i2c.c ****   if (NewState != DISABLE)
 1376              		.loc 1 662 6
 1377 000c FB78     		ldrb	r3, [r7, #3]	@ zero_extendqisi2
 1378 000e 002B     		cmp	r3, #0
 1379 0010 08D0     		beq	.L67
 663:../Shared/Libraries/STM32F4xx_StdPeriph_Driver/src/stm32f4xx_i2c.c ****   {
 664:../Shared/Libraries/STM32F4xx_StdPeriph_Driver/src/stm32f4xx_i2c.c ****     /* Enable the selected I2C ARP */
 665:../Shared/Libraries/STM32F4xx_StdPeriph_Driver/src/stm32f4xx_i2c.c ****     I2Cx->CR1 |= I2C_CR1_ENARP;
 1380              		.loc 1 665 9
 1381 0012 7B68     		ldr	r3, [r7, #4]
 1382 0014 1B88     		ldrh	r3, [r3]	@ movhi
 1383 0016 9BB2     		uxth	r3, r3
 1384              		.loc 1 665 15
 1385 0018 43F01003 		orr	r3, r3, #16
 1386 001c 9AB2     		uxth	r2, r3
 1387 001e 7B68     		ldr	r3, [r7, #4]
 1388 0020 1A80     		strh	r2, [r3]	@ movhi
 666:../Shared/Libraries/STM32F4xx_StdPeriph_Driver/src/stm32f4xx_i2c.c ****   }
 667:../Shared/Libraries/STM32F4xx_StdPeriph_Driver/src/stm32f4xx_i2c.c ****   else
 668:../Shared/Libraries/STM32F4xx_StdPeriph_Driver/src/stm32f4xx_i2c.c ****   {
 669:../Shared/Libraries/STM32F4xx_StdPeriph_Driver/src/stm32f4xx_i2c.c ****     /* Disable the selected I2C ARP */
ARM GAS  /tmp/ccYPoyit.s 			page 37


 670:../Shared/Libraries/STM32F4xx_StdPeriph_Driver/src/stm32f4xx_i2c.c ****     I2Cx->CR1 &= (uint16_t)~((uint16_t)I2C_CR1_ENARP);
 671:../Shared/Libraries/STM32F4xx_StdPeriph_Driver/src/stm32f4xx_i2c.c ****   }
 672:../Shared/Libraries/STM32F4xx_StdPeriph_Driver/src/stm32f4xx_i2c.c **** }
 1389              		.loc 1 672 1
 1390 0022 07E0     		b	.L69
 1391              	.L67:
 670:../Shared/Libraries/STM32F4xx_StdPeriph_Driver/src/stm32f4xx_i2c.c ****   }
 1392              		.loc 1 670 9
 1393 0024 7B68     		ldr	r3, [r7, #4]
 1394 0026 1B88     		ldrh	r3, [r3]	@ movhi
 1395 0028 9BB2     		uxth	r3, r3
 670:../Shared/Libraries/STM32F4xx_StdPeriph_Driver/src/stm32f4xx_i2c.c ****   }
 1396              		.loc 1 670 15
 1397 002a 23F01003 		bic	r3, r3, #16
 1398 002e 9AB2     		uxth	r2, r3
 1399 0030 7B68     		ldr	r3, [r7, #4]
 1400 0032 1A80     		strh	r2, [r3]	@ movhi
 1401              	.L69:
 1402              		.loc 1 672 1
 1403 0034 00BF     		nop
 1404 0036 0C37     		adds	r7, r7, #12
 1405              	.LCFI97:
 1406              		.cfi_def_cfa_offset 4
 1407 0038 BD46     		mov	sp, r7
 1408              	.LCFI98:
 1409              		.cfi_def_cfa_register 13
 1410              		@ sp needed
 1411 003a 5DF8047B 		ldr	r7, [sp], #4
 1412              	.LCFI99:
 1413              		.cfi_restore 7
 1414              		.cfi_def_cfa_offset 0
 1415 003e 7047     		bx	lr
 1416              		.cfi_endproc
 1417              	.LFE126:
 1419              		.section	.text.I2C_SendData,"ax",%progbits
 1420              		.align	1
 1421              		.global	I2C_SendData
 1422              		.syntax unified
 1423              		.thumb
 1424              		.thumb_func
 1426              	I2C_SendData:
 1427              	.LFB127:
 673:../Shared/Libraries/STM32F4xx_StdPeriph_Driver/src/stm32f4xx_i2c.c **** /**
 674:../Shared/Libraries/STM32F4xx_StdPeriph_Driver/src/stm32f4xx_i2c.c ****   * @}
 675:../Shared/Libraries/STM32F4xx_StdPeriph_Driver/src/stm32f4xx_i2c.c ****   */
 676:../Shared/Libraries/STM32F4xx_StdPeriph_Driver/src/stm32f4xx_i2c.c **** 
 677:../Shared/Libraries/STM32F4xx_StdPeriph_Driver/src/stm32f4xx_i2c.c **** /** @defgroup I2C_Group2 Data transfers functions
 678:../Shared/Libraries/STM32F4xx_StdPeriph_Driver/src/stm32f4xx_i2c.c ****  *  @brief   Data transfers functions 
 679:../Shared/Libraries/STM32F4xx_StdPeriph_Driver/src/stm32f4xx_i2c.c ****  *
 680:../Shared/Libraries/STM32F4xx_StdPeriph_Driver/src/stm32f4xx_i2c.c **** @verbatim   
 681:../Shared/Libraries/STM32F4xx_StdPeriph_Driver/src/stm32f4xx_i2c.c ****  ===============================================================================
 682:../Shared/Libraries/STM32F4xx_StdPeriph_Driver/src/stm32f4xx_i2c.c ****                         Data transfers functions
 683:../Shared/Libraries/STM32F4xx_StdPeriph_Driver/src/stm32f4xx_i2c.c ****  ===============================================================================  
 684:../Shared/Libraries/STM32F4xx_StdPeriph_Driver/src/stm32f4xx_i2c.c **** 
 685:../Shared/Libraries/STM32F4xx_StdPeriph_Driver/src/stm32f4xx_i2c.c **** @endverbatim
 686:../Shared/Libraries/STM32F4xx_StdPeriph_Driver/src/stm32f4xx_i2c.c ****   * @{
 687:../Shared/Libraries/STM32F4xx_StdPeriph_Driver/src/stm32f4xx_i2c.c ****   */
ARM GAS  /tmp/ccYPoyit.s 			page 38


 688:../Shared/Libraries/STM32F4xx_StdPeriph_Driver/src/stm32f4xx_i2c.c **** 
 689:../Shared/Libraries/STM32F4xx_StdPeriph_Driver/src/stm32f4xx_i2c.c **** /**
 690:../Shared/Libraries/STM32F4xx_StdPeriph_Driver/src/stm32f4xx_i2c.c ****   * @brief  Sends a data byte through the I2Cx peripheral.
 691:../Shared/Libraries/STM32F4xx_StdPeriph_Driver/src/stm32f4xx_i2c.c ****   * @param  I2Cx: where x can be 1, 2 or 3 to select the I2C peripheral.
 692:../Shared/Libraries/STM32F4xx_StdPeriph_Driver/src/stm32f4xx_i2c.c ****   * @param  Data: Byte to be transmitted..
 693:../Shared/Libraries/STM32F4xx_StdPeriph_Driver/src/stm32f4xx_i2c.c ****   * @retval None
 694:../Shared/Libraries/STM32F4xx_StdPeriph_Driver/src/stm32f4xx_i2c.c ****   */
 695:../Shared/Libraries/STM32F4xx_StdPeriph_Driver/src/stm32f4xx_i2c.c **** void I2C_SendData(I2C_TypeDef* I2Cx, uint8_t Data)
 696:../Shared/Libraries/STM32F4xx_StdPeriph_Driver/src/stm32f4xx_i2c.c **** {
 1428              		.loc 1 696 1
 1429              		.cfi_startproc
 1430              		@ args = 0, pretend = 0, frame = 8
 1431              		@ frame_needed = 1, uses_anonymous_args = 0
 1432              		@ link register save eliminated.
 1433 0000 80B4     		push	{r7}
 1434              	.LCFI100:
 1435              		.cfi_def_cfa_offset 4
 1436              		.cfi_offset 7, -4
 1437 0002 83B0     		sub	sp, sp, #12
 1438              	.LCFI101:
 1439              		.cfi_def_cfa_offset 16
 1440 0004 00AF     		add	r7, sp, #0
 1441              	.LCFI102:
 1442              		.cfi_def_cfa_register 7
 1443 0006 7860     		str	r0, [r7, #4]
 1444 0008 0B46     		mov	r3, r1
 1445 000a FB70     		strb	r3, [r7, #3]
 697:../Shared/Libraries/STM32F4xx_StdPeriph_Driver/src/stm32f4xx_i2c.c ****   /* Check the parameters */
 698:../Shared/Libraries/STM32F4xx_StdPeriph_Driver/src/stm32f4xx_i2c.c ****   assert_param(IS_I2C_ALL_PERIPH(I2Cx));
 699:../Shared/Libraries/STM32F4xx_StdPeriph_Driver/src/stm32f4xx_i2c.c ****   /* Write in the DR register the data to be sent */
 700:../Shared/Libraries/STM32F4xx_StdPeriph_Driver/src/stm32f4xx_i2c.c ****   I2Cx->DR = Data;
 1446              		.loc 1 700 12
 1447 000c FB78     		ldrb	r3, [r7, #3]	@ zero_extendqisi2
 1448 000e 9AB2     		uxth	r2, r3
 1449 0010 7B68     		ldr	r3, [r7, #4]
 1450 0012 1A82     		strh	r2, [r3, #16]	@ movhi
 701:../Shared/Libraries/STM32F4xx_StdPeriph_Driver/src/stm32f4xx_i2c.c **** }
 1451              		.loc 1 701 1
 1452 0014 00BF     		nop
 1453 0016 0C37     		adds	r7, r7, #12
 1454              	.LCFI103:
 1455              		.cfi_def_cfa_offset 4
 1456 0018 BD46     		mov	sp, r7
 1457              	.LCFI104:
 1458              		.cfi_def_cfa_register 13
 1459              		@ sp needed
 1460 001a 5DF8047B 		ldr	r7, [sp], #4
 1461              	.LCFI105:
 1462              		.cfi_restore 7
 1463              		.cfi_def_cfa_offset 0
 1464 001e 7047     		bx	lr
 1465              		.cfi_endproc
 1466              	.LFE127:
 1468              		.section	.text.I2C_ReceiveData,"ax",%progbits
 1469              		.align	1
 1470              		.global	I2C_ReceiveData
 1471              		.syntax unified
ARM GAS  /tmp/ccYPoyit.s 			page 39


 1472              		.thumb
 1473              		.thumb_func
 1475              	I2C_ReceiveData:
 1476              	.LFB128:
 702:../Shared/Libraries/STM32F4xx_StdPeriph_Driver/src/stm32f4xx_i2c.c **** 
 703:../Shared/Libraries/STM32F4xx_StdPeriph_Driver/src/stm32f4xx_i2c.c **** /**
 704:../Shared/Libraries/STM32F4xx_StdPeriph_Driver/src/stm32f4xx_i2c.c ****   * @brief  Returns the most recent received data by the I2Cx peripheral.
 705:../Shared/Libraries/STM32F4xx_StdPeriph_Driver/src/stm32f4xx_i2c.c ****   * @param  I2Cx: where x can be 1, 2 or 3 to select the I2C peripheral.
 706:../Shared/Libraries/STM32F4xx_StdPeriph_Driver/src/stm32f4xx_i2c.c ****   * @retval The value of the received data.
 707:../Shared/Libraries/STM32F4xx_StdPeriph_Driver/src/stm32f4xx_i2c.c ****   */
 708:../Shared/Libraries/STM32F4xx_StdPeriph_Driver/src/stm32f4xx_i2c.c **** uint8_t I2C_ReceiveData(I2C_TypeDef* I2Cx)
 709:../Shared/Libraries/STM32F4xx_StdPeriph_Driver/src/stm32f4xx_i2c.c **** {
 1477              		.loc 1 709 1
 1478              		.cfi_startproc
 1479              		@ args = 0, pretend = 0, frame = 8
 1480              		@ frame_needed = 1, uses_anonymous_args = 0
 1481              		@ link register save eliminated.
 1482 0000 80B4     		push	{r7}
 1483              	.LCFI106:
 1484              		.cfi_def_cfa_offset 4
 1485              		.cfi_offset 7, -4
 1486 0002 83B0     		sub	sp, sp, #12
 1487              	.LCFI107:
 1488              		.cfi_def_cfa_offset 16
 1489 0004 00AF     		add	r7, sp, #0
 1490              	.LCFI108:
 1491              		.cfi_def_cfa_register 7
 1492 0006 7860     		str	r0, [r7, #4]
 710:../Shared/Libraries/STM32F4xx_StdPeriph_Driver/src/stm32f4xx_i2c.c ****   /* Check the parameters */
 711:../Shared/Libraries/STM32F4xx_StdPeriph_Driver/src/stm32f4xx_i2c.c ****   assert_param(IS_I2C_ALL_PERIPH(I2Cx));
 712:../Shared/Libraries/STM32F4xx_StdPeriph_Driver/src/stm32f4xx_i2c.c ****   /* Return the data in the DR register */
 713:../Shared/Libraries/STM32F4xx_StdPeriph_Driver/src/stm32f4xx_i2c.c ****   return (uint8_t)I2Cx->DR;
 1493              		.loc 1 713 23
 1494 0008 7B68     		ldr	r3, [r7, #4]
 1495 000a 1B8A     		ldrh	r3, [r3, #16]	@ movhi
 1496 000c 9BB2     		uxth	r3, r3
 1497              		.loc 1 713 10
 1498 000e DBB2     		uxtb	r3, r3
 714:../Shared/Libraries/STM32F4xx_StdPeriph_Driver/src/stm32f4xx_i2c.c **** }
 1499              		.loc 1 714 1
 1500 0010 1846     		mov	r0, r3
 1501 0012 0C37     		adds	r7, r7, #12
 1502              	.LCFI109:
 1503              		.cfi_def_cfa_offset 4
 1504 0014 BD46     		mov	sp, r7
 1505              	.LCFI110:
 1506              		.cfi_def_cfa_register 13
 1507              		@ sp needed
 1508 0016 5DF8047B 		ldr	r7, [sp], #4
 1509              	.LCFI111:
 1510              		.cfi_restore 7
 1511              		.cfi_def_cfa_offset 0
 1512 001a 7047     		bx	lr
 1513              		.cfi_endproc
 1514              	.LFE128:
 1516              		.section	.text.I2C_TransmitPEC,"ax",%progbits
 1517              		.align	1
ARM GAS  /tmp/ccYPoyit.s 			page 40


 1518              		.global	I2C_TransmitPEC
 1519              		.syntax unified
 1520              		.thumb
 1521              		.thumb_func
 1523              	I2C_TransmitPEC:
 1524              	.LFB129:
 715:../Shared/Libraries/STM32F4xx_StdPeriph_Driver/src/stm32f4xx_i2c.c **** 
 716:../Shared/Libraries/STM32F4xx_StdPeriph_Driver/src/stm32f4xx_i2c.c **** /**
 717:../Shared/Libraries/STM32F4xx_StdPeriph_Driver/src/stm32f4xx_i2c.c ****   * @}
 718:../Shared/Libraries/STM32F4xx_StdPeriph_Driver/src/stm32f4xx_i2c.c ****   */
 719:../Shared/Libraries/STM32F4xx_StdPeriph_Driver/src/stm32f4xx_i2c.c **** 
 720:../Shared/Libraries/STM32F4xx_StdPeriph_Driver/src/stm32f4xx_i2c.c **** /** @defgroup I2C_Group3 PEC management functions
 721:../Shared/Libraries/STM32F4xx_StdPeriph_Driver/src/stm32f4xx_i2c.c ****  *  @brief   PEC management functions 
 722:../Shared/Libraries/STM32F4xx_StdPeriph_Driver/src/stm32f4xx_i2c.c ****  *
 723:../Shared/Libraries/STM32F4xx_StdPeriph_Driver/src/stm32f4xx_i2c.c **** @verbatim   
 724:../Shared/Libraries/STM32F4xx_StdPeriph_Driver/src/stm32f4xx_i2c.c ****  ===============================================================================
 725:../Shared/Libraries/STM32F4xx_StdPeriph_Driver/src/stm32f4xx_i2c.c ****                          PEC management functions
 726:../Shared/Libraries/STM32F4xx_StdPeriph_Driver/src/stm32f4xx_i2c.c ****  ===============================================================================  
 727:../Shared/Libraries/STM32F4xx_StdPeriph_Driver/src/stm32f4xx_i2c.c **** 
 728:../Shared/Libraries/STM32F4xx_StdPeriph_Driver/src/stm32f4xx_i2c.c **** @endverbatim
 729:../Shared/Libraries/STM32F4xx_StdPeriph_Driver/src/stm32f4xx_i2c.c ****   * @{
 730:../Shared/Libraries/STM32F4xx_StdPeriph_Driver/src/stm32f4xx_i2c.c ****   */
 731:../Shared/Libraries/STM32F4xx_StdPeriph_Driver/src/stm32f4xx_i2c.c **** 
 732:../Shared/Libraries/STM32F4xx_StdPeriph_Driver/src/stm32f4xx_i2c.c **** /**
 733:../Shared/Libraries/STM32F4xx_StdPeriph_Driver/src/stm32f4xx_i2c.c ****   * @brief  Enables or disables the specified I2C PEC transfer.
 734:../Shared/Libraries/STM32F4xx_StdPeriph_Driver/src/stm32f4xx_i2c.c ****   * @param  I2Cx: where x can be 1, 2 or 3 to select the I2C peripheral.
 735:../Shared/Libraries/STM32F4xx_StdPeriph_Driver/src/stm32f4xx_i2c.c ****   * @param  NewState: new state of the I2C PEC transmission.
 736:../Shared/Libraries/STM32F4xx_StdPeriph_Driver/src/stm32f4xx_i2c.c ****   *          This parameter can be: ENABLE or DISABLE.
 737:../Shared/Libraries/STM32F4xx_StdPeriph_Driver/src/stm32f4xx_i2c.c ****   * @retval None
 738:../Shared/Libraries/STM32F4xx_StdPeriph_Driver/src/stm32f4xx_i2c.c ****   */
 739:../Shared/Libraries/STM32F4xx_StdPeriph_Driver/src/stm32f4xx_i2c.c **** void I2C_TransmitPEC(I2C_TypeDef* I2Cx, FunctionalState NewState)
 740:../Shared/Libraries/STM32F4xx_StdPeriph_Driver/src/stm32f4xx_i2c.c **** {
 1525              		.loc 1 740 1
 1526              		.cfi_startproc
 1527              		@ args = 0, pretend = 0, frame = 8
 1528              		@ frame_needed = 1, uses_anonymous_args = 0
 1529              		@ link register save eliminated.
 1530 0000 80B4     		push	{r7}
 1531              	.LCFI112:
 1532              		.cfi_def_cfa_offset 4
 1533              		.cfi_offset 7, -4
 1534 0002 83B0     		sub	sp, sp, #12
 1535              	.LCFI113:
 1536              		.cfi_def_cfa_offset 16
 1537 0004 00AF     		add	r7, sp, #0
 1538              	.LCFI114:
 1539              		.cfi_def_cfa_register 7
 1540 0006 7860     		str	r0, [r7, #4]
 1541 0008 0B46     		mov	r3, r1
 1542 000a FB70     		strb	r3, [r7, #3]
 741:../Shared/Libraries/STM32F4xx_StdPeriph_Driver/src/stm32f4xx_i2c.c ****   /* Check the parameters */
 742:../Shared/Libraries/STM32F4xx_StdPeriph_Driver/src/stm32f4xx_i2c.c ****   assert_param(IS_I2C_ALL_PERIPH(I2Cx));
 743:../Shared/Libraries/STM32F4xx_StdPeriph_Driver/src/stm32f4xx_i2c.c ****   assert_param(IS_FUNCTIONAL_STATE(NewState));
 744:../Shared/Libraries/STM32F4xx_StdPeriph_Driver/src/stm32f4xx_i2c.c ****   if (NewState != DISABLE)
 1543              		.loc 1 744 6
 1544 000c FB78     		ldrb	r3, [r7, #3]	@ zero_extendqisi2
 1545 000e 002B     		cmp	r3, #0
ARM GAS  /tmp/ccYPoyit.s 			page 41


 1546 0010 08D0     		beq	.L74
 745:../Shared/Libraries/STM32F4xx_StdPeriph_Driver/src/stm32f4xx_i2c.c ****   {
 746:../Shared/Libraries/STM32F4xx_StdPeriph_Driver/src/stm32f4xx_i2c.c ****     /* Enable the selected I2C PEC transmission */
 747:../Shared/Libraries/STM32F4xx_StdPeriph_Driver/src/stm32f4xx_i2c.c ****     I2Cx->CR1 |= I2C_CR1_PEC;
 1547              		.loc 1 747 9
 1548 0012 7B68     		ldr	r3, [r7, #4]
 1549 0014 1B88     		ldrh	r3, [r3]	@ movhi
 1550 0016 9BB2     		uxth	r3, r3
 1551              		.loc 1 747 15
 1552 0018 43F48053 		orr	r3, r3, #4096
 1553 001c 9AB2     		uxth	r2, r3
 1554 001e 7B68     		ldr	r3, [r7, #4]
 1555 0020 1A80     		strh	r2, [r3]	@ movhi
 748:../Shared/Libraries/STM32F4xx_StdPeriph_Driver/src/stm32f4xx_i2c.c ****   }
 749:../Shared/Libraries/STM32F4xx_StdPeriph_Driver/src/stm32f4xx_i2c.c ****   else
 750:../Shared/Libraries/STM32F4xx_StdPeriph_Driver/src/stm32f4xx_i2c.c ****   {
 751:../Shared/Libraries/STM32F4xx_StdPeriph_Driver/src/stm32f4xx_i2c.c ****     /* Disable the selected I2C PEC transmission */
 752:../Shared/Libraries/STM32F4xx_StdPeriph_Driver/src/stm32f4xx_i2c.c ****     I2Cx->CR1 &= (uint16_t)~((uint16_t)I2C_CR1_PEC);
 753:../Shared/Libraries/STM32F4xx_StdPeriph_Driver/src/stm32f4xx_i2c.c ****   }
 754:../Shared/Libraries/STM32F4xx_StdPeriph_Driver/src/stm32f4xx_i2c.c **** }
 1556              		.loc 1 754 1
 1557 0022 07E0     		b	.L76
 1558              	.L74:
 752:../Shared/Libraries/STM32F4xx_StdPeriph_Driver/src/stm32f4xx_i2c.c ****   }
 1559              		.loc 1 752 9
 1560 0024 7B68     		ldr	r3, [r7, #4]
 1561 0026 1B88     		ldrh	r3, [r3]	@ movhi
 1562 0028 9BB2     		uxth	r3, r3
 752:../Shared/Libraries/STM32F4xx_StdPeriph_Driver/src/stm32f4xx_i2c.c ****   }
 1563              		.loc 1 752 15
 1564 002a 23F48053 		bic	r3, r3, #4096
 1565 002e 9AB2     		uxth	r2, r3
 1566 0030 7B68     		ldr	r3, [r7, #4]
 1567 0032 1A80     		strh	r2, [r3]	@ movhi
 1568              	.L76:
 1569              		.loc 1 754 1
 1570 0034 00BF     		nop
 1571 0036 0C37     		adds	r7, r7, #12
 1572              	.LCFI115:
 1573              		.cfi_def_cfa_offset 4
 1574 0038 BD46     		mov	sp, r7
 1575              	.LCFI116:
 1576              		.cfi_def_cfa_register 13
 1577              		@ sp needed
 1578 003a 5DF8047B 		ldr	r7, [sp], #4
 1579              	.LCFI117:
 1580              		.cfi_restore 7
 1581              		.cfi_def_cfa_offset 0
 1582 003e 7047     		bx	lr
 1583              		.cfi_endproc
 1584              	.LFE129:
 1586              		.section	.text.I2C_PECPositionConfig,"ax",%progbits
 1587              		.align	1
 1588              		.global	I2C_PECPositionConfig
 1589              		.syntax unified
 1590              		.thumb
 1591              		.thumb_func
ARM GAS  /tmp/ccYPoyit.s 			page 42


 1593              	I2C_PECPositionConfig:
 1594              	.LFB130:
 755:../Shared/Libraries/STM32F4xx_StdPeriph_Driver/src/stm32f4xx_i2c.c **** 
 756:../Shared/Libraries/STM32F4xx_StdPeriph_Driver/src/stm32f4xx_i2c.c **** /**
 757:../Shared/Libraries/STM32F4xx_StdPeriph_Driver/src/stm32f4xx_i2c.c ****   * @brief  Selects the specified I2C PEC position.
 758:../Shared/Libraries/STM32F4xx_StdPeriph_Driver/src/stm32f4xx_i2c.c ****   * @param  I2Cx: where x can be 1, 2 or 3 to select the I2C peripheral.
 759:../Shared/Libraries/STM32F4xx_StdPeriph_Driver/src/stm32f4xx_i2c.c ****   * @param  I2C_PECPosition: specifies the PEC position. 
 760:../Shared/Libraries/STM32F4xx_StdPeriph_Driver/src/stm32f4xx_i2c.c ****   *          This parameter can be one of the following values:
 761:../Shared/Libraries/STM32F4xx_StdPeriph_Driver/src/stm32f4xx_i2c.c ****   *            @arg I2C_PECPosition_Next: indicates that the next byte is PEC
 762:../Shared/Libraries/STM32F4xx_StdPeriph_Driver/src/stm32f4xx_i2c.c ****   *            @arg I2C_PECPosition_Current: indicates that current byte is PEC
 763:../Shared/Libraries/STM32F4xx_StdPeriph_Driver/src/stm32f4xx_i2c.c ****   *       
 764:../Shared/Libraries/STM32F4xx_StdPeriph_Driver/src/stm32f4xx_i2c.c ****   * @note    This function configures the same bit (POS) as I2C_NACKPositionConfig()
 765:../Shared/Libraries/STM32F4xx_StdPeriph_Driver/src/stm32f4xx_i2c.c ****   *          but is intended to be used in SMBUS mode while I2C_NACKPositionConfig() 
 766:../Shared/Libraries/STM32F4xx_StdPeriph_Driver/src/stm32f4xx_i2c.c ****   *          is intended to used in I2C mode.
 767:../Shared/Libraries/STM32F4xx_StdPeriph_Driver/src/stm32f4xx_i2c.c ****   *                
 768:../Shared/Libraries/STM32F4xx_StdPeriph_Driver/src/stm32f4xx_i2c.c ****   * @retval None
 769:../Shared/Libraries/STM32F4xx_StdPeriph_Driver/src/stm32f4xx_i2c.c ****   */
 770:../Shared/Libraries/STM32F4xx_StdPeriph_Driver/src/stm32f4xx_i2c.c **** void I2C_PECPositionConfig(I2C_TypeDef* I2Cx, uint16_t I2C_PECPosition)
 771:../Shared/Libraries/STM32F4xx_StdPeriph_Driver/src/stm32f4xx_i2c.c **** {
 1595              		.loc 1 771 1
 1596              		.cfi_startproc
 1597              		@ args = 0, pretend = 0, frame = 8
 1598              		@ frame_needed = 1, uses_anonymous_args = 0
 1599              		@ link register save eliminated.
 1600 0000 80B4     		push	{r7}
 1601              	.LCFI118:
 1602              		.cfi_def_cfa_offset 4
 1603              		.cfi_offset 7, -4
 1604 0002 83B0     		sub	sp, sp, #12
 1605              	.LCFI119:
 1606              		.cfi_def_cfa_offset 16
 1607 0004 00AF     		add	r7, sp, #0
 1608              	.LCFI120:
 1609              		.cfi_def_cfa_register 7
 1610 0006 7860     		str	r0, [r7, #4]
 1611 0008 0B46     		mov	r3, r1
 1612 000a 7B80     		strh	r3, [r7, #2]	@ movhi
 772:../Shared/Libraries/STM32F4xx_StdPeriph_Driver/src/stm32f4xx_i2c.c ****   /* Check the parameters */
 773:../Shared/Libraries/STM32F4xx_StdPeriph_Driver/src/stm32f4xx_i2c.c ****   assert_param(IS_I2C_ALL_PERIPH(I2Cx));
 774:../Shared/Libraries/STM32F4xx_StdPeriph_Driver/src/stm32f4xx_i2c.c ****   assert_param(IS_I2C_PEC_POSITION(I2C_PECPosition));
 775:../Shared/Libraries/STM32F4xx_StdPeriph_Driver/src/stm32f4xx_i2c.c ****   if (I2C_PECPosition == I2C_PECPosition_Next)
 1613              		.loc 1 775 6
 1614 000c 7B88     		ldrh	r3, [r7, #2]
 1615 000e B3F5006F 		cmp	r3, #2048
 1616 0012 08D1     		bne	.L78
 776:../Shared/Libraries/STM32F4xx_StdPeriph_Driver/src/stm32f4xx_i2c.c ****   {
 777:../Shared/Libraries/STM32F4xx_StdPeriph_Driver/src/stm32f4xx_i2c.c ****     /* Next byte in shift register is PEC */
 778:../Shared/Libraries/STM32F4xx_StdPeriph_Driver/src/stm32f4xx_i2c.c ****     I2Cx->CR1 |= I2C_PECPosition_Next;
 1617              		.loc 1 778 9
 1618 0014 7B68     		ldr	r3, [r7, #4]
 1619 0016 1B88     		ldrh	r3, [r3]	@ movhi
 1620 0018 9BB2     		uxth	r3, r3
 1621              		.loc 1 778 15
 1622 001a 43F40063 		orr	r3, r3, #2048
 1623 001e 9AB2     		uxth	r2, r3
 1624 0020 7B68     		ldr	r3, [r7, #4]
 1625 0022 1A80     		strh	r2, [r3]	@ movhi
ARM GAS  /tmp/ccYPoyit.s 			page 43


 779:../Shared/Libraries/STM32F4xx_StdPeriph_Driver/src/stm32f4xx_i2c.c ****   }
 780:../Shared/Libraries/STM32F4xx_StdPeriph_Driver/src/stm32f4xx_i2c.c ****   else
 781:../Shared/Libraries/STM32F4xx_StdPeriph_Driver/src/stm32f4xx_i2c.c ****   {
 782:../Shared/Libraries/STM32F4xx_StdPeriph_Driver/src/stm32f4xx_i2c.c ****     /* Current byte in shift register is PEC */
 783:../Shared/Libraries/STM32F4xx_StdPeriph_Driver/src/stm32f4xx_i2c.c ****     I2Cx->CR1 &= I2C_PECPosition_Current;
 784:../Shared/Libraries/STM32F4xx_StdPeriph_Driver/src/stm32f4xx_i2c.c ****   }
 785:../Shared/Libraries/STM32F4xx_StdPeriph_Driver/src/stm32f4xx_i2c.c **** }
 1626              		.loc 1 785 1
 1627 0024 07E0     		b	.L80
 1628              	.L78:
 783:../Shared/Libraries/STM32F4xx_StdPeriph_Driver/src/stm32f4xx_i2c.c ****   }
 1629              		.loc 1 783 9
 1630 0026 7B68     		ldr	r3, [r7, #4]
 1631 0028 1B88     		ldrh	r3, [r3]	@ movhi
 1632 002a 9BB2     		uxth	r3, r3
 783:../Shared/Libraries/STM32F4xx_StdPeriph_Driver/src/stm32f4xx_i2c.c ****   }
 1633              		.loc 1 783 15
 1634 002c 23F40063 		bic	r3, r3, #2048
 1635 0030 9AB2     		uxth	r2, r3
 1636 0032 7B68     		ldr	r3, [r7, #4]
 1637 0034 1A80     		strh	r2, [r3]	@ movhi
 1638              	.L80:
 1639              		.loc 1 785 1
 1640 0036 00BF     		nop
 1641 0038 0C37     		adds	r7, r7, #12
 1642              	.LCFI121:
 1643              		.cfi_def_cfa_offset 4
 1644 003a BD46     		mov	sp, r7
 1645              	.LCFI122:
 1646              		.cfi_def_cfa_register 13
 1647              		@ sp needed
 1648 003c 5DF8047B 		ldr	r7, [sp], #4
 1649              	.LCFI123:
 1650              		.cfi_restore 7
 1651              		.cfi_def_cfa_offset 0
 1652 0040 7047     		bx	lr
 1653              		.cfi_endproc
 1654              	.LFE130:
 1656              		.section	.text.I2C_CalculatePEC,"ax",%progbits
 1657              		.align	1
 1658              		.global	I2C_CalculatePEC
 1659              		.syntax unified
 1660              		.thumb
 1661              		.thumb_func
 1663              	I2C_CalculatePEC:
 1664              	.LFB131:
 786:../Shared/Libraries/STM32F4xx_StdPeriph_Driver/src/stm32f4xx_i2c.c **** 
 787:../Shared/Libraries/STM32F4xx_StdPeriph_Driver/src/stm32f4xx_i2c.c **** /**
 788:../Shared/Libraries/STM32F4xx_StdPeriph_Driver/src/stm32f4xx_i2c.c ****   * @brief  Enables or disables the PEC value calculation of the transferred bytes.
 789:../Shared/Libraries/STM32F4xx_StdPeriph_Driver/src/stm32f4xx_i2c.c ****   * @param  I2Cx: where x can be 1, 2 or 3 to select the I2C peripheral.
 790:../Shared/Libraries/STM32F4xx_StdPeriph_Driver/src/stm32f4xx_i2c.c ****   * @param  NewState: new state of the I2Cx PEC value calculation.
 791:../Shared/Libraries/STM32F4xx_StdPeriph_Driver/src/stm32f4xx_i2c.c ****   *          This parameter can be: ENABLE or DISABLE.
 792:../Shared/Libraries/STM32F4xx_StdPeriph_Driver/src/stm32f4xx_i2c.c ****   * @retval None
 793:../Shared/Libraries/STM32F4xx_StdPeriph_Driver/src/stm32f4xx_i2c.c ****   */
 794:../Shared/Libraries/STM32F4xx_StdPeriph_Driver/src/stm32f4xx_i2c.c **** void I2C_CalculatePEC(I2C_TypeDef* I2Cx, FunctionalState NewState)
 795:../Shared/Libraries/STM32F4xx_StdPeriph_Driver/src/stm32f4xx_i2c.c **** {
 1665              		.loc 1 795 1
ARM GAS  /tmp/ccYPoyit.s 			page 44


 1666              		.cfi_startproc
 1667              		@ args = 0, pretend = 0, frame = 8
 1668              		@ frame_needed = 1, uses_anonymous_args = 0
 1669              		@ link register save eliminated.
 1670 0000 80B4     		push	{r7}
 1671              	.LCFI124:
 1672              		.cfi_def_cfa_offset 4
 1673              		.cfi_offset 7, -4
 1674 0002 83B0     		sub	sp, sp, #12
 1675              	.LCFI125:
 1676              		.cfi_def_cfa_offset 16
 1677 0004 00AF     		add	r7, sp, #0
 1678              	.LCFI126:
 1679              		.cfi_def_cfa_register 7
 1680 0006 7860     		str	r0, [r7, #4]
 1681 0008 0B46     		mov	r3, r1
 1682 000a FB70     		strb	r3, [r7, #3]
 796:../Shared/Libraries/STM32F4xx_StdPeriph_Driver/src/stm32f4xx_i2c.c ****   /* Check the parameters */
 797:../Shared/Libraries/STM32F4xx_StdPeriph_Driver/src/stm32f4xx_i2c.c ****   assert_param(IS_I2C_ALL_PERIPH(I2Cx));
 798:../Shared/Libraries/STM32F4xx_StdPeriph_Driver/src/stm32f4xx_i2c.c ****   assert_param(IS_FUNCTIONAL_STATE(NewState));
 799:../Shared/Libraries/STM32F4xx_StdPeriph_Driver/src/stm32f4xx_i2c.c ****   if (NewState != DISABLE)
 1683              		.loc 1 799 6
 1684 000c FB78     		ldrb	r3, [r7, #3]	@ zero_extendqisi2
 1685 000e 002B     		cmp	r3, #0
 1686 0010 08D0     		beq	.L82
 800:../Shared/Libraries/STM32F4xx_StdPeriph_Driver/src/stm32f4xx_i2c.c ****   {
 801:../Shared/Libraries/STM32F4xx_StdPeriph_Driver/src/stm32f4xx_i2c.c ****     /* Enable the selected I2C PEC calculation */
 802:../Shared/Libraries/STM32F4xx_StdPeriph_Driver/src/stm32f4xx_i2c.c ****     I2Cx->CR1 |= I2C_CR1_ENPEC;
 1687              		.loc 1 802 9
 1688 0012 7B68     		ldr	r3, [r7, #4]
 1689 0014 1B88     		ldrh	r3, [r3]	@ movhi
 1690 0016 9BB2     		uxth	r3, r3
 1691              		.loc 1 802 15
 1692 0018 43F02003 		orr	r3, r3, #32
 1693 001c 9AB2     		uxth	r2, r3
 1694 001e 7B68     		ldr	r3, [r7, #4]
 1695 0020 1A80     		strh	r2, [r3]	@ movhi
 803:../Shared/Libraries/STM32F4xx_StdPeriph_Driver/src/stm32f4xx_i2c.c ****   }
 804:../Shared/Libraries/STM32F4xx_StdPeriph_Driver/src/stm32f4xx_i2c.c ****   else
 805:../Shared/Libraries/STM32F4xx_StdPeriph_Driver/src/stm32f4xx_i2c.c ****   {
 806:../Shared/Libraries/STM32F4xx_StdPeriph_Driver/src/stm32f4xx_i2c.c ****     /* Disable the selected I2C PEC calculation */
 807:../Shared/Libraries/STM32F4xx_StdPeriph_Driver/src/stm32f4xx_i2c.c ****     I2Cx->CR1 &= (uint16_t)~((uint16_t)I2C_CR1_ENPEC);
 808:../Shared/Libraries/STM32F4xx_StdPeriph_Driver/src/stm32f4xx_i2c.c ****   }
 809:../Shared/Libraries/STM32F4xx_StdPeriph_Driver/src/stm32f4xx_i2c.c **** }
 1696              		.loc 1 809 1
 1697 0022 07E0     		b	.L84
 1698              	.L82:
 807:../Shared/Libraries/STM32F4xx_StdPeriph_Driver/src/stm32f4xx_i2c.c ****   }
 1699              		.loc 1 807 9
 1700 0024 7B68     		ldr	r3, [r7, #4]
 1701 0026 1B88     		ldrh	r3, [r3]	@ movhi
 1702 0028 9BB2     		uxth	r3, r3
 807:../Shared/Libraries/STM32F4xx_StdPeriph_Driver/src/stm32f4xx_i2c.c ****   }
 1703              		.loc 1 807 15
 1704 002a 23F02003 		bic	r3, r3, #32
 1705 002e 9AB2     		uxth	r2, r3
 1706 0030 7B68     		ldr	r3, [r7, #4]
ARM GAS  /tmp/ccYPoyit.s 			page 45


 1707 0032 1A80     		strh	r2, [r3]	@ movhi
 1708              	.L84:
 1709              		.loc 1 809 1
 1710 0034 00BF     		nop
 1711 0036 0C37     		adds	r7, r7, #12
 1712              	.LCFI127:
 1713              		.cfi_def_cfa_offset 4
 1714 0038 BD46     		mov	sp, r7
 1715              	.LCFI128:
 1716              		.cfi_def_cfa_register 13
 1717              		@ sp needed
 1718 003a 5DF8047B 		ldr	r7, [sp], #4
 1719              	.LCFI129:
 1720              		.cfi_restore 7
 1721              		.cfi_def_cfa_offset 0
 1722 003e 7047     		bx	lr
 1723              		.cfi_endproc
 1724              	.LFE131:
 1726              		.section	.text.I2C_GetPEC,"ax",%progbits
 1727              		.align	1
 1728              		.global	I2C_GetPEC
 1729              		.syntax unified
 1730              		.thumb
 1731              		.thumb_func
 1733              	I2C_GetPEC:
 1734              	.LFB132:
 810:../Shared/Libraries/STM32F4xx_StdPeriph_Driver/src/stm32f4xx_i2c.c **** 
 811:../Shared/Libraries/STM32F4xx_StdPeriph_Driver/src/stm32f4xx_i2c.c **** /**
 812:../Shared/Libraries/STM32F4xx_StdPeriph_Driver/src/stm32f4xx_i2c.c ****   * @brief  Returns the PEC value for the specified I2C.
 813:../Shared/Libraries/STM32F4xx_StdPeriph_Driver/src/stm32f4xx_i2c.c ****   * @param  I2Cx: where x can be 1, 2 or 3 to select the I2C peripheral.
 814:../Shared/Libraries/STM32F4xx_StdPeriph_Driver/src/stm32f4xx_i2c.c ****   * @retval The PEC value.
 815:../Shared/Libraries/STM32F4xx_StdPeriph_Driver/src/stm32f4xx_i2c.c ****   */
 816:../Shared/Libraries/STM32F4xx_StdPeriph_Driver/src/stm32f4xx_i2c.c **** uint8_t I2C_GetPEC(I2C_TypeDef* I2Cx)
 817:../Shared/Libraries/STM32F4xx_StdPeriph_Driver/src/stm32f4xx_i2c.c **** {
 1735              		.loc 1 817 1
 1736              		.cfi_startproc
 1737              		@ args = 0, pretend = 0, frame = 8
 1738              		@ frame_needed = 1, uses_anonymous_args = 0
 1739              		@ link register save eliminated.
 1740 0000 80B4     		push	{r7}
 1741              	.LCFI130:
 1742              		.cfi_def_cfa_offset 4
 1743              		.cfi_offset 7, -4
 1744 0002 83B0     		sub	sp, sp, #12
 1745              	.LCFI131:
 1746              		.cfi_def_cfa_offset 16
 1747 0004 00AF     		add	r7, sp, #0
 1748              	.LCFI132:
 1749              		.cfi_def_cfa_register 7
 1750 0006 7860     		str	r0, [r7, #4]
 818:../Shared/Libraries/STM32F4xx_StdPeriph_Driver/src/stm32f4xx_i2c.c ****   /* Check the parameters */
 819:../Shared/Libraries/STM32F4xx_StdPeriph_Driver/src/stm32f4xx_i2c.c ****   assert_param(IS_I2C_ALL_PERIPH(I2Cx));
 820:../Shared/Libraries/STM32F4xx_StdPeriph_Driver/src/stm32f4xx_i2c.c ****   /* Return the selected I2C PEC value */
 821:../Shared/Libraries/STM32F4xx_StdPeriph_Driver/src/stm32f4xx_i2c.c ****   return ((I2Cx->SR2) >> 8);
 1751              		.loc 1 821 16
 1752 0008 7B68     		ldr	r3, [r7, #4]
 1753 000a 1B8B     		ldrh	r3, [r3, #24]	@ movhi
ARM GAS  /tmp/ccYPoyit.s 			page 46


 1754 000c 9BB2     		uxth	r3, r3
 1755              		.loc 1 821 23
 1756 000e 1B0A     		lsrs	r3, r3, #8
 1757 0010 9BB2     		uxth	r3, r3
 1758 0012 DBB2     		uxtb	r3, r3
 822:../Shared/Libraries/STM32F4xx_StdPeriph_Driver/src/stm32f4xx_i2c.c **** }
 1759              		.loc 1 822 1
 1760 0014 1846     		mov	r0, r3
 1761 0016 0C37     		adds	r7, r7, #12
 1762              	.LCFI133:
 1763              		.cfi_def_cfa_offset 4
 1764 0018 BD46     		mov	sp, r7
 1765              	.LCFI134:
 1766              		.cfi_def_cfa_register 13
 1767              		@ sp needed
 1768 001a 5DF8047B 		ldr	r7, [sp], #4
 1769              	.LCFI135:
 1770              		.cfi_restore 7
 1771              		.cfi_def_cfa_offset 0
 1772 001e 7047     		bx	lr
 1773              		.cfi_endproc
 1774              	.LFE132:
 1776              		.section	.text.I2C_DMACmd,"ax",%progbits
 1777              		.align	1
 1778              		.global	I2C_DMACmd
 1779              		.syntax unified
 1780              		.thumb
 1781              		.thumb_func
 1783              	I2C_DMACmd:
 1784              	.LFB133:
 823:../Shared/Libraries/STM32F4xx_StdPeriph_Driver/src/stm32f4xx_i2c.c **** 
 824:../Shared/Libraries/STM32F4xx_StdPeriph_Driver/src/stm32f4xx_i2c.c **** /**
 825:../Shared/Libraries/STM32F4xx_StdPeriph_Driver/src/stm32f4xx_i2c.c ****   * @}
 826:../Shared/Libraries/STM32F4xx_StdPeriph_Driver/src/stm32f4xx_i2c.c ****   */
 827:../Shared/Libraries/STM32F4xx_StdPeriph_Driver/src/stm32f4xx_i2c.c **** 
 828:../Shared/Libraries/STM32F4xx_StdPeriph_Driver/src/stm32f4xx_i2c.c **** /** @defgroup I2C_Group4 DMA transfers management functions
 829:../Shared/Libraries/STM32F4xx_StdPeriph_Driver/src/stm32f4xx_i2c.c ****  *  @brief   DMA transfers management functions 
 830:../Shared/Libraries/STM32F4xx_StdPeriph_Driver/src/stm32f4xx_i2c.c ****  *
 831:../Shared/Libraries/STM32F4xx_StdPeriph_Driver/src/stm32f4xx_i2c.c **** @verbatim   
 832:../Shared/Libraries/STM32F4xx_StdPeriph_Driver/src/stm32f4xx_i2c.c ****  ===============================================================================
 833:../Shared/Libraries/STM32F4xx_StdPeriph_Driver/src/stm32f4xx_i2c.c ****                          DMA transfers management functions
 834:../Shared/Libraries/STM32F4xx_StdPeriph_Driver/src/stm32f4xx_i2c.c ****  ===============================================================================  
 835:../Shared/Libraries/STM32F4xx_StdPeriph_Driver/src/stm32f4xx_i2c.c ****   This section provides functions allowing to configure the I2C DMA channels 
 836:../Shared/Libraries/STM32F4xx_StdPeriph_Driver/src/stm32f4xx_i2c.c ****   requests.
 837:../Shared/Libraries/STM32F4xx_StdPeriph_Driver/src/stm32f4xx_i2c.c ****   
 838:../Shared/Libraries/STM32F4xx_StdPeriph_Driver/src/stm32f4xx_i2c.c **** @endverbatim
 839:../Shared/Libraries/STM32F4xx_StdPeriph_Driver/src/stm32f4xx_i2c.c ****   * @{
 840:../Shared/Libraries/STM32F4xx_StdPeriph_Driver/src/stm32f4xx_i2c.c ****   */
 841:../Shared/Libraries/STM32F4xx_StdPeriph_Driver/src/stm32f4xx_i2c.c **** 
 842:../Shared/Libraries/STM32F4xx_StdPeriph_Driver/src/stm32f4xx_i2c.c **** /**
 843:../Shared/Libraries/STM32F4xx_StdPeriph_Driver/src/stm32f4xx_i2c.c ****   * @brief  Enables or disables the specified I2C DMA requests.
 844:../Shared/Libraries/STM32F4xx_StdPeriph_Driver/src/stm32f4xx_i2c.c ****   * @param  I2Cx: where x can be 1, 2 or 3 to select the I2C peripheral.
 845:../Shared/Libraries/STM32F4xx_StdPeriph_Driver/src/stm32f4xx_i2c.c ****   * @param  NewState: new state of the I2C DMA transfer.
 846:../Shared/Libraries/STM32F4xx_StdPeriph_Driver/src/stm32f4xx_i2c.c ****   *          This parameter can be: ENABLE or DISABLE.
 847:../Shared/Libraries/STM32F4xx_StdPeriph_Driver/src/stm32f4xx_i2c.c ****   * @retval None
 848:../Shared/Libraries/STM32F4xx_StdPeriph_Driver/src/stm32f4xx_i2c.c ****   */
 849:../Shared/Libraries/STM32F4xx_StdPeriph_Driver/src/stm32f4xx_i2c.c **** void I2C_DMACmd(I2C_TypeDef* I2Cx, FunctionalState NewState)
ARM GAS  /tmp/ccYPoyit.s 			page 47


 850:../Shared/Libraries/STM32F4xx_StdPeriph_Driver/src/stm32f4xx_i2c.c **** {
 1785              		.loc 1 850 1
 1786              		.cfi_startproc
 1787              		@ args = 0, pretend = 0, frame = 8
 1788              		@ frame_needed = 1, uses_anonymous_args = 0
 1789              		@ link register save eliminated.
 1790 0000 80B4     		push	{r7}
 1791              	.LCFI136:
 1792              		.cfi_def_cfa_offset 4
 1793              		.cfi_offset 7, -4
 1794 0002 83B0     		sub	sp, sp, #12
 1795              	.LCFI137:
 1796              		.cfi_def_cfa_offset 16
 1797 0004 00AF     		add	r7, sp, #0
 1798              	.LCFI138:
 1799              		.cfi_def_cfa_register 7
 1800 0006 7860     		str	r0, [r7, #4]
 1801 0008 0B46     		mov	r3, r1
 1802 000a FB70     		strb	r3, [r7, #3]
 851:../Shared/Libraries/STM32F4xx_StdPeriph_Driver/src/stm32f4xx_i2c.c ****   /* Check the parameters */
 852:../Shared/Libraries/STM32F4xx_StdPeriph_Driver/src/stm32f4xx_i2c.c ****   assert_param(IS_I2C_ALL_PERIPH(I2Cx));
 853:../Shared/Libraries/STM32F4xx_StdPeriph_Driver/src/stm32f4xx_i2c.c ****   assert_param(IS_FUNCTIONAL_STATE(NewState));
 854:../Shared/Libraries/STM32F4xx_StdPeriph_Driver/src/stm32f4xx_i2c.c ****   if (NewState != DISABLE)
 1803              		.loc 1 854 6
 1804 000c FB78     		ldrb	r3, [r7, #3]	@ zero_extendqisi2
 1805 000e 002B     		cmp	r3, #0
 1806 0010 08D0     		beq	.L88
 855:../Shared/Libraries/STM32F4xx_StdPeriph_Driver/src/stm32f4xx_i2c.c ****   {
 856:../Shared/Libraries/STM32F4xx_StdPeriph_Driver/src/stm32f4xx_i2c.c ****     /* Enable the selected I2C DMA requests */
 857:../Shared/Libraries/STM32F4xx_StdPeriph_Driver/src/stm32f4xx_i2c.c ****     I2Cx->CR2 |= I2C_CR2_DMAEN;
 1807              		.loc 1 857 9
 1808 0012 7B68     		ldr	r3, [r7, #4]
 1809 0014 9B88     		ldrh	r3, [r3, #4]	@ movhi
 1810 0016 9BB2     		uxth	r3, r3
 1811              		.loc 1 857 15
 1812 0018 43F40063 		orr	r3, r3, #2048
 1813 001c 9AB2     		uxth	r2, r3
 1814 001e 7B68     		ldr	r3, [r7, #4]
 1815 0020 9A80     		strh	r2, [r3, #4]	@ movhi
 858:../Shared/Libraries/STM32F4xx_StdPeriph_Driver/src/stm32f4xx_i2c.c ****   }
 859:../Shared/Libraries/STM32F4xx_StdPeriph_Driver/src/stm32f4xx_i2c.c ****   else
 860:../Shared/Libraries/STM32F4xx_StdPeriph_Driver/src/stm32f4xx_i2c.c ****   {
 861:../Shared/Libraries/STM32F4xx_StdPeriph_Driver/src/stm32f4xx_i2c.c ****     /* Disable the selected I2C DMA requests */
 862:../Shared/Libraries/STM32F4xx_StdPeriph_Driver/src/stm32f4xx_i2c.c ****     I2Cx->CR2 &= (uint16_t)~((uint16_t)I2C_CR2_DMAEN);
 863:../Shared/Libraries/STM32F4xx_StdPeriph_Driver/src/stm32f4xx_i2c.c ****   }
 864:../Shared/Libraries/STM32F4xx_StdPeriph_Driver/src/stm32f4xx_i2c.c **** }
 1816              		.loc 1 864 1
 1817 0022 07E0     		b	.L90
 1818              	.L88:
 862:../Shared/Libraries/STM32F4xx_StdPeriph_Driver/src/stm32f4xx_i2c.c ****   }
 1819              		.loc 1 862 9
 1820 0024 7B68     		ldr	r3, [r7, #4]
 1821 0026 9B88     		ldrh	r3, [r3, #4]	@ movhi
 1822 0028 9BB2     		uxth	r3, r3
 862:../Shared/Libraries/STM32F4xx_StdPeriph_Driver/src/stm32f4xx_i2c.c ****   }
 1823              		.loc 1 862 15
 1824 002a 23F40063 		bic	r3, r3, #2048
ARM GAS  /tmp/ccYPoyit.s 			page 48


 1825 002e 9AB2     		uxth	r2, r3
 1826 0030 7B68     		ldr	r3, [r7, #4]
 1827 0032 9A80     		strh	r2, [r3, #4]	@ movhi
 1828              	.L90:
 1829              		.loc 1 864 1
 1830 0034 00BF     		nop
 1831 0036 0C37     		adds	r7, r7, #12
 1832              	.LCFI139:
 1833              		.cfi_def_cfa_offset 4
 1834 0038 BD46     		mov	sp, r7
 1835              	.LCFI140:
 1836              		.cfi_def_cfa_register 13
 1837              		@ sp needed
 1838 003a 5DF8047B 		ldr	r7, [sp], #4
 1839              	.LCFI141:
 1840              		.cfi_restore 7
 1841              		.cfi_def_cfa_offset 0
 1842 003e 7047     		bx	lr
 1843              		.cfi_endproc
 1844              	.LFE133:
 1846              		.section	.text.I2C_DMALastTransferCmd,"ax",%progbits
 1847              		.align	1
 1848              		.global	I2C_DMALastTransferCmd
 1849              		.syntax unified
 1850              		.thumb
 1851              		.thumb_func
 1853              	I2C_DMALastTransferCmd:
 1854              	.LFB134:
 865:../Shared/Libraries/STM32F4xx_StdPeriph_Driver/src/stm32f4xx_i2c.c **** 
 866:../Shared/Libraries/STM32F4xx_StdPeriph_Driver/src/stm32f4xx_i2c.c **** /**
 867:../Shared/Libraries/STM32F4xx_StdPeriph_Driver/src/stm32f4xx_i2c.c ****   * @brief  Specifies that the next DMA transfer is the last one.
 868:../Shared/Libraries/STM32F4xx_StdPeriph_Driver/src/stm32f4xx_i2c.c ****   * @param  I2Cx: where x can be 1, 2 or 3 to select the I2C peripheral.
 869:../Shared/Libraries/STM32F4xx_StdPeriph_Driver/src/stm32f4xx_i2c.c ****   * @param  NewState: new state of the I2C DMA last transfer.
 870:../Shared/Libraries/STM32F4xx_StdPeriph_Driver/src/stm32f4xx_i2c.c ****   *          This parameter can be: ENABLE or DISABLE.
 871:../Shared/Libraries/STM32F4xx_StdPeriph_Driver/src/stm32f4xx_i2c.c ****   * @retval None
 872:../Shared/Libraries/STM32F4xx_StdPeriph_Driver/src/stm32f4xx_i2c.c ****   */
 873:../Shared/Libraries/STM32F4xx_StdPeriph_Driver/src/stm32f4xx_i2c.c **** void I2C_DMALastTransferCmd(I2C_TypeDef* I2Cx, FunctionalState NewState)
 874:../Shared/Libraries/STM32F4xx_StdPeriph_Driver/src/stm32f4xx_i2c.c **** {
 1855              		.loc 1 874 1
 1856              		.cfi_startproc
 1857              		@ args = 0, pretend = 0, frame = 8
 1858              		@ frame_needed = 1, uses_anonymous_args = 0
 1859              		@ link register save eliminated.
 1860 0000 80B4     		push	{r7}
 1861              	.LCFI142:
 1862              		.cfi_def_cfa_offset 4
 1863              		.cfi_offset 7, -4
 1864 0002 83B0     		sub	sp, sp, #12
 1865              	.LCFI143:
 1866              		.cfi_def_cfa_offset 16
 1867 0004 00AF     		add	r7, sp, #0
 1868              	.LCFI144:
 1869              		.cfi_def_cfa_register 7
 1870 0006 7860     		str	r0, [r7, #4]
 1871 0008 0B46     		mov	r3, r1
 1872 000a FB70     		strb	r3, [r7, #3]
 875:../Shared/Libraries/STM32F4xx_StdPeriph_Driver/src/stm32f4xx_i2c.c ****   /* Check the parameters */
ARM GAS  /tmp/ccYPoyit.s 			page 49


 876:../Shared/Libraries/STM32F4xx_StdPeriph_Driver/src/stm32f4xx_i2c.c ****   assert_param(IS_I2C_ALL_PERIPH(I2Cx));
 877:../Shared/Libraries/STM32F4xx_StdPeriph_Driver/src/stm32f4xx_i2c.c ****   assert_param(IS_FUNCTIONAL_STATE(NewState));
 878:../Shared/Libraries/STM32F4xx_StdPeriph_Driver/src/stm32f4xx_i2c.c ****   if (NewState != DISABLE)
 1873              		.loc 1 878 6
 1874 000c FB78     		ldrb	r3, [r7, #3]	@ zero_extendqisi2
 1875 000e 002B     		cmp	r3, #0
 1876 0010 08D0     		beq	.L92
 879:../Shared/Libraries/STM32F4xx_StdPeriph_Driver/src/stm32f4xx_i2c.c ****   {
 880:../Shared/Libraries/STM32F4xx_StdPeriph_Driver/src/stm32f4xx_i2c.c ****     /* Next DMA transfer is the last transfer */
 881:../Shared/Libraries/STM32F4xx_StdPeriph_Driver/src/stm32f4xx_i2c.c ****     I2Cx->CR2 |= I2C_CR2_LAST;
 1877              		.loc 1 881 9
 1878 0012 7B68     		ldr	r3, [r7, #4]
 1879 0014 9B88     		ldrh	r3, [r3, #4]	@ movhi
 1880 0016 9BB2     		uxth	r3, r3
 1881              		.loc 1 881 15
 1882 0018 43F48053 		orr	r3, r3, #4096
 1883 001c 9AB2     		uxth	r2, r3
 1884 001e 7B68     		ldr	r3, [r7, #4]
 1885 0020 9A80     		strh	r2, [r3, #4]	@ movhi
 882:../Shared/Libraries/STM32F4xx_StdPeriph_Driver/src/stm32f4xx_i2c.c ****   }
 883:../Shared/Libraries/STM32F4xx_StdPeriph_Driver/src/stm32f4xx_i2c.c ****   else
 884:../Shared/Libraries/STM32F4xx_StdPeriph_Driver/src/stm32f4xx_i2c.c ****   {
 885:../Shared/Libraries/STM32F4xx_StdPeriph_Driver/src/stm32f4xx_i2c.c ****     /* Next DMA transfer is not the last transfer */
 886:../Shared/Libraries/STM32F4xx_StdPeriph_Driver/src/stm32f4xx_i2c.c ****     I2Cx->CR2 &= (uint16_t)~((uint16_t)I2C_CR2_LAST);
 887:../Shared/Libraries/STM32F4xx_StdPeriph_Driver/src/stm32f4xx_i2c.c ****   }
 888:../Shared/Libraries/STM32F4xx_StdPeriph_Driver/src/stm32f4xx_i2c.c **** }
 1886              		.loc 1 888 1
 1887 0022 07E0     		b	.L94
 1888              	.L92:
 886:../Shared/Libraries/STM32F4xx_StdPeriph_Driver/src/stm32f4xx_i2c.c ****   }
 1889              		.loc 1 886 9
 1890 0024 7B68     		ldr	r3, [r7, #4]
 1891 0026 9B88     		ldrh	r3, [r3, #4]	@ movhi
 1892 0028 9BB2     		uxth	r3, r3
 886:../Shared/Libraries/STM32F4xx_StdPeriph_Driver/src/stm32f4xx_i2c.c ****   }
 1893              		.loc 1 886 15
 1894 002a 23F48053 		bic	r3, r3, #4096
 1895 002e 9AB2     		uxth	r2, r3
 1896 0030 7B68     		ldr	r3, [r7, #4]
 1897 0032 9A80     		strh	r2, [r3, #4]	@ movhi
 1898              	.L94:
 1899              		.loc 1 888 1
 1900 0034 00BF     		nop
 1901 0036 0C37     		adds	r7, r7, #12
 1902              	.LCFI145:
 1903              		.cfi_def_cfa_offset 4
 1904 0038 BD46     		mov	sp, r7
 1905              	.LCFI146:
 1906              		.cfi_def_cfa_register 13
 1907              		@ sp needed
 1908 003a 5DF8047B 		ldr	r7, [sp], #4
 1909              	.LCFI147:
 1910              		.cfi_restore 7
 1911              		.cfi_def_cfa_offset 0
 1912 003e 7047     		bx	lr
 1913              		.cfi_endproc
 1914              	.LFE134:
ARM GAS  /tmp/ccYPoyit.s 			page 50


 1916              		.section	.text.I2C_ReadRegister,"ax",%progbits
 1917              		.align	1
 1918              		.global	I2C_ReadRegister
 1919              		.syntax unified
 1920              		.thumb
 1921              		.thumb_func
 1923              	I2C_ReadRegister:
 1924              	.LFB135:
 889:../Shared/Libraries/STM32F4xx_StdPeriph_Driver/src/stm32f4xx_i2c.c **** 
 890:../Shared/Libraries/STM32F4xx_StdPeriph_Driver/src/stm32f4xx_i2c.c **** /**
 891:../Shared/Libraries/STM32F4xx_StdPeriph_Driver/src/stm32f4xx_i2c.c ****   * @}
 892:../Shared/Libraries/STM32F4xx_StdPeriph_Driver/src/stm32f4xx_i2c.c ****   */
 893:../Shared/Libraries/STM32F4xx_StdPeriph_Driver/src/stm32f4xx_i2c.c **** 
 894:../Shared/Libraries/STM32F4xx_StdPeriph_Driver/src/stm32f4xx_i2c.c **** /** @defgroup I2C_Group5 Interrupts events and flags management functions
 895:../Shared/Libraries/STM32F4xx_StdPeriph_Driver/src/stm32f4xx_i2c.c ****  *  @brief   Interrupts, events and flags management functions
 896:../Shared/Libraries/STM32F4xx_StdPeriph_Driver/src/stm32f4xx_i2c.c ****  *
 897:../Shared/Libraries/STM32F4xx_StdPeriph_Driver/src/stm32f4xx_i2c.c **** @verbatim   
 898:../Shared/Libraries/STM32F4xx_StdPeriph_Driver/src/stm32f4xx_i2c.c ****  ===============================================================================
 899:../Shared/Libraries/STM32F4xx_StdPeriph_Driver/src/stm32f4xx_i2c.c ****                 Interrupts, events and flags management functions
 900:../Shared/Libraries/STM32F4xx_StdPeriph_Driver/src/stm32f4xx_i2c.c ****  ===============================================================================  
 901:../Shared/Libraries/STM32F4xx_StdPeriph_Driver/src/stm32f4xx_i2c.c ****   This section provides functions allowing to configure the I2C Interrupts 
 902:../Shared/Libraries/STM32F4xx_StdPeriph_Driver/src/stm32f4xx_i2c.c ****   sources and check or clear the flags or pending bits status.
 903:../Shared/Libraries/STM32F4xx_StdPeriph_Driver/src/stm32f4xx_i2c.c ****   The user should identify which mode will be used in his application to manage 
 904:../Shared/Libraries/STM32F4xx_StdPeriph_Driver/src/stm32f4xx_i2c.c ****   the communication: Polling mode, Interrupt mode or DMA mode. 
 905:../Shared/Libraries/STM32F4xx_StdPeriph_Driver/src/stm32f4xx_i2c.c **** 
 906:../Shared/Libraries/STM32F4xx_StdPeriph_Driver/src/stm32f4xx_i2c.c ****  ===============================================================================
 907:../Shared/Libraries/STM32F4xx_StdPeriph_Driver/src/stm32f4xx_i2c.c ****                           I2C State Monitoring Functions                    
 908:../Shared/Libraries/STM32F4xx_StdPeriph_Driver/src/stm32f4xx_i2c.c ****  ===============================================================================   
 909:../Shared/Libraries/STM32F4xx_StdPeriph_Driver/src/stm32f4xx_i2c.c ****   This I2C driver provides three different ways for I2C state monitoring
 910:../Shared/Libraries/STM32F4xx_StdPeriph_Driver/src/stm32f4xx_i2c.c ****   depending on the application requirements and constraints:
 911:../Shared/Libraries/STM32F4xx_StdPeriph_Driver/src/stm32f4xx_i2c.c ****          
 912:../Shared/Libraries/STM32F4xx_StdPeriph_Driver/src/stm32f4xx_i2c.c ****    
 913:../Shared/Libraries/STM32F4xx_StdPeriph_Driver/src/stm32f4xx_i2c.c ****      1. Basic state monitoring (Using I2C_CheckEvent() function)
 914:../Shared/Libraries/STM32F4xx_StdPeriph_Driver/src/stm32f4xx_i2c.c ****      -----------------------------------------------------------
 915:../Shared/Libraries/STM32F4xx_StdPeriph_Driver/src/stm32f4xx_i2c.c ****         It compares the status registers (SR1 and SR2) content to a given event
 916:../Shared/Libraries/STM32F4xx_StdPeriph_Driver/src/stm32f4xx_i2c.c ****         (can be the combination of one or more flags).
 917:../Shared/Libraries/STM32F4xx_StdPeriph_Driver/src/stm32f4xx_i2c.c ****         It returns SUCCESS if the current status includes the given flags 
 918:../Shared/Libraries/STM32F4xx_StdPeriph_Driver/src/stm32f4xx_i2c.c ****         and returns ERROR if one or more flags are missing in the current status.
 919:../Shared/Libraries/STM32F4xx_StdPeriph_Driver/src/stm32f4xx_i2c.c **** 
 920:../Shared/Libraries/STM32F4xx_StdPeriph_Driver/src/stm32f4xx_i2c.c ****           - When to use
 921:../Shared/Libraries/STM32F4xx_StdPeriph_Driver/src/stm32f4xx_i2c.c ****              - This function is suitable for most applications as well as for startup 
 922:../Shared/Libraries/STM32F4xx_StdPeriph_Driver/src/stm32f4xx_i2c.c ****                activity since the events are fully described in the product reference 
 923:../Shared/Libraries/STM32F4xx_StdPeriph_Driver/src/stm32f4xx_i2c.c ****                manual (RM0090).
 924:../Shared/Libraries/STM32F4xx_StdPeriph_Driver/src/stm32f4xx_i2c.c ****              - It is also suitable for users who need to define their own events.
 925:../Shared/Libraries/STM32F4xx_StdPeriph_Driver/src/stm32f4xx_i2c.c **** 
 926:../Shared/Libraries/STM32F4xx_StdPeriph_Driver/src/stm32f4xx_i2c.c ****           - Limitations
 927:../Shared/Libraries/STM32F4xx_StdPeriph_Driver/src/stm32f4xx_i2c.c ****              - If an error occurs (ie. error flags are set besides to the monitored 
 928:../Shared/Libraries/STM32F4xx_StdPeriph_Driver/src/stm32f4xx_i2c.c ****                flags), the I2C_CheckEvent() function may return SUCCESS despite 
 929:../Shared/Libraries/STM32F4xx_StdPeriph_Driver/src/stm32f4xx_i2c.c ****                the communication hold or corrupted real state. 
 930:../Shared/Libraries/STM32F4xx_StdPeriph_Driver/src/stm32f4xx_i2c.c ****                In this case, it is advised to use error interrupts to monitor 
 931:../Shared/Libraries/STM32F4xx_StdPeriph_Driver/src/stm32f4xx_i2c.c ****                the error events and handle them in the interrupt IRQ handler.
 932:../Shared/Libraries/STM32F4xx_StdPeriph_Driver/src/stm32f4xx_i2c.c ****          
 933:../Shared/Libraries/STM32F4xx_StdPeriph_Driver/src/stm32f4xx_i2c.c ****      @note 
 934:../Shared/Libraries/STM32F4xx_StdPeriph_Driver/src/stm32f4xx_i2c.c ****          For error management, it is advised to use the following functions:
 935:../Shared/Libraries/STM32F4xx_StdPeriph_Driver/src/stm32f4xx_i2c.c ****            - I2C_ITConfig() to configure and enable the error interrupts (I2C_IT_ERR).
 936:../Shared/Libraries/STM32F4xx_StdPeriph_Driver/src/stm32f4xx_i2c.c ****            - I2Cx_ER_IRQHandler() which is called when the error interrupt occurs.
 937:../Shared/Libraries/STM32F4xx_StdPeriph_Driver/src/stm32f4xx_i2c.c ****              Where x is the peripheral instance (I2C1, I2C2 ...)
ARM GAS  /tmp/ccYPoyit.s 			page 51


 938:../Shared/Libraries/STM32F4xx_StdPeriph_Driver/src/stm32f4xx_i2c.c ****            - I2C_GetFlagStatus() or I2C_GetITStatus()  to be called into the 
 939:../Shared/Libraries/STM32F4xx_StdPeriph_Driver/src/stm32f4xx_i2c.c ****              I2Cx_ER_IRQHandler() function in order to determine which error occurred.
 940:../Shared/Libraries/STM32F4xx_StdPeriph_Driver/src/stm32f4xx_i2c.c ****            - I2C_ClearFlag() or I2C_ClearITPendingBit() and/or I2C_SoftwareResetCmd() 
 941:../Shared/Libraries/STM32F4xx_StdPeriph_Driver/src/stm32f4xx_i2c.c ****              and/or I2C_GenerateStop() in order to clear the error flag and source 
 942:../Shared/Libraries/STM32F4xx_StdPeriph_Driver/src/stm32f4xx_i2c.c ****              and return to correct  communication status.
 943:../Shared/Libraries/STM32F4xx_StdPeriph_Driver/src/stm32f4xx_i2c.c ****              
 944:../Shared/Libraries/STM32F4xx_StdPeriph_Driver/src/stm32f4xx_i2c.c ****  
 945:../Shared/Libraries/STM32F4xx_StdPeriph_Driver/src/stm32f4xx_i2c.c ****      2. Advanced state monitoring (Using the function I2C_GetLastEvent())
 946:../Shared/Libraries/STM32F4xx_StdPeriph_Driver/src/stm32f4xx_i2c.c ****      -------------------------------------------------------------------- 
 947:../Shared/Libraries/STM32F4xx_StdPeriph_Driver/src/stm32f4xx_i2c.c ****         Using the function I2C_GetLastEvent() which returns the image of both status 
 948:../Shared/Libraries/STM32F4xx_StdPeriph_Driver/src/stm32f4xx_i2c.c ****         registers in a single word (uint32_t) (Status Register 2 value is shifted left 
 949:../Shared/Libraries/STM32F4xx_StdPeriph_Driver/src/stm32f4xx_i2c.c ****         by 16 bits and concatenated to Status Register 1).
 950:../Shared/Libraries/STM32F4xx_StdPeriph_Driver/src/stm32f4xx_i2c.c **** 
 951:../Shared/Libraries/STM32F4xx_StdPeriph_Driver/src/stm32f4xx_i2c.c ****           - When to use
 952:../Shared/Libraries/STM32F4xx_StdPeriph_Driver/src/stm32f4xx_i2c.c ****              - This function is suitable for the same applications above but it 
 953:../Shared/Libraries/STM32F4xx_StdPeriph_Driver/src/stm32f4xx_i2c.c ****                allows to overcome the mentioned limitation of I2C_GetFlagStatus() 
 954:../Shared/Libraries/STM32F4xx_StdPeriph_Driver/src/stm32f4xx_i2c.c ****                function.
 955:../Shared/Libraries/STM32F4xx_StdPeriph_Driver/src/stm32f4xx_i2c.c ****              - The returned value could be compared to events already defined in 
 956:../Shared/Libraries/STM32F4xx_StdPeriph_Driver/src/stm32f4xx_i2c.c ****                the library (stm32f4xx_i2c.h) or to custom values defined by user.
 957:../Shared/Libraries/STM32F4xx_StdPeriph_Driver/src/stm32f4xx_i2c.c ****                This function is suitable when multiple flags are monitored at the 
 958:../Shared/Libraries/STM32F4xx_StdPeriph_Driver/src/stm32f4xx_i2c.c ****                same time.
 959:../Shared/Libraries/STM32F4xx_StdPeriph_Driver/src/stm32f4xx_i2c.c ****              - At the opposite of I2C_CheckEvent() function, this function allows 
 960:../Shared/Libraries/STM32F4xx_StdPeriph_Driver/src/stm32f4xx_i2c.c ****                user to choose when an event is accepted (when all events flags are 
 961:../Shared/Libraries/STM32F4xx_StdPeriph_Driver/src/stm32f4xx_i2c.c ****                set and no other flags are set or just when the needed flags are set 
 962:../Shared/Libraries/STM32F4xx_StdPeriph_Driver/src/stm32f4xx_i2c.c ****                like I2C_CheckEvent() function.
 963:../Shared/Libraries/STM32F4xx_StdPeriph_Driver/src/stm32f4xx_i2c.c **** 
 964:../Shared/Libraries/STM32F4xx_StdPeriph_Driver/src/stm32f4xx_i2c.c ****           - Limitations
 965:../Shared/Libraries/STM32F4xx_StdPeriph_Driver/src/stm32f4xx_i2c.c ****              - User may need to define his own events.
 966:../Shared/Libraries/STM32F4xx_StdPeriph_Driver/src/stm32f4xx_i2c.c ****              - Same remark concerning the error management is applicable for this 
 967:../Shared/Libraries/STM32F4xx_StdPeriph_Driver/src/stm32f4xx_i2c.c ****                function if user decides to check only regular communication flags 
 968:../Shared/Libraries/STM32F4xx_StdPeriph_Driver/src/stm32f4xx_i2c.c ****                (and ignores error flags).
 969:../Shared/Libraries/STM32F4xx_StdPeriph_Driver/src/stm32f4xx_i2c.c ****       
 970:../Shared/Libraries/STM32F4xx_StdPeriph_Driver/src/stm32f4xx_i2c.c ****  
 971:../Shared/Libraries/STM32F4xx_StdPeriph_Driver/src/stm32f4xx_i2c.c ****      3. Flag-based state monitoring (Using the function I2C_GetFlagStatus())
 972:../Shared/Libraries/STM32F4xx_StdPeriph_Driver/src/stm32f4xx_i2c.c ****      -----------------------------------------------------------------------
 973:../Shared/Libraries/STM32F4xx_StdPeriph_Driver/src/stm32f4xx_i2c.c ****      
 974:../Shared/Libraries/STM32F4xx_StdPeriph_Driver/src/stm32f4xx_i2c.c ****       Using the function I2C_GetFlagStatus() which simply returns the status of 
 975:../Shared/Libraries/STM32F4xx_StdPeriph_Driver/src/stm32f4xx_i2c.c ****       one single flag (ie. I2C_FLAG_RXNE ...). 
 976:../Shared/Libraries/STM32F4xx_StdPeriph_Driver/src/stm32f4xx_i2c.c **** 
 977:../Shared/Libraries/STM32F4xx_StdPeriph_Driver/src/stm32f4xx_i2c.c ****           - When to use
 978:../Shared/Libraries/STM32F4xx_StdPeriph_Driver/src/stm32f4xx_i2c.c ****              - This function could be used for specific applications or in debug 
 979:../Shared/Libraries/STM32F4xx_StdPeriph_Driver/src/stm32f4xx_i2c.c ****                phase.
 980:../Shared/Libraries/STM32F4xx_StdPeriph_Driver/src/stm32f4xx_i2c.c ****              - It is suitable when only one flag checking is needed (most I2C 
 981:../Shared/Libraries/STM32F4xx_StdPeriph_Driver/src/stm32f4xx_i2c.c ****                events are monitored through multiple flags).
 982:../Shared/Libraries/STM32F4xx_StdPeriph_Driver/src/stm32f4xx_i2c.c ****           - Limitations: 
 983:../Shared/Libraries/STM32F4xx_StdPeriph_Driver/src/stm32f4xx_i2c.c ****              - When calling this function, the Status register is accessed. 
 984:../Shared/Libraries/STM32F4xx_StdPeriph_Driver/src/stm32f4xx_i2c.c ****                Some flags are cleared when the status register is accessed. 
 985:../Shared/Libraries/STM32F4xx_StdPeriph_Driver/src/stm32f4xx_i2c.c ****                So checking the status of one Flag, may clear other ones.
 986:../Shared/Libraries/STM32F4xx_StdPeriph_Driver/src/stm32f4xx_i2c.c ****              - Function may need to be called twice or more in order to monitor 
 987:../Shared/Libraries/STM32F4xx_StdPeriph_Driver/src/stm32f4xx_i2c.c ****                one single event.
 988:../Shared/Libraries/STM32F4xx_StdPeriph_Driver/src/stm32f4xx_i2c.c ****  
 989:../Shared/Libraries/STM32F4xx_StdPeriph_Driver/src/stm32f4xx_i2c.c ****    For detailed description of Events, please refer to section I2C_Events in 
 990:../Shared/Libraries/STM32F4xx_StdPeriph_Driver/src/stm32f4xx_i2c.c ****    stm32f4xx_i2c.h file.
 991:../Shared/Libraries/STM32F4xx_StdPeriph_Driver/src/stm32f4xx_i2c.c ****        
 992:../Shared/Libraries/STM32F4xx_StdPeriph_Driver/src/stm32f4xx_i2c.c **** @endverbatim
 993:../Shared/Libraries/STM32F4xx_StdPeriph_Driver/src/stm32f4xx_i2c.c ****   * @{
 994:../Shared/Libraries/STM32F4xx_StdPeriph_Driver/src/stm32f4xx_i2c.c ****   */
ARM GAS  /tmp/ccYPoyit.s 			page 52


 995:../Shared/Libraries/STM32F4xx_StdPeriph_Driver/src/stm32f4xx_i2c.c ****    
 996:../Shared/Libraries/STM32F4xx_StdPeriph_Driver/src/stm32f4xx_i2c.c **** /**
 997:../Shared/Libraries/STM32F4xx_StdPeriph_Driver/src/stm32f4xx_i2c.c ****   * @brief  Reads the specified I2C register and returns its value.
 998:../Shared/Libraries/STM32F4xx_StdPeriph_Driver/src/stm32f4xx_i2c.c ****   * @param  I2C_Register: specifies the register to read.
 999:../Shared/Libraries/STM32F4xx_StdPeriph_Driver/src/stm32f4xx_i2c.c ****   *          This parameter can be one of the following values:
1000:../Shared/Libraries/STM32F4xx_StdPeriph_Driver/src/stm32f4xx_i2c.c ****   *            @arg I2C_Register_CR1:  CR1 register.
1001:../Shared/Libraries/STM32F4xx_StdPeriph_Driver/src/stm32f4xx_i2c.c ****   *            @arg I2C_Register_CR2:   CR2 register.
1002:../Shared/Libraries/STM32F4xx_StdPeriph_Driver/src/stm32f4xx_i2c.c ****   *            @arg I2C_Register_OAR1:  OAR1 register.
1003:../Shared/Libraries/STM32F4xx_StdPeriph_Driver/src/stm32f4xx_i2c.c ****   *            @arg I2C_Register_OAR2:  OAR2 register.
1004:../Shared/Libraries/STM32F4xx_StdPeriph_Driver/src/stm32f4xx_i2c.c ****   *            @arg I2C_Register_DR:    DR register.
1005:../Shared/Libraries/STM32F4xx_StdPeriph_Driver/src/stm32f4xx_i2c.c ****   *            @arg I2C_Register_SR1:   SR1 register.
1006:../Shared/Libraries/STM32F4xx_StdPeriph_Driver/src/stm32f4xx_i2c.c ****   *            @arg I2C_Register_SR2:   SR2 register.
1007:../Shared/Libraries/STM32F4xx_StdPeriph_Driver/src/stm32f4xx_i2c.c ****   *            @arg I2C_Register_CCR:   CCR register.
1008:../Shared/Libraries/STM32F4xx_StdPeriph_Driver/src/stm32f4xx_i2c.c ****   *            @arg I2C_Register_TRISE: TRISE register.
1009:../Shared/Libraries/STM32F4xx_StdPeriph_Driver/src/stm32f4xx_i2c.c ****   * @retval The value of the read register.
1010:../Shared/Libraries/STM32F4xx_StdPeriph_Driver/src/stm32f4xx_i2c.c ****   */
1011:../Shared/Libraries/STM32F4xx_StdPeriph_Driver/src/stm32f4xx_i2c.c **** uint16_t I2C_ReadRegister(I2C_TypeDef* I2Cx, uint8_t I2C_Register)
1012:../Shared/Libraries/STM32F4xx_StdPeriph_Driver/src/stm32f4xx_i2c.c **** {
 1925              		.loc 1 1012 1
 1926              		.cfi_startproc
 1927              		@ args = 0, pretend = 0, frame = 16
 1928              		@ frame_needed = 1, uses_anonymous_args = 0
 1929              		@ link register save eliminated.
 1930 0000 80B4     		push	{r7}
 1931              	.LCFI148:
 1932              		.cfi_def_cfa_offset 4
 1933              		.cfi_offset 7, -4
 1934 0002 85B0     		sub	sp, sp, #20
 1935              	.LCFI149:
 1936              		.cfi_def_cfa_offset 24
 1937 0004 00AF     		add	r7, sp, #0
 1938              	.LCFI150:
 1939              		.cfi_def_cfa_register 7
 1940 0006 7860     		str	r0, [r7, #4]
 1941 0008 0B46     		mov	r3, r1
 1942 000a FB70     		strb	r3, [r7, #3]
1013:../Shared/Libraries/STM32F4xx_StdPeriph_Driver/src/stm32f4xx_i2c.c ****   __IO uint32_t tmp = 0;
 1943              		.loc 1 1013 17
 1944 000c 0023     		movs	r3, #0
 1945 000e FB60     		str	r3, [r7, #12]
1014:../Shared/Libraries/STM32F4xx_StdPeriph_Driver/src/stm32f4xx_i2c.c **** 
1015:../Shared/Libraries/STM32F4xx_StdPeriph_Driver/src/stm32f4xx_i2c.c ****   /* Check the parameters */
1016:../Shared/Libraries/STM32F4xx_StdPeriph_Driver/src/stm32f4xx_i2c.c ****   assert_param(IS_I2C_ALL_PERIPH(I2Cx));
1017:../Shared/Libraries/STM32F4xx_StdPeriph_Driver/src/stm32f4xx_i2c.c ****   assert_param(IS_I2C_REGISTER(I2C_Register));
1018:../Shared/Libraries/STM32F4xx_StdPeriph_Driver/src/stm32f4xx_i2c.c **** 
1019:../Shared/Libraries/STM32F4xx_StdPeriph_Driver/src/stm32f4xx_i2c.c ****   tmp = (uint32_t) I2Cx;
 1946              		.loc 1 1019 9
 1947 0010 7B68     		ldr	r3, [r7, #4]
 1948              		.loc 1 1019 7
 1949 0012 FB60     		str	r3, [r7, #12]
1020:../Shared/Libraries/STM32F4xx_StdPeriph_Driver/src/stm32f4xx_i2c.c ****   tmp += I2C_Register;
 1950              		.loc 1 1020 7
 1951 0014 FA78     		ldrb	r2, [r7, #3]	@ zero_extendqisi2
 1952 0016 FB68     		ldr	r3, [r7, #12]
 1953 0018 1344     		add	r3, r3, r2
 1954 001a FB60     		str	r3, [r7, #12]
1021:../Shared/Libraries/STM32F4xx_StdPeriph_Driver/src/stm32f4xx_i2c.c **** 
ARM GAS  /tmp/ccYPoyit.s 			page 53


1022:../Shared/Libraries/STM32F4xx_StdPeriph_Driver/src/stm32f4xx_i2c.c ****   /* Return the selected register value */
1023:../Shared/Libraries/STM32F4xx_StdPeriph_Driver/src/stm32f4xx_i2c.c ****   return (*(__IO uint16_t *) tmp);
 1955              		.loc 1 1023 12
 1956 001c FB68     		ldr	r3, [r7, #12]
 1957              		.loc 1 1023 11
 1958 001e 1B88     		ldrh	r3, [r3]	@ movhi
 1959 0020 9BB2     		uxth	r3, r3
1024:../Shared/Libraries/STM32F4xx_StdPeriph_Driver/src/stm32f4xx_i2c.c **** }
 1960              		.loc 1 1024 1
 1961 0022 1846     		mov	r0, r3
 1962 0024 1437     		adds	r7, r7, #20
 1963              	.LCFI151:
 1964              		.cfi_def_cfa_offset 4
 1965 0026 BD46     		mov	sp, r7
 1966              	.LCFI152:
 1967              		.cfi_def_cfa_register 13
 1968              		@ sp needed
 1969 0028 5DF8047B 		ldr	r7, [sp], #4
 1970              	.LCFI153:
 1971              		.cfi_restore 7
 1972              		.cfi_def_cfa_offset 0
 1973 002c 7047     		bx	lr
 1974              		.cfi_endproc
 1975              	.LFE135:
 1977              		.section	.text.I2C_ITConfig,"ax",%progbits
 1978              		.align	1
 1979              		.global	I2C_ITConfig
 1980              		.syntax unified
 1981              		.thumb
 1982              		.thumb_func
 1984              	I2C_ITConfig:
 1985              	.LFB136:
1025:../Shared/Libraries/STM32F4xx_StdPeriph_Driver/src/stm32f4xx_i2c.c **** 
1026:../Shared/Libraries/STM32F4xx_StdPeriph_Driver/src/stm32f4xx_i2c.c **** /**
1027:../Shared/Libraries/STM32F4xx_StdPeriph_Driver/src/stm32f4xx_i2c.c ****   * @brief  Enables or disables the specified I2C interrupts.
1028:../Shared/Libraries/STM32F4xx_StdPeriph_Driver/src/stm32f4xx_i2c.c ****   * @param  I2Cx: where x can be 1, 2 or 3 to select the I2C peripheral.
1029:../Shared/Libraries/STM32F4xx_StdPeriph_Driver/src/stm32f4xx_i2c.c ****   * @param  I2C_IT: specifies the I2C interrupts sources to be enabled or disabled. 
1030:../Shared/Libraries/STM32F4xx_StdPeriph_Driver/src/stm32f4xx_i2c.c ****   *          This parameter can be any combination of the following values:
1031:../Shared/Libraries/STM32F4xx_StdPeriph_Driver/src/stm32f4xx_i2c.c ****   *            @arg I2C_IT_BUF: Buffer interrupt mask
1032:../Shared/Libraries/STM32F4xx_StdPeriph_Driver/src/stm32f4xx_i2c.c ****   *            @arg I2C_IT_EVT: Event interrupt mask
1033:../Shared/Libraries/STM32F4xx_StdPeriph_Driver/src/stm32f4xx_i2c.c ****   *            @arg I2C_IT_ERR: Error interrupt mask
1034:../Shared/Libraries/STM32F4xx_StdPeriph_Driver/src/stm32f4xx_i2c.c ****   * @param  NewState: new state of the specified I2C interrupts.
1035:../Shared/Libraries/STM32F4xx_StdPeriph_Driver/src/stm32f4xx_i2c.c ****   *          This parameter can be: ENABLE or DISABLE.
1036:../Shared/Libraries/STM32F4xx_StdPeriph_Driver/src/stm32f4xx_i2c.c ****   * @retval None
1037:../Shared/Libraries/STM32F4xx_StdPeriph_Driver/src/stm32f4xx_i2c.c ****   */
1038:../Shared/Libraries/STM32F4xx_StdPeriph_Driver/src/stm32f4xx_i2c.c **** void I2C_ITConfig(I2C_TypeDef* I2Cx, uint16_t I2C_IT, FunctionalState NewState)
1039:../Shared/Libraries/STM32F4xx_StdPeriph_Driver/src/stm32f4xx_i2c.c **** {
 1986              		.loc 1 1039 1
 1987              		.cfi_startproc
 1988              		@ args = 0, pretend = 0, frame = 8
 1989              		@ frame_needed = 1, uses_anonymous_args = 0
 1990              		@ link register save eliminated.
 1991 0000 80B4     		push	{r7}
 1992              	.LCFI154:
 1993              		.cfi_def_cfa_offset 4
 1994              		.cfi_offset 7, -4
 1995 0002 83B0     		sub	sp, sp, #12
ARM GAS  /tmp/ccYPoyit.s 			page 54


 1996              	.LCFI155:
 1997              		.cfi_def_cfa_offset 16
 1998 0004 00AF     		add	r7, sp, #0
 1999              	.LCFI156:
 2000              		.cfi_def_cfa_register 7
 2001 0006 7860     		str	r0, [r7, #4]
 2002 0008 0B46     		mov	r3, r1
 2003 000a 7B80     		strh	r3, [r7, #2]	@ movhi
 2004 000c 1346     		mov	r3, r2
 2005 000e 7B70     		strb	r3, [r7, #1]
1040:../Shared/Libraries/STM32F4xx_StdPeriph_Driver/src/stm32f4xx_i2c.c ****   /* Check the parameters */
1041:../Shared/Libraries/STM32F4xx_StdPeriph_Driver/src/stm32f4xx_i2c.c ****   assert_param(IS_I2C_ALL_PERIPH(I2Cx));
1042:../Shared/Libraries/STM32F4xx_StdPeriph_Driver/src/stm32f4xx_i2c.c ****   assert_param(IS_FUNCTIONAL_STATE(NewState));
1043:../Shared/Libraries/STM32F4xx_StdPeriph_Driver/src/stm32f4xx_i2c.c ****   assert_param(IS_I2C_CONFIG_IT(I2C_IT));
1044:../Shared/Libraries/STM32F4xx_StdPeriph_Driver/src/stm32f4xx_i2c.c ****   
1045:../Shared/Libraries/STM32F4xx_StdPeriph_Driver/src/stm32f4xx_i2c.c ****   if (NewState != DISABLE)
 2006              		.loc 1 1045 6
 2007 0010 7B78     		ldrb	r3, [r7, #1]	@ zero_extendqisi2
 2008 0012 002B     		cmp	r3, #0
 2009 0014 08D0     		beq	.L98
1046:../Shared/Libraries/STM32F4xx_StdPeriph_Driver/src/stm32f4xx_i2c.c ****   {
1047:../Shared/Libraries/STM32F4xx_StdPeriph_Driver/src/stm32f4xx_i2c.c ****     /* Enable the selected I2C interrupts */
1048:../Shared/Libraries/STM32F4xx_StdPeriph_Driver/src/stm32f4xx_i2c.c ****     I2Cx->CR2 |= I2C_IT;
 2010              		.loc 1 1048 9
 2011 0016 7B68     		ldr	r3, [r7, #4]
 2012 0018 9B88     		ldrh	r3, [r3, #4]	@ movhi
 2013 001a 9AB2     		uxth	r2, r3
 2014              		.loc 1 1048 15
 2015 001c 7B88     		ldrh	r3, [r7, #2]	@ movhi
 2016 001e 1343     		orrs	r3, r3, r2
 2017 0020 9AB2     		uxth	r2, r3
 2018 0022 7B68     		ldr	r3, [r7, #4]
 2019 0024 9A80     		strh	r2, [r3, #4]	@ movhi
1049:../Shared/Libraries/STM32F4xx_StdPeriph_Driver/src/stm32f4xx_i2c.c ****   }
1050:../Shared/Libraries/STM32F4xx_StdPeriph_Driver/src/stm32f4xx_i2c.c ****   else
1051:../Shared/Libraries/STM32F4xx_StdPeriph_Driver/src/stm32f4xx_i2c.c ****   {
1052:../Shared/Libraries/STM32F4xx_StdPeriph_Driver/src/stm32f4xx_i2c.c ****     /* Disable the selected I2C interrupts */
1053:../Shared/Libraries/STM32F4xx_StdPeriph_Driver/src/stm32f4xx_i2c.c ****     I2Cx->CR2 &= (uint16_t)~I2C_IT;
1054:../Shared/Libraries/STM32F4xx_StdPeriph_Driver/src/stm32f4xx_i2c.c ****   }
1055:../Shared/Libraries/STM32F4xx_StdPeriph_Driver/src/stm32f4xx_i2c.c **** }
 2020              		.loc 1 1055 1
 2021 0026 09E0     		b	.L100
 2022              	.L98:
1053:../Shared/Libraries/STM32F4xx_StdPeriph_Driver/src/stm32f4xx_i2c.c ****   }
 2023              		.loc 1 1053 9
 2024 0028 7B68     		ldr	r3, [r7, #4]
 2025 002a 9B88     		ldrh	r3, [r3, #4]	@ movhi
 2026 002c 9AB2     		uxth	r2, r3
1053:../Shared/Libraries/STM32F4xx_StdPeriph_Driver/src/stm32f4xx_i2c.c ****   }
 2027              		.loc 1 1053 18
 2028 002e 7B88     		ldrh	r3, [r7, #2]	@ movhi
 2029 0030 DB43     		mvns	r3, r3
 2030 0032 9BB2     		uxth	r3, r3
1053:../Shared/Libraries/STM32F4xx_StdPeriph_Driver/src/stm32f4xx_i2c.c ****   }
 2031              		.loc 1 1053 15
 2032 0034 1340     		ands	r3, r3, r2
 2033 0036 9AB2     		uxth	r2, r3
ARM GAS  /tmp/ccYPoyit.s 			page 55


 2034 0038 7B68     		ldr	r3, [r7, #4]
 2035 003a 9A80     		strh	r2, [r3, #4]	@ movhi
 2036              	.L100:
 2037              		.loc 1 1055 1
 2038 003c 00BF     		nop
 2039 003e 0C37     		adds	r7, r7, #12
 2040              	.LCFI157:
 2041              		.cfi_def_cfa_offset 4
 2042 0040 BD46     		mov	sp, r7
 2043              	.LCFI158:
 2044              		.cfi_def_cfa_register 13
 2045              		@ sp needed
 2046 0042 5DF8047B 		ldr	r7, [sp], #4
 2047              	.LCFI159:
 2048              		.cfi_restore 7
 2049              		.cfi_def_cfa_offset 0
 2050 0046 7047     		bx	lr
 2051              		.cfi_endproc
 2052              	.LFE136:
 2054              		.section	.text.I2C_CheckEvent,"ax",%progbits
 2055              		.align	1
 2056              		.global	I2C_CheckEvent
 2057              		.syntax unified
 2058              		.thumb
 2059              		.thumb_func
 2061              	I2C_CheckEvent:
 2062              	.LFB137:
1056:../Shared/Libraries/STM32F4xx_StdPeriph_Driver/src/stm32f4xx_i2c.c **** 
1057:../Shared/Libraries/STM32F4xx_StdPeriph_Driver/src/stm32f4xx_i2c.c **** /*
1058:../Shared/Libraries/STM32F4xx_StdPeriph_Driver/src/stm32f4xx_i2c.c ****  ===============================================================================
1059:../Shared/Libraries/STM32F4xx_StdPeriph_Driver/src/stm32f4xx_i2c.c ****                           1. Basic state monitoring                    
1060:../Shared/Libraries/STM32F4xx_StdPeriph_Driver/src/stm32f4xx_i2c.c ****  ===============================================================================  
1061:../Shared/Libraries/STM32F4xx_StdPeriph_Driver/src/stm32f4xx_i2c.c ****  */
1062:../Shared/Libraries/STM32F4xx_StdPeriph_Driver/src/stm32f4xx_i2c.c **** 
1063:../Shared/Libraries/STM32F4xx_StdPeriph_Driver/src/stm32f4xx_i2c.c **** /**
1064:../Shared/Libraries/STM32F4xx_StdPeriph_Driver/src/stm32f4xx_i2c.c ****   * @brief  Checks whether the last I2Cx Event is equal to the one passed
1065:../Shared/Libraries/STM32F4xx_StdPeriph_Driver/src/stm32f4xx_i2c.c ****   *         as parameter.
1066:../Shared/Libraries/STM32F4xx_StdPeriph_Driver/src/stm32f4xx_i2c.c ****   * @param  I2Cx: where x can be 1, 2 or 3 to select the I2C peripheral.
1067:../Shared/Libraries/STM32F4xx_StdPeriph_Driver/src/stm32f4xx_i2c.c ****   * @param  I2C_EVENT: specifies the event to be checked. 
1068:../Shared/Libraries/STM32F4xx_StdPeriph_Driver/src/stm32f4xx_i2c.c ****   *          This parameter can be one of the following values:
1069:../Shared/Libraries/STM32F4xx_StdPeriph_Driver/src/stm32f4xx_i2c.c ****   *            @arg I2C_EVENT_SLAVE_TRANSMITTER_ADDRESS_MATCHED: EV1
1070:../Shared/Libraries/STM32F4xx_StdPeriph_Driver/src/stm32f4xx_i2c.c ****   *            @arg I2C_EVENT_SLAVE_RECEIVER_ADDRESS_MATCHED: EV1
1071:../Shared/Libraries/STM32F4xx_StdPeriph_Driver/src/stm32f4xx_i2c.c ****   *            @arg I2C_EVENT_SLAVE_TRANSMITTER_SECONDADDRESS_MATCHED: EV1
1072:../Shared/Libraries/STM32F4xx_StdPeriph_Driver/src/stm32f4xx_i2c.c ****   *            @arg I2C_EVENT_SLAVE_RECEIVER_SECONDADDRESS_MATCHED: EV1
1073:../Shared/Libraries/STM32F4xx_StdPeriph_Driver/src/stm32f4xx_i2c.c ****   *            @arg I2C_EVENT_SLAVE_GENERALCALLADDRESS_MATCHED: EV1
1074:../Shared/Libraries/STM32F4xx_StdPeriph_Driver/src/stm32f4xx_i2c.c ****   *            @arg I2C_EVENT_SLAVE_BYTE_RECEIVED: EV2
1075:../Shared/Libraries/STM32F4xx_StdPeriph_Driver/src/stm32f4xx_i2c.c ****   *            @arg (I2C_EVENT_SLAVE_BYTE_RECEIVED | I2C_FLAG_DUALF): EV2
1076:../Shared/Libraries/STM32F4xx_StdPeriph_Driver/src/stm32f4xx_i2c.c ****   *            @arg (I2C_EVENT_SLAVE_BYTE_RECEIVED | I2C_FLAG_GENCALL): EV2
1077:../Shared/Libraries/STM32F4xx_StdPeriph_Driver/src/stm32f4xx_i2c.c ****   *            @arg I2C_EVENT_SLAVE_BYTE_TRANSMITTED: EV3
1078:../Shared/Libraries/STM32F4xx_StdPeriph_Driver/src/stm32f4xx_i2c.c ****   *            @arg (I2C_EVENT_SLAVE_BYTE_TRANSMITTED | I2C_FLAG_DUALF): EV3
1079:../Shared/Libraries/STM32F4xx_StdPeriph_Driver/src/stm32f4xx_i2c.c ****   *            @arg (I2C_EVENT_SLAVE_BYTE_TRANSMITTED | I2C_FLAG_GENCALL): EV3
1080:../Shared/Libraries/STM32F4xx_StdPeriph_Driver/src/stm32f4xx_i2c.c ****   *            @arg I2C_EVENT_SLAVE_ACK_FAILURE: EV3_2
1081:../Shared/Libraries/STM32F4xx_StdPeriph_Driver/src/stm32f4xx_i2c.c ****   *            @arg I2C_EVENT_SLAVE_STOP_DETECTED: EV4
1082:../Shared/Libraries/STM32F4xx_StdPeriph_Driver/src/stm32f4xx_i2c.c ****   *            @arg I2C_EVENT_MASTER_MODE_SELECT: EV5
1083:../Shared/Libraries/STM32F4xx_StdPeriph_Driver/src/stm32f4xx_i2c.c ****   *            @arg I2C_EVENT_MASTER_TRANSMITTER_MODE_SELECTED: EV6     
1084:../Shared/Libraries/STM32F4xx_StdPeriph_Driver/src/stm32f4xx_i2c.c ****   *            @arg I2C_EVENT_MASTER_RECEIVER_MODE_SELECTED: EV6
1085:../Shared/Libraries/STM32F4xx_StdPeriph_Driver/src/stm32f4xx_i2c.c ****   *            @arg I2C_EVENT_MASTER_BYTE_RECEIVED: EV7
ARM GAS  /tmp/ccYPoyit.s 			page 56


1086:../Shared/Libraries/STM32F4xx_StdPeriph_Driver/src/stm32f4xx_i2c.c ****   *            @arg I2C_EVENT_MASTER_BYTE_TRANSMITTING: EV8
1087:../Shared/Libraries/STM32F4xx_StdPeriph_Driver/src/stm32f4xx_i2c.c ****   *            @arg I2C_EVENT_MASTER_BYTE_TRANSMITTED: EV8_2
1088:../Shared/Libraries/STM32F4xx_StdPeriph_Driver/src/stm32f4xx_i2c.c ****   *            @arg I2C_EVENT_MASTER_MODE_ADDRESS10: EV9
1089:../Shared/Libraries/STM32F4xx_StdPeriph_Driver/src/stm32f4xx_i2c.c ****   *     
1090:../Shared/Libraries/STM32F4xx_StdPeriph_Driver/src/stm32f4xx_i2c.c ****   * @note   For detailed description of Events, please refer to section I2C_Events
1091:../Shared/Libraries/STM32F4xx_StdPeriph_Driver/src/stm32f4xx_i2c.c ****   *         in stm32f4xx_i2c.h file.
1092:../Shared/Libraries/STM32F4xx_StdPeriph_Driver/src/stm32f4xx_i2c.c ****   *    
1093:../Shared/Libraries/STM32F4xx_StdPeriph_Driver/src/stm32f4xx_i2c.c ****   * @retval An ErrorStatus enumeration value:
1094:../Shared/Libraries/STM32F4xx_StdPeriph_Driver/src/stm32f4xx_i2c.c ****   *           - SUCCESS: Last event is equal to the I2C_EVENT
1095:../Shared/Libraries/STM32F4xx_StdPeriph_Driver/src/stm32f4xx_i2c.c ****   *           - ERROR: Last event is different from the I2C_EVENT
1096:../Shared/Libraries/STM32F4xx_StdPeriph_Driver/src/stm32f4xx_i2c.c ****   */
1097:../Shared/Libraries/STM32F4xx_StdPeriph_Driver/src/stm32f4xx_i2c.c **** ErrorStatus I2C_CheckEvent(I2C_TypeDef* I2Cx, uint32_t I2C_EVENT)
1098:../Shared/Libraries/STM32F4xx_StdPeriph_Driver/src/stm32f4xx_i2c.c **** {
 2063              		.loc 1 1098 1
 2064              		.cfi_startproc
 2065              		@ args = 0, pretend = 0, frame = 24
 2066              		@ frame_needed = 1, uses_anonymous_args = 0
 2067              		@ link register save eliminated.
 2068 0000 80B4     		push	{r7}
 2069              	.LCFI160:
 2070              		.cfi_def_cfa_offset 4
 2071              		.cfi_offset 7, -4
 2072 0002 87B0     		sub	sp, sp, #28
 2073              	.LCFI161:
 2074              		.cfi_def_cfa_offset 32
 2075 0004 00AF     		add	r7, sp, #0
 2076              	.LCFI162:
 2077              		.cfi_def_cfa_register 7
 2078 0006 7860     		str	r0, [r7, #4]
 2079 0008 3960     		str	r1, [r7]
1099:../Shared/Libraries/STM32F4xx_StdPeriph_Driver/src/stm32f4xx_i2c.c ****   uint32_t lastevent = 0;
 2080              		.loc 1 1099 12
 2081 000a 0023     		movs	r3, #0
 2082 000c 3B61     		str	r3, [r7, #16]
1100:../Shared/Libraries/STM32F4xx_StdPeriph_Driver/src/stm32f4xx_i2c.c ****   uint32_t flag1 = 0, flag2 = 0;
 2083              		.loc 1 1100 12
 2084 000e 0023     		movs	r3, #0
 2085 0010 FB60     		str	r3, [r7, #12]
 2086              		.loc 1 1100 23
 2087 0012 0023     		movs	r3, #0
 2088 0014 BB60     		str	r3, [r7, #8]
1101:../Shared/Libraries/STM32F4xx_StdPeriph_Driver/src/stm32f4xx_i2c.c ****   ErrorStatus status = ERROR;
 2089              		.loc 1 1101 15
 2090 0016 0023     		movs	r3, #0
 2091 0018 FB75     		strb	r3, [r7, #23]
1102:../Shared/Libraries/STM32F4xx_StdPeriph_Driver/src/stm32f4xx_i2c.c **** 
1103:../Shared/Libraries/STM32F4xx_StdPeriph_Driver/src/stm32f4xx_i2c.c ****   /* Check the parameters */
1104:../Shared/Libraries/STM32F4xx_StdPeriph_Driver/src/stm32f4xx_i2c.c ****   assert_param(IS_I2C_ALL_PERIPH(I2Cx));
1105:../Shared/Libraries/STM32F4xx_StdPeriph_Driver/src/stm32f4xx_i2c.c ****   assert_param(IS_I2C_EVENT(I2C_EVENT));
1106:../Shared/Libraries/STM32F4xx_StdPeriph_Driver/src/stm32f4xx_i2c.c **** 
1107:../Shared/Libraries/STM32F4xx_StdPeriph_Driver/src/stm32f4xx_i2c.c ****   /* Read the I2Cx status register */
1108:../Shared/Libraries/STM32F4xx_StdPeriph_Driver/src/stm32f4xx_i2c.c ****   flag1 = I2Cx->SR1;
 2092              		.loc 1 1108 15
 2093 001a 7B68     		ldr	r3, [r7, #4]
 2094 001c 9B8A     		ldrh	r3, [r3, #20]	@ movhi
 2095 001e 9BB2     		uxth	r3, r3
 2096              		.loc 1 1108 9
ARM GAS  /tmp/ccYPoyit.s 			page 57


 2097 0020 FB60     		str	r3, [r7, #12]
1109:../Shared/Libraries/STM32F4xx_StdPeriph_Driver/src/stm32f4xx_i2c.c ****   flag2 = I2Cx->SR2;
 2098              		.loc 1 1109 15
 2099 0022 7B68     		ldr	r3, [r7, #4]
 2100 0024 1B8B     		ldrh	r3, [r3, #24]	@ movhi
 2101 0026 9BB2     		uxth	r3, r3
 2102              		.loc 1 1109 9
 2103 0028 BB60     		str	r3, [r7, #8]
1110:../Shared/Libraries/STM32F4xx_StdPeriph_Driver/src/stm32f4xx_i2c.c ****   flag2 = flag2 << 16;
 2104              		.loc 1 1110 9
 2105 002a BB68     		ldr	r3, [r7, #8]
 2106 002c 1B04     		lsls	r3, r3, #16
 2107 002e BB60     		str	r3, [r7, #8]
1111:../Shared/Libraries/STM32F4xx_StdPeriph_Driver/src/stm32f4xx_i2c.c **** 
1112:../Shared/Libraries/STM32F4xx_StdPeriph_Driver/src/stm32f4xx_i2c.c ****   /* Get the last event value from I2C status register */
1113:../Shared/Libraries/STM32F4xx_StdPeriph_Driver/src/stm32f4xx_i2c.c ****   lastevent = (flag1 | flag2) & FLAG_MASK;
 2108              		.loc 1 1113 22
 2109 0030 FA68     		ldr	r2, [r7, #12]
 2110 0032 BB68     		ldr	r3, [r7, #8]
 2111 0034 1343     		orrs	r3, r3, r2
 2112              		.loc 1 1113 13
 2113 0036 23F07F43 		bic	r3, r3, #-16777216
 2114 003a 3B61     		str	r3, [r7, #16]
1114:../Shared/Libraries/STM32F4xx_StdPeriph_Driver/src/stm32f4xx_i2c.c **** 
1115:../Shared/Libraries/STM32F4xx_StdPeriph_Driver/src/stm32f4xx_i2c.c ****   /* Check whether the last event contains the I2C_EVENT */
1116:../Shared/Libraries/STM32F4xx_StdPeriph_Driver/src/stm32f4xx_i2c.c ****   if ((lastevent & I2C_EVENT) == I2C_EVENT)
 2115              		.loc 1 1116 18
 2116 003c 3A69     		ldr	r2, [r7, #16]
 2117 003e 3B68     		ldr	r3, [r7]
 2118 0040 1340     		ands	r3, r3, r2
 2119              		.loc 1 1116 6
 2120 0042 3A68     		ldr	r2, [r7]
 2121 0044 9A42     		cmp	r2, r3
 2122 0046 02D1     		bne	.L102
1117:../Shared/Libraries/STM32F4xx_StdPeriph_Driver/src/stm32f4xx_i2c.c ****   {
1118:../Shared/Libraries/STM32F4xx_StdPeriph_Driver/src/stm32f4xx_i2c.c ****     /* SUCCESS: last event is equal to I2C_EVENT */
1119:../Shared/Libraries/STM32F4xx_StdPeriph_Driver/src/stm32f4xx_i2c.c ****     status = SUCCESS;
 2123              		.loc 1 1119 12
 2124 0048 0123     		movs	r3, #1
 2125 004a FB75     		strb	r3, [r7, #23]
 2126 004c 01E0     		b	.L103
 2127              	.L102:
1120:../Shared/Libraries/STM32F4xx_StdPeriph_Driver/src/stm32f4xx_i2c.c ****   }
1121:../Shared/Libraries/STM32F4xx_StdPeriph_Driver/src/stm32f4xx_i2c.c ****   else
1122:../Shared/Libraries/STM32F4xx_StdPeriph_Driver/src/stm32f4xx_i2c.c ****   {
1123:../Shared/Libraries/STM32F4xx_StdPeriph_Driver/src/stm32f4xx_i2c.c ****     /* ERROR: last event is different from I2C_EVENT */
1124:../Shared/Libraries/STM32F4xx_StdPeriph_Driver/src/stm32f4xx_i2c.c ****     status = ERROR;
 2128              		.loc 1 1124 12
 2129 004e 0023     		movs	r3, #0
 2130 0050 FB75     		strb	r3, [r7, #23]
 2131              	.L103:
1125:../Shared/Libraries/STM32F4xx_StdPeriph_Driver/src/stm32f4xx_i2c.c ****   }
1126:../Shared/Libraries/STM32F4xx_StdPeriph_Driver/src/stm32f4xx_i2c.c ****   /* Return status */
1127:../Shared/Libraries/STM32F4xx_StdPeriph_Driver/src/stm32f4xx_i2c.c ****   return status;
 2132              		.loc 1 1127 10
 2133 0052 FB7D     		ldrb	r3, [r7, #23]	@ zero_extendqisi2
1128:../Shared/Libraries/STM32F4xx_StdPeriph_Driver/src/stm32f4xx_i2c.c **** }
ARM GAS  /tmp/ccYPoyit.s 			page 58


 2134              		.loc 1 1128 1
 2135 0054 1846     		mov	r0, r3
 2136 0056 1C37     		adds	r7, r7, #28
 2137              	.LCFI163:
 2138              		.cfi_def_cfa_offset 4
 2139 0058 BD46     		mov	sp, r7
 2140              	.LCFI164:
 2141              		.cfi_def_cfa_register 13
 2142              		@ sp needed
 2143 005a 5DF8047B 		ldr	r7, [sp], #4
 2144              	.LCFI165:
 2145              		.cfi_restore 7
 2146              		.cfi_def_cfa_offset 0
 2147 005e 7047     		bx	lr
 2148              		.cfi_endproc
 2149              	.LFE137:
 2151              		.section	.text.I2C_GetLastEvent,"ax",%progbits
 2152              		.align	1
 2153              		.global	I2C_GetLastEvent
 2154              		.syntax unified
 2155              		.thumb
 2156              		.thumb_func
 2158              	I2C_GetLastEvent:
 2159              	.LFB138:
1129:../Shared/Libraries/STM32F4xx_StdPeriph_Driver/src/stm32f4xx_i2c.c **** 
1130:../Shared/Libraries/STM32F4xx_StdPeriph_Driver/src/stm32f4xx_i2c.c **** /*
1131:../Shared/Libraries/STM32F4xx_StdPeriph_Driver/src/stm32f4xx_i2c.c ****  ===============================================================================
1132:../Shared/Libraries/STM32F4xx_StdPeriph_Driver/src/stm32f4xx_i2c.c ****                           2. Advanced state monitoring                   
1133:../Shared/Libraries/STM32F4xx_StdPeriph_Driver/src/stm32f4xx_i2c.c ****  ===============================================================================  
1134:../Shared/Libraries/STM32F4xx_StdPeriph_Driver/src/stm32f4xx_i2c.c ****  */
1135:../Shared/Libraries/STM32F4xx_StdPeriph_Driver/src/stm32f4xx_i2c.c **** 
1136:../Shared/Libraries/STM32F4xx_StdPeriph_Driver/src/stm32f4xx_i2c.c **** /**
1137:../Shared/Libraries/STM32F4xx_StdPeriph_Driver/src/stm32f4xx_i2c.c ****   * @brief  Returns the last I2Cx Event.
1138:../Shared/Libraries/STM32F4xx_StdPeriph_Driver/src/stm32f4xx_i2c.c ****   * @param  I2Cx: where x can be 1, 2 or 3 to select the I2C peripheral.
1139:../Shared/Libraries/STM32F4xx_StdPeriph_Driver/src/stm32f4xx_i2c.c ****   *     
1140:../Shared/Libraries/STM32F4xx_StdPeriph_Driver/src/stm32f4xx_i2c.c ****   * @note   For detailed description of Events, please refer to section I2C_Events
1141:../Shared/Libraries/STM32F4xx_StdPeriph_Driver/src/stm32f4xx_i2c.c ****   *         in stm32f4xx_i2c.h file.
1142:../Shared/Libraries/STM32F4xx_StdPeriph_Driver/src/stm32f4xx_i2c.c ****   *    
1143:../Shared/Libraries/STM32F4xx_StdPeriph_Driver/src/stm32f4xx_i2c.c ****   * @retval The last event
1144:../Shared/Libraries/STM32F4xx_StdPeriph_Driver/src/stm32f4xx_i2c.c ****   */
1145:../Shared/Libraries/STM32F4xx_StdPeriph_Driver/src/stm32f4xx_i2c.c **** uint32_t I2C_GetLastEvent(I2C_TypeDef* I2Cx)
1146:../Shared/Libraries/STM32F4xx_StdPeriph_Driver/src/stm32f4xx_i2c.c **** {
 2160              		.loc 1 1146 1
 2161              		.cfi_startproc
 2162              		@ args = 0, pretend = 0, frame = 24
 2163              		@ frame_needed = 1, uses_anonymous_args = 0
 2164              		@ link register save eliminated.
 2165 0000 80B4     		push	{r7}
 2166              	.LCFI166:
 2167              		.cfi_def_cfa_offset 4
 2168              		.cfi_offset 7, -4
 2169 0002 87B0     		sub	sp, sp, #28
 2170              	.LCFI167:
 2171              		.cfi_def_cfa_offset 32
 2172 0004 00AF     		add	r7, sp, #0
 2173              	.LCFI168:
 2174              		.cfi_def_cfa_register 7
ARM GAS  /tmp/ccYPoyit.s 			page 59


 2175 0006 7860     		str	r0, [r7, #4]
1147:../Shared/Libraries/STM32F4xx_StdPeriph_Driver/src/stm32f4xx_i2c.c ****   uint32_t lastevent = 0;
 2176              		.loc 1 1147 12
 2177 0008 0023     		movs	r3, #0
 2178 000a 7B61     		str	r3, [r7, #20]
1148:../Shared/Libraries/STM32F4xx_StdPeriph_Driver/src/stm32f4xx_i2c.c ****   uint32_t flag1 = 0, flag2 = 0;
 2179              		.loc 1 1148 12
 2180 000c 0023     		movs	r3, #0
 2181 000e 3B61     		str	r3, [r7, #16]
 2182              		.loc 1 1148 23
 2183 0010 0023     		movs	r3, #0
 2184 0012 FB60     		str	r3, [r7, #12]
1149:../Shared/Libraries/STM32F4xx_StdPeriph_Driver/src/stm32f4xx_i2c.c **** 
1150:../Shared/Libraries/STM32F4xx_StdPeriph_Driver/src/stm32f4xx_i2c.c ****   /* Check the parameters */
1151:../Shared/Libraries/STM32F4xx_StdPeriph_Driver/src/stm32f4xx_i2c.c ****   assert_param(IS_I2C_ALL_PERIPH(I2Cx));
1152:../Shared/Libraries/STM32F4xx_StdPeriph_Driver/src/stm32f4xx_i2c.c **** 
1153:../Shared/Libraries/STM32F4xx_StdPeriph_Driver/src/stm32f4xx_i2c.c ****   /* Read the I2Cx status register */
1154:../Shared/Libraries/STM32F4xx_StdPeriph_Driver/src/stm32f4xx_i2c.c ****   flag1 = I2Cx->SR1;
 2185              		.loc 1 1154 15
 2186 0014 7B68     		ldr	r3, [r7, #4]
 2187 0016 9B8A     		ldrh	r3, [r3, #20]	@ movhi
 2188 0018 9BB2     		uxth	r3, r3
 2189              		.loc 1 1154 9
 2190 001a 3B61     		str	r3, [r7, #16]
1155:../Shared/Libraries/STM32F4xx_StdPeriph_Driver/src/stm32f4xx_i2c.c ****   flag2 = I2Cx->SR2;
 2191              		.loc 1 1155 15
 2192 001c 7B68     		ldr	r3, [r7, #4]
 2193 001e 1B8B     		ldrh	r3, [r3, #24]	@ movhi
 2194 0020 9BB2     		uxth	r3, r3
 2195              		.loc 1 1155 9
 2196 0022 FB60     		str	r3, [r7, #12]
1156:../Shared/Libraries/STM32F4xx_StdPeriph_Driver/src/stm32f4xx_i2c.c ****   flag2 = flag2 << 16;
 2197              		.loc 1 1156 9
 2198 0024 FB68     		ldr	r3, [r7, #12]
 2199 0026 1B04     		lsls	r3, r3, #16
 2200 0028 FB60     		str	r3, [r7, #12]
1157:../Shared/Libraries/STM32F4xx_StdPeriph_Driver/src/stm32f4xx_i2c.c **** 
1158:../Shared/Libraries/STM32F4xx_StdPeriph_Driver/src/stm32f4xx_i2c.c ****   /* Get the last event value from I2C status register */
1159:../Shared/Libraries/STM32F4xx_StdPeriph_Driver/src/stm32f4xx_i2c.c ****   lastevent = (flag1 | flag2) & FLAG_MASK;
 2201              		.loc 1 1159 22
 2202 002a 3A69     		ldr	r2, [r7, #16]
 2203 002c FB68     		ldr	r3, [r7, #12]
 2204 002e 1343     		orrs	r3, r3, r2
 2205              		.loc 1 1159 13
 2206 0030 23F07F43 		bic	r3, r3, #-16777216
 2207 0034 7B61     		str	r3, [r7, #20]
1160:../Shared/Libraries/STM32F4xx_StdPeriph_Driver/src/stm32f4xx_i2c.c **** 
1161:../Shared/Libraries/STM32F4xx_StdPeriph_Driver/src/stm32f4xx_i2c.c ****   /* Return status */
1162:../Shared/Libraries/STM32F4xx_StdPeriph_Driver/src/stm32f4xx_i2c.c ****   return lastevent;
 2208              		.loc 1 1162 10
 2209 0036 7B69     		ldr	r3, [r7, #20]
1163:../Shared/Libraries/STM32F4xx_StdPeriph_Driver/src/stm32f4xx_i2c.c **** }
 2210              		.loc 1 1163 1
 2211 0038 1846     		mov	r0, r3
 2212 003a 1C37     		adds	r7, r7, #28
 2213              	.LCFI169:
 2214              		.cfi_def_cfa_offset 4
ARM GAS  /tmp/ccYPoyit.s 			page 60


 2215 003c BD46     		mov	sp, r7
 2216              	.LCFI170:
 2217              		.cfi_def_cfa_register 13
 2218              		@ sp needed
 2219 003e 5DF8047B 		ldr	r7, [sp], #4
 2220              	.LCFI171:
 2221              		.cfi_restore 7
 2222              		.cfi_def_cfa_offset 0
 2223 0042 7047     		bx	lr
 2224              		.cfi_endproc
 2225              	.LFE138:
 2227              		.section	.text.I2C_GetFlagStatus,"ax",%progbits
 2228              		.align	1
 2229              		.global	I2C_GetFlagStatus
 2230              		.syntax unified
 2231              		.thumb
 2232              		.thumb_func
 2234              	I2C_GetFlagStatus:
 2235              	.LFB139:
1164:../Shared/Libraries/STM32F4xx_StdPeriph_Driver/src/stm32f4xx_i2c.c **** 
1165:../Shared/Libraries/STM32F4xx_StdPeriph_Driver/src/stm32f4xx_i2c.c **** /*
1166:../Shared/Libraries/STM32F4xx_StdPeriph_Driver/src/stm32f4xx_i2c.c ****  ===============================================================================
1167:../Shared/Libraries/STM32F4xx_StdPeriph_Driver/src/stm32f4xx_i2c.c ****                           3. Flag-based state monitoring                   
1168:../Shared/Libraries/STM32F4xx_StdPeriph_Driver/src/stm32f4xx_i2c.c ****  ===============================================================================  
1169:../Shared/Libraries/STM32F4xx_StdPeriph_Driver/src/stm32f4xx_i2c.c ****  */
1170:../Shared/Libraries/STM32F4xx_StdPeriph_Driver/src/stm32f4xx_i2c.c **** 
1171:../Shared/Libraries/STM32F4xx_StdPeriph_Driver/src/stm32f4xx_i2c.c **** /**
1172:../Shared/Libraries/STM32F4xx_StdPeriph_Driver/src/stm32f4xx_i2c.c ****   * @brief  Checks whether the specified I2C flag is set or not.
1173:../Shared/Libraries/STM32F4xx_StdPeriph_Driver/src/stm32f4xx_i2c.c ****   * @param  I2Cx: where x can be 1, 2 or 3 to select the I2C peripheral.
1174:../Shared/Libraries/STM32F4xx_StdPeriph_Driver/src/stm32f4xx_i2c.c ****   * @param  I2C_FLAG: specifies the flag to check. 
1175:../Shared/Libraries/STM32F4xx_StdPeriph_Driver/src/stm32f4xx_i2c.c ****   *          This parameter can be one of the following values:
1176:../Shared/Libraries/STM32F4xx_StdPeriph_Driver/src/stm32f4xx_i2c.c ****   *            @arg I2C_FLAG_DUALF: Dual flag (Slave mode)
1177:../Shared/Libraries/STM32F4xx_StdPeriph_Driver/src/stm32f4xx_i2c.c ****   *            @arg I2C_FLAG_SMBHOST: SMBus host header (Slave mode)
1178:../Shared/Libraries/STM32F4xx_StdPeriph_Driver/src/stm32f4xx_i2c.c ****   *            @arg I2C_FLAG_SMBDEFAULT: SMBus default header (Slave mode)
1179:../Shared/Libraries/STM32F4xx_StdPeriph_Driver/src/stm32f4xx_i2c.c ****   *            @arg I2C_FLAG_GENCALL: General call header flag (Slave mode)
1180:../Shared/Libraries/STM32F4xx_StdPeriph_Driver/src/stm32f4xx_i2c.c ****   *            @arg I2C_FLAG_TRA: Transmitter/Receiver flag
1181:../Shared/Libraries/STM32F4xx_StdPeriph_Driver/src/stm32f4xx_i2c.c ****   *            @arg I2C_FLAG_BUSY: Bus busy flag
1182:../Shared/Libraries/STM32F4xx_StdPeriph_Driver/src/stm32f4xx_i2c.c ****   *            @arg I2C_FLAG_MSL: Master/Slave flag
1183:../Shared/Libraries/STM32F4xx_StdPeriph_Driver/src/stm32f4xx_i2c.c ****   *            @arg I2C_FLAG_SMBALERT: SMBus Alert flag
1184:../Shared/Libraries/STM32F4xx_StdPeriph_Driver/src/stm32f4xx_i2c.c ****   *            @arg I2C_FLAG_TIMEOUT: Timeout or Tlow error flag
1185:../Shared/Libraries/STM32F4xx_StdPeriph_Driver/src/stm32f4xx_i2c.c ****   *            @arg I2C_FLAG_PECERR: PEC error in reception flag
1186:../Shared/Libraries/STM32F4xx_StdPeriph_Driver/src/stm32f4xx_i2c.c ****   *            @arg I2C_FLAG_OVR: Overrun/Underrun flag (Slave mode)
1187:../Shared/Libraries/STM32F4xx_StdPeriph_Driver/src/stm32f4xx_i2c.c ****   *            @arg I2C_FLAG_AF: Acknowledge failure flag
1188:../Shared/Libraries/STM32F4xx_StdPeriph_Driver/src/stm32f4xx_i2c.c ****   *            @arg I2C_FLAG_ARLO: Arbitration lost flag (Master mode)
1189:../Shared/Libraries/STM32F4xx_StdPeriph_Driver/src/stm32f4xx_i2c.c ****   *            @arg I2C_FLAG_BERR: Bus error flag
1190:../Shared/Libraries/STM32F4xx_StdPeriph_Driver/src/stm32f4xx_i2c.c ****   *            @arg I2C_FLAG_TXE: Data register empty flag (Transmitter)
1191:../Shared/Libraries/STM32F4xx_StdPeriph_Driver/src/stm32f4xx_i2c.c ****   *            @arg I2C_FLAG_RXNE: Data register not empty (Receiver) flag
1192:../Shared/Libraries/STM32F4xx_StdPeriph_Driver/src/stm32f4xx_i2c.c ****   *            @arg I2C_FLAG_STOPF: Stop detection flag (Slave mode)
1193:../Shared/Libraries/STM32F4xx_StdPeriph_Driver/src/stm32f4xx_i2c.c ****   *            @arg I2C_FLAG_ADD10: 10-bit header sent flag (Master mode)
1194:../Shared/Libraries/STM32F4xx_StdPeriph_Driver/src/stm32f4xx_i2c.c ****   *            @arg I2C_FLAG_BTF: Byte transfer finished flag
1195:../Shared/Libraries/STM32F4xx_StdPeriph_Driver/src/stm32f4xx_i2c.c ****   *            @arg I2C_FLAG_ADDR: Address sent flag (Master mode) "ADSL"
1196:../Shared/Libraries/STM32F4xx_StdPeriph_Driver/src/stm32f4xx_i2c.c ****   *                                Address matched flag (Slave mode)"ENDAD"
1197:../Shared/Libraries/STM32F4xx_StdPeriph_Driver/src/stm32f4xx_i2c.c ****   *            @arg I2C_FLAG_SB: Start bit flag (Master mode)
1198:../Shared/Libraries/STM32F4xx_StdPeriph_Driver/src/stm32f4xx_i2c.c ****   * @retval The new state of I2C_FLAG (SET or RESET).
1199:../Shared/Libraries/STM32F4xx_StdPeriph_Driver/src/stm32f4xx_i2c.c ****   */
1200:../Shared/Libraries/STM32F4xx_StdPeriph_Driver/src/stm32f4xx_i2c.c **** FlagStatus I2C_GetFlagStatus(I2C_TypeDef* I2Cx, uint32_t I2C_FLAG)
1201:../Shared/Libraries/STM32F4xx_StdPeriph_Driver/src/stm32f4xx_i2c.c **** {
ARM GAS  /tmp/ccYPoyit.s 			page 61


 2236              		.loc 1 1201 1
 2237              		.cfi_startproc
 2238              		@ args = 0, pretend = 0, frame = 24
 2239              		@ frame_needed = 1, uses_anonymous_args = 0
 2240              		@ link register save eliminated.
 2241 0000 80B4     		push	{r7}
 2242              	.LCFI172:
 2243              		.cfi_def_cfa_offset 4
 2244              		.cfi_offset 7, -4
 2245 0002 87B0     		sub	sp, sp, #28
 2246              	.LCFI173:
 2247              		.cfi_def_cfa_offset 32
 2248 0004 00AF     		add	r7, sp, #0
 2249              	.LCFI174:
 2250              		.cfi_def_cfa_register 7
 2251 0006 7860     		str	r0, [r7, #4]
 2252 0008 3960     		str	r1, [r7]
1202:../Shared/Libraries/STM32F4xx_StdPeriph_Driver/src/stm32f4xx_i2c.c ****   FlagStatus bitstatus = RESET;
 2253              		.loc 1 1202 14
 2254 000a 0023     		movs	r3, #0
 2255 000c FB75     		strb	r3, [r7, #23]
1203:../Shared/Libraries/STM32F4xx_StdPeriph_Driver/src/stm32f4xx_i2c.c ****   __IO uint32_t i2creg = 0, i2cxbase = 0;
 2256              		.loc 1 1203 17
 2257 000e 0023     		movs	r3, #0
 2258 0010 3B61     		str	r3, [r7, #16]
 2259              		.loc 1 1203 29
 2260 0012 0023     		movs	r3, #0
 2261 0014 FB60     		str	r3, [r7, #12]
1204:../Shared/Libraries/STM32F4xx_StdPeriph_Driver/src/stm32f4xx_i2c.c **** 
1205:../Shared/Libraries/STM32F4xx_StdPeriph_Driver/src/stm32f4xx_i2c.c ****   /* Check the parameters */
1206:../Shared/Libraries/STM32F4xx_StdPeriph_Driver/src/stm32f4xx_i2c.c ****   assert_param(IS_I2C_ALL_PERIPH(I2Cx));
1207:../Shared/Libraries/STM32F4xx_StdPeriph_Driver/src/stm32f4xx_i2c.c ****   assert_param(IS_I2C_GET_FLAG(I2C_FLAG));
1208:../Shared/Libraries/STM32F4xx_StdPeriph_Driver/src/stm32f4xx_i2c.c **** 
1209:../Shared/Libraries/STM32F4xx_StdPeriph_Driver/src/stm32f4xx_i2c.c ****   /* Get the I2Cx peripheral base address */
1210:../Shared/Libraries/STM32F4xx_StdPeriph_Driver/src/stm32f4xx_i2c.c ****   i2cxbase = (uint32_t)I2Cx;
 2262              		.loc 1 1210 14
 2263 0016 7B68     		ldr	r3, [r7, #4]
 2264              		.loc 1 1210 12
 2265 0018 FB60     		str	r3, [r7, #12]
1211:../Shared/Libraries/STM32F4xx_StdPeriph_Driver/src/stm32f4xx_i2c.c ****   
1212:../Shared/Libraries/STM32F4xx_StdPeriph_Driver/src/stm32f4xx_i2c.c ****   /* Read flag register index */
1213:../Shared/Libraries/STM32F4xx_StdPeriph_Driver/src/stm32f4xx_i2c.c ****   i2creg = I2C_FLAG >> 28;
 2266              		.loc 1 1213 21
 2267 001a 3B68     		ldr	r3, [r7]
 2268 001c 1B0F     		lsrs	r3, r3, #28
 2269              		.loc 1 1213 10
 2270 001e 3B61     		str	r3, [r7, #16]
1214:../Shared/Libraries/STM32F4xx_StdPeriph_Driver/src/stm32f4xx_i2c.c ****   
1215:../Shared/Libraries/STM32F4xx_StdPeriph_Driver/src/stm32f4xx_i2c.c ****   /* Get bit[23:0] of the flag */
1216:../Shared/Libraries/STM32F4xx_StdPeriph_Driver/src/stm32f4xx_i2c.c ****   I2C_FLAG &= FLAG_MASK;
 2271              		.loc 1 1216 12
 2272 0020 3B68     		ldr	r3, [r7]
 2273 0022 23F07F43 		bic	r3, r3, #-16777216
 2274 0026 3B60     		str	r3, [r7]
1217:../Shared/Libraries/STM32F4xx_StdPeriph_Driver/src/stm32f4xx_i2c.c ****   
1218:../Shared/Libraries/STM32F4xx_StdPeriph_Driver/src/stm32f4xx_i2c.c ****   if(i2creg != 0)
 2275              		.loc 1 1218 13
ARM GAS  /tmp/ccYPoyit.s 			page 62


 2276 0028 3B69     		ldr	r3, [r7, #16]
 2277              		.loc 1 1218 5
 2278 002a 002B     		cmp	r3, #0
 2279 002c 03D0     		beq	.L108
1219:../Shared/Libraries/STM32F4xx_StdPeriph_Driver/src/stm32f4xx_i2c.c ****   {
1220:../Shared/Libraries/STM32F4xx_StdPeriph_Driver/src/stm32f4xx_i2c.c ****     /* Get the I2Cx SR1 register address */
1221:../Shared/Libraries/STM32F4xx_StdPeriph_Driver/src/stm32f4xx_i2c.c ****     i2cxbase += 0x14;
 2280              		.loc 1 1221 14
 2281 002e FB68     		ldr	r3, [r7, #12]
 2282 0030 1433     		adds	r3, r3, #20
 2283 0032 FB60     		str	r3, [r7, #12]
 2284 0034 05E0     		b	.L109
 2285              	.L108:
1222:../Shared/Libraries/STM32F4xx_StdPeriph_Driver/src/stm32f4xx_i2c.c ****   }
1223:../Shared/Libraries/STM32F4xx_StdPeriph_Driver/src/stm32f4xx_i2c.c ****   else
1224:../Shared/Libraries/STM32F4xx_StdPeriph_Driver/src/stm32f4xx_i2c.c ****   {
1225:../Shared/Libraries/STM32F4xx_StdPeriph_Driver/src/stm32f4xx_i2c.c ****     /* Flag in I2Cx SR2 Register */
1226:../Shared/Libraries/STM32F4xx_StdPeriph_Driver/src/stm32f4xx_i2c.c ****     I2C_FLAG = (uint32_t)(I2C_FLAG >> 16);
 2286              		.loc 1 1226 14
 2287 0036 3B68     		ldr	r3, [r7]
 2288 0038 1B0C     		lsrs	r3, r3, #16
 2289 003a 3B60     		str	r3, [r7]
1227:../Shared/Libraries/STM32F4xx_StdPeriph_Driver/src/stm32f4xx_i2c.c ****     /* Get the I2Cx SR2 register address */
1228:../Shared/Libraries/STM32F4xx_StdPeriph_Driver/src/stm32f4xx_i2c.c ****     i2cxbase += 0x18;
 2290              		.loc 1 1228 14
 2291 003c FB68     		ldr	r3, [r7, #12]
 2292 003e 1833     		adds	r3, r3, #24
 2293 0040 FB60     		str	r3, [r7, #12]
 2294              	.L109:
1229:../Shared/Libraries/STM32F4xx_StdPeriph_Driver/src/stm32f4xx_i2c.c ****   }
1230:../Shared/Libraries/STM32F4xx_StdPeriph_Driver/src/stm32f4xx_i2c.c ****   
1231:../Shared/Libraries/STM32F4xx_StdPeriph_Driver/src/stm32f4xx_i2c.c ****   if(((*(__IO uint32_t *)i2cxbase) & I2C_FLAG) != (uint32_t)RESET)
 2295              		.loc 1 1231 9
 2296 0042 FB68     		ldr	r3, [r7, #12]
 2297              		.loc 1 1231 8
 2298 0044 1A68     		ldr	r2, [r3]
 2299              		.loc 1 1231 36
 2300 0046 3B68     		ldr	r3, [r7]
 2301 0048 1340     		ands	r3, r3, r2
 2302              		.loc 1 1231 5
 2303 004a 002B     		cmp	r3, #0
 2304 004c 02D0     		beq	.L110
1232:../Shared/Libraries/STM32F4xx_StdPeriph_Driver/src/stm32f4xx_i2c.c ****   {
1233:../Shared/Libraries/STM32F4xx_StdPeriph_Driver/src/stm32f4xx_i2c.c ****     /* I2C_FLAG is set */
1234:../Shared/Libraries/STM32F4xx_StdPeriph_Driver/src/stm32f4xx_i2c.c ****     bitstatus = SET;
 2305              		.loc 1 1234 15
 2306 004e 0123     		movs	r3, #1
 2307 0050 FB75     		strb	r3, [r7, #23]
 2308 0052 01E0     		b	.L111
 2309              	.L110:
1235:../Shared/Libraries/STM32F4xx_StdPeriph_Driver/src/stm32f4xx_i2c.c ****   }
1236:../Shared/Libraries/STM32F4xx_StdPeriph_Driver/src/stm32f4xx_i2c.c ****   else
1237:../Shared/Libraries/STM32F4xx_StdPeriph_Driver/src/stm32f4xx_i2c.c ****   {
1238:../Shared/Libraries/STM32F4xx_StdPeriph_Driver/src/stm32f4xx_i2c.c ****     /* I2C_FLAG is reset */
1239:../Shared/Libraries/STM32F4xx_StdPeriph_Driver/src/stm32f4xx_i2c.c ****     bitstatus = RESET;
 2310              		.loc 1 1239 15
 2311 0054 0023     		movs	r3, #0
ARM GAS  /tmp/ccYPoyit.s 			page 63


 2312 0056 FB75     		strb	r3, [r7, #23]
 2313              	.L111:
1240:../Shared/Libraries/STM32F4xx_StdPeriph_Driver/src/stm32f4xx_i2c.c ****   }
1241:../Shared/Libraries/STM32F4xx_StdPeriph_Driver/src/stm32f4xx_i2c.c ****   
1242:../Shared/Libraries/STM32F4xx_StdPeriph_Driver/src/stm32f4xx_i2c.c ****   /* Return the I2C_FLAG status */
1243:../Shared/Libraries/STM32F4xx_StdPeriph_Driver/src/stm32f4xx_i2c.c ****   return  bitstatus;
 2314              		.loc 1 1243 11
 2315 0058 FB7D     		ldrb	r3, [r7, #23]	@ zero_extendqisi2
1244:../Shared/Libraries/STM32F4xx_StdPeriph_Driver/src/stm32f4xx_i2c.c **** }
 2316              		.loc 1 1244 1
 2317 005a 1846     		mov	r0, r3
 2318 005c 1C37     		adds	r7, r7, #28
 2319              	.LCFI175:
 2320              		.cfi_def_cfa_offset 4
 2321 005e BD46     		mov	sp, r7
 2322              	.LCFI176:
 2323              		.cfi_def_cfa_register 13
 2324              		@ sp needed
 2325 0060 5DF8047B 		ldr	r7, [sp], #4
 2326              	.LCFI177:
 2327              		.cfi_restore 7
 2328              		.cfi_def_cfa_offset 0
 2329 0064 7047     		bx	lr
 2330              		.cfi_endproc
 2331              	.LFE139:
 2333              		.section	.text.I2C_ClearFlag,"ax",%progbits
 2334              		.align	1
 2335              		.global	I2C_ClearFlag
 2336              		.syntax unified
 2337              		.thumb
 2338              		.thumb_func
 2340              	I2C_ClearFlag:
 2341              	.LFB140:
1245:../Shared/Libraries/STM32F4xx_StdPeriph_Driver/src/stm32f4xx_i2c.c **** 
1246:../Shared/Libraries/STM32F4xx_StdPeriph_Driver/src/stm32f4xx_i2c.c **** /**
1247:../Shared/Libraries/STM32F4xx_StdPeriph_Driver/src/stm32f4xx_i2c.c ****   * @brief  Clears the I2Cx's pending flags.
1248:../Shared/Libraries/STM32F4xx_StdPeriph_Driver/src/stm32f4xx_i2c.c ****   * @param  I2Cx: where x can be 1, 2 or 3 to select the I2C peripheral.
1249:../Shared/Libraries/STM32F4xx_StdPeriph_Driver/src/stm32f4xx_i2c.c ****   * @param  I2C_FLAG: specifies the flag to clear. 
1250:../Shared/Libraries/STM32F4xx_StdPeriph_Driver/src/stm32f4xx_i2c.c ****   *          This parameter can be any combination of the following values:
1251:../Shared/Libraries/STM32F4xx_StdPeriph_Driver/src/stm32f4xx_i2c.c ****   *            @arg I2C_FLAG_SMBALERT: SMBus Alert flag
1252:../Shared/Libraries/STM32F4xx_StdPeriph_Driver/src/stm32f4xx_i2c.c ****   *            @arg I2C_FLAG_TIMEOUT: Timeout or Tlow error flag
1253:../Shared/Libraries/STM32F4xx_StdPeriph_Driver/src/stm32f4xx_i2c.c ****   *            @arg I2C_FLAG_PECERR: PEC error in reception flag
1254:../Shared/Libraries/STM32F4xx_StdPeriph_Driver/src/stm32f4xx_i2c.c ****   *            @arg I2C_FLAG_OVR: Overrun/Underrun flag (Slave mode)
1255:../Shared/Libraries/STM32F4xx_StdPeriph_Driver/src/stm32f4xx_i2c.c ****   *            @arg I2C_FLAG_AF: Acknowledge failure flag
1256:../Shared/Libraries/STM32F4xx_StdPeriph_Driver/src/stm32f4xx_i2c.c ****   *            @arg I2C_FLAG_ARLO: Arbitration lost flag (Master mode)
1257:../Shared/Libraries/STM32F4xx_StdPeriph_Driver/src/stm32f4xx_i2c.c ****   *            @arg I2C_FLAG_BERR: Bus error flag
1258:../Shared/Libraries/STM32F4xx_StdPeriph_Driver/src/stm32f4xx_i2c.c ****   *   
1259:../Shared/Libraries/STM32F4xx_StdPeriph_Driver/src/stm32f4xx_i2c.c ****   * @note   STOPF (STOP detection) is cleared by software sequence: a read operation 
1260:../Shared/Libraries/STM32F4xx_StdPeriph_Driver/src/stm32f4xx_i2c.c ****   *          to I2C_SR1 register (I2C_GetFlagStatus()) followed by a write operation 
1261:../Shared/Libraries/STM32F4xx_StdPeriph_Driver/src/stm32f4xx_i2c.c ****   *          to I2C_CR1 register (I2C_Cmd() to re-enable the I2C peripheral).
1262:../Shared/Libraries/STM32F4xx_StdPeriph_Driver/src/stm32f4xx_i2c.c ****   * @note   ADD10 (10-bit header sent) is cleared by software sequence: a read 
1263:../Shared/Libraries/STM32F4xx_StdPeriph_Driver/src/stm32f4xx_i2c.c ****   *          operation to I2C_SR1 (I2C_GetFlagStatus()) followed by writing the 
1264:../Shared/Libraries/STM32F4xx_StdPeriph_Driver/src/stm32f4xx_i2c.c ****   *          second byte of the address in DR register.
1265:../Shared/Libraries/STM32F4xx_StdPeriph_Driver/src/stm32f4xx_i2c.c ****   * @note   BTF (Byte Transfer Finished) is cleared by software sequence: a read 
1266:../Shared/Libraries/STM32F4xx_StdPeriph_Driver/src/stm32f4xx_i2c.c ****   *          operation to I2C_SR1 register (I2C_GetFlagStatus()) followed by a 
1267:../Shared/Libraries/STM32F4xx_StdPeriph_Driver/src/stm32f4xx_i2c.c ****   *          read/write to I2C_DR register (I2C_SendData()).
1268:../Shared/Libraries/STM32F4xx_StdPeriph_Driver/src/stm32f4xx_i2c.c ****   * @note   ADDR (Address sent) is cleared by software sequence: a read operation to 
ARM GAS  /tmp/ccYPoyit.s 			page 64


1269:../Shared/Libraries/STM32F4xx_StdPeriph_Driver/src/stm32f4xx_i2c.c ****   *          I2C_SR1 register (I2C_GetFlagStatus()) followed by a read operation to 
1270:../Shared/Libraries/STM32F4xx_StdPeriph_Driver/src/stm32f4xx_i2c.c ****   *          I2C_SR2 register ((void)(I2Cx->SR2)).
1271:../Shared/Libraries/STM32F4xx_StdPeriph_Driver/src/stm32f4xx_i2c.c ****   * @note   SB (Start Bit) is cleared software sequence: a read operation to I2C_SR1
1272:../Shared/Libraries/STM32F4xx_StdPeriph_Driver/src/stm32f4xx_i2c.c ****   *          register (I2C_GetFlagStatus()) followed by a write operation to I2C_DR
1273:../Shared/Libraries/STM32F4xx_StdPeriph_Driver/src/stm32f4xx_i2c.c ****   *          register (I2C_SendData()).
1274:../Shared/Libraries/STM32F4xx_StdPeriph_Driver/src/stm32f4xx_i2c.c ****   *  
1275:../Shared/Libraries/STM32F4xx_StdPeriph_Driver/src/stm32f4xx_i2c.c ****   * @retval None
1276:../Shared/Libraries/STM32F4xx_StdPeriph_Driver/src/stm32f4xx_i2c.c ****   */
1277:../Shared/Libraries/STM32F4xx_StdPeriph_Driver/src/stm32f4xx_i2c.c **** void I2C_ClearFlag(I2C_TypeDef* I2Cx, uint32_t I2C_FLAG)
1278:../Shared/Libraries/STM32F4xx_StdPeriph_Driver/src/stm32f4xx_i2c.c **** {
 2342              		.loc 1 1278 1
 2343              		.cfi_startproc
 2344              		@ args = 0, pretend = 0, frame = 16
 2345              		@ frame_needed = 1, uses_anonymous_args = 0
 2346              		@ link register save eliminated.
 2347 0000 80B4     		push	{r7}
 2348              	.LCFI178:
 2349              		.cfi_def_cfa_offset 4
 2350              		.cfi_offset 7, -4
 2351 0002 85B0     		sub	sp, sp, #20
 2352              	.LCFI179:
 2353              		.cfi_def_cfa_offset 24
 2354 0004 00AF     		add	r7, sp, #0
 2355              	.LCFI180:
 2356              		.cfi_def_cfa_register 7
 2357 0006 7860     		str	r0, [r7, #4]
 2358 0008 3960     		str	r1, [r7]
1279:../Shared/Libraries/STM32F4xx_StdPeriph_Driver/src/stm32f4xx_i2c.c ****   uint32_t flagpos = 0;
 2359              		.loc 1 1279 12
 2360 000a 0023     		movs	r3, #0
 2361 000c FB60     		str	r3, [r7, #12]
1280:../Shared/Libraries/STM32F4xx_StdPeriph_Driver/src/stm32f4xx_i2c.c ****   /* Check the parameters */
1281:../Shared/Libraries/STM32F4xx_StdPeriph_Driver/src/stm32f4xx_i2c.c ****   assert_param(IS_I2C_ALL_PERIPH(I2Cx));
1282:../Shared/Libraries/STM32F4xx_StdPeriph_Driver/src/stm32f4xx_i2c.c ****   assert_param(IS_I2C_CLEAR_FLAG(I2C_FLAG));
1283:../Shared/Libraries/STM32F4xx_StdPeriph_Driver/src/stm32f4xx_i2c.c ****   /* Get the I2C flag position */
1284:../Shared/Libraries/STM32F4xx_StdPeriph_Driver/src/stm32f4xx_i2c.c ****   flagpos = I2C_FLAG & FLAG_MASK;
 2362              		.loc 1 1284 11
 2363 000e 3B68     		ldr	r3, [r7]
 2364 0010 23F07F43 		bic	r3, r3, #-16777216
 2365 0014 FB60     		str	r3, [r7, #12]
1285:../Shared/Libraries/STM32F4xx_StdPeriph_Driver/src/stm32f4xx_i2c.c ****   /* Clear the selected I2C flag */
1286:../Shared/Libraries/STM32F4xx_StdPeriph_Driver/src/stm32f4xx_i2c.c ****   I2Cx->SR1 = (uint16_t)~flagpos;
 2366              		.loc 1 1286 15
 2367 0016 FB68     		ldr	r3, [r7, #12]
 2368 0018 9BB2     		uxth	r3, r3
 2369 001a DB43     		mvns	r3, r3
 2370 001c 9AB2     		uxth	r2, r3
 2371              		.loc 1 1286 13
 2372 001e 7B68     		ldr	r3, [r7, #4]
 2373 0020 9A82     		strh	r2, [r3, #20]	@ movhi
1287:../Shared/Libraries/STM32F4xx_StdPeriph_Driver/src/stm32f4xx_i2c.c **** }
 2374              		.loc 1 1287 1
 2375 0022 00BF     		nop
 2376 0024 1437     		adds	r7, r7, #20
 2377              	.LCFI181:
 2378              		.cfi_def_cfa_offset 4
 2379 0026 BD46     		mov	sp, r7
ARM GAS  /tmp/ccYPoyit.s 			page 65


 2380              	.LCFI182:
 2381              		.cfi_def_cfa_register 13
 2382              		@ sp needed
 2383 0028 5DF8047B 		ldr	r7, [sp], #4
 2384              	.LCFI183:
 2385              		.cfi_restore 7
 2386              		.cfi_def_cfa_offset 0
 2387 002c 7047     		bx	lr
 2388              		.cfi_endproc
 2389              	.LFE140:
 2391              		.section	.text.I2C_GetITStatus,"ax",%progbits
 2392              		.align	1
 2393              		.global	I2C_GetITStatus
 2394              		.syntax unified
 2395              		.thumb
 2396              		.thumb_func
 2398              	I2C_GetITStatus:
 2399              	.LFB141:
1288:../Shared/Libraries/STM32F4xx_StdPeriph_Driver/src/stm32f4xx_i2c.c **** 
1289:../Shared/Libraries/STM32F4xx_StdPeriph_Driver/src/stm32f4xx_i2c.c **** /**
1290:../Shared/Libraries/STM32F4xx_StdPeriph_Driver/src/stm32f4xx_i2c.c ****   * @brief  Checks whether the specified I2C interrupt has occurred or not.
1291:../Shared/Libraries/STM32F4xx_StdPeriph_Driver/src/stm32f4xx_i2c.c ****   * @param  I2Cx: where x can be 1, 2 or 3 to select the I2C peripheral.
1292:../Shared/Libraries/STM32F4xx_StdPeriph_Driver/src/stm32f4xx_i2c.c ****   * @param  I2C_IT: specifies the interrupt source to check. 
1293:../Shared/Libraries/STM32F4xx_StdPeriph_Driver/src/stm32f4xx_i2c.c ****   *          This parameter can be one of the following values:
1294:../Shared/Libraries/STM32F4xx_StdPeriph_Driver/src/stm32f4xx_i2c.c ****   *            @arg I2C_IT_SMBALERT: SMBus Alert flag
1295:../Shared/Libraries/STM32F4xx_StdPeriph_Driver/src/stm32f4xx_i2c.c ****   *            @arg I2C_IT_TIMEOUT: Timeout or Tlow error flag
1296:../Shared/Libraries/STM32F4xx_StdPeriph_Driver/src/stm32f4xx_i2c.c ****   *            @arg I2C_IT_PECERR: PEC error in reception flag
1297:../Shared/Libraries/STM32F4xx_StdPeriph_Driver/src/stm32f4xx_i2c.c ****   *            @arg I2C_IT_OVR: Overrun/Underrun flag (Slave mode)
1298:../Shared/Libraries/STM32F4xx_StdPeriph_Driver/src/stm32f4xx_i2c.c ****   *            @arg I2C_IT_AF: Acknowledge failure flag
1299:../Shared/Libraries/STM32F4xx_StdPeriph_Driver/src/stm32f4xx_i2c.c ****   *            @arg I2C_IT_ARLO: Arbitration lost flag (Master mode)
1300:../Shared/Libraries/STM32F4xx_StdPeriph_Driver/src/stm32f4xx_i2c.c ****   *            @arg I2C_IT_BERR: Bus error flag
1301:../Shared/Libraries/STM32F4xx_StdPeriph_Driver/src/stm32f4xx_i2c.c ****   *            @arg I2C_IT_TXE: Data register empty flag (Transmitter)
1302:../Shared/Libraries/STM32F4xx_StdPeriph_Driver/src/stm32f4xx_i2c.c ****   *            @arg I2C_IT_RXNE: Data register not empty (Receiver) flag
1303:../Shared/Libraries/STM32F4xx_StdPeriph_Driver/src/stm32f4xx_i2c.c ****   *            @arg I2C_IT_STOPF: Stop detection flag (Slave mode)
1304:../Shared/Libraries/STM32F4xx_StdPeriph_Driver/src/stm32f4xx_i2c.c ****   *            @arg I2C_IT_ADD10: 10-bit header sent flag (Master mode)
1305:../Shared/Libraries/STM32F4xx_StdPeriph_Driver/src/stm32f4xx_i2c.c ****   *            @arg I2C_IT_BTF: Byte transfer finished flag
1306:../Shared/Libraries/STM32F4xx_StdPeriph_Driver/src/stm32f4xx_i2c.c ****   *            @arg I2C_IT_ADDR: Address sent flag (Master mode) "ADSL"
1307:../Shared/Libraries/STM32F4xx_StdPeriph_Driver/src/stm32f4xx_i2c.c ****   *                              Address matched flag (Slave mode)"ENDAD"
1308:../Shared/Libraries/STM32F4xx_StdPeriph_Driver/src/stm32f4xx_i2c.c ****   *            @arg I2C_IT_SB: Start bit flag (Master mode)
1309:../Shared/Libraries/STM32F4xx_StdPeriph_Driver/src/stm32f4xx_i2c.c ****   * @retval The new state of I2C_IT (SET or RESET).
1310:../Shared/Libraries/STM32F4xx_StdPeriph_Driver/src/stm32f4xx_i2c.c ****   */
1311:../Shared/Libraries/STM32F4xx_StdPeriph_Driver/src/stm32f4xx_i2c.c **** ITStatus I2C_GetITStatus(I2C_TypeDef* I2Cx, uint32_t I2C_IT)
1312:../Shared/Libraries/STM32F4xx_StdPeriph_Driver/src/stm32f4xx_i2c.c **** {
 2400              		.loc 1 1312 1
 2401              		.cfi_startproc
 2402              		@ args = 0, pretend = 0, frame = 16
 2403              		@ frame_needed = 1, uses_anonymous_args = 0
 2404              		@ link register save eliminated.
 2405 0000 80B4     		push	{r7}
 2406              	.LCFI184:
 2407              		.cfi_def_cfa_offset 4
 2408              		.cfi_offset 7, -4
 2409 0002 85B0     		sub	sp, sp, #20
 2410              	.LCFI185:
 2411              		.cfi_def_cfa_offset 24
 2412 0004 00AF     		add	r7, sp, #0
 2413              	.LCFI186:
ARM GAS  /tmp/ccYPoyit.s 			page 66


 2414              		.cfi_def_cfa_register 7
 2415 0006 7860     		str	r0, [r7, #4]
 2416 0008 3960     		str	r1, [r7]
1313:../Shared/Libraries/STM32F4xx_StdPeriph_Driver/src/stm32f4xx_i2c.c ****   ITStatus bitstatus = RESET;
 2417              		.loc 1 1313 12
 2418 000a 0023     		movs	r3, #0
 2419 000c FB73     		strb	r3, [r7, #15]
1314:../Shared/Libraries/STM32F4xx_StdPeriph_Driver/src/stm32f4xx_i2c.c ****   uint32_t enablestatus = 0;
 2420              		.loc 1 1314 12
 2421 000e 0023     		movs	r3, #0
 2422 0010 BB60     		str	r3, [r7, #8]
1315:../Shared/Libraries/STM32F4xx_StdPeriph_Driver/src/stm32f4xx_i2c.c **** 
1316:../Shared/Libraries/STM32F4xx_StdPeriph_Driver/src/stm32f4xx_i2c.c ****   /* Check the parameters */
1317:../Shared/Libraries/STM32F4xx_StdPeriph_Driver/src/stm32f4xx_i2c.c ****   assert_param(IS_I2C_ALL_PERIPH(I2Cx));
1318:../Shared/Libraries/STM32F4xx_StdPeriph_Driver/src/stm32f4xx_i2c.c ****   assert_param(IS_I2C_GET_IT(I2C_IT));
1319:../Shared/Libraries/STM32F4xx_StdPeriph_Driver/src/stm32f4xx_i2c.c **** 
1320:../Shared/Libraries/STM32F4xx_StdPeriph_Driver/src/stm32f4xx_i2c.c ****   /* Check if the interrupt source is enabled or not */
1321:../Shared/Libraries/STM32F4xx_StdPeriph_Driver/src/stm32f4xx_i2c.c ****   enablestatus = (uint32_t)(((I2C_IT & ITEN_MASK) >> 16) & (I2Cx->CR2)) ;
 2423              		.loc 1 1321 51
 2424 0012 3B68     		ldr	r3, [r7]
 2425 0014 1B0C     		lsrs	r3, r3, #16
 2426              		.loc 1 1321 65
 2427 0016 7A68     		ldr	r2, [r7, #4]
 2428 0018 9288     		ldrh	r2, [r2, #4]	@ movhi
 2429 001a 92B2     		uxth	r2, r2
 2430              		.loc 1 1321 18
 2431 001c 1340     		ands	r3, r3, r2
 2432              		.loc 1 1321 16
 2433 001e 03F4E063 		and	r3, r3, #1792
 2434 0022 BB60     		str	r3, [r7, #8]
1322:../Shared/Libraries/STM32F4xx_StdPeriph_Driver/src/stm32f4xx_i2c.c ****   
1323:../Shared/Libraries/STM32F4xx_StdPeriph_Driver/src/stm32f4xx_i2c.c ****   /* Get bit[23:0] of the flag */
1324:../Shared/Libraries/STM32F4xx_StdPeriph_Driver/src/stm32f4xx_i2c.c ****   I2C_IT &= FLAG_MASK;
 2435              		.loc 1 1324 10
 2436 0024 3B68     		ldr	r3, [r7]
 2437 0026 23F07F43 		bic	r3, r3, #-16777216
 2438 002a 3B60     		str	r3, [r7]
1325:../Shared/Libraries/STM32F4xx_StdPeriph_Driver/src/stm32f4xx_i2c.c **** 
1326:../Shared/Libraries/STM32F4xx_StdPeriph_Driver/src/stm32f4xx_i2c.c ****   /* Check the status of the specified I2C flag */
1327:../Shared/Libraries/STM32F4xx_StdPeriph_Driver/src/stm32f4xx_i2c.c ****   if (((I2Cx->SR1 & I2C_IT) != (uint32_t)RESET) && enablestatus)
 2439              		.loc 1 1327 13
 2440 002c 7B68     		ldr	r3, [r7, #4]
 2441 002e 9B8A     		ldrh	r3, [r3, #20]	@ movhi
 2442 0030 9BB2     		uxth	r3, r3
 2443 0032 1A46     		mov	r2, r3
 2444              		.loc 1 1327 19
 2445 0034 3B68     		ldr	r3, [r7]
 2446 0036 1340     		ands	r3, r3, r2
 2447              		.loc 1 1327 6
 2448 0038 002B     		cmp	r3, #0
 2449 003a 05D0     		beq	.L115
 2450              		.loc 1 1327 49 discriminator 1
 2451 003c BB68     		ldr	r3, [r7, #8]
 2452 003e 002B     		cmp	r3, #0
 2453 0040 02D0     		beq	.L115
1328:../Shared/Libraries/STM32F4xx_StdPeriph_Driver/src/stm32f4xx_i2c.c ****   {
1329:../Shared/Libraries/STM32F4xx_StdPeriph_Driver/src/stm32f4xx_i2c.c ****     /* I2C_IT is set */
ARM GAS  /tmp/ccYPoyit.s 			page 67


1330:../Shared/Libraries/STM32F4xx_StdPeriph_Driver/src/stm32f4xx_i2c.c ****     bitstatus = SET;
 2454              		.loc 1 1330 15
 2455 0042 0123     		movs	r3, #1
 2456 0044 FB73     		strb	r3, [r7, #15]
 2457 0046 01E0     		b	.L116
 2458              	.L115:
1331:../Shared/Libraries/STM32F4xx_StdPeriph_Driver/src/stm32f4xx_i2c.c ****   }
1332:../Shared/Libraries/STM32F4xx_StdPeriph_Driver/src/stm32f4xx_i2c.c ****   else
1333:../Shared/Libraries/STM32F4xx_StdPeriph_Driver/src/stm32f4xx_i2c.c ****   {
1334:../Shared/Libraries/STM32F4xx_StdPeriph_Driver/src/stm32f4xx_i2c.c ****     /* I2C_IT is reset */
1335:../Shared/Libraries/STM32F4xx_StdPeriph_Driver/src/stm32f4xx_i2c.c ****     bitstatus = RESET;
 2459              		.loc 1 1335 15
 2460 0048 0023     		movs	r3, #0
 2461 004a FB73     		strb	r3, [r7, #15]
 2462              	.L116:
1336:../Shared/Libraries/STM32F4xx_StdPeriph_Driver/src/stm32f4xx_i2c.c ****   }
1337:../Shared/Libraries/STM32F4xx_StdPeriph_Driver/src/stm32f4xx_i2c.c ****   /* Return the I2C_IT status */
1338:../Shared/Libraries/STM32F4xx_StdPeriph_Driver/src/stm32f4xx_i2c.c ****   return  bitstatus;
 2463              		.loc 1 1338 11
 2464 004c FB7B     		ldrb	r3, [r7, #15]	@ zero_extendqisi2
1339:../Shared/Libraries/STM32F4xx_StdPeriph_Driver/src/stm32f4xx_i2c.c **** }
 2465              		.loc 1 1339 1
 2466 004e 1846     		mov	r0, r3
 2467 0050 1437     		adds	r7, r7, #20
 2468              	.LCFI187:
 2469              		.cfi_def_cfa_offset 4
 2470 0052 BD46     		mov	sp, r7
 2471              	.LCFI188:
 2472              		.cfi_def_cfa_register 13
 2473              		@ sp needed
 2474 0054 5DF8047B 		ldr	r7, [sp], #4
 2475              	.LCFI189:
 2476              		.cfi_restore 7
 2477              		.cfi_def_cfa_offset 0
 2478 0058 7047     		bx	lr
 2479              		.cfi_endproc
 2480              	.LFE141:
 2482              		.section	.text.I2C_ClearITPendingBit,"ax",%progbits
 2483              		.align	1
 2484              		.global	I2C_ClearITPendingBit
 2485              		.syntax unified
 2486              		.thumb
 2487              		.thumb_func
 2489              	I2C_ClearITPendingBit:
 2490              	.LFB142:
1340:../Shared/Libraries/STM32F4xx_StdPeriph_Driver/src/stm32f4xx_i2c.c **** 
1341:../Shared/Libraries/STM32F4xx_StdPeriph_Driver/src/stm32f4xx_i2c.c **** /**
1342:../Shared/Libraries/STM32F4xx_StdPeriph_Driver/src/stm32f4xx_i2c.c ****   * @brief  Clears the I2Cx's interrupt pending bits.
1343:../Shared/Libraries/STM32F4xx_StdPeriph_Driver/src/stm32f4xx_i2c.c ****   * @param  I2Cx: where x can be 1, 2 or 3 to select the I2C peripheral.
1344:../Shared/Libraries/STM32F4xx_StdPeriph_Driver/src/stm32f4xx_i2c.c ****   * @param  I2C_IT: specifies the interrupt pending bit to clear. 
1345:../Shared/Libraries/STM32F4xx_StdPeriph_Driver/src/stm32f4xx_i2c.c ****   *          This parameter can be any combination of the following values:
1346:../Shared/Libraries/STM32F4xx_StdPeriph_Driver/src/stm32f4xx_i2c.c ****   *            @arg I2C_IT_SMBALERT: SMBus Alert interrupt
1347:../Shared/Libraries/STM32F4xx_StdPeriph_Driver/src/stm32f4xx_i2c.c ****   *            @arg I2C_IT_TIMEOUT: Timeout or Tlow error interrupt
1348:../Shared/Libraries/STM32F4xx_StdPeriph_Driver/src/stm32f4xx_i2c.c ****   *            @arg I2C_IT_PECERR: PEC error in reception  interrupt
