ARM GAS  /tmp/ccBoElqq.s 			page 1


   1              		.cpu cortex-m4
   2              		.arch armv7e-m
   3              		.fpu fpv4-sp-d16
   4              		.eabi_attribute 27, 1
   5              		.eabi_attribute 28, 1
   6              		.eabi_attribute 20, 1
   7              		.eabi_attribute 21, 1
   8              		.eabi_attribute 23, 3
   9              		.eabi_attribute 24, 1
  10              		.eabi_attribute 25, 1
  11              		.eabi_attribute 26, 1
  12              		.eabi_attribute 30, 6
  13              		.eabi_attribute 34, 1
  14              		.eabi_attribute 18, 4
  15              		.file	"stm32f4xx_flash.c"
  16              		.text
  17              	.Ltext0:
  18              		.cfi_sections	.debug_frame
  19              		.file 1 "../Shared/Libraries/STM32F4xx_StdPeriph_Driver/src/stm32f4xx_flash.c"
  20              		.section	.text.FLASH_SetLatency,"ax",%progbits
  21              		.align	1
  22              		.global	FLASH_SetLatency
  23              		.syntax unified
  24              		.thumb
  25              		.thumb_func
  27              	FLASH_SetLatency:
  28              	.LFB110:
   1:../Shared/Libraries/STM32F4xx_StdPeriph_Driver/src/stm32f4xx_flash.c **** /**
   2:../Shared/Libraries/STM32F4xx_StdPeriph_Driver/src/stm32f4xx_flash.c ****   ******************************************************************************
   3:../Shared/Libraries/STM32F4xx_StdPeriph_Driver/src/stm32f4xx_flash.c ****   * @file    stm32f4xx_flash.c
   4:../Shared/Libraries/STM32F4xx_StdPeriph_Driver/src/stm32f4xx_flash.c ****   * @author  MCD Application Team
   5:../Shared/Libraries/STM32F4xx_StdPeriph_Driver/src/stm32f4xx_flash.c ****   * @version V1.0.2
   6:../Shared/Libraries/STM32F4xx_StdPeriph_Driver/src/stm32f4xx_flash.c ****   * @date    05-March-2012
   7:../Shared/Libraries/STM32F4xx_StdPeriph_Driver/src/stm32f4xx_flash.c ****   * @brief   This file provides firmware functions to manage the following 
   8:../Shared/Libraries/STM32F4xx_StdPeriph_Driver/src/stm32f4xx_flash.c ****   *          functionalities of the FLASH peripheral:
   9:../Shared/Libraries/STM32F4xx_StdPeriph_Driver/src/stm32f4xx_flash.c ****   *            - FLASH Interface configuration
  10:../Shared/Libraries/STM32F4xx_StdPeriph_Driver/src/stm32f4xx_flash.c ****   *            - FLASH Memory Programming
  11:../Shared/Libraries/STM32F4xx_StdPeriph_Driver/src/stm32f4xx_flash.c ****   *            - Option Bytes Programming
  12:../Shared/Libraries/STM32F4xx_StdPeriph_Driver/src/stm32f4xx_flash.c ****   *            - Interrupts and flags management
  13:../Shared/Libraries/STM32F4xx_StdPeriph_Driver/src/stm32f4xx_flash.c ****   *  
  14:../Shared/Libraries/STM32F4xx_StdPeriph_Driver/src/stm32f4xx_flash.c ****   *  @verbatim
  15:../Shared/Libraries/STM32F4xx_StdPeriph_Driver/src/stm32f4xx_flash.c ****   *  
  16:../Shared/Libraries/STM32F4xx_StdPeriph_Driver/src/stm32f4xx_flash.c ****   *          ===================================================================
  17:../Shared/Libraries/STM32F4xx_StdPeriph_Driver/src/stm32f4xx_flash.c ****   *                                 How to use this driver
  18:../Shared/Libraries/STM32F4xx_StdPeriph_Driver/src/stm32f4xx_flash.c ****   *          ===================================================================
  19:../Shared/Libraries/STM32F4xx_StdPeriph_Driver/src/stm32f4xx_flash.c ****   *                           
  20:../Shared/Libraries/STM32F4xx_StdPeriph_Driver/src/stm32f4xx_flash.c ****   *          This driver provides functions to configure and program the FLASH 
  21:../Shared/Libraries/STM32F4xx_StdPeriph_Driver/src/stm32f4xx_flash.c ****   *          memory of all STM32F4xx devices.
  22:../Shared/Libraries/STM32F4xx_StdPeriph_Driver/src/stm32f4xx_flash.c ****   *          These functions are split in 4 groups:
  23:../Shared/Libraries/STM32F4xx_StdPeriph_Driver/src/stm32f4xx_flash.c ****   * 
  24:../Shared/Libraries/STM32F4xx_StdPeriph_Driver/src/stm32f4xx_flash.c ****   *           1. FLASH Interface configuration functions: this group includes the
  25:../Shared/Libraries/STM32F4xx_StdPeriph_Driver/src/stm32f4xx_flash.c ****   *              management of the following features:
  26:../Shared/Libraries/STM32F4xx_StdPeriph_Driver/src/stm32f4xx_flash.c ****   *                    - Set the latency
  27:../Shared/Libraries/STM32F4xx_StdPeriph_Driver/src/stm32f4xx_flash.c ****   *                    - Enable/Disable the prefetch buffer
  28:../Shared/Libraries/STM32F4xx_StdPeriph_Driver/src/stm32f4xx_flash.c ****   *                    - Enable/Disable the Instruction cache and the Data cache
  29:../Shared/Libraries/STM32F4xx_StdPeriph_Driver/src/stm32f4xx_flash.c ****   *                    - Reset the Instruction cache and the Data cache
  30:../Shared/Libraries/STM32F4xx_StdPeriph_Driver/src/stm32f4xx_flash.c ****   *  
ARM GAS  /tmp/ccBoElqq.s 			page 2


  31:../Shared/Libraries/STM32F4xx_StdPeriph_Driver/src/stm32f4xx_flash.c ****   *           2. FLASH Memory Programming functions: this group includes all needed
  32:../Shared/Libraries/STM32F4xx_StdPeriph_Driver/src/stm32f4xx_flash.c ****   *              functions to erase and program the main memory:
  33:../Shared/Libraries/STM32F4xx_StdPeriph_Driver/src/stm32f4xx_flash.c ****   *                    - Lock and Unlock the FLASH interface
  34:../Shared/Libraries/STM32F4xx_StdPeriph_Driver/src/stm32f4xx_flash.c ****   *                    - Erase function: Erase sector, erase all sectors
  35:../Shared/Libraries/STM32F4xx_StdPeriph_Driver/src/stm32f4xx_flash.c ****   *                    - Program functions: byte, half word, word and double word
  36:../Shared/Libraries/STM32F4xx_StdPeriph_Driver/src/stm32f4xx_flash.c ****   *  
  37:../Shared/Libraries/STM32F4xx_StdPeriph_Driver/src/stm32f4xx_flash.c ****   *           3. Option Bytes Programming functions: this group includes all needed
  38:../Shared/Libraries/STM32F4xx_StdPeriph_Driver/src/stm32f4xx_flash.c ****   *              functions to manage the Option Bytes:
  39:../Shared/Libraries/STM32F4xx_StdPeriph_Driver/src/stm32f4xx_flash.c ****   *                    - Set/Reset the write protection
  40:../Shared/Libraries/STM32F4xx_StdPeriph_Driver/src/stm32f4xx_flash.c ****   *                    - Set the Read protection Level
  41:../Shared/Libraries/STM32F4xx_StdPeriph_Driver/src/stm32f4xx_flash.c ****   *                    - Set the BOR level
  42:../Shared/Libraries/STM32F4xx_StdPeriph_Driver/src/stm32f4xx_flash.c ****   *                    - Program the user Option Bytes
  43:../Shared/Libraries/STM32F4xx_StdPeriph_Driver/src/stm32f4xx_flash.c ****   *                    - Launch the Option Bytes loader
  44:../Shared/Libraries/STM32F4xx_StdPeriph_Driver/src/stm32f4xx_flash.c ****   *  
  45:../Shared/Libraries/STM32F4xx_StdPeriph_Driver/src/stm32f4xx_flash.c ****   *           4. Interrupts and flags management functions: this group 
  46:../Shared/Libraries/STM32F4xx_StdPeriph_Driver/src/stm32f4xx_flash.c ****   *              includes all needed functions to:
  47:../Shared/Libraries/STM32F4xx_StdPeriph_Driver/src/stm32f4xx_flash.c ****   *                    - Enable/Disable the FLASH interrupt sources
  48:../Shared/Libraries/STM32F4xx_StdPeriph_Driver/src/stm32f4xx_flash.c ****   *                    - Get flags status
  49:../Shared/Libraries/STM32F4xx_StdPeriph_Driver/src/stm32f4xx_flash.c ****   *                    - Clear flags
  50:../Shared/Libraries/STM32F4xx_StdPeriph_Driver/src/stm32f4xx_flash.c ****   *                    - Get FLASH operation status
  51:../Shared/Libraries/STM32F4xx_StdPeriph_Driver/src/stm32f4xx_flash.c ****   *                    - Wait for last FLASH operation
  52:../Shared/Libraries/STM32F4xx_StdPeriph_Driver/src/stm32f4xx_flash.c ****   * 
  53:../Shared/Libraries/STM32F4xx_StdPeriph_Driver/src/stm32f4xx_flash.c ****   *  @endverbatim
  54:../Shared/Libraries/STM32F4xx_StdPeriph_Driver/src/stm32f4xx_flash.c ****   *                      
  55:../Shared/Libraries/STM32F4xx_StdPeriph_Driver/src/stm32f4xx_flash.c ****   ******************************************************************************
  56:../Shared/Libraries/STM32F4xx_StdPeriph_Driver/src/stm32f4xx_flash.c ****   * @attention
  57:../Shared/Libraries/STM32F4xx_StdPeriph_Driver/src/stm32f4xx_flash.c ****   *
  58:../Shared/Libraries/STM32F4xx_StdPeriph_Driver/src/stm32f4xx_flash.c ****   * <h2><center>&copy; COPYRIGHT 2012 STMicroelectronics</center></h2>
  59:../Shared/Libraries/STM32F4xx_StdPeriph_Driver/src/stm32f4xx_flash.c ****   *
  60:../Shared/Libraries/STM32F4xx_StdPeriph_Driver/src/stm32f4xx_flash.c ****   * Licensed under MCD-ST Liberty SW License Agreement V2, (the "License");
  61:../Shared/Libraries/STM32F4xx_StdPeriph_Driver/src/stm32f4xx_flash.c ****   * You may not use this file except in compliance with the License.
  62:../Shared/Libraries/STM32F4xx_StdPeriph_Driver/src/stm32f4xx_flash.c ****   * You may obtain a copy of the License at:
  63:../Shared/Libraries/STM32F4xx_StdPeriph_Driver/src/stm32f4xx_flash.c ****   *
  64:../Shared/Libraries/STM32F4xx_StdPeriph_Driver/src/stm32f4xx_flash.c ****   *        http://www.st.com/software_license_agreement_liberty_v2
  65:../Shared/Libraries/STM32F4xx_StdPeriph_Driver/src/stm32f4xx_flash.c ****   *
  66:../Shared/Libraries/STM32F4xx_StdPeriph_Driver/src/stm32f4xx_flash.c ****   * Unless required by applicable law or agreed to in writing, software 
  67:../Shared/Libraries/STM32F4xx_StdPeriph_Driver/src/stm32f4xx_flash.c ****   * distributed under the License is distributed on an "AS IS" BASIS, 
  68:../Shared/Libraries/STM32F4xx_StdPeriph_Driver/src/stm32f4xx_flash.c ****   * WITHOUT WARRANTIES OR CONDITIONS OF ANY KIND, either express or implied.
  69:../Shared/Libraries/STM32F4xx_StdPeriph_Driver/src/stm32f4xx_flash.c ****   * See the License for the specific language governing permissions and
  70:../Shared/Libraries/STM32F4xx_StdPeriph_Driver/src/stm32f4xx_flash.c ****   * limitations under the License.
  71:../Shared/Libraries/STM32F4xx_StdPeriph_Driver/src/stm32f4xx_flash.c ****   *
  72:../Shared/Libraries/STM32F4xx_StdPeriph_Driver/src/stm32f4xx_flash.c ****   ******************************************************************************
  73:../Shared/Libraries/STM32F4xx_StdPeriph_Driver/src/stm32f4xx_flash.c ****   */
  74:../Shared/Libraries/STM32F4xx_StdPeriph_Driver/src/stm32f4xx_flash.c **** 
  75:../Shared/Libraries/STM32F4xx_StdPeriph_Driver/src/stm32f4xx_flash.c **** /* Includes ------------------------------------------------------------------*/
  76:../Shared/Libraries/STM32F4xx_StdPeriph_Driver/src/stm32f4xx_flash.c **** #include "stm32f4xx_flash.h"
  77:../Shared/Libraries/STM32F4xx_StdPeriph_Driver/src/stm32f4xx_flash.c **** 
  78:../Shared/Libraries/STM32F4xx_StdPeriph_Driver/src/stm32f4xx_flash.c **** /** @addtogroup STM32F4xx_StdPeriph_Driver
  79:../Shared/Libraries/STM32F4xx_StdPeriph_Driver/src/stm32f4xx_flash.c ****   * @{
  80:../Shared/Libraries/STM32F4xx_StdPeriph_Driver/src/stm32f4xx_flash.c ****   */
  81:../Shared/Libraries/STM32F4xx_StdPeriph_Driver/src/stm32f4xx_flash.c **** 
  82:../Shared/Libraries/STM32F4xx_StdPeriph_Driver/src/stm32f4xx_flash.c **** /** @defgroup FLASH 
  83:../Shared/Libraries/STM32F4xx_StdPeriph_Driver/src/stm32f4xx_flash.c ****   * @brief FLASH driver modules
  84:../Shared/Libraries/STM32F4xx_StdPeriph_Driver/src/stm32f4xx_flash.c ****   * @{
  85:../Shared/Libraries/STM32F4xx_StdPeriph_Driver/src/stm32f4xx_flash.c ****   */ 
  86:../Shared/Libraries/STM32F4xx_StdPeriph_Driver/src/stm32f4xx_flash.c **** 
  87:../Shared/Libraries/STM32F4xx_StdPeriph_Driver/src/stm32f4xx_flash.c **** /* Private typedef -----------------------------------------------------------*/
ARM GAS  /tmp/ccBoElqq.s 			page 3


  88:../Shared/Libraries/STM32F4xx_StdPeriph_Driver/src/stm32f4xx_flash.c **** /* Private define ------------------------------------------------------------*/ 
  89:../Shared/Libraries/STM32F4xx_StdPeriph_Driver/src/stm32f4xx_flash.c **** #define SECTOR_MASK               ((uint32_t)0xFFFFFF07)
  90:../Shared/Libraries/STM32F4xx_StdPeriph_Driver/src/stm32f4xx_flash.c **** 
  91:../Shared/Libraries/STM32F4xx_StdPeriph_Driver/src/stm32f4xx_flash.c **** /* Private macro -------------------------------------------------------------*/
  92:../Shared/Libraries/STM32F4xx_StdPeriph_Driver/src/stm32f4xx_flash.c **** /* Private variables ---------------------------------------------------------*/
  93:../Shared/Libraries/STM32F4xx_StdPeriph_Driver/src/stm32f4xx_flash.c **** /* Private function prototypes -----------------------------------------------*/
  94:../Shared/Libraries/STM32F4xx_StdPeriph_Driver/src/stm32f4xx_flash.c **** /* Private functions ---------------------------------------------------------*/
  95:../Shared/Libraries/STM32F4xx_StdPeriph_Driver/src/stm32f4xx_flash.c **** 
  96:../Shared/Libraries/STM32F4xx_StdPeriph_Driver/src/stm32f4xx_flash.c **** /** @defgroup FLASH_Private_Functions
  97:../Shared/Libraries/STM32F4xx_StdPeriph_Driver/src/stm32f4xx_flash.c ****   * @{
  98:../Shared/Libraries/STM32F4xx_StdPeriph_Driver/src/stm32f4xx_flash.c ****   */ 
  99:../Shared/Libraries/STM32F4xx_StdPeriph_Driver/src/stm32f4xx_flash.c **** 
 100:../Shared/Libraries/STM32F4xx_StdPeriph_Driver/src/stm32f4xx_flash.c **** /** @defgroup FLASH_Group1 FLASH Interface configuration functions
 101:../Shared/Libraries/STM32F4xx_StdPeriph_Driver/src/stm32f4xx_flash.c ****   *  @brief   FLASH Interface configuration functions 
 102:../Shared/Libraries/STM32F4xx_StdPeriph_Driver/src/stm32f4xx_flash.c ****  *
 103:../Shared/Libraries/STM32F4xx_StdPeriph_Driver/src/stm32f4xx_flash.c **** 
 104:../Shared/Libraries/STM32F4xx_StdPeriph_Driver/src/stm32f4xx_flash.c **** @verbatim   
 105:../Shared/Libraries/STM32F4xx_StdPeriph_Driver/src/stm32f4xx_flash.c ****  ===============================================================================
 106:../Shared/Libraries/STM32F4xx_StdPeriph_Driver/src/stm32f4xx_flash.c ****                        FLASH Interface configuration functions
 107:../Shared/Libraries/STM32F4xx_StdPeriph_Driver/src/stm32f4xx_flash.c ****  ===============================================================================
 108:../Shared/Libraries/STM32F4xx_StdPeriph_Driver/src/stm32f4xx_flash.c **** 
 109:../Shared/Libraries/STM32F4xx_StdPeriph_Driver/src/stm32f4xx_flash.c ****    This group includes the following functions:
 110:../Shared/Libraries/STM32F4xx_StdPeriph_Driver/src/stm32f4xx_flash.c ****     - void FLASH_SetLatency(uint32_t FLASH_Latency)
 111:../Shared/Libraries/STM32F4xx_StdPeriph_Driver/src/stm32f4xx_flash.c ****        To correctly read data from FLASH memory, the number of wait states (LATENCY) 
 112:../Shared/Libraries/STM32F4xx_StdPeriph_Driver/src/stm32f4xx_flash.c ****        must be correctly programmed according to the frequency of the CPU clock 
 113:../Shared/Libraries/STM32F4xx_StdPeriph_Driver/src/stm32f4xx_flash.c ****       (HCLK) and the supply voltage of the device.
 114:../Shared/Libraries/STM32F4xx_StdPeriph_Driver/src/stm32f4xx_flash.c ****  +-------------------------------------------------------------------------------------+     
 115:../Shared/Libraries/STM32F4xx_StdPeriph_Driver/src/stm32f4xx_flash.c ****  | Latency       |                HCLK clock frequency (MHz)                           |
 116:../Shared/Libraries/STM32F4xx_StdPeriph_Driver/src/stm32f4xx_flash.c ****  |               |---------------------------------------------------------------------|     
 117:../Shared/Libraries/STM32F4xx_StdPeriph_Driver/src/stm32f4xx_flash.c ****  |               | voltage range  | voltage range  | voltage range   | voltage range   |
 118:../Shared/Libraries/STM32F4xx_StdPeriph_Driver/src/stm32f4xx_flash.c ****  |               | 2.7 V - 3.6 V  | 2.4 V - 2.7 V  | 2.1 V - 2.4 V   | 1.8 V - 2.1 V   |
 119:../Shared/Libraries/STM32F4xx_StdPeriph_Driver/src/stm32f4xx_flash.c ****  |---------------|----------------|----------------|-----------------|-----------------|           
 120:../Shared/Libraries/STM32F4xx_StdPeriph_Driver/src/stm32f4xx_flash.c ****  |0WS(1CPU cycle)|0 < HCLK <= 30  |0 < HCLK <= 24  |0 < HCLK <= 18   |0 < HCLK <= 16   |
 121:../Shared/Libraries/STM32F4xx_StdPeriph_Driver/src/stm32f4xx_flash.c ****  |---------------|----------------|----------------|-----------------|-----------------|   
 122:../Shared/Libraries/STM32F4xx_StdPeriph_Driver/src/stm32f4xx_flash.c ****  |1WS(2CPU cycle)|30 < HCLK <= 60 |24 < HCLK <= 48 |18 < HCLK <= 36  |16 < HCLK <= 32  | 
 123:../Shared/Libraries/STM32F4xx_StdPeriph_Driver/src/stm32f4xx_flash.c ****  |---------------|----------------|----------------|-----------------|-----------------|   
 124:../Shared/Libraries/STM32F4xx_StdPeriph_Driver/src/stm32f4xx_flash.c ****  |2WS(3CPU cycle)|60 < HCLK <= 90 |48 < HCLK <= 72 |36 < HCLK <= 54  |32 < HCLK <= 48  |
 125:../Shared/Libraries/STM32F4xx_StdPeriph_Driver/src/stm32f4xx_flash.c ****  |---------------|----------------|----------------|-----------------|-----------------| 
 126:../Shared/Libraries/STM32F4xx_StdPeriph_Driver/src/stm32f4xx_flash.c ****  |3WS(4CPU cycle)|90 < HCLK <= 120|72 < HCLK <= 96 |54 < HCLK <= 72  |48 < HCLK <= 64  |
 127:../Shared/Libraries/STM32F4xx_StdPeriph_Driver/src/stm32f4xx_flash.c ****  |---------------|----------------|----------------|-----------------|-----------------| 
 128:../Shared/Libraries/STM32F4xx_StdPeriph_Driver/src/stm32f4xx_flash.c ****  |4WS(5CPU cycle)|120< HCLK <= 150|96 < HCLK <= 120|72 < HCLK <= 90  |64 < HCLK <= 80  |
 129:../Shared/Libraries/STM32F4xx_StdPeriph_Driver/src/stm32f4xx_flash.c ****  |---------------|----------------|----------------|-----------------|-----------------| 
 130:../Shared/Libraries/STM32F4xx_StdPeriph_Driver/src/stm32f4xx_flash.c ****  |5WS(6CPU cycle)|120< HCLK <= 168|120< HCLK <= 144|90 < HCLK <= 108 |80 < HCLK <= 96  | 
 131:../Shared/Libraries/STM32F4xx_StdPeriph_Driver/src/stm32f4xx_flash.c ****  |---------------|----------------|----------------|-----------------|-----------------| 
 132:../Shared/Libraries/STM32F4xx_StdPeriph_Driver/src/stm32f4xx_flash.c ****  |6WS(7CPU cycle)|      NA        |144< HCLK <= 168|108 < HCLK <= 120|96 < HCLK <= 112 | 
 133:../Shared/Libraries/STM32F4xx_StdPeriph_Driver/src/stm32f4xx_flash.c ****  |---------------|----------------|----------------|-----------------|-----------------| 
 134:../Shared/Libraries/STM32F4xx_StdPeriph_Driver/src/stm32f4xx_flash.c ****  |7WS(8CPU cycle)|      NA        |      NA        |120 < HCLK <= 138|112 < HCLK <= 120| 
 135:../Shared/Libraries/STM32F4xx_StdPeriph_Driver/src/stm32f4xx_flash.c ****  |***************|****************|****************|*****************|*****************|***********
 136:../Shared/Libraries/STM32F4xx_StdPeriph_Driver/src/stm32f4xx_flash.c ****  |               | voltage range  | voltage range  | voltage range   | voltage range   | voltage ra
 137:../Shared/Libraries/STM32F4xx_StdPeriph_Driver/src/stm32f4xx_flash.c ****  |               | 2.7 V - 3.6 V  | 2.4 V - 2.7 V  | 2.1 V - 2.4 V   | 1.8 V - 2.1 V   | with Exter
 138:../Shared/Libraries/STM32F4xx_StdPeriph_Driver/src/stm32f4xx_flash.c ****  |---------------|----------------|----------------|-----------------|-----------------|-----------
 139:../Shared/Libraries/STM32F4xx_StdPeriph_Driver/src/stm32f4xx_flash.c ****  |Max Parallelism|      x32       |               x16                |       x8        |          x
 140:../Shared/Libraries/STM32F4xx_StdPeriph_Driver/src/stm32f4xx_flash.c ****  |---------------|----------------|----------------|-----------------|-----------------|-----------
 141:../Shared/Libraries/STM32F4xx_StdPeriph_Driver/src/stm32f4xx_flash.c ****  |PSIZE[1:0]     |      10        |               01                 |       00        |           
 142:../Shared/Libraries/STM32F4xx_StdPeriph_Driver/src/stm32f4xx_flash.c ****  +-------------------------------------------------------------------------------------------------
 143:../Shared/Libraries/STM32F4xx_StdPeriph_Driver/src/stm32f4xx_flash.c ****    @note When VOS bit (in PWR_CR register) is reset to '0’, the maximum value of HCLK is 144 MHz.
 144:../Shared/Libraries/STM32F4xx_StdPeriph_Driver/src/stm32f4xx_flash.c ****          You can use PWR_MainRegulatorModeConfig() function to set or reset this bit.
ARM GAS  /tmp/ccBoElqq.s 			page 4


 145:../Shared/Libraries/STM32F4xx_StdPeriph_Driver/src/stm32f4xx_flash.c ****              
 146:../Shared/Libraries/STM32F4xx_StdPeriph_Driver/src/stm32f4xx_flash.c ****     - void FLASH_PrefetchBufferCmd(FunctionalState NewState)
 147:../Shared/Libraries/STM32F4xx_StdPeriph_Driver/src/stm32f4xx_flash.c ****     - void FLASH_InstructionCacheCmd(FunctionalState NewState)
 148:../Shared/Libraries/STM32F4xx_StdPeriph_Driver/src/stm32f4xx_flash.c ****     - void FLASH_DataCacheCmd(FunctionalState NewState)
 149:../Shared/Libraries/STM32F4xx_StdPeriph_Driver/src/stm32f4xx_flash.c ****     - void FLASH_InstructionCacheReset(void)
 150:../Shared/Libraries/STM32F4xx_StdPeriph_Driver/src/stm32f4xx_flash.c ****     - void FLASH_DataCacheReset(void)
 151:../Shared/Libraries/STM32F4xx_StdPeriph_Driver/src/stm32f4xx_flash.c ****    
 152:../Shared/Libraries/STM32F4xx_StdPeriph_Driver/src/stm32f4xx_flash.c ****    The unlock sequence is not needed for these functions.
 153:../Shared/Libraries/STM32F4xx_StdPeriph_Driver/src/stm32f4xx_flash.c ****  
 154:../Shared/Libraries/STM32F4xx_StdPeriph_Driver/src/stm32f4xx_flash.c **** @endverbatim
 155:../Shared/Libraries/STM32F4xx_StdPeriph_Driver/src/stm32f4xx_flash.c ****   * @{
 156:../Shared/Libraries/STM32F4xx_StdPeriph_Driver/src/stm32f4xx_flash.c ****   */
 157:../Shared/Libraries/STM32F4xx_StdPeriph_Driver/src/stm32f4xx_flash.c ****  
 158:../Shared/Libraries/STM32F4xx_StdPeriph_Driver/src/stm32f4xx_flash.c **** /**
 159:../Shared/Libraries/STM32F4xx_StdPeriph_Driver/src/stm32f4xx_flash.c ****   * @brief  Sets the code latency value.
 160:../Shared/Libraries/STM32F4xx_StdPeriph_Driver/src/stm32f4xx_flash.c ****   * @param  FLASH_Latency: specifies the FLASH Latency value.
 161:../Shared/Libraries/STM32F4xx_StdPeriph_Driver/src/stm32f4xx_flash.c ****   *          This parameter can be one of the following values:
 162:../Shared/Libraries/STM32F4xx_StdPeriph_Driver/src/stm32f4xx_flash.c ****   *            @arg FLASH_Latency_0: FLASH Zero Latency cycle
 163:../Shared/Libraries/STM32F4xx_StdPeriph_Driver/src/stm32f4xx_flash.c ****   *            @arg FLASH_Latency_1: FLASH One Latency cycle
 164:../Shared/Libraries/STM32F4xx_StdPeriph_Driver/src/stm32f4xx_flash.c ****   *            @arg FLASH_Latency_2: FLASH Two Latency cycles
 165:../Shared/Libraries/STM32F4xx_StdPeriph_Driver/src/stm32f4xx_flash.c ****   *            @arg FLASH_Latency_3: FLASH Three Latency cycles
 166:../Shared/Libraries/STM32F4xx_StdPeriph_Driver/src/stm32f4xx_flash.c ****   *            @arg FLASH_Latency_4: FLASH Four Latency cycles 
 167:../Shared/Libraries/STM32F4xx_StdPeriph_Driver/src/stm32f4xx_flash.c ****   *            @arg FLASH_Latency_5: FLASH Five Latency cycles 
 168:../Shared/Libraries/STM32F4xx_StdPeriph_Driver/src/stm32f4xx_flash.c ****   *            @arg FLASH_Latency_6: FLASH Six Latency cycles
 169:../Shared/Libraries/STM32F4xx_StdPeriph_Driver/src/stm32f4xx_flash.c ****   *            @arg FLASH_Latency_7: FLASH Seven Latency cycles      
 170:../Shared/Libraries/STM32F4xx_StdPeriph_Driver/src/stm32f4xx_flash.c ****   * @retval None
 171:../Shared/Libraries/STM32F4xx_StdPeriph_Driver/src/stm32f4xx_flash.c ****   */
 172:../Shared/Libraries/STM32F4xx_StdPeriph_Driver/src/stm32f4xx_flash.c **** void FLASH_SetLatency(uint32_t FLASH_Latency)
 173:../Shared/Libraries/STM32F4xx_StdPeriph_Driver/src/stm32f4xx_flash.c **** {
  29              		.loc 1 173 1
  30              		.cfi_startproc
  31              		@ args = 0, pretend = 0, frame = 8
  32              		@ frame_needed = 1, uses_anonymous_args = 0
  33              		@ link register save eliminated.
  34 0000 80B4     		push	{r7}
  35              	.LCFI0:
  36              		.cfi_def_cfa_offset 4
  37              		.cfi_offset 7, -4
  38 0002 83B0     		sub	sp, sp, #12
  39              	.LCFI1:
  40              		.cfi_def_cfa_offset 16
  41 0004 00AF     		add	r7, sp, #0
  42              	.LCFI2:
  43              		.cfi_def_cfa_register 7
  44 0006 7860     		str	r0, [r7, #4]
 174:../Shared/Libraries/STM32F4xx_StdPeriph_Driver/src/stm32f4xx_flash.c ****   /* Check the parameters */
 175:../Shared/Libraries/STM32F4xx_StdPeriph_Driver/src/stm32f4xx_flash.c ****   assert_param(IS_FLASH_LATENCY(FLASH_Latency));
 176:../Shared/Libraries/STM32F4xx_StdPeriph_Driver/src/stm32f4xx_flash.c ****   
 177:../Shared/Libraries/STM32F4xx_StdPeriph_Driver/src/stm32f4xx_flash.c ****   /* Perform Byte access to FLASH_ACR[8:0] to set the Latency value */
 178:../Shared/Libraries/STM32F4xx_StdPeriph_Driver/src/stm32f4xx_flash.c ****   *(__IO uint8_t *)ACR_BYTE0_ADDRESS = (uint8_t)FLASH_Latency;
  45              		.loc 1 178 3
  46 0008 044B     		ldr	r3, .L2
  47              		.loc 1 178 40
  48 000a 7A68     		ldr	r2, [r7, #4]
  49 000c D2B2     		uxtb	r2, r2
  50              		.loc 1 178 38
  51 000e 1A70     		strb	r2, [r3]
ARM GAS  /tmp/ccBoElqq.s 			page 5


 179:../Shared/Libraries/STM32F4xx_StdPeriph_Driver/src/stm32f4xx_flash.c **** }
  52              		.loc 1 179 1
  53 0010 00BF     		nop
  54 0012 0C37     		adds	r7, r7, #12
  55              	.LCFI3:
  56              		.cfi_def_cfa_offset 4
  57 0014 BD46     		mov	sp, r7
  58              	.LCFI4:
  59              		.cfi_def_cfa_register 13
  60              		@ sp needed
  61 0016 5DF8047B 		ldr	r7, [sp], #4
  62              	.LCFI5:
  63              		.cfi_restore 7
  64              		.cfi_def_cfa_offset 0
  65 001a 7047     		bx	lr
  66              	.L3:
  67              		.align	2
  68              	.L2:
  69 001c 003C0240 		.word	1073888256
  70              		.cfi_endproc
  71              	.LFE110:
  73              		.section	.text.FLASH_PrefetchBufferCmd,"ax",%progbits
  74              		.align	1
  75              		.global	FLASH_PrefetchBufferCmd
  76              		.syntax unified
  77              		.thumb
  78              		.thumb_func
  80              	FLASH_PrefetchBufferCmd:
  81              	.LFB111:
 180:../Shared/Libraries/STM32F4xx_StdPeriph_Driver/src/stm32f4xx_flash.c **** 
 181:../Shared/Libraries/STM32F4xx_StdPeriph_Driver/src/stm32f4xx_flash.c **** /**
 182:../Shared/Libraries/STM32F4xx_StdPeriph_Driver/src/stm32f4xx_flash.c ****   * @brief  Enables or disables the Prefetch Buffer.
 183:../Shared/Libraries/STM32F4xx_StdPeriph_Driver/src/stm32f4xx_flash.c ****   * @param  NewState: new state of the Prefetch Buffer.
 184:../Shared/Libraries/STM32F4xx_StdPeriph_Driver/src/stm32f4xx_flash.c ****   *          This parameter  can be: ENABLE or DISABLE.
 185:../Shared/Libraries/STM32F4xx_StdPeriph_Driver/src/stm32f4xx_flash.c ****   * @retval None
 186:../Shared/Libraries/STM32F4xx_StdPeriph_Driver/src/stm32f4xx_flash.c ****   */
 187:../Shared/Libraries/STM32F4xx_StdPeriph_Driver/src/stm32f4xx_flash.c **** void FLASH_PrefetchBufferCmd(FunctionalState NewState)
 188:../Shared/Libraries/STM32F4xx_StdPeriph_Driver/src/stm32f4xx_flash.c **** {
  82              		.loc 1 188 1
  83              		.cfi_startproc
  84              		@ args = 0, pretend = 0, frame = 8
  85              		@ frame_needed = 1, uses_anonymous_args = 0
  86              		@ link register save eliminated.
  87 0000 80B4     		push	{r7}
  88              	.LCFI6:
  89              		.cfi_def_cfa_offset 4
  90              		.cfi_offset 7, -4
  91 0002 83B0     		sub	sp, sp, #12
  92              	.LCFI7:
  93              		.cfi_def_cfa_offset 16
  94 0004 00AF     		add	r7, sp, #0
  95              	.LCFI8:
  96              		.cfi_def_cfa_register 7
  97 0006 0346     		mov	r3, r0
  98 0008 FB71     		strb	r3, [r7, #7]
 189:../Shared/Libraries/STM32F4xx_StdPeriph_Driver/src/stm32f4xx_flash.c ****   /* Check the parameters */
 190:../Shared/Libraries/STM32F4xx_StdPeriph_Driver/src/stm32f4xx_flash.c ****   assert_param(IS_FUNCTIONAL_STATE(NewState));
ARM GAS  /tmp/ccBoElqq.s 			page 6


 191:../Shared/Libraries/STM32F4xx_StdPeriph_Driver/src/stm32f4xx_flash.c ****   
 192:../Shared/Libraries/STM32F4xx_StdPeriph_Driver/src/stm32f4xx_flash.c ****   /* Enable or disable the Prefetch Buffer */
 193:../Shared/Libraries/STM32F4xx_StdPeriph_Driver/src/stm32f4xx_flash.c ****   if(NewState != DISABLE)
  99              		.loc 1 193 5
 100 000a FB79     		ldrb	r3, [r7, #7]	@ zero_extendqisi2
 101 000c 002B     		cmp	r3, #0
 102 000e 06D0     		beq	.L5
 194:../Shared/Libraries/STM32F4xx_StdPeriph_Driver/src/stm32f4xx_flash.c ****   {
 195:../Shared/Libraries/STM32F4xx_StdPeriph_Driver/src/stm32f4xx_flash.c ****     FLASH->ACR |= FLASH_ACR_PRFTEN;
 103              		.loc 1 195 10
 104 0010 094B     		ldr	r3, .L8
 105 0012 1B68     		ldr	r3, [r3]
 106 0014 084A     		ldr	r2, .L8
 107              		.loc 1 195 16
 108 0016 43F48073 		orr	r3, r3, #256
 109 001a 1360     		str	r3, [r2]
 196:../Shared/Libraries/STM32F4xx_StdPeriph_Driver/src/stm32f4xx_flash.c ****   }
 197:../Shared/Libraries/STM32F4xx_StdPeriph_Driver/src/stm32f4xx_flash.c ****   else
 198:../Shared/Libraries/STM32F4xx_StdPeriph_Driver/src/stm32f4xx_flash.c ****   {
 199:../Shared/Libraries/STM32F4xx_StdPeriph_Driver/src/stm32f4xx_flash.c ****     FLASH->ACR &= (~FLASH_ACR_PRFTEN);
 200:../Shared/Libraries/STM32F4xx_StdPeriph_Driver/src/stm32f4xx_flash.c ****   }
 201:../Shared/Libraries/STM32F4xx_StdPeriph_Driver/src/stm32f4xx_flash.c **** }
 110              		.loc 1 201 1
 111 001c 05E0     		b	.L7
 112              	.L5:
 199:../Shared/Libraries/STM32F4xx_StdPeriph_Driver/src/stm32f4xx_flash.c ****   }
 113              		.loc 1 199 10
 114 001e 064B     		ldr	r3, .L8
 115 0020 1B68     		ldr	r3, [r3]
 116 0022 054A     		ldr	r2, .L8
 199:../Shared/Libraries/STM32F4xx_StdPeriph_Driver/src/stm32f4xx_flash.c ****   }
 117              		.loc 1 199 16
 118 0024 23F48073 		bic	r3, r3, #256
 119 0028 1360     		str	r3, [r2]
 120              	.L7:
 121              		.loc 1 201 1
 122 002a 00BF     		nop
 123 002c 0C37     		adds	r7, r7, #12
 124              	.LCFI9:
 125              		.cfi_def_cfa_offset 4
 126 002e BD46     		mov	sp, r7
 127              	.LCFI10:
 128              		.cfi_def_cfa_register 13
 129              		@ sp needed
 130 0030 5DF8047B 		ldr	r7, [sp], #4
 131              	.LCFI11:
 132              		.cfi_restore 7
 133              		.cfi_def_cfa_offset 0
 134 0034 7047     		bx	lr
 135              	.L9:
 136 0036 00BF     		.align	2
 137              	.L8:
 138 0038 003C0240 		.word	1073888256
 139              		.cfi_endproc
 140              	.LFE111:
 142              		.section	.text.FLASH_InstructionCacheCmd,"ax",%progbits
 143              		.align	1
ARM GAS  /tmp/ccBoElqq.s 			page 7


 144              		.global	FLASH_InstructionCacheCmd
 145              		.syntax unified
 146              		.thumb
 147              		.thumb_func
 149              	FLASH_InstructionCacheCmd:
 150              	.LFB112:
 202:../Shared/Libraries/STM32F4xx_StdPeriph_Driver/src/stm32f4xx_flash.c **** 
 203:../Shared/Libraries/STM32F4xx_StdPeriph_Driver/src/stm32f4xx_flash.c **** /**
 204:../Shared/Libraries/STM32F4xx_StdPeriph_Driver/src/stm32f4xx_flash.c ****   * @brief  Enables or disables the Instruction Cache feature.
 205:../Shared/Libraries/STM32F4xx_StdPeriph_Driver/src/stm32f4xx_flash.c ****   * @param  NewState: new state of the Instruction Cache.
 206:../Shared/Libraries/STM32F4xx_StdPeriph_Driver/src/stm32f4xx_flash.c ****   *          This parameter  can be: ENABLE or DISABLE.
 207:../Shared/Libraries/STM32F4xx_StdPeriph_Driver/src/stm32f4xx_flash.c ****   * @retval None
 208:../Shared/Libraries/STM32F4xx_StdPeriph_Driver/src/stm32f4xx_flash.c ****   */
 209:../Shared/Libraries/STM32F4xx_StdPeriph_Driver/src/stm32f4xx_flash.c **** void FLASH_InstructionCacheCmd(FunctionalState NewState)
 210:../Shared/Libraries/STM32F4xx_StdPeriph_Driver/src/stm32f4xx_flash.c **** {
 151              		.loc 1 210 1
 152              		.cfi_startproc
 153              		@ args = 0, pretend = 0, frame = 8
 154              		@ frame_needed = 1, uses_anonymous_args = 0
 155              		@ link register save eliminated.
 156 0000 80B4     		push	{r7}
 157              	.LCFI12:
 158              		.cfi_def_cfa_offset 4
 159              		.cfi_offset 7, -4
 160 0002 83B0     		sub	sp, sp, #12
 161              	.LCFI13:
 162              		.cfi_def_cfa_offset 16
 163 0004 00AF     		add	r7, sp, #0
 164              	.LCFI14:
 165              		.cfi_def_cfa_register 7
 166 0006 0346     		mov	r3, r0
 167 0008 FB71     		strb	r3, [r7, #7]
 211:../Shared/Libraries/STM32F4xx_StdPeriph_Driver/src/stm32f4xx_flash.c ****   /* Check the parameters */
 212:../Shared/Libraries/STM32F4xx_StdPeriph_Driver/src/stm32f4xx_flash.c ****   assert_param(IS_FUNCTIONAL_STATE(NewState));
 213:../Shared/Libraries/STM32F4xx_StdPeriph_Driver/src/stm32f4xx_flash.c ****   
 214:../Shared/Libraries/STM32F4xx_StdPeriph_Driver/src/stm32f4xx_flash.c ****   if(NewState != DISABLE)
 168              		.loc 1 214 5
 169 000a FB79     		ldrb	r3, [r7, #7]	@ zero_extendqisi2
 170 000c 002B     		cmp	r3, #0
 171 000e 06D0     		beq	.L11
 215:../Shared/Libraries/STM32F4xx_StdPeriph_Driver/src/stm32f4xx_flash.c ****   {
 216:../Shared/Libraries/STM32F4xx_StdPeriph_Driver/src/stm32f4xx_flash.c ****     FLASH->ACR |= FLASH_ACR_ICEN;
 172              		.loc 1 216 10
 173 0010 094B     		ldr	r3, .L14
 174 0012 1B68     		ldr	r3, [r3]
 175 0014 084A     		ldr	r2, .L14
 176              		.loc 1 216 16
 177 0016 43F40073 		orr	r3, r3, #512
 178 001a 1360     		str	r3, [r2]
 217:../Shared/Libraries/STM32F4xx_StdPeriph_Driver/src/stm32f4xx_flash.c ****   }
 218:../Shared/Libraries/STM32F4xx_StdPeriph_Driver/src/stm32f4xx_flash.c ****   else
 219:../Shared/Libraries/STM32F4xx_StdPeriph_Driver/src/stm32f4xx_flash.c ****   {
 220:../Shared/Libraries/STM32F4xx_StdPeriph_Driver/src/stm32f4xx_flash.c ****     FLASH->ACR &= (~FLASH_ACR_ICEN);
 221:../Shared/Libraries/STM32F4xx_StdPeriph_Driver/src/stm32f4xx_flash.c ****   }
 222:../Shared/Libraries/STM32F4xx_StdPeriph_Driver/src/stm32f4xx_flash.c **** }
 179              		.loc 1 222 1
 180 001c 05E0     		b	.L13
ARM GAS  /tmp/ccBoElqq.s 			page 8


 181              	.L11:
 220:../Shared/Libraries/STM32F4xx_StdPeriph_Driver/src/stm32f4xx_flash.c ****   }
 182              		.loc 1 220 10
 183 001e 064B     		ldr	r3, .L14
 184 0020 1B68     		ldr	r3, [r3]
 185 0022 054A     		ldr	r2, .L14
 220:../Shared/Libraries/STM32F4xx_StdPeriph_Driver/src/stm32f4xx_flash.c ****   }
 186              		.loc 1 220 16
 187 0024 23F40073 		bic	r3, r3, #512
 188 0028 1360     		str	r3, [r2]
 189              	.L13:
 190              		.loc 1 222 1
 191 002a 00BF     		nop
 192 002c 0C37     		adds	r7, r7, #12
 193              	.LCFI15:
 194              		.cfi_def_cfa_offset 4
 195 002e BD46     		mov	sp, r7
 196              	.LCFI16:
 197              		.cfi_def_cfa_register 13
 198              		@ sp needed
 199 0030 5DF8047B 		ldr	r7, [sp], #4
 200              	.LCFI17:
 201              		.cfi_restore 7
 202              		.cfi_def_cfa_offset 0
 203 0034 7047     		bx	lr
 204              	.L15:
 205 0036 00BF     		.align	2
 206              	.L14:
 207 0038 003C0240 		.word	1073888256
 208              		.cfi_endproc
 209              	.LFE112:
 211              		.section	.text.FLASH_DataCacheCmd,"ax",%progbits
 212              		.align	1
 213              		.global	FLASH_DataCacheCmd
 214              		.syntax unified
 215              		.thumb
 216              		.thumb_func
 218              	FLASH_DataCacheCmd:
 219              	.LFB113:
 223:../Shared/Libraries/STM32F4xx_StdPeriph_Driver/src/stm32f4xx_flash.c **** 
 224:../Shared/Libraries/STM32F4xx_StdPeriph_Driver/src/stm32f4xx_flash.c **** /**
 225:../Shared/Libraries/STM32F4xx_StdPeriph_Driver/src/stm32f4xx_flash.c ****   * @brief  Enables or disables the Data Cache feature.
 226:../Shared/Libraries/STM32F4xx_StdPeriph_Driver/src/stm32f4xx_flash.c ****   * @param  NewState: new state of the Data Cache.
 227:../Shared/Libraries/STM32F4xx_StdPeriph_Driver/src/stm32f4xx_flash.c ****   *          This parameter  can be: ENABLE or DISABLE.
 228:../Shared/Libraries/STM32F4xx_StdPeriph_Driver/src/stm32f4xx_flash.c ****   * @retval None
 229:../Shared/Libraries/STM32F4xx_StdPeriph_Driver/src/stm32f4xx_flash.c ****   */
 230:../Shared/Libraries/STM32F4xx_StdPeriph_Driver/src/stm32f4xx_flash.c **** void FLASH_DataCacheCmd(FunctionalState NewState)
 231:../Shared/Libraries/STM32F4xx_StdPeriph_Driver/src/stm32f4xx_flash.c **** {
 220              		.loc 1 231 1
 221              		.cfi_startproc
 222              		@ args = 0, pretend = 0, frame = 8
 223              		@ frame_needed = 1, uses_anonymous_args = 0
 224              		@ link register save eliminated.
 225 0000 80B4     		push	{r7}
 226              	.LCFI18:
 227              		.cfi_def_cfa_offset 4
 228              		.cfi_offset 7, -4
ARM GAS  /tmp/ccBoElqq.s 			page 9


 229 0002 83B0     		sub	sp, sp, #12
 230              	.LCFI19:
 231              		.cfi_def_cfa_offset 16
 232 0004 00AF     		add	r7, sp, #0
 233              	.LCFI20:
 234              		.cfi_def_cfa_register 7
 235 0006 0346     		mov	r3, r0
 236 0008 FB71     		strb	r3, [r7, #7]
 232:../Shared/Libraries/STM32F4xx_StdPeriph_Driver/src/stm32f4xx_flash.c ****   /* Check the parameters */
 233:../Shared/Libraries/STM32F4xx_StdPeriph_Driver/src/stm32f4xx_flash.c ****   assert_param(IS_FUNCTIONAL_STATE(NewState));
 234:../Shared/Libraries/STM32F4xx_StdPeriph_Driver/src/stm32f4xx_flash.c ****   
 235:../Shared/Libraries/STM32F4xx_StdPeriph_Driver/src/stm32f4xx_flash.c ****   if(NewState != DISABLE)
 237              		.loc 1 235 5
 238 000a FB79     		ldrb	r3, [r7, #7]	@ zero_extendqisi2
 239 000c 002B     		cmp	r3, #0
 240 000e 06D0     		beq	.L17
 236:../Shared/Libraries/STM32F4xx_StdPeriph_Driver/src/stm32f4xx_flash.c ****   {
 237:../Shared/Libraries/STM32F4xx_StdPeriph_Driver/src/stm32f4xx_flash.c ****     FLASH->ACR |= FLASH_ACR_DCEN;
 241              		.loc 1 237 10
 242 0010 094B     		ldr	r3, .L20
 243 0012 1B68     		ldr	r3, [r3]
 244 0014 084A     		ldr	r2, .L20
 245              		.loc 1 237 16
 246 0016 43F48063 		orr	r3, r3, #1024
 247 001a 1360     		str	r3, [r2]
 238:../Shared/Libraries/STM32F4xx_StdPeriph_Driver/src/stm32f4xx_flash.c ****   }
 239:../Shared/Libraries/STM32F4xx_StdPeriph_Driver/src/stm32f4xx_flash.c ****   else
 240:../Shared/Libraries/STM32F4xx_StdPeriph_Driver/src/stm32f4xx_flash.c ****   {
 241:../Shared/Libraries/STM32F4xx_StdPeriph_Driver/src/stm32f4xx_flash.c ****     FLASH->ACR &= (~FLASH_ACR_DCEN);
 242:../Shared/Libraries/STM32F4xx_StdPeriph_Driver/src/stm32f4xx_flash.c ****   }
 243:../Shared/Libraries/STM32F4xx_StdPeriph_Driver/src/stm32f4xx_flash.c **** }
 248              		.loc 1 243 1
 249 001c 05E0     		b	.L19
 250              	.L17:
 241:../Shared/Libraries/STM32F4xx_StdPeriph_Driver/src/stm32f4xx_flash.c ****   }
 251              		.loc 1 241 10
 252 001e 064B     		ldr	r3, .L20
 253 0020 1B68     		ldr	r3, [r3]
 254 0022 054A     		ldr	r2, .L20
 241:../Shared/Libraries/STM32F4xx_StdPeriph_Driver/src/stm32f4xx_flash.c ****   }
 255              		.loc 1 241 16
 256 0024 23F48063 		bic	r3, r3, #1024
 257 0028 1360     		str	r3, [r2]
 258              	.L19:
 259              		.loc 1 243 1
 260 002a 00BF     		nop
 261 002c 0C37     		adds	r7, r7, #12
 262              	.LCFI21:
 263              		.cfi_def_cfa_offset 4
 264 002e BD46     		mov	sp, r7
 265              	.LCFI22:
 266              		.cfi_def_cfa_register 13
 267              		@ sp needed
 268 0030 5DF8047B 		ldr	r7, [sp], #4
 269              	.LCFI23:
 270              		.cfi_restore 7
 271              		.cfi_def_cfa_offset 0
ARM GAS  /tmp/ccBoElqq.s 			page 10


 272 0034 7047     		bx	lr
 273              	.L21:
 274 0036 00BF     		.align	2
 275              	.L20:
 276 0038 003C0240 		.word	1073888256
 277              		.cfi_endproc
 278              	.LFE113:
 280              		.section	.text.FLASH_InstructionCacheReset,"ax",%progbits
 281              		.align	1
 282              		.global	FLASH_InstructionCacheReset
 283              		.syntax unified
 284              		.thumb
 285              		.thumb_func
 287              	FLASH_InstructionCacheReset:
 288              	.LFB114:
 244:../Shared/Libraries/STM32F4xx_StdPeriph_Driver/src/stm32f4xx_flash.c **** 
 245:../Shared/Libraries/STM32F4xx_StdPeriph_Driver/src/stm32f4xx_flash.c **** /**
 246:../Shared/Libraries/STM32F4xx_StdPeriph_Driver/src/stm32f4xx_flash.c ****   * @brief  Resets the Instruction Cache.
 247:../Shared/Libraries/STM32F4xx_StdPeriph_Driver/src/stm32f4xx_flash.c ****   * @note   This function must be used only when the Instruction Cache is disabled.  
 248:../Shared/Libraries/STM32F4xx_StdPeriph_Driver/src/stm32f4xx_flash.c ****   * @param  None
 249:../Shared/Libraries/STM32F4xx_StdPeriph_Driver/src/stm32f4xx_flash.c ****   * @retval None
 250:../Shared/Libraries/STM32F4xx_StdPeriph_Driver/src/stm32f4xx_flash.c ****   */
 251:../Shared/Libraries/STM32F4xx_StdPeriph_Driver/src/stm32f4xx_flash.c **** void FLASH_InstructionCacheReset(void)
 252:../Shared/Libraries/STM32F4xx_StdPeriph_Driver/src/stm32f4xx_flash.c **** {
 289              		.loc 1 252 1
 290              		.cfi_startproc
 291              		@ args = 0, pretend = 0, frame = 0
 292              		@ frame_needed = 1, uses_anonymous_args = 0
 293              		@ link register save eliminated.
 294 0000 80B4     		push	{r7}
 295              	.LCFI24:
 296              		.cfi_def_cfa_offset 4
 297              		.cfi_offset 7, -4
 298 0002 00AF     		add	r7, sp, #0
 299              	.LCFI25:
 300              		.cfi_def_cfa_register 7
 253:../Shared/Libraries/STM32F4xx_StdPeriph_Driver/src/stm32f4xx_flash.c ****   FLASH->ACR |= FLASH_ACR_ICRST;
 301              		.loc 1 253 8
 302 0004 054B     		ldr	r3, .L23
 303 0006 1B68     		ldr	r3, [r3]
 304 0008 044A     		ldr	r2, .L23
 305              		.loc 1 253 14
 306 000a 43F40063 		orr	r3, r3, #2048
 307 000e 1360     		str	r3, [r2]
 254:../Shared/Libraries/STM32F4xx_StdPeriph_Driver/src/stm32f4xx_flash.c **** }
 308              		.loc 1 254 1
 309 0010 00BF     		nop
 310 0012 BD46     		mov	sp, r7
 311              	.LCFI26:
 312              		.cfi_def_cfa_register 13
 313              		@ sp needed
 314 0014 5DF8047B 		ldr	r7, [sp], #4
 315              	.LCFI27:
 316              		.cfi_restore 7
 317              		.cfi_def_cfa_offset 0
 318 0018 7047     		bx	lr
 319              	.L24:
ARM GAS  /tmp/ccBoElqq.s 			page 11


 320 001a 00BF     		.align	2
 321              	.L23:
 322 001c 003C0240 		.word	1073888256
 323              		.cfi_endproc
 324              	.LFE114:
 326              		.section	.text.FLASH_DataCacheReset,"ax",%progbits
 327              		.align	1
 328              		.global	FLASH_DataCacheReset
 329              		.syntax unified
 330              		.thumb
 331              		.thumb_func
 333              	FLASH_DataCacheReset:
 334              	.LFB115:
 255:../Shared/Libraries/STM32F4xx_StdPeriph_Driver/src/stm32f4xx_flash.c **** 
 256:../Shared/Libraries/STM32F4xx_StdPeriph_Driver/src/stm32f4xx_flash.c **** /**
 257:../Shared/Libraries/STM32F4xx_StdPeriph_Driver/src/stm32f4xx_flash.c ****   * @brief  Resets the Data Cache.
 258:../Shared/Libraries/STM32F4xx_StdPeriph_Driver/src/stm32f4xx_flash.c ****   * @note   This function must be used only when the Data Cache is disabled.  
 259:../Shared/Libraries/STM32F4xx_StdPeriph_Driver/src/stm32f4xx_flash.c ****   * @param  None
 260:../Shared/Libraries/STM32F4xx_StdPeriph_Driver/src/stm32f4xx_flash.c ****   * @retval None
 261:../Shared/Libraries/STM32F4xx_StdPeriph_Driver/src/stm32f4xx_flash.c ****   */
 262:../Shared/Libraries/STM32F4xx_StdPeriph_Driver/src/stm32f4xx_flash.c **** void FLASH_DataCacheReset(void)
 263:../Shared/Libraries/STM32F4xx_StdPeriph_Driver/src/stm32f4xx_flash.c **** {
 335              		.loc 1 263 1
 336              		.cfi_startproc
 337              		@ args = 0, pretend = 0, frame = 0
 338              		@ frame_needed = 1, uses_anonymous_args = 0
 339              		@ link register save eliminated.
 340 0000 80B4     		push	{r7}
 341              	.LCFI28:
 342              		.cfi_def_cfa_offset 4
 343              		.cfi_offset 7, -4
 344 0002 00AF     		add	r7, sp, #0
 345              	.LCFI29:
 346              		.cfi_def_cfa_register 7
 264:../Shared/Libraries/STM32F4xx_StdPeriph_Driver/src/stm32f4xx_flash.c ****   FLASH->ACR |= FLASH_ACR_DCRST;
 347              		.loc 1 264 8
 348 0004 054B     		ldr	r3, .L26
 349 0006 1B68     		ldr	r3, [r3]
 350 0008 044A     		ldr	r2, .L26
 351              		.loc 1 264 14
 352 000a 43F48053 		orr	r3, r3, #4096
 353 000e 1360     		str	r3, [r2]
 265:../Shared/Libraries/STM32F4xx_StdPeriph_Driver/src/stm32f4xx_flash.c **** }
 354              		.loc 1 265 1
 355 0010 00BF     		nop
 356 0012 BD46     		mov	sp, r7
 357              	.LCFI30:
 358              		.cfi_def_cfa_register 13
 359              		@ sp needed
 360 0014 5DF8047B 		ldr	r7, [sp], #4
 361              	.LCFI31:
 362              		.cfi_restore 7
 363              		.cfi_def_cfa_offset 0
 364 0018 7047     		bx	lr
 365              	.L27:
 366 001a 00BF     		.align	2
 367              	.L26:
ARM GAS  /tmp/ccBoElqq.s 			page 12


 368 001c 003C0240 		.word	1073888256
 369              		.cfi_endproc
 370              	.LFE115:
 372              		.section	.text.FLASH_Unlock,"ax",%progbits
 373              		.align	1
 374              		.global	FLASH_Unlock
 375              		.syntax unified
 376              		.thumb
 377              		.thumb_func
 379              	FLASH_Unlock:
 380              	.LFB116:
 266:../Shared/Libraries/STM32F4xx_StdPeriph_Driver/src/stm32f4xx_flash.c **** 
 267:../Shared/Libraries/STM32F4xx_StdPeriph_Driver/src/stm32f4xx_flash.c **** /**
 268:../Shared/Libraries/STM32F4xx_StdPeriph_Driver/src/stm32f4xx_flash.c ****   * @}
 269:../Shared/Libraries/STM32F4xx_StdPeriph_Driver/src/stm32f4xx_flash.c ****   */
 270:../Shared/Libraries/STM32F4xx_StdPeriph_Driver/src/stm32f4xx_flash.c **** 
 271:../Shared/Libraries/STM32F4xx_StdPeriph_Driver/src/stm32f4xx_flash.c **** /** @defgroup FLASH_Group2 FLASH Memory Programming functions
 272:../Shared/Libraries/STM32F4xx_StdPeriph_Driver/src/stm32f4xx_flash.c ****  *  @brief   FLASH Memory Programming functions
 273:../Shared/Libraries/STM32F4xx_StdPeriph_Driver/src/stm32f4xx_flash.c ****  *
 274:../Shared/Libraries/STM32F4xx_StdPeriph_Driver/src/stm32f4xx_flash.c **** @verbatim   
 275:../Shared/Libraries/STM32F4xx_StdPeriph_Driver/src/stm32f4xx_flash.c ****  ===============================================================================
 276:../Shared/Libraries/STM32F4xx_StdPeriph_Driver/src/stm32f4xx_flash.c ****                       FLASH Memory Programming functions
 277:../Shared/Libraries/STM32F4xx_StdPeriph_Driver/src/stm32f4xx_flash.c ****  ===============================================================================   
 278:../Shared/Libraries/STM32F4xx_StdPeriph_Driver/src/stm32f4xx_flash.c **** 
 279:../Shared/Libraries/STM32F4xx_StdPeriph_Driver/src/stm32f4xx_flash.c ****    This group includes the following functions:
 280:../Shared/Libraries/STM32F4xx_StdPeriph_Driver/src/stm32f4xx_flash.c ****     - void FLASH_Unlock(void)
 281:../Shared/Libraries/STM32F4xx_StdPeriph_Driver/src/stm32f4xx_flash.c ****     - void FLASH_Lock(void)
 282:../Shared/Libraries/STM32F4xx_StdPeriph_Driver/src/stm32f4xx_flash.c ****     - FLASH_Status FLASH_EraseSector(uint32_t FLASH_Sector, uint8_t VoltageRange)
 283:../Shared/Libraries/STM32F4xx_StdPeriph_Driver/src/stm32f4xx_flash.c ****     - FLASH_Status FLASH_EraseAllSectors(uint8_t VoltageRange)
 284:../Shared/Libraries/STM32F4xx_StdPeriph_Driver/src/stm32f4xx_flash.c ****     - FLASH_Status FLASH_ProgramDoubleWord(uint32_t Address, uint64_t Data)
 285:../Shared/Libraries/STM32F4xx_StdPeriph_Driver/src/stm32f4xx_flash.c ****     - FLASH_Status FLASH_ProgramWord(uint32_t Address, uint32_t Data)
 286:../Shared/Libraries/STM32F4xx_StdPeriph_Driver/src/stm32f4xx_flash.c ****     - FLASH_Status FLASH_ProgramHalfWord(uint32_t Address, uint16_t Data)
 287:../Shared/Libraries/STM32F4xx_StdPeriph_Driver/src/stm32f4xx_flash.c ****     - FLASH_Status FLASH_ProgramByte(uint32_t Address, uint8_t Data)
 288:../Shared/Libraries/STM32F4xx_StdPeriph_Driver/src/stm32f4xx_flash.c ****    
 289:../Shared/Libraries/STM32F4xx_StdPeriph_Driver/src/stm32f4xx_flash.c ****    Any operation of erase or program should follow these steps:
 290:../Shared/Libraries/STM32F4xx_StdPeriph_Driver/src/stm32f4xx_flash.c ****    1. Call the FLASH_Unlock() function to enable the FLASH control register access
 291:../Shared/Libraries/STM32F4xx_StdPeriph_Driver/src/stm32f4xx_flash.c **** 
 292:../Shared/Libraries/STM32F4xx_StdPeriph_Driver/src/stm32f4xx_flash.c ****    2. Call the desired function to erase sector(s) or program data
 293:../Shared/Libraries/STM32F4xx_StdPeriph_Driver/src/stm32f4xx_flash.c **** 
 294:../Shared/Libraries/STM32F4xx_StdPeriph_Driver/src/stm32f4xx_flash.c ****    3. Call the FLASH_Lock() function to disable the FLASH control register access
 295:../Shared/Libraries/STM32F4xx_StdPeriph_Driver/src/stm32f4xx_flash.c ****       (recommended to protect the FLASH memory against possible unwanted operation)
 296:../Shared/Libraries/STM32F4xx_StdPeriph_Driver/src/stm32f4xx_flash.c ****     
 297:../Shared/Libraries/STM32F4xx_StdPeriph_Driver/src/stm32f4xx_flash.c **** @endverbatim
 298:../Shared/Libraries/STM32F4xx_StdPeriph_Driver/src/stm32f4xx_flash.c ****   * @{
 299:../Shared/Libraries/STM32F4xx_StdPeriph_Driver/src/stm32f4xx_flash.c ****   */
 300:../Shared/Libraries/STM32F4xx_StdPeriph_Driver/src/stm32f4xx_flash.c **** 
 301:../Shared/Libraries/STM32F4xx_StdPeriph_Driver/src/stm32f4xx_flash.c **** /**
 302:../Shared/Libraries/STM32F4xx_StdPeriph_Driver/src/stm32f4xx_flash.c ****   * @brief  Unlocks the FLASH control register access
 303:../Shared/Libraries/STM32F4xx_StdPeriph_Driver/src/stm32f4xx_flash.c ****   * @param  None
 304:../Shared/Libraries/STM32F4xx_StdPeriph_Driver/src/stm32f4xx_flash.c ****   * @retval None
 305:../Shared/Libraries/STM32F4xx_StdPeriph_Driver/src/stm32f4xx_flash.c ****   */
 306:../Shared/Libraries/STM32F4xx_StdPeriph_Driver/src/stm32f4xx_flash.c **** void FLASH_Unlock(void)
 307:../Shared/Libraries/STM32F4xx_StdPeriph_Driver/src/stm32f4xx_flash.c **** {
 381              		.loc 1 307 1
 382              		.cfi_startproc
 383              		@ args = 0, pretend = 0, frame = 0
 384              		@ frame_needed = 1, uses_anonymous_args = 0
ARM GAS  /tmp/ccBoElqq.s 			page 13


 385              		@ link register save eliminated.
 386 0000 80B4     		push	{r7}
 387              	.LCFI32:
 388              		.cfi_def_cfa_offset 4
 389              		.cfi_offset 7, -4
 390 0002 00AF     		add	r7, sp, #0
 391              	.LCFI33:
 392              		.cfi_def_cfa_register 7
 308:../Shared/Libraries/STM32F4xx_StdPeriph_Driver/src/stm32f4xx_flash.c ****   if((FLASH->CR & FLASH_CR_LOCK) != RESET)
 393              		.loc 1 308 12
 394 0004 074B     		ldr	r3, .L31
 395 0006 1B69     		ldr	r3, [r3, #16]
 396              		.loc 1 308 5
 397 0008 002B     		cmp	r3, #0
 398 000a 05DA     		bge	.L30
 309:../Shared/Libraries/STM32F4xx_StdPeriph_Driver/src/stm32f4xx_flash.c ****   {
 310:../Shared/Libraries/STM32F4xx_StdPeriph_Driver/src/stm32f4xx_flash.c ****     /* Authorize the FLASH Registers access */
 311:../Shared/Libraries/STM32F4xx_StdPeriph_Driver/src/stm32f4xx_flash.c ****     FLASH->KEYR = FLASH_KEY1;
 399              		.loc 1 311 10
 400 000c 054B     		ldr	r3, .L31
 401              		.loc 1 311 17
 402 000e 064A     		ldr	r2, .L31+4
 403 0010 5A60     		str	r2, [r3, #4]
 312:../Shared/Libraries/STM32F4xx_StdPeriph_Driver/src/stm32f4xx_flash.c ****     FLASH->KEYR = FLASH_KEY2;
 404              		.loc 1 312 10
 405 0012 044B     		ldr	r3, .L31
 406              		.loc 1 312 17
 407 0014 054A     		ldr	r2, .L31+8
 408 0016 5A60     		str	r2, [r3, #4]
 409              	.L30:
 313:../Shared/Libraries/STM32F4xx_StdPeriph_Driver/src/stm32f4xx_flash.c ****   }  
 314:../Shared/Libraries/STM32F4xx_StdPeriph_Driver/src/stm32f4xx_flash.c **** }
 410              		.loc 1 314 1
 411 0018 00BF     		nop
 412 001a BD46     		mov	sp, r7
 413              	.LCFI34:
 414              		.cfi_def_cfa_register 13
 415              		@ sp needed
 416 001c 5DF8047B 		ldr	r7, [sp], #4
 417              	.LCFI35:
 418              		.cfi_restore 7
 419              		.cfi_def_cfa_offset 0
 420 0020 7047     		bx	lr
 421              	.L32:
 422 0022 00BF     		.align	2
 423              	.L31:
 424 0024 003C0240 		.word	1073888256
 425 0028 23016745 		.word	1164378403
 426 002c AB89EFCD 		.word	-839939669
 427              		.cfi_endproc
 428              	.LFE116:
 430              		.section	.text.FLASH_Lock,"ax",%progbits
 431              		.align	1
 432              		.global	FLASH_Lock
 433              		.syntax unified
 434              		.thumb
 435              		.thumb_func
ARM GAS  /tmp/ccBoElqq.s 			page 14


 437              	FLASH_Lock:
 438              	.LFB117:
 315:../Shared/Libraries/STM32F4xx_StdPeriph_Driver/src/stm32f4xx_flash.c **** 
 316:../Shared/Libraries/STM32F4xx_StdPeriph_Driver/src/stm32f4xx_flash.c **** /**
 317:../Shared/Libraries/STM32F4xx_StdPeriph_Driver/src/stm32f4xx_flash.c ****   * @brief  Locks the FLASH control register access
 318:../Shared/Libraries/STM32F4xx_StdPeriph_Driver/src/stm32f4xx_flash.c ****   * @param  None
 319:../Shared/Libraries/STM32F4xx_StdPeriph_Driver/src/stm32f4xx_flash.c ****   * @retval None
 320:../Shared/Libraries/STM32F4xx_StdPeriph_Driver/src/stm32f4xx_flash.c ****   */
 321:../Shared/Libraries/STM32F4xx_StdPeriph_Driver/src/stm32f4xx_flash.c **** void FLASH_Lock(void)
 322:../Shared/Libraries/STM32F4xx_StdPeriph_Driver/src/stm32f4xx_flash.c **** {
 439              		.loc 1 322 1
 440              		.cfi_startproc
 441              		@ args = 0, pretend = 0, frame = 0
 442              		@ frame_needed = 1, uses_anonymous_args = 0
 443              		@ link register save eliminated.
 444 0000 80B4     		push	{r7}
 445              	.LCFI36:
 446              		.cfi_def_cfa_offset 4
 447              		.cfi_offset 7, -4
 448 0002 00AF     		add	r7, sp, #0
 449              	.LCFI37:
 450              		.cfi_def_cfa_register 7
 323:../Shared/Libraries/STM32F4xx_StdPeriph_Driver/src/stm32f4xx_flash.c ****   /* Set the LOCK Bit to lock the FLASH Registers access */
 324:../Shared/Libraries/STM32F4xx_StdPeriph_Driver/src/stm32f4xx_flash.c ****   FLASH->CR |= FLASH_CR_LOCK;
 451              		.loc 1 324 8
 452 0004 054B     		ldr	r3, .L34
 453 0006 1B69     		ldr	r3, [r3, #16]
 454 0008 044A     		ldr	r2, .L34
 455              		.loc 1 324 13
 456 000a 43F00043 		orr	r3, r3, #-2147483648
 457 000e 1361     		str	r3, [r2, #16]
 325:../Shared/Libraries/STM32F4xx_StdPeriph_Driver/src/stm32f4xx_flash.c **** }
 458              		.loc 1 325 1
 459 0010 00BF     		nop
 460 0012 BD46     		mov	sp, r7
 461              	.LCFI38:
 462              		.cfi_def_cfa_register 13
 463              		@ sp needed
 464 0014 5DF8047B 		ldr	r7, [sp], #4
 465              	.LCFI39:
 466              		.cfi_restore 7
 467              		.cfi_def_cfa_offset 0
 468 0018 7047     		bx	lr
 469              	.L35:
 470 001a 00BF     		.align	2
 471              	.L34:
 472 001c 003C0240 		.word	1073888256
 473              		.cfi_endproc
 474              	.LFE117:
 476              		.section	.text.FLASH_EraseSector,"ax",%progbits
 477              		.align	1
 478              		.global	FLASH_EraseSector
 479              		.syntax unified
 480              		.thumb
 481              		.thumb_func
 483              	FLASH_EraseSector:
 484              	.LFB118:
ARM GAS  /tmp/ccBoElqq.s 			page 15


 326:../Shared/Libraries/STM32F4xx_StdPeriph_Driver/src/stm32f4xx_flash.c **** 
 327:../Shared/Libraries/STM32F4xx_StdPeriph_Driver/src/stm32f4xx_flash.c **** /**
 328:../Shared/Libraries/STM32F4xx_StdPeriph_Driver/src/stm32f4xx_flash.c ****   * @brief  Erases a specified FLASH Sector.
 329:../Shared/Libraries/STM32F4xx_StdPeriph_Driver/src/stm32f4xx_flash.c ****   *   
 330:../Shared/Libraries/STM32F4xx_StdPeriph_Driver/src/stm32f4xx_flash.c ****   * @param  FLASH_Sector: The Sector number to be erased.
 331:../Shared/Libraries/STM32F4xx_StdPeriph_Driver/src/stm32f4xx_flash.c ****   *          This parameter can be a value between FLASH_Sector_0 and FLASH_Sector_11
 332:../Shared/Libraries/STM32F4xx_StdPeriph_Driver/src/stm32f4xx_flash.c ****   *    
 333:../Shared/Libraries/STM32F4xx_StdPeriph_Driver/src/stm32f4xx_flash.c ****   * @param  VoltageRange: The device voltage range which defines the erase parallelism.  
 334:../Shared/Libraries/STM32F4xx_StdPeriph_Driver/src/stm32f4xx_flash.c ****   *          This parameter can be one of the following values:
 335:../Shared/Libraries/STM32F4xx_StdPeriph_Driver/src/stm32f4xx_flash.c ****   *            @arg VoltageRange_1: when the device voltage range is 1.8V to 2.1V, 
 336:../Shared/Libraries/STM32F4xx_StdPeriph_Driver/src/stm32f4xx_flash.c ****   *                                  the operation will be done by byte (8-bit) 
 337:../Shared/Libraries/STM32F4xx_StdPeriph_Driver/src/stm32f4xx_flash.c ****   *            @arg VoltageRange_2: when the device voltage range is 2.1V to 2.7V,
 338:../Shared/Libraries/STM32F4xx_StdPeriph_Driver/src/stm32f4xx_flash.c ****   *                                  the operation will be done by half word (16-bit)
 339:../Shared/Libraries/STM32F4xx_StdPeriph_Driver/src/stm32f4xx_flash.c ****   *            @arg VoltageRange_3: when the device voltage range is 2.7V to 3.6V,
 340:../Shared/Libraries/STM32F4xx_StdPeriph_Driver/src/stm32f4xx_flash.c ****   *                                  the operation will be done by word (32-bit)
 341:../Shared/Libraries/STM32F4xx_StdPeriph_Driver/src/stm32f4xx_flash.c ****   *            @arg VoltageRange_4: when the device voltage range is 2.7V to 3.6V + External Vpp, 
 342:../Shared/Libraries/STM32F4xx_StdPeriph_Driver/src/stm32f4xx_flash.c ****   *                                  the operation will be done by double word (64-bit)
 343:../Shared/Libraries/STM32F4xx_StdPeriph_Driver/src/stm32f4xx_flash.c ****   *       
 344:../Shared/Libraries/STM32F4xx_StdPeriph_Driver/src/stm32f4xx_flash.c ****   * @retval FLASH Status: The returned value can be: FLASH_BUSY, FLASH_ERROR_PROGRAM,
 345:../Shared/Libraries/STM32F4xx_StdPeriph_Driver/src/stm32f4xx_flash.c ****   *                       FLASH_ERROR_WRP, FLASH_ERROR_OPERATION or FLASH_COMPLETE.
 346:../Shared/Libraries/STM32F4xx_StdPeriph_Driver/src/stm32f4xx_flash.c ****   */
 347:../Shared/Libraries/STM32F4xx_StdPeriph_Driver/src/stm32f4xx_flash.c **** FLASH_Status FLASH_EraseSector(uint32_t FLASH_Sector, uint8_t VoltageRange)
 348:../Shared/Libraries/STM32F4xx_StdPeriph_Driver/src/stm32f4xx_flash.c **** {
 485              		.loc 1 348 1
 486              		.cfi_startproc
 487              		@ args = 0, pretend = 0, frame = 16
 488              		@ frame_needed = 1, uses_anonymous_args = 0
 489 0000 80B5     		push	{r7, lr}
 490              	.LCFI40:
 491              		.cfi_def_cfa_offset 8
 492              		.cfi_offset 7, -8
 493              		.cfi_offset 14, -4
 494 0002 84B0     		sub	sp, sp, #16
 495              	.LCFI41:
 496              		.cfi_def_cfa_offset 24
 497 0004 00AF     		add	r7, sp, #0
 498              	.LCFI42:
 499              		.cfi_def_cfa_register 7
 500 0006 7860     		str	r0, [r7, #4]
 501 0008 0B46     		mov	r3, r1
 502 000a FB70     		strb	r3, [r7, #3]
 349:../Shared/Libraries/STM32F4xx_StdPeriph_Driver/src/stm32f4xx_flash.c ****   uint32_t tmp_psize = 0x0;
 503              		.loc 1 349 12
 504 000c 0023     		movs	r3, #0
 505 000e FB60     		str	r3, [r7, #12]
 350:../Shared/Libraries/STM32F4xx_StdPeriph_Driver/src/stm32f4xx_flash.c ****   FLASH_Status status = FLASH_COMPLETE;
 506              		.loc 1 350 16
 507 0010 0823     		movs	r3, #8
 508 0012 FB72     		strb	r3, [r7, #11]
 351:../Shared/Libraries/STM32F4xx_StdPeriph_Driver/src/stm32f4xx_flash.c **** 
 352:../Shared/Libraries/STM32F4xx_StdPeriph_Driver/src/stm32f4xx_flash.c ****   /* Check the parameters */
 353:../Shared/Libraries/STM32F4xx_StdPeriph_Driver/src/stm32f4xx_flash.c ****   assert_param(IS_FLASH_SECTOR(FLASH_Sector));
 354:../Shared/Libraries/STM32F4xx_StdPeriph_Driver/src/stm32f4xx_flash.c ****   assert_param(IS_VOLTAGERANGE(VoltageRange));
 355:../Shared/Libraries/STM32F4xx_StdPeriph_Driver/src/stm32f4xx_flash.c ****   
 356:../Shared/Libraries/STM32F4xx_StdPeriph_Driver/src/stm32f4xx_flash.c ****   if(VoltageRange == VoltageRange_1)
 509              		.loc 1 356 5
 510 0014 FB78     		ldrb	r3, [r7, #3]	@ zero_extendqisi2
ARM GAS  /tmp/ccBoElqq.s 			page 16


 511 0016 002B     		cmp	r3, #0
 512 0018 02D1     		bne	.L37
 357:../Shared/Libraries/STM32F4xx_StdPeriph_Driver/src/stm32f4xx_flash.c ****   {
 358:../Shared/Libraries/STM32F4xx_StdPeriph_Driver/src/stm32f4xx_flash.c ****      tmp_psize = FLASH_PSIZE_BYTE;
 513              		.loc 1 358 16
 514 001a 0023     		movs	r3, #0
 515 001c FB60     		str	r3, [r7, #12]
 516 001e 10E0     		b	.L38
 517              	.L37:
 359:../Shared/Libraries/STM32F4xx_StdPeriph_Driver/src/stm32f4xx_flash.c ****   }
 360:../Shared/Libraries/STM32F4xx_StdPeriph_Driver/src/stm32f4xx_flash.c ****   else if(VoltageRange == VoltageRange_2)
 518              		.loc 1 360 10
 519 0020 FB78     		ldrb	r3, [r7, #3]	@ zero_extendqisi2
 520 0022 012B     		cmp	r3, #1
 521 0024 03D1     		bne	.L39
 361:../Shared/Libraries/STM32F4xx_StdPeriph_Driver/src/stm32f4xx_flash.c ****   {
 362:../Shared/Libraries/STM32F4xx_StdPeriph_Driver/src/stm32f4xx_flash.c ****     tmp_psize = FLASH_PSIZE_HALF_WORD;
 522              		.loc 1 362 15
 523 0026 4FF48073 		mov	r3, #256
 524 002a FB60     		str	r3, [r7, #12]
 525 002c 09E0     		b	.L38
 526              	.L39:
 363:../Shared/Libraries/STM32F4xx_StdPeriph_Driver/src/stm32f4xx_flash.c ****   }
 364:../Shared/Libraries/STM32F4xx_StdPeriph_Driver/src/stm32f4xx_flash.c ****   else if(VoltageRange == VoltageRange_3)
 527              		.loc 1 364 10
 528 002e FB78     		ldrb	r3, [r7, #3]	@ zero_extendqisi2
 529 0030 022B     		cmp	r3, #2
 530 0032 03D1     		bne	.L40
 365:../Shared/Libraries/STM32F4xx_StdPeriph_Driver/src/stm32f4xx_flash.c ****   {
 366:../Shared/Libraries/STM32F4xx_StdPeriph_Driver/src/stm32f4xx_flash.c ****     tmp_psize = FLASH_PSIZE_WORD;
 531              		.loc 1 366 15
 532 0034 4FF40073 		mov	r3, #512
 533 0038 FB60     		str	r3, [r7, #12]
 534 003a 02E0     		b	.L38
 535              	.L40:
 367:../Shared/Libraries/STM32F4xx_StdPeriph_Driver/src/stm32f4xx_flash.c ****   }
 368:../Shared/Libraries/STM32F4xx_StdPeriph_Driver/src/stm32f4xx_flash.c ****   else
 369:../Shared/Libraries/STM32F4xx_StdPeriph_Driver/src/stm32f4xx_flash.c ****   {
 370:../Shared/Libraries/STM32F4xx_StdPeriph_Driver/src/stm32f4xx_flash.c ****     tmp_psize = FLASH_PSIZE_DOUBLE_WORD;
 536              		.loc 1 370 15
 537 003c 4FF44073 		mov	r3, #768
 538 0040 FB60     		str	r3, [r7, #12]
 539              	.L38:
 371:../Shared/Libraries/STM32F4xx_StdPeriph_Driver/src/stm32f4xx_flash.c ****   }
 372:../Shared/Libraries/STM32F4xx_StdPeriph_Driver/src/stm32f4xx_flash.c ****   /* Wait for last operation to be completed */
 373:../Shared/Libraries/STM32F4xx_StdPeriph_Driver/src/stm32f4xx_flash.c ****   status = FLASH_WaitForLastOperation();
 540              		.loc 1 373 12
 541 0042 FFF7FEFF 		bl	FLASH_WaitForLastOperation
 542 0046 0346     		mov	r3, r0
 543 0048 FB72     		strb	r3, [r7, #11]
 374:../Shared/Libraries/STM32F4xx_StdPeriph_Driver/src/stm32f4xx_flash.c ****   
 375:../Shared/Libraries/STM32F4xx_StdPeriph_Driver/src/stm32f4xx_flash.c ****   if(status == FLASH_COMPLETE)
 544              		.loc 1 375 5
 545 004a FB7A     		ldrb	r3, [r7, #11]	@ zero_extendqisi2
 546 004c 082B     		cmp	r3, #8
 547 004e 2FD1     		bne	.L41
 376:../Shared/Libraries/STM32F4xx_StdPeriph_Driver/src/stm32f4xx_flash.c ****   { 
ARM GAS  /tmp/ccBoElqq.s 			page 17


 377:../Shared/Libraries/STM32F4xx_StdPeriph_Driver/src/stm32f4xx_flash.c ****     /* if the previous operation is completed, proceed to erase the sector */
 378:../Shared/Libraries/STM32F4xx_StdPeriph_Driver/src/stm32f4xx_flash.c ****     FLASH->CR &= CR_PSIZE_MASK;
 548              		.loc 1 378 10
 549 0050 1A4B     		ldr	r3, .L43
 550 0052 1B69     		ldr	r3, [r3, #16]
 551 0054 194A     		ldr	r2, .L43
 552              		.loc 1 378 15
 553 0056 23F44073 		bic	r3, r3, #768
 554 005a 1361     		str	r3, [r2, #16]
 379:../Shared/Libraries/STM32F4xx_StdPeriph_Driver/src/stm32f4xx_flash.c ****     FLASH->CR |= tmp_psize;
 555              		.loc 1 379 10
 556 005c 174B     		ldr	r3, .L43
 557 005e 1A69     		ldr	r2, [r3, #16]
 558 0060 1649     		ldr	r1, .L43
 559              		.loc 1 379 15
 560 0062 FB68     		ldr	r3, [r7, #12]
 561 0064 1343     		orrs	r3, r3, r2
 562 0066 0B61     		str	r3, [r1, #16]
 380:../Shared/Libraries/STM32F4xx_StdPeriph_Driver/src/stm32f4xx_flash.c ****     FLASH->CR &= SECTOR_MASK;
 563              		.loc 1 380 10
 564 0068 144B     		ldr	r3, .L43
 565 006a 1B69     		ldr	r3, [r3, #16]
 566 006c 134A     		ldr	r2, .L43
 567              		.loc 1 380 15
 568 006e 23F0F803 		bic	r3, r3, #248
 569 0072 1361     		str	r3, [r2, #16]
 381:../Shared/Libraries/STM32F4xx_StdPeriph_Driver/src/stm32f4xx_flash.c ****     FLASH->CR |= FLASH_CR_SER | FLASH_Sector;
 570              		.loc 1 381 10
 571 0074 114B     		ldr	r3, .L43
 572 0076 1A69     		ldr	r2, [r3, #16]
 573              		.loc 1 381 15
 574 0078 7B68     		ldr	r3, [r7, #4]
 575 007a 1343     		orrs	r3, r3, r2
 576              		.loc 1 381 10
 577 007c 0F4A     		ldr	r2, .L43
 578              		.loc 1 381 15
 579 007e 43F00203 		orr	r3, r3, #2
 580 0082 1361     		str	r3, [r2, #16]
 382:../Shared/Libraries/STM32F4xx_StdPeriph_Driver/src/stm32f4xx_flash.c ****     FLASH->CR |= FLASH_CR_STRT;
 581              		.loc 1 382 10
 582 0084 0D4B     		ldr	r3, .L43
 583 0086 1B69     		ldr	r3, [r3, #16]
 584 0088 0C4A     		ldr	r2, .L43
 585              		.loc 1 382 15
 586 008a 43F48033 		orr	r3, r3, #65536
 587 008e 1361     		str	r3, [r2, #16]
 383:../Shared/Libraries/STM32F4xx_StdPeriph_Driver/src/stm32f4xx_flash.c ****     
 384:../Shared/Libraries/STM32F4xx_StdPeriph_Driver/src/stm32f4xx_flash.c ****     /* Wait for last operation to be completed */
 385:../Shared/Libraries/STM32F4xx_StdPeriph_Driver/src/stm32f4xx_flash.c ****     status = FLASH_WaitForLastOperation();
 588              		.loc 1 385 14
 589 0090 FFF7FEFF 		bl	FLASH_WaitForLastOperation
 590 0094 0346     		mov	r3, r0
 591 0096 FB72     		strb	r3, [r7, #11]
 386:../Shared/Libraries/STM32F4xx_StdPeriph_Driver/src/stm32f4xx_flash.c ****     
 387:../Shared/Libraries/STM32F4xx_StdPeriph_Driver/src/stm32f4xx_flash.c ****     /* if the erase operation is completed, disable the SER Bit */
 388:../Shared/Libraries/STM32F4xx_StdPeriph_Driver/src/stm32f4xx_flash.c ****     FLASH->CR &= (~FLASH_CR_SER);
 592              		.loc 1 388 10
ARM GAS  /tmp/ccBoElqq.s 			page 18


 593 0098 084B     		ldr	r3, .L43
 594 009a 1B69     		ldr	r3, [r3, #16]
 595 009c 074A     		ldr	r2, .L43
 596              		.loc 1 388 15
 597 009e 23F00203 		bic	r3, r3, #2
 598 00a2 1361     		str	r3, [r2, #16]
 389:../Shared/Libraries/STM32F4xx_StdPeriph_Driver/src/stm32f4xx_flash.c ****     FLASH->CR &= SECTOR_MASK; 
 599              		.loc 1 389 10
 600 00a4 054B     		ldr	r3, .L43
 601 00a6 1B69     		ldr	r3, [r3, #16]
 602 00a8 044A     		ldr	r2, .L43
 603              		.loc 1 389 15
 604 00aa 23F0F803 		bic	r3, r3, #248
 605 00ae 1361     		str	r3, [r2, #16]
 606              	.L41:
 390:../Shared/Libraries/STM32F4xx_StdPeriph_Driver/src/stm32f4xx_flash.c ****   }
 391:../Shared/Libraries/STM32F4xx_StdPeriph_Driver/src/stm32f4xx_flash.c ****   /* Return the Erase Status */
 392:../Shared/Libraries/STM32F4xx_StdPeriph_Driver/src/stm32f4xx_flash.c ****   return status;
 607              		.loc 1 392 10
 608 00b0 FB7A     		ldrb	r3, [r7, #11]	@ zero_extendqisi2
 393:../Shared/Libraries/STM32F4xx_StdPeriph_Driver/src/stm32f4xx_flash.c **** }
 609              		.loc 1 393 1
 610 00b2 1846     		mov	r0, r3
 611 00b4 1037     		adds	r7, r7, #16
 612              	.LCFI43:
 613              		.cfi_def_cfa_offset 8
 614 00b6 BD46     		mov	sp, r7
 615              	.LCFI44:
 616              		.cfi_def_cfa_register 13
 617              		@ sp needed
 618 00b8 80BD     		pop	{r7, pc}
 619              	.L44:
 620 00ba 00BF     		.align	2
 621              	.L43:
 622 00bc 003C0240 		.word	1073888256
 623              		.cfi_endproc
 624              	.LFE118:
 626              		.section	.text.FLASH_EraseAllSectors,"ax",%progbits
 627              		.align	1
 628              		.global	FLASH_EraseAllSectors
 629              		.syntax unified
 630              		.thumb
 631              		.thumb_func
 633              	FLASH_EraseAllSectors:
 634              	.LFB119:
 394:../Shared/Libraries/STM32F4xx_StdPeriph_Driver/src/stm32f4xx_flash.c **** 
 395:../Shared/Libraries/STM32F4xx_StdPeriph_Driver/src/stm32f4xx_flash.c **** /**
 396:../Shared/Libraries/STM32F4xx_StdPeriph_Driver/src/stm32f4xx_flash.c ****   * @brief  Erases all FLASH Sectors.
 397:../Shared/Libraries/STM32F4xx_StdPeriph_Driver/src/stm32f4xx_flash.c ****   *    
 398:../Shared/Libraries/STM32F4xx_StdPeriph_Driver/src/stm32f4xx_flash.c ****   * @param  VoltageRange: The device voltage range which defines the erase parallelism.  
 399:../Shared/Libraries/STM32F4xx_StdPeriph_Driver/src/stm32f4xx_flash.c ****   *          This parameter can be one of the following values:
 400:../Shared/Libraries/STM32F4xx_StdPeriph_Driver/src/stm32f4xx_flash.c ****   *            @arg VoltageRange_1: when the device voltage range is 1.8V to 2.1V, 
 401:../Shared/Libraries/STM32F4xx_StdPeriph_Driver/src/stm32f4xx_flash.c ****   *                                  the operation will be done by byte (8-bit) 
 402:../Shared/Libraries/STM32F4xx_StdPeriph_Driver/src/stm32f4xx_flash.c ****   *            @arg VoltageRange_2: when the device voltage range is 2.1V to 2.7V,
 403:../Shared/Libraries/STM32F4xx_StdPeriph_Driver/src/stm32f4xx_flash.c ****   *                                  the operation will be done by half word (16-bit)
 404:../Shared/Libraries/STM32F4xx_StdPeriph_Driver/src/stm32f4xx_flash.c ****   *            @arg VoltageRange_3: when the device voltage range is 2.7V to 3.6V,
 405:../Shared/Libraries/STM32F4xx_StdPeriph_Driver/src/stm32f4xx_flash.c ****   *                                  the operation will be done by word (32-bit)
ARM GAS  /tmp/ccBoElqq.s 			page 19


 406:../Shared/Libraries/STM32F4xx_StdPeriph_Driver/src/stm32f4xx_flash.c ****   *            @arg VoltageRange_4: when the device voltage range is 2.7V to 3.6V + External Vpp, 
 407:../Shared/Libraries/STM32F4xx_StdPeriph_Driver/src/stm32f4xx_flash.c ****   *                                  the operation will be done by double word (64-bit)
 408:../Shared/Libraries/STM32F4xx_StdPeriph_Driver/src/stm32f4xx_flash.c ****   *       
 409:../Shared/Libraries/STM32F4xx_StdPeriph_Driver/src/stm32f4xx_flash.c ****   * @retval FLASH Status: The returned value can be: FLASH_BUSY, FLASH_ERROR_PROGRAM,
 410:../Shared/Libraries/STM32F4xx_StdPeriph_Driver/src/stm32f4xx_flash.c ****   *                       FLASH_ERROR_WRP, FLASH_ERROR_OPERATION or FLASH_COMPLETE.
 411:../Shared/Libraries/STM32F4xx_StdPeriph_Driver/src/stm32f4xx_flash.c ****   */
 412:../Shared/Libraries/STM32F4xx_StdPeriph_Driver/src/stm32f4xx_flash.c **** FLASH_Status FLASH_EraseAllSectors(uint8_t VoltageRange)
 413:../Shared/Libraries/STM32F4xx_StdPeriph_Driver/src/stm32f4xx_flash.c **** {
 635              		.loc 1 413 1
 636              		.cfi_startproc
 637              		@ args = 0, pretend = 0, frame = 16
 638              		@ frame_needed = 1, uses_anonymous_args = 0
 639 0000 80B5     		push	{r7, lr}
 640              	.LCFI45:
 641              		.cfi_def_cfa_offset 8
 642              		.cfi_offset 7, -8
 643              		.cfi_offset 14, -4
 644 0002 84B0     		sub	sp, sp, #16
 645              	.LCFI46:
 646              		.cfi_def_cfa_offset 24
 647 0004 00AF     		add	r7, sp, #0
 648              	.LCFI47:
 649              		.cfi_def_cfa_register 7
 650 0006 0346     		mov	r3, r0
 651 0008 FB71     		strb	r3, [r7, #7]
 414:../Shared/Libraries/STM32F4xx_StdPeriph_Driver/src/stm32f4xx_flash.c ****   uint32_t tmp_psize = 0x0;
 652              		.loc 1 414 12
 653 000a 0023     		movs	r3, #0
 654 000c FB60     		str	r3, [r7, #12]
 415:../Shared/Libraries/STM32F4xx_StdPeriph_Driver/src/stm32f4xx_flash.c ****   FLASH_Status status = FLASH_COMPLETE;
 655              		.loc 1 415 16
 656 000e 0823     		movs	r3, #8
 657 0010 FB72     		strb	r3, [r7, #11]
 416:../Shared/Libraries/STM32F4xx_StdPeriph_Driver/src/stm32f4xx_flash.c ****   
 417:../Shared/Libraries/STM32F4xx_StdPeriph_Driver/src/stm32f4xx_flash.c ****   /* Wait for last operation to be completed */
 418:../Shared/Libraries/STM32F4xx_StdPeriph_Driver/src/stm32f4xx_flash.c ****   status = FLASH_WaitForLastOperation();
 658              		.loc 1 418 12
 659 0012 FFF7FEFF 		bl	FLASH_WaitForLastOperation
 660 0016 0346     		mov	r3, r0
 661 0018 FB72     		strb	r3, [r7, #11]
 419:../Shared/Libraries/STM32F4xx_StdPeriph_Driver/src/stm32f4xx_flash.c ****   assert_param(IS_VOLTAGERANGE(VoltageRange));
 420:../Shared/Libraries/STM32F4xx_StdPeriph_Driver/src/stm32f4xx_flash.c ****   
 421:../Shared/Libraries/STM32F4xx_StdPeriph_Driver/src/stm32f4xx_flash.c ****   if(VoltageRange == VoltageRange_1)
 662              		.loc 1 421 5
 663 001a FB79     		ldrb	r3, [r7, #7]	@ zero_extendqisi2
 664 001c 002B     		cmp	r3, #0
 665 001e 02D1     		bne	.L46
 422:../Shared/Libraries/STM32F4xx_StdPeriph_Driver/src/stm32f4xx_flash.c ****   {
 423:../Shared/Libraries/STM32F4xx_StdPeriph_Driver/src/stm32f4xx_flash.c ****      tmp_psize = FLASH_PSIZE_BYTE;
 666              		.loc 1 423 16
 667 0020 0023     		movs	r3, #0
 668 0022 FB60     		str	r3, [r7, #12]
 669 0024 10E0     		b	.L47
 670              	.L46:
 424:../Shared/Libraries/STM32F4xx_StdPeriph_Driver/src/stm32f4xx_flash.c ****   }
 425:../Shared/Libraries/STM32F4xx_StdPeriph_Driver/src/stm32f4xx_flash.c ****   else if(VoltageRange == VoltageRange_2)
 671              		.loc 1 425 10
ARM GAS  /tmp/ccBoElqq.s 			page 20


 672 0026 FB79     		ldrb	r3, [r7, #7]	@ zero_extendqisi2
 673 0028 012B     		cmp	r3, #1
 674 002a 03D1     		bne	.L48
 426:../Shared/Libraries/STM32F4xx_StdPeriph_Driver/src/stm32f4xx_flash.c ****   {
 427:../Shared/Libraries/STM32F4xx_StdPeriph_Driver/src/stm32f4xx_flash.c ****     tmp_psize = FLASH_PSIZE_HALF_WORD;
 675              		.loc 1 427 15
 676 002c 4FF48073 		mov	r3, #256
 677 0030 FB60     		str	r3, [r7, #12]
 678 0032 09E0     		b	.L47
 679              	.L48:
 428:../Shared/Libraries/STM32F4xx_StdPeriph_Driver/src/stm32f4xx_flash.c ****   }
 429:../Shared/Libraries/STM32F4xx_StdPeriph_Driver/src/stm32f4xx_flash.c ****   else if(VoltageRange == VoltageRange_3)
 680              		.loc 1 429 10
 681 0034 FB79     		ldrb	r3, [r7, #7]	@ zero_extendqisi2
 682 0036 022B     		cmp	r3, #2
 683 0038 03D1     		bne	.L49
 430:../Shared/Libraries/STM32F4xx_StdPeriph_Driver/src/stm32f4xx_flash.c ****   {
 431:../Shared/Libraries/STM32F4xx_StdPeriph_Driver/src/stm32f4xx_flash.c ****     tmp_psize = FLASH_PSIZE_WORD;
 684              		.loc 1 431 15
 685 003a 4FF40073 		mov	r3, #512
 686 003e FB60     		str	r3, [r7, #12]
 687 0040 02E0     		b	.L47
 688              	.L49:
 432:../Shared/Libraries/STM32F4xx_StdPeriph_Driver/src/stm32f4xx_flash.c ****   }
 433:../Shared/Libraries/STM32F4xx_StdPeriph_Driver/src/stm32f4xx_flash.c ****   else
 434:../Shared/Libraries/STM32F4xx_StdPeriph_Driver/src/stm32f4xx_flash.c ****   {
 435:../Shared/Libraries/STM32F4xx_StdPeriph_Driver/src/stm32f4xx_flash.c ****     tmp_psize = FLASH_PSIZE_DOUBLE_WORD;
 689              		.loc 1 435 15
 690 0042 4FF44073 		mov	r3, #768
 691 0046 FB60     		str	r3, [r7, #12]
 692              	.L47:
 436:../Shared/Libraries/STM32F4xx_StdPeriph_Driver/src/stm32f4xx_flash.c ****   }  
 437:../Shared/Libraries/STM32F4xx_StdPeriph_Driver/src/stm32f4xx_flash.c ****   if(status == FLASH_COMPLETE)
 693              		.loc 1 437 5
 694 0048 FB7A     		ldrb	r3, [r7, #11]	@ zero_extendqisi2
 695 004a 082B     		cmp	r3, #8
 696 004c 21D1     		bne	.L50
 438:../Shared/Libraries/STM32F4xx_StdPeriph_Driver/src/stm32f4xx_flash.c ****   {
 439:../Shared/Libraries/STM32F4xx_StdPeriph_Driver/src/stm32f4xx_flash.c ****     /* if the previous operation is completed, proceed to erase all sectors */
 440:../Shared/Libraries/STM32F4xx_StdPeriph_Driver/src/stm32f4xx_flash.c ****      FLASH->CR &= CR_PSIZE_MASK;
 697              		.loc 1 440 11
 698 004e 134B     		ldr	r3, .L52
 699 0050 1B69     		ldr	r3, [r3, #16]
 700 0052 124A     		ldr	r2, .L52
 701              		.loc 1 440 16
 702 0054 23F44073 		bic	r3, r3, #768
 703 0058 1361     		str	r3, [r2, #16]
 441:../Shared/Libraries/STM32F4xx_StdPeriph_Driver/src/stm32f4xx_flash.c ****      FLASH->CR |= tmp_psize;
 704              		.loc 1 441 11
 705 005a 104B     		ldr	r3, .L52
 706 005c 1A69     		ldr	r2, [r3, #16]
 707 005e 0F49     		ldr	r1, .L52
 708              		.loc 1 441 16
 709 0060 FB68     		ldr	r3, [r7, #12]
 710 0062 1343     		orrs	r3, r3, r2
 711 0064 0B61     		str	r3, [r1, #16]
 442:../Shared/Libraries/STM32F4xx_StdPeriph_Driver/src/stm32f4xx_flash.c ****      FLASH->CR |= FLASH_CR_MER;
ARM GAS  /tmp/ccBoElqq.s 			page 21


 712              		.loc 1 442 11
 713 0066 0D4B     		ldr	r3, .L52
 714 0068 1B69     		ldr	r3, [r3, #16]
 715 006a 0C4A     		ldr	r2, .L52
 716              		.loc 1 442 16
 717 006c 43F00403 		orr	r3, r3, #4
 718 0070 1361     		str	r3, [r2, #16]
 443:../Shared/Libraries/STM32F4xx_StdPeriph_Driver/src/stm32f4xx_flash.c ****      FLASH->CR |= FLASH_CR_STRT;
 719              		.loc 1 443 11
 720 0072 0A4B     		ldr	r3, .L52
 721 0074 1B69     		ldr	r3, [r3, #16]
 722 0076 094A     		ldr	r2, .L52
 723              		.loc 1 443 16
 724 0078 43F48033 		orr	r3, r3, #65536
 725 007c 1361     		str	r3, [r2, #16]
 444:../Shared/Libraries/STM32F4xx_StdPeriph_Driver/src/stm32f4xx_flash.c ****     
 445:../Shared/Libraries/STM32F4xx_StdPeriph_Driver/src/stm32f4xx_flash.c ****     /* Wait for last operation to be completed */
 446:../Shared/Libraries/STM32F4xx_StdPeriph_Driver/src/stm32f4xx_flash.c ****     status = FLASH_WaitForLastOperation();
 726              		.loc 1 446 14
 727 007e FFF7FEFF 		bl	FLASH_WaitForLastOperation
 728 0082 0346     		mov	r3, r0
 729 0084 FB72     		strb	r3, [r7, #11]
 447:../Shared/Libraries/STM32F4xx_StdPeriph_Driver/src/stm32f4xx_flash.c **** 
 448:../Shared/Libraries/STM32F4xx_StdPeriph_Driver/src/stm32f4xx_flash.c ****     /* if the erase operation is completed, disable the MER Bit */
 449:../Shared/Libraries/STM32F4xx_StdPeriph_Driver/src/stm32f4xx_flash.c ****     FLASH->CR &= (~FLASH_CR_MER);
 730              		.loc 1 449 10
 731 0086 054B     		ldr	r3, .L52
 732 0088 1B69     		ldr	r3, [r3, #16]
 733 008a 044A     		ldr	r2, .L52
 734              		.loc 1 449 15
 735 008c 23F00403 		bic	r3, r3, #4
 736 0090 1361     		str	r3, [r2, #16]
 737              	.L50:
 450:../Shared/Libraries/STM32F4xx_StdPeriph_Driver/src/stm32f4xx_flash.c **** 
 451:../Shared/Libraries/STM32F4xx_StdPeriph_Driver/src/stm32f4xx_flash.c ****   }   
 452:../Shared/Libraries/STM32F4xx_StdPeriph_Driver/src/stm32f4xx_flash.c ****   /* Return the Erase Status */
 453:../Shared/Libraries/STM32F4xx_StdPeriph_Driver/src/stm32f4xx_flash.c ****   return status;
 738              		.loc 1 453 10
 739 0092 FB7A     		ldrb	r3, [r7, #11]	@ zero_extendqisi2
 454:../Shared/Libraries/STM32F4xx_StdPeriph_Driver/src/stm32f4xx_flash.c **** }
 740              		.loc 1 454 1
 741 0094 1846     		mov	r0, r3
 742 0096 1037     		adds	r7, r7, #16
 743              	.LCFI48:
 744              		.cfi_def_cfa_offset 8
 745 0098 BD46     		mov	sp, r7
 746              	.LCFI49:
 747              		.cfi_def_cfa_register 13
 748              		@ sp needed
 749 009a 80BD     		pop	{r7, pc}
 750              	.L53:
 751              		.align	2
 752              	.L52:
 753 009c 003C0240 		.word	1073888256
 754              		.cfi_endproc
 755              	.LFE119:
 757              		.section	.text.FLASH_ProgramDoubleWord,"ax",%progbits
ARM GAS  /tmp/ccBoElqq.s 			page 22


 758              		.align	1
 759              		.global	FLASH_ProgramDoubleWord
 760              		.syntax unified
 761              		.thumb
 762              		.thumb_func
 764              	FLASH_ProgramDoubleWord:
 765              	.LFB120:
 455:../Shared/Libraries/STM32F4xx_StdPeriph_Driver/src/stm32f4xx_flash.c **** 
 456:../Shared/Libraries/STM32F4xx_StdPeriph_Driver/src/stm32f4xx_flash.c **** /**
 457:../Shared/Libraries/STM32F4xx_StdPeriph_Driver/src/stm32f4xx_flash.c ****   * @brief  Programs a double word (64-bit) at a specified address.
 458:../Shared/Libraries/STM32F4xx_StdPeriph_Driver/src/stm32f4xx_flash.c ****   * @note   This function must be used when the device voltage range is from
 459:../Shared/Libraries/STM32F4xx_StdPeriph_Driver/src/stm32f4xx_flash.c ****   *         2.7V to 3.6V and an External Vpp is present.           
 460:../Shared/Libraries/STM32F4xx_StdPeriph_Driver/src/stm32f4xx_flash.c ****   * @param  Address: specifies the address to be programmed.
 461:../Shared/Libraries/STM32F4xx_StdPeriph_Driver/src/stm32f4xx_flash.c ****   * @param  Data: specifies the data to be programmed.
 462:../Shared/Libraries/STM32F4xx_StdPeriph_Driver/src/stm32f4xx_flash.c ****   * @retval FLASH Status: The returned value can be: FLASH_BUSY, FLASH_ERROR_PROGRAM,
 463:../Shared/Libraries/STM32F4xx_StdPeriph_Driver/src/stm32f4xx_flash.c ****   *                       FLASH_ERROR_WRP, FLASH_ERROR_OPERATION or FLASH_COMPLETE.
 464:../Shared/Libraries/STM32F4xx_StdPeriph_Driver/src/stm32f4xx_flash.c ****   */
 465:../Shared/Libraries/STM32F4xx_StdPeriph_Driver/src/stm32f4xx_flash.c **** FLASH_Status FLASH_ProgramDoubleWord(uint32_t Address, uint64_t Data)
 466:../Shared/Libraries/STM32F4xx_StdPeriph_Driver/src/stm32f4xx_flash.c **** {
 766              		.loc 1 466 1
 767              		.cfi_startproc
 768              		@ args = 0, pretend = 0, frame = 24
 769              		@ frame_needed = 1, uses_anonymous_args = 0
 770 0000 80B5     		push	{r7, lr}
 771              	.LCFI50:
 772              		.cfi_def_cfa_offset 8
 773              		.cfi_offset 7, -8
 774              		.cfi_offset 14, -4
 775 0002 86B0     		sub	sp, sp, #24
 776              	.LCFI51:
 777              		.cfi_def_cfa_offset 32
 778 0004 00AF     		add	r7, sp, #0
 779              	.LCFI52:
 780              		.cfi_def_cfa_register 7
 781 0006 F860     		str	r0, [r7, #12]
 782 0008 C7E90023 		strd	r2, [r7]
 467:../Shared/Libraries/STM32F4xx_StdPeriph_Driver/src/stm32f4xx_flash.c ****   FLASH_Status status = FLASH_COMPLETE;
 783              		.loc 1 467 16
 784 000c 0823     		movs	r3, #8
 785 000e FB75     		strb	r3, [r7, #23]
 468:../Shared/Libraries/STM32F4xx_StdPeriph_Driver/src/stm32f4xx_flash.c **** 
 469:../Shared/Libraries/STM32F4xx_StdPeriph_Driver/src/stm32f4xx_flash.c ****   /* Check the parameters */
 470:../Shared/Libraries/STM32F4xx_StdPeriph_Driver/src/stm32f4xx_flash.c ****   assert_param(IS_FLASH_ADDRESS(Address));
 471:../Shared/Libraries/STM32F4xx_StdPeriph_Driver/src/stm32f4xx_flash.c **** 
 472:../Shared/Libraries/STM32F4xx_StdPeriph_Driver/src/stm32f4xx_flash.c ****   /* Wait for last operation to be completed */
 473:../Shared/Libraries/STM32F4xx_StdPeriph_Driver/src/stm32f4xx_flash.c ****   status = FLASH_WaitForLastOperation();
 786              		.loc 1 473 12
 787 0010 FFF7FEFF 		bl	FLASH_WaitForLastOperation
 788 0014 0346     		mov	r3, r0
 789 0016 FB75     		strb	r3, [r7, #23]
 474:../Shared/Libraries/STM32F4xx_StdPeriph_Driver/src/stm32f4xx_flash.c ****   
 475:../Shared/Libraries/STM32F4xx_StdPeriph_Driver/src/stm32f4xx_flash.c ****   if(status == FLASH_COMPLETE)
 790              		.loc 1 475 5
 791 0018 FB7D     		ldrb	r3, [r7, #23]	@ zero_extendqisi2
 792 001a 082B     		cmp	r3, #8
 793 001c 20D1     		bne	.L55
 476:../Shared/Libraries/STM32F4xx_StdPeriph_Driver/src/stm32f4xx_flash.c ****   {
ARM GAS  /tmp/ccBoElqq.s 			page 23


 477:../Shared/Libraries/STM32F4xx_StdPeriph_Driver/src/stm32f4xx_flash.c ****     /* if the previous operation is completed, proceed to program the new data */
 478:../Shared/Libraries/STM32F4xx_StdPeriph_Driver/src/stm32f4xx_flash.c ****     FLASH->CR &= CR_PSIZE_MASK;
 794              		.loc 1 478 10
 795 001e 134B     		ldr	r3, .L57
 796 0020 1B69     		ldr	r3, [r3, #16]
 797 0022 124A     		ldr	r2, .L57
 798              		.loc 1 478 15
 799 0024 23F44073 		bic	r3, r3, #768
 800 0028 1361     		str	r3, [r2, #16]
 479:../Shared/Libraries/STM32F4xx_StdPeriph_Driver/src/stm32f4xx_flash.c ****     FLASH->CR |= FLASH_PSIZE_DOUBLE_WORD;
 801              		.loc 1 479 10
 802 002a 104B     		ldr	r3, .L57
 803 002c 1B69     		ldr	r3, [r3, #16]
 804 002e 0F4A     		ldr	r2, .L57
 805              		.loc 1 479 15
 806 0030 43F44073 		orr	r3, r3, #768
 807 0034 1361     		str	r3, [r2, #16]
 480:../Shared/Libraries/STM32F4xx_StdPeriph_Driver/src/stm32f4xx_flash.c ****     FLASH->CR |= FLASH_CR_PG;
 808              		.loc 1 480 10
 809 0036 0D4B     		ldr	r3, .L57
 810 0038 1B69     		ldr	r3, [r3, #16]
 811 003a 0C4A     		ldr	r2, .L57
 812              		.loc 1 480 15
 813 003c 43F00103 		orr	r3, r3, #1
 814 0040 1361     		str	r3, [r2, #16]
 481:../Shared/Libraries/STM32F4xx_StdPeriph_Driver/src/stm32f4xx_flash.c ****   
 482:../Shared/Libraries/STM32F4xx_StdPeriph_Driver/src/stm32f4xx_flash.c ****     *(__IO uint64_t*)Address = Data;
 815              		.loc 1 482 6
 816 0042 F968     		ldr	r1, [r7, #12]
 817              		.loc 1 482 30
 818 0044 D7E90023 		ldrd	r2, [r7]
 819 0048 C1E90023 		strd	r2, [r1]
 483:../Shared/Libraries/STM32F4xx_StdPeriph_Driver/src/stm32f4xx_flash.c ****         
 484:../Shared/Libraries/STM32F4xx_StdPeriph_Driver/src/stm32f4xx_flash.c ****     /* Wait for last operation to be completed */
 485:../Shared/Libraries/STM32F4xx_StdPeriph_Driver/src/stm32f4xx_flash.c ****     status = FLASH_WaitForLastOperation();
 820              		.loc 1 485 14
 821 004c FFF7FEFF 		bl	FLASH_WaitForLastOperation
 822 0050 0346     		mov	r3, r0
 823 0052 FB75     		strb	r3, [r7, #23]
 486:../Shared/Libraries/STM32F4xx_StdPeriph_Driver/src/stm32f4xx_flash.c **** 
 487:../Shared/Libraries/STM32F4xx_StdPeriph_Driver/src/stm32f4xx_flash.c ****     /* if the program operation is completed, disable the PG Bit */
 488:../Shared/Libraries/STM32F4xx_StdPeriph_Driver/src/stm32f4xx_flash.c ****     FLASH->CR &= (~FLASH_CR_PG);
 824              		.loc 1 488 10
 825 0054 054B     		ldr	r3, .L57
 826 0056 1B69     		ldr	r3, [r3, #16]
 827 0058 044A     		ldr	r2, .L57
 828              		.loc 1 488 15
 829 005a 23F00103 		bic	r3, r3, #1
 830 005e 1361     		str	r3, [r2, #16]
 831              	.L55:
 489:../Shared/Libraries/STM32F4xx_StdPeriph_Driver/src/stm32f4xx_flash.c ****   } 
 490:../Shared/Libraries/STM32F4xx_StdPeriph_Driver/src/stm32f4xx_flash.c ****   /* Return the Program Status */
 491:../Shared/Libraries/STM32F4xx_StdPeriph_Driver/src/stm32f4xx_flash.c ****   return status;
 832              		.loc 1 491 10
 833 0060 FB7D     		ldrb	r3, [r7, #23]	@ zero_extendqisi2
 492:../Shared/Libraries/STM32F4xx_StdPeriph_Driver/src/stm32f4xx_flash.c **** }
 834              		.loc 1 492 1
ARM GAS  /tmp/ccBoElqq.s 			page 24


 835 0062 1846     		mov	r0, r3
 836 0064 1837     		adds	r7, r7, #24
 837              	.LCFI53:
 838              		.cfi_def_cfa_offset 8
 839 0066 BD46     		mov	sp, r7
 840              	.LCFI54:
 841              		.cfi_def_cfa_register 13
 842              		@ sp needed
 843 0068 80BD     		pop	{r7, pc}
 844              	.L58:
 845 006a 00BF     		.align	2
 846              	.L57:
 847 006c 003C0240 		.word	1073888256
 848              		.cfi_endproc
 849              	.LFE120:
 851              		.section	.text.FLASH_ProgramWord,"ax",%progbits
 852              		.align	1
 853              		.global	FLASH_ProgramWord
 854              		.syntax unified
 855              		.thumb
 856              		.thumb_func
 858              	FLASH_ProgramWord:
 859              	.LFB121:
 493:../Shared/Libraries/STM32F4xx_StdPeriph_Driver/src/stm32f4xx_flash.c **** 
 494:../Shared/Libraries/STM32F4xx_StdPeriph_Driver/src/stm32f4xx_flash.c **** /**
 495:../Shared/Libraries/STM32F4xx_StdPeriph_Driver/src/stm32f4xx_flash.c ****   * @brief  Programs a word (32-bit) at a specified address.
 496:../Shared/Libraries/STM32F4xx_StdPeriph_Driver/src/stm32f4xx_flash.c ****   * @param  Address: specifies the address to be programmed.
 497:../Shared/Libraries/STM32F4xx_StdPeriph_Driver/src/stm32f4xx_flash.c ****   *         This parameter can be any address in Program memory zone or in OTP zone.  
 498:../Shared/Libraries/STM32F4xx_StdPeriph_Driver/src/stm32f4xx_flash.c ****   * @note   This function must be used when the device voltage range is from 2.7V to 3.6V. 
 499:../Shared/Libraries/STM32F4xx_StdPeriph_Driver/src/stm32f4xx_flash.c ****   * @param  Data: specifies the data to be programmed.
 500:../Shared/Libraries/STM32F4xx_StdPeriph_Driver/src/stm32f4xx_flash.c ****   * @retval FLASH Status: The returned value can be: FLASH_BUSY, FLASH_ERROR_PROGRAM,
 501:../Shared/Libraries/STM32F4xx_StdPeriph_Driver/src/stm32f4xx_flash.c ****   *                       FLASH_ERROR_WRP, FLASH_ERROR_OPERATION or FLASH_COMPLETE.
 502:../Shared/Libraries/STM32F4xx_StdPeriph_Driver/src/stm32f4xx_flash.c ****   */
 503:../Shared/Libraries/STM32F4xx_StdPeriph_Driver/src/stm32f4xx_flash.c **** FLASH_Status FLASH_ProgramWord(uint32_t Address, uint32_t Data)
 504:../Shared/Libraries/STM32F4xx_StdPeriph_Driver/src/stm32f4xx_flash.c **** {
 860              		.loc 1 504 1
 861              		.cfi_startproc
 862              		@ args = 0, pretend = 0, frame = 16
 863              		@ frame_needed = 1, uses_anonymous_args = 0
 864 0000 80B5     		push	{r7, lr}
 865              	.LCFI55:
 866              		.cfi_def_cfa_offset 8
 867              		.cfi_offset 7, -8
 868              		.cfi_offset 14, -4
 869 0002 84B0     		sub	sp, sp, #16
 870              	.LCFI56:
 871              		.cfi_def_cfa_offset 24
 872 0004 00AF     		add	r7, sp, #0
 873              	.LCFI57:
 874              		.cfi_def_cfa_register 7
 875 0006 7860     		str	r0, [r7, #4]
 876 0008 3960     		str	r1, [r7]
 505:../Shared/Libraries/STM32F4xx_StdPeriph_Driver/src/stm32f4xx_flash.c ****   FLASH_Status status = FLASH_COMPLETE;
 877              		.loc 1 505 16
 878 000a 0823     		movs	r3, #8
 879 000c FB73     		strb	r3, [r7, #15]
 506:../Shared/Libraries/STM32F4xx_StdPeriph_Driver/src/stm32f4xx_flash.c **** 
ARM GAS  /tmp/ccBoElqq.s 			page 25


 507:../Shared/Libraries/STM32F4xx_StdPeriph_Driver/src/stm32f4xx_flash.c ****   /* Check the parameters */
 508:../Shared/Libraries/STM32F4xx_StdPeriph_Driver/src/stm32f4xx_flash.c ****   assert_param(IS_FLASH_ADDRESS(Address));
 509:../Shared/Libraries/STM32F4xx_StdPeriph_Driver/src/stm32f4xx_flash.c **** 
 510:../Shared/Libraries/STM32F4xx_StdPeriph_Driver/src/stm32f4xx_flash.c ****   /* Wait for last operation to be completed */
 511:../Shared/Libraries/STM32F4xx_StdPeriph_Driver/src/stm32f4xx_flash.c ****   status = FLASH_WaitForLastOperation();
 880              		.loc 1 511 12
 881 000e FFF7FEFF 		bl	FLASH_WaitForLastOperation
 882 0012 0346     		mov	r3, r0
 883 0014 FB73     		strb	r3, [r7, #15]
 512:../Shared/Libraries/STM32F4xx_StdPeriph_Driver/src/stm32f4xx_flash.c ****   
 513:../Shared/Libraries/STM32F4xx_StdPeriph_Driver/src/stm32f4xx_flash.c ****   if(status == FLASH_COMPLETE)
 884              		.loc 1 513 5
 885 0016 FB7B     		ldrb	r3, [r7, #15]	@ zero_extendqisi2
 886 0018 082B     		cmp	r3, #8
 887 001a 1ED1     		bne	.L60
 514:../Shared/Libraries/STM32F4xx_StdPeriph_Driver/src/stm32f4xx_flash.c ****   {
 515:../Shared/Libraries/STM32F4xx_StdPeriph_Driver/src/stm32f4xx_flash.c ****     /* if the previous operation is completed, proceed to program the new data */
 516:../Shared/Libraries/STM32F4xx_StdPeriph_Driver/src/stm32f4xx_flash.c ****     FLASH->CR &= CR_PSIZE_MASK;
 888              		.loc 1 516 10
 889 001c 114B     		ldr	r3, .L62
 890 001e 1B69     		ldr	r3, [r3, #16]
 891 0020 104A     		ldr	r2, .L62
 892              		.loc 1 516 15
 893 0022 23F44073 		bic	r3, r3, #768
 894 0026 1361     		str	r3, [r2, #16]
 517:../Shared/Libraries/STM32F4xx_StdPeriph_Driver/src/stm32f4xx_flash.c ****     FLASH->CR |= FLASH_PSIZE_WORD;
 895              		.loc 1 517 10
 896 0028 0E4B     		ldr	r3, .L62
 897 002a 1B69     		ldr	r3, [r3, #16]
 898 002c 0D4A     		ldr	r2, .L62
 899              		.loc 1 517 15
 900 002e 43F40073 		orr	r3, r3, #512
 901 0032 1361     		str	r3, [r2, #16]
 518:../Shared/Libraries/STM32F4xx_StdPeriph_Driver/src/stm32f4xx_flash.c ****     FLASH->CR |= FLASH_CR_PG;
 902              		.loc 1 518 10
 903 0034 0B4B     		ldr	r3, .L62
 904 0036 1B69     		ldr	r3, [r3, #16]
 905 0038 0A4A     		ldr	r2, .L62
 906              		.loc 1 518 15
 907 003a 43F00103 		orr	r3, r3, #1
 908 003e 1361     		str	r3, [r2, #16]
 519:../Shared/Libraries/STM32F4xx_StdPeriph_Driver/src/stm32f4xx_flash.c ****   
 520:../Shared/Libraries/STM32F4xx_StdPeriph_Driver/src/stm32f4xx_flash.c ****     *(__IO uint32_t*)Address = Data;
 909              		.loc 1 520 6
 910 0040 7B68     		ldr	r3, [r7, #4]
 911              		.loc 1 520 30
 912 0042 3A68     		ldr	r2, [r7]
 913 0044 1A60     		str	r2, [r3]
 521:../Shared/Libraries/STM32F4xx_StdPeriph_Driver/src/stm32f4xx_flash.c ****         
 522:../Shared/Libraries/STM32F4xx_StdPeriph_Driver/src/stm32f4xx_flash.c ****     /* Wait for last operation to be completed */
 523:../Shared/Libraries/STM32F4xx_StdPeriph_Driver/src/stm32f4xx_flash.c ****     status = FLASH_WaitForLastOperation();
 914              		.loc 1 523 14
 915 0046 FFF7FEFF 		bl	FLASH_WaitForLastOperation
 916 004a 0346     		mov	r3, r0
 917 004c FB73     		strb	r3, [r7, #15]
 524:../Shared/Libraries/STM32F4xx_StdPeriph_Driver/src/stm32f4xx_flash.c **** 
 525:../Shared/Libraries/STM32F4xx_StdPeriph_Driver/src/stm32f4xx_flash.c ****     /* if the program operation is completed, disable the PG Bit */
ARM GAS  /tmp/ccBoElqq.s 			page 26


 526:../Shared/Libraries/STM32F4xx_StdPeriph_Driver/src/stm32f4xx_flash.c ****     FLASH->CR &= (~FLASH_CR_PG);
 918              		.loc 1 526 10
 919 004e 054B     		ldr	r3, .L62
 920 0050 1B69     		ldr	r3, [r3, #16]
 921 0052 044A     		ldr	r2, .L62
 922              		.loc 1 526 15
 923 0054 23F00103 		bic	r3, r3, #1
 924 0058 1361     		str	r3, [r2, #16]
 925              	.L60:
 527:../Shared/Libraries/STM32F4xx_StdPeriph_Driver/src/stm32f4xx_flash.c ****   } 
 528:../Shared/Libraries/STM32F4xx_StdPeriph_Driver/src/stm32f4xx_flash.c ****   /* Return the Program Status */
 529:../Shared/Libraries/STM32F4xx_StdPeriph_Driver/src/stm32f4xx_flash.c ****   return status;
 926              		.loc 1 529 10
 927 005a FB7B     		ldrb	r3, [r7, #15]	@ zero_extendqisi2
 530:../Shared/Libraries/STM32F4xx_StdPeriph_Driver/src/stm32f4xx_flash.c **** }
 928              		.loc 1 530 1
 929 005c 1846     		mov	r0, r3
 930 005e 1037     		adds	r7, r7, #16
 931              	.LCFI58:
 932              		.cfi_def_cfa_offset 8
 933 0060 BD46     		mov	sp, r7
 934              	.LCFI59:
 935              		.cfi_def_cfa_register 13
 936              		@ sp needed
 937 0062 80BD     		pop	{r7, pc}
 938              	.L63:
 939              		.align	2
 940              	.L62:
 941 0064 003C0240 		.word	1073888256
 942              		.cfi_endproc
 943              	.LFE121:
 945              		.section	.text.FLASH_ProgramHalfWord,"ax",%progbits
 946              		.align	1
 947              		.global	FLASH_ProgramHalfWord
 948              		.syntax unified
 949              		.thumb
 950              		.thumb_func
 952              	FLASH_ProgramHalfWord:
 953              	.LFB122:
 531:../Shared/Libraries/STM32F4xx_StdPeriph_Driver/src/stm32f4xx_flash.c **** 
 532:../Shared/Libraries/STM32F4xx_StdPeriph_Driver/src/stm32f4xx_flash.c **** /**
 533:../Shared/Libraries/STM32F4xx_StdPeriph_Driver/src/stm32f4xx_flash.c ****   * @brief  Programs a half word (16-bit) at a specified address. 
 534:../Shared/Libraries/STM32F4xx_StdPeriph_Driver/src/stm32f4xx_flash.c ****   * @note   This function must be used when the device voltage range is from 2.1V to 3.6V.         
 535:../Shared/Libraries/STM32F4xx_StdPeriph_Driver/src/stm32f4xx_flash.c ****   * @param  Address: specifies the address to be programmed.
 536:../Shared/Libraries/STM32F4xx_StdPeriph_Driver/src/stm32f4xx_flash.c ****   *         This parameter can be any address in Program memory zone or in OTP zone.  
 537:../Shared/Libraries/STM32F4xx_StdPeriph_Driver/src/stm32f4xx_flash.c ****   * @param  Data: specifies the data to be programmed.
 538:../Shared/Libraries/STM32F4xx_StdPeriph_Driver/src/stm32f4xx_flash.c ****   * @retval FLASH Status: The returned value can be: FLASH_BUSY, FLASH_ERROR_PROGRAM,
 539:../Shared/Libraries/STM32F4xx_StdPeriph_Driver/src/stm32f4xx_flash.c ****   *                       FLASH_ERROR_WRP, FLASH_ERROR_OPERATION or FLASH_COMPLETE.
 540:../Shared/Libraries/STM32F4xx_StdPeriph_Driver/src/stm32f4xx_flash.c ****   */
 541:../Shared/Libraries/STM32F4xx_StdPeriph_Driver/src/stm32f4xx_flash.c **** FLASH_Status FLASH_ProgramHalfWord(uint32_t Address, uint16_t Data)
 542:../Shared/Libraries/STM32F4xx_StdPeriph_Driver/src/stm32f4xx_flash.c **** {
 954              		.loc 1 542 1
 955              		.cfi_startproc
 956              		@ args = 0, pretend = 0, frame = 16
 957              		@ frame_needed = 1, uses_anonymous_args = 0
 958 0000 80B5     		push	{r7, lr}
 959              	.LCFI60:
ARM GAS  /tmp/ccBoElqq.s 			page 27


 960              		.cfi_def_cfa_offset 8
 961              		.cfi_offset 7, -8
 962              		.cfi_offset 14, -4
 963 0002 84B0     		sub	sp, sp, #16
 964              	.LCFI61:
 965              		.cfi_def_cfa_offset 24
 966 0004 00AF     		add	r7, sp, #0
 967              	.LCFI62:
 968              		.cfi_def_cfa_register 7
 969 0006 7860     		str	r0, [r7, #4]
 970 0008 0B46     		mov	r3, r1
 971 000a 7B80     		strh	r3, [r7, #2]	@ movhi
 543:../Shared/Libraries/STM32F4xx_StdPeriph_Driver/src/stm32f4xx_flash.c ****   FLASH_Status status = FLASH_COMPLETE;
 972              		.loc 1 543 16
 973 000c 0823     		movs	r3, #8
 974 000e FB73     		strb	r3, [r7, #15]
 544:../Shared/Libraries/STM32F4xx_StdPeriph_Driver/src/stm32f4xx_flash.c **** 
 545:../Shared/Libraries/STM32F4xx_StdPeriph_Driver/src/stm32f4xx_flash.c ****   /* Check the parameters */
 546:../Shared/Libraries/STM32F4xx_StdPeriph_Driver/src/stm32f4xx_flash.c ****   assert_param(IS_FLASH_ADDRESS(Address));
 547:../Shared/Libraries/STM32F4xx_StdPeriph_Driver/src/stm32f4xx_flash.c **** 
 548:../Shared/Libraries/STM32F4xx_StdPeriph_Driver/src/stm32f4xx_flash.c ****   /* Wait for last operation to be completed */
 549:../Shared/Libraries/STM32F4xx_StdPeriph_Driver/src/stm32f4xx_flash.c ****   status = FLASH_WaitForLastOperation();
 975              		.loc 1 549 12
 976 0010 FFF7FEFF 		bl	FLASH_WaitForLastOperation
 977 0014 0346     		mov	r3, r0
 978 0016 FB73     		strb	r3, [r7, #15]
 550:../Shared/Libraries/STM32F4xx_StdPeriph_Driver/src/stm32f4xx_flash.c ****   
 551:../Shared/Libraries/STM32F4xx_StdPeriph_Driver/src/stm32f4xx_flash.c ****   if(status == FLASH_COMPLETE)
 979              		.loc 1 551 5
 980 0018 FB7B     		ldrb	r3, [r7, #15]	@ zero_extendqisi2
 981 001a 082B     		cmp	r3, #8
 982 001c 1ED1     		bne	.L65
 552:../Shared/Libraries/STM32F4xx_StdPeriph_Driver/src/stm32f4xx_flash.c ****   {
 553:../Shared/Libraries/STM32F4xx_StdPeriph_Driver/src/stm32f4xx_flash.c ****     /* if the previous operation is completed, proceed to program the new data */
 554:../Shared/Libraries/STM32F4xx_StdPeriph_Driver/src/stm32f4xx_flash.c ****     FLASH->CR &= CR_PSIZE_MASK;
 983              		.loc 1 554 10
 984 001e 124B     		ldr	r3, .L67
 985 0020 1B69     		ldr	r3, [r3, #16]
 986 0022 114A     		ldr	r2, .L67
 987              		.loc 1 554 15
 988 0024 23F44073 		bic	r3, r3, #768
 989 0028 1361     		str	r3, [r2, #16]
 555:../Shared/Libraries/STM32F4xx_StdPeriph_Driver/src/stm32f4xx_flash.c ****     FLASH->CR |= FLASH_PSIZE_HALF_WORD;
 990              		.loc 1 555 10
 991 002a 0F4B     		ldr	r3, .L67
 992 002c 1B69     		ldr	r3, [r3, #16]
 993 002e 0E4A     		ldr	r2, .L67
 994              		.loc 1 555 15
 995 0030 43F48073 		orr	r3, r3, #256
 996 0034 1361     		str	r3, [r2, #16]
 556:../Shared/Libraries/STM32F4xx_StdPeriph_Driver/src/stm32f4xx_flash.c ****     FLASH->CR |= FLASH_CR_PG;
 997              		.loc 1 556 10
 998 0036 0C4B     		ldr	r3, .L67
 999 0038 1B69     		ldr	r3, [r3, #16]
 1000 003a 0B4A     		ldr	r2, .L67
 1001              		.loc 1 556 15
 1002 003c 43F00103 		orr	r3, r3, #1
ARM GAS  /tmp/ccBoElqq.s 			page 28


 1003 0040 1361     		str	r3, [r2, #16]
 557:../Shared/Libraries/STM32F4xx_StdPeriph_Driver/src/stm32f4xx_flash.c ****   
 558:../Shared/Libraries/STM32F4xx_StdPeriph_Driver/src/stm32f4xx_flash.c ****     *(__IO uint16_t*)Address = Data;
 1004              		.loc 1 558 6
 1005 0042 7B68     		ldr	r3, [r7, #4]
 1006              		.loc 1 558 30
 1007 0044 7A88     		ldrh	r2, [r7, #2]	@ movhi
 1008 0046 1A80     		strh	r2, [r3]	@ movhi
 559:../Shared/Libraries/STM32F4xx_StdPeriph_Driver/src/stm32f4xx_flash.c ****         
 560:../Shared/Libraries/STM32F4xx_StdPeriph_Driver/src/stm32f4xx_flash.c ****     /* Wait for last operation to be completed */
 561:../Shared/Libraries/STM32F4xx_StdPeriph_Driver/src/stm32f4xx_flash.c ****     status = FLASH_WaitForLastOperation();
 1009              		.loc 1 561 14
 1010 0048 FFF7FEFF 		bl	FLASH_WaitForLastOperation
 1011 004c 0346     		mov	r3, r0
 1012 004e FB73     		strb	r3, [r7, #15]
 562:../Shared/Libraries/STM32F4xx_StdPeriph_Driver/src/stm32f4xx_flash.c **** 
 563:../Shared/Libraries/STM32F4xx_StdPeriph_Driver/src/stm32f4xx_flash.c ****     /* if the program operation is completed, disable the PG Bit */
 564:../Shared/Libraries/STM32F4xx_StdPeriph_Driver/src/stm32f4xx_flash.c ****     FLASH->CR &= (~FLASH_CR_PG);
 1013              		.loc 1 564 10
 1014 0050 054B     		ldr	r3, .L67
 1015 0052 1B69     		ldr	r3, [r3, #16]
 1016 0054 044A     		ldr	r2, .L67
 1017              		.loc 1 564 15
 1018 0056 23F00103 		bic	r3, r3, #1
 1019 005a 1361     		str	r3, [r2, #16]
 1020              	.L65:
 565:../Shared/Libraries/STM32F4xx_StdPeriph_Driver/src/stm32f4xx_flash.c ****   } 
 566:../Shared/Libraries/STM32F4xx_StdPeriph_Driver/src/stm32f4xx_flash.c ****   /* Return the Program Status */
 567:../Shared/Libraries/STM32F4xx_StdPeriph_Driver/src/stm32f4xx_flash.c ****   return status;
 1021              		.loc 1 567 10
 1022 005c FB7B     		ldrb	r3, [r7, #15]	@ zero_extendqisi2
 568:../Shared/Libraries/STM32F4xx_StdPeriph_Driver/src/stm32f4xx_flash.c **** }
 1023              		.loc 1 568 1
 1024 005e 1846     		mov	r0, r3
 1025 0060 1037     		adds	r7, r7, #16
 1026              	.LCFI63:
 1027              		.cfi_def_cfa_offset 8
 1028 0062 BD46     		mov	sp, r7
 1029              	.LCFI64:
 1030              		.cfi_def_cfa_register 13
 1031              		@ sp needed
 1032 0064 80BD     		pop	{r7, pc}
 1033              	.L68:
 1034 0066 00BF     		.align	2
 1035              	.L67:
 1036 0068 003C0240 		.word	1073888256
 1037              		.cfi_endproc
 1038              	.LFE122:
 1040              		.section	.text.FLASH_ProgramByte,"ax",%progbits
 1041              		.align	1
 1042              		.global	FLASH_ProgramByte
 1043              		.syntax unified
 1044              		.thumb
 1045              		.thumb_func
 1047              	FLASH_ProgramByte:
 1048              	.LFB123:
 569:../Shared/Libraries/STM32F4xx_StdPeriph_Driver/src/stm32f4xx_flash.c **** 
ARM GAS  /tmp/ccBoElqq.s 			page 29


 570:../Shared/Libraries/STM32F4xx_StdPeriph_Driver/src/stm32f4xx_flash.c **** /**
 571:../Shared/Libraries/STM32F4xx_StdPeriph_Driver/src/stm32f4xx_flash.c ****   * @brief  Programs a byte (8-bit) at a specified address.
 572:../Shared/Libraries/STM32F4xx_StdPeriph_Driver/src/stm32f4xx_flash.c ****   * @note   This function can be used within all the device supply voltage ranges.               
 573:../Shared/Libraries/STM32F4xx_StdPeriph_Driver/src/stm32f4xx_flash.c ****   * @param  Address: specifies the address to be programmed.
 574:../Shared/Libraries/STM32F4xx_StdPeriph_Driver/src/stm32f4xx_flash.c ****   *         This parameter can be any address in Program memory zone or in OTP zone.  
 575:../Shared/Libraries/STM32F4xx_StdPeriph_Driver/src/stm32f4xx_flash.c ****   * @param  Data: specifies the data to be programmed.
 576:../Shared/Libraries/STM32F4xx_StdPeriph_Driver/src/stm32f4xx_flash.c ****   * @retval FLASH Status: The returned value can be: FLASH_BUSY, FLASH_ERROR_PROGRAM,
 577:../Shared/Libraries/STM32F4xx_StdPeriph_Driver/src/stm32f4xx_flash.c ****   *                       FLASH_ERROR_WRP, FLASH_ERROR_OPERATION or FLASH_COMPLETE.
 578:../Shared/Libraries/STM32F4xx_StdPeriph_Driver/src/stm32f4xx_flash.c ****   */
 579:../Shared/Libraries/STM32F4xx_StdPeriph_Driver/src/stm32f4xx_flash.c **** FLASH_Status FLASH_ProgramByte(uint32_t Address, uint8_t Data)
 580:../Shared/Libraries/STM32F4xx_StdPeriph_Driver/src/stm32f4xx_flash.c **** {
 1049              		.loc 1 580 1
 1050              		.cfi_startproc
 1051              		@ args = 0, pretend = 0, frame = 16
 1052              		@ frame_needed = 1, uses_anonymous_args = 0
 1053 0000 80B5     		push	{r7, lr}
 1054              	.LCFI65:
 1055              		.cfi_def_cfa_offset 8
 1056              		.cfi_offset 7, -8
 1057              		.cfi_offset 14, -4
 1058 0002 84B0     		sub	sp, sp, #16
 1059              	.LCFI66:
 1060              		.cfi_def_cfa_offset 24
 1061 0004 00AF     		add	r7, sp, #0
 1062              	.LCFI67:
 1063              		.cfi_def_cfa_register 7
 1064 0006 7860     		str	r0, [r7, #4]
 1065 0008 0B46     		mov	r3, r1
 1066 000a FB70     		strb	r3, [r7, #3]
 581:../Shared/Libraries/STM32F4xx_StdPeriph_Driver/src/stm32f4xx_flash.c ****   FLASH_Status status = FLASH_COMPLETE;
 1067              		.loc 1 581 16
 1068 000c 0823     		movs	r3, #8
 1069 000e FB73     		strb	r3, [r7, #15]
 582:../Shared/Libraries/STM32F4xx_StdPeriph_Driver/src/stm32f4xx_flash.c **** 
 583:../Shared/Libraries/STM32F4xx_StdPeriph_Driver/src/stm32f4xx_flash.c ****   /* Check the parameters */
 584:../Shared/Libraries/STM32F4xx_StdPeriph_Driver/src/stm32f4xx_flash.c ****   assert_param(IS_FLASH_ADDRESS(Address));
 585:../Shared/Libraries/STM32F4xx_StdPeriph_Driver/src/stm32f4xx_flash.c **** 
 586:../Shared/Libraries/STM32F4xx_StdPeriph_Driver/src/stm32f4xx_flash.c ****   /* Wait for last operation to be completed */
 587:../Shared/Libraries/STM32F4xx_StdPeriph_Driver/src/stm32f4xx_flash.c ****   status = FLASH_WaitForLastOperation();
 1070              		.loc 1 587 12
 1071 0010 FFF7FEFF 		bl	FLASH_WaitForLastOperation
 1072 0014 0346     		mov	r3, r0
 1073 0016 FB73     		strb	r3, [r7, #15]
 588:../Shared/Libraries/STM32F4xx_StdPeriph_Driver/src/stm32f4xx_flash.c ****   
 589:../Shared/Libraries/STM32F4xx_StdPeriph_Driver/src/stm32f4xx_flash.c ****   if(status == FLASH_COMPLETE)
 1074              		.loc 1 589 5
 1075 0018 FB7B     		ldrb	r3, [r7, #15]	@ zero_extendqisi2
 1076 001a 082B     		cmp	r3, #8
 1077 001c 1CD1     		bne	.L70
 590:../Shared/Libraries/STM32F4xx_StdPeriph_Driver/src/stm32f4xx_flash.c ****   {
 591:../Shared/Libraries/STM32F4xx_StdPeriph_Driver/src/stm32f4xx_flash.c ****     /* if the previous operation is completed, proceed to program the new data */
 592:../Shared/Libraries/STM32F4xx_StdPeriph_Driver/src/stm32f4xx_flash.c ****     FLASH->CR &= CR_PSIZE_MASK;
 1078              		.loc 1 592 10
 1079 001e 114B     		ldr	r3, .L72
 1080 0020 1B69     		ldr	r3, [r3, #16]
 1081 0022 104A     		ldr	r2, .L72
 1082              		.loc 1 592 15
ARM GAS  /tmp/ccBoElqq.s 			page 30


 1083 0024 23F44073 		bic	r3, r3, #768
 1084 0028 1361     		str	r3, [r2, #16]
 593:../Shared/Libraries/STM32F4xx_StdPeriph_Driver/src/stm32f4xx_flash.c ****     FLASH->CR |= FLASH_PSIZE_BYTE;
 1085              		.loc 1 593 10
 1086 002a 0E4B     		ldr	r3, .L72
 1087 002c 0D4A     		ldr	r2, .L72
 1088 002e 1B69     		ldr	r3, [r3, #16]
 1089              		.loc 1 593 15
 1090 0030 1361     		str	r3, [r2, #16]
 594:../Shared/Libraries/STM32F4xx_StdPeriph_Driver/src/stm32f4xx_flash.c ****     FLASH->CR |= FLASH_CR_PG;
 1091              		.loc 1 594 10
 1092 0032 0C4B     		ldr	r3, .L72
 1093 0034 1B69     		ldr	r3, [r3, #16]
 1094 0036 0B4A     		ldr	r2, .L72
 1095              		.loc 1 594 15
 1096 0038 43F00103 		orr	r3, r3, #1
 1097 003c 1361     		str	r3, [r2, #16]
 595:../Shared/Libraries/STM32F4xx_StdPeriph_Driver/src/stm32f4xx_flash.c ****   
 596:../Shared/Libraries/STM32F4xx_StdPeriph_Driver/src/stm32f4xx_flash.c ****     *(__IO uint8_t*)Address = Data;
 1098              		.loc 1 596 6
 1099 003e 7B68     		ldr	r3, [r7, #4]
 1100              		.loc 1 596 29
 1101 0040 FA78     		ldrb	r2, [r7, #3]
 1102 0042 1A70     		strb	r2, [r3]
 597:../Shared/Libraries/STM32F4xx_StdPeriph_Driver/src/stm32f4xx_flash.c ****         
 598:../Shared/Libraries/STM32F4xx_StdPeriph_Driver/src/stm32f4xx_flash.c ****     /* Wait for last operation to be completed */
 599:../Shared/Libraries/STM32F4xx_StdPeriph_Driver/src/stm32f4xx_flash.c ****     status = FLASH_WaitForLastOperation();
 1103              		.loc 1 599 14
 1104 0044 FFF7FEFF 		bl	FLASH_WaitForLastOperation
 1105 0048 0346     		mov	r3, r0
 1106 004a FB73     		strb	r3, [r7, #15]
 600:../Shared/Libraries/STM32F4xx_StdPeriph_Driver/src/stm32f4xx_flash.c **** 
 601:../Shared/Libraries/STM32F4xx_StdPeriph_Driver/src/stm32f4xx_flash.c ****     /* if the program operation is completed, disable the PG Bit */
 602:../Shared/Libraries/STM32F4xx_StdPeriph_Driver/src/stm32f4xx_flash.c ****     FLASH->CR &= (~FLASH_CR_PG);
 1107              		.loc 1 602 10
 1108 004c 054B     		ldr	r3, .L72
 1109 004e 1B69     		ldr	r3, [r3, #16]
 1110 0050 044A     		ldr	r2, .L72
 1111              		.loc 1 602 15
 1112 0052 23F00103 		bic	r3, r3, #1
 1113 0056 1361     		str	r3, [r2, #16]
 1114              	.L70:
 603:../Shared/Libraries/STM32F4xx_StdPeriph_Driver/src/stm32f4xx_flash.c ****   } 
 604:../Shared/Libraries/STM32F4xx_StdPeriph_Driver/src/stm32f4xx_flash.c **** 
 605:../Shared/Libraries/STM32F4xx_StdPeriph_Driver/src/stm32f4xx_flash.c ****   /* Return the Program Status */
 606:../Shared/Libraries/STM32F4xx_StdPeriph_Driver/src/stm32f4xx_flash.c ****   return status;
 1115              		.loc 1 606 10
 1116 0058 FB7B     		ldrb	r3, [r7, #15]	@ zero_extendqisi2
 607:../Shared/Libraries/STM32F4xx_StdPeriph_Driver/src/stm32f4xx_flash.c **** }
 1117              		.loc 1 607 1
 1118 005a 1846     		mov	r0, r3
 1119 005c 1037     		adds	r7, r7, #16
 1120              	.LCFI68:
 1121              		.cfi_def_cfa_offset 8
 1122 005e BD46     		mov	sp, r7
 1123              	.LCFI69:
 1124              		.cfi_def_cfa_register 13
ARM GAS  /tmp/ccBoElqq.s 			page 31


 1125              		@ sp needed
 1126 0060 80BD     		pop	{r7, pc}
 1127              	.L73:
 1128 0062 00BF     		.align	2
 1129              	.L72:
 1130 0064 003C0240 		.word	1073888256
 1131              		.cfi_endproc
 1132              	.LFE123:
 1134              		.section	.text.FLASH_OB_Unlock,"ax",%progbits
 1135              		.align	1
 1136              		.global	FLASH_OB_Unlock
 1137              		.syntax unified
 1138              		.thumb
 1139              		.thumb_func
 1141              	FLASH_OB_Unlock:
 1142              	.LFB124:
 608:../Shared/Libraries/STM32F4xx_StdPeriph_Driver/src/stm32f4xx_flash.c **** 
 609:../Shared/Libraries/STM32F4xx_StdPeriph_Driver/src/stm32f4xx_flash.c **** /**
 610:../Shared/Libraries/STM32F4xx_StdPeriph_Driver/src/stm32f4xx_flash.c ****   * @}
 611:../Shared/Libraries/STM32F4xx_StdPeriph_Driver/src/stm32f4xx_flash.c ****   */
 612:../Shared/Libraries/STM32F4xx_StdPeriph_Driver/src/stm32f4xx_flash.c **** 
 613:../Shared/Libraries/STM32F4xx_StdPeriph_Driver/src/stm32f4xx_flash.c **** /** @defgroup FLASH_Group3 Option Bytes Programming functions
 614:../Shared/Libraries/STM32F4xx_StdPeriph_Driver/src/stm32f4xx_flash.c ****  *  @brief   Option Bytes Programming functions 
 615:../Shared/Libraries/STM32F4xx_StdPeriph_Driver/src/stm32f4xx_flash.c ****  *
 616:../Shared/Libraries/STM32F4xx_StdPeriph_Driver/src/stm32f4xx_flash.c **** @verbatim   
 617:../Shared/Libraries/STM32F4xx_StdPeriph_Driver/src/stm32f4xx_flash.c ****  ===============================================================================
 618:../Shared/Libraries/STM32F4xx_StdPeriph_Driver/src/stm32f4xx_flash.c ****                         Option Bytes Programming functions
 619:../Shared/Libraries/STM32F4xx_StdPeriph_Driver/src/stm32f4xx_flash.c ****  ===============================================================================  
 620:../Shared/Libraries/STM32F4xx_StdPeriph_Driver/src/stm32f4xx_flash.c ****  
 621:../Shared/Libraries/STM32F4xx_StdPeriph_Driver/src/stm32f4xx_flash.c ****    This group includes the following functions:
 622:../Shared/Libraries/STM32F4xx_StdPeriph_Driver/src/stm32f4xx_flash.c ****    - void FLASH_OB_Unlock(void)
 623:../Shared/Libraries/STM32F4xx_StdPeriph_Driver/src/stm32f4xx_flash.c ****    - void FLASH_OB_Lock(void)
 624:../Shared/Libraries/STM32F4xx_StdPeriph_Driver/src/stm32f4xx_flash.c ****    - void FLASH_OB_WRPConfig(uint32_t OB_WRP, FunctionalState NewState)
 625:../Shared/Libraries/STM32F4xx_StdPeriph_Driver/src/stm32f4xx_flash.c ****    - void FLASH_OB_RDPConfig(uint8_t OB_RDP)
 626:../Shared/Libraries/STM32F4xx_StdPeriph_Driver/src/stm32f4xx_flash.c ****    - void FLASH_OB_UserConfig(uint8_t OB_IWDG, uint8_t OB_STOP, uint8_t OB_STDBY)
 627:../Shared/Libraries/STM32F4xx_StdPeriph_Driver/src/stm32f4xx_flash.c ****    - void FLASH_OB_BORConfig(uint8_t OB_BOR)
 628:../Shared/Libraries/STM32F4xx_StdPeriph_Driver/src/stm32f4xx_flash.c ****    - FLASH_Status FLASH_ProgramOTP(uint32_t Address, uint32_t Data)							
 629:../Shared/Libraries/STM32F4xx_StdPeriph_Driver/src/stm32f4xx_flash.c ****    - FLASH_Status FLASH_OB_Launch(void)
 630:../Shared/Libraries/STM32F4xx_StdPeriph_Driver/src/stm32f4xx_flash.c ****    - uint32_t FLASH_OB_GetUser(void)						
 631:../Shared/Libraries/STM32F4xx_StdPeriph_Driver/src/stm32f4xx_flash.c ****    - uint8_t FLASH_OB_GetWRP(void)						
 632:../Shared/Libraries/STM32F4xx_StdPeriph_Driver/src/stm32f4xx_flash.c ****    - uint8_t FLASH_OB_GetRDP(void)							
 633:../Shared/Libraries/STM32F4xx_StdPeriph_Driver/src/stm32f4xx_flash.c ****    - uint8_t FLASH_OB_GetBOR(void)
 634:../Shared/Libraries/STM32F4xx_StdPeriph_Driver/src/stm32f4xx_flash.c ****    
 635:../Shared/Libraries/STM32F4xx_StdPeriph_Driver/src/stm32f4xx_flash.c ****    Any operation of erase or program should follow these steps:
 636:../Shared/Libraries/STM32F4xx_StdPeriph_Driver/src/stm32f4xx_flash.c ****    1. Call the FLASH_OB_Unlock() function to enable the FLASH option control register access
 637:../Shared/Libraries/STM32F4xx_StdPeriph_Driver/src/stm32f4xx_flash.c **** 
 638:../Shared/Libraries/STM32F4xx_StdPeriph_Driver/src/stm32f4xx_flash.c ****    2. Call one or several functions to program the desired Option Bytes:
 639:../Shared/Libraries/STM32F4xx_StdPeriph_Driver/src/stm32f4xx_flash.c ****       - void FLASH_OB_WRPConfig(uint32_t OB_WRP, FunctionalState NewState) => to Enable/Disable 
 640:../Shared/Libraries/STM32F4xx_StdPeriph_Driver/src/stm32f4xx_flash.c ****         the desired sector write protection
 641:../Shared/Libraries/STM32F4xx_StdPeriph_Driver/src/stm32f4xx_flash.c ****       - void FLASH_OB_RDPConfig(uint8_t OB_RDP) => to set the desired read Protection Level
 642:../Shared/Libraries/STM32F4xx_StdPeriph_Driver/src/stm32f4xx_flash.c ****       - void FLASH_OB_UserConfig(uint8_t OB_IWDG, uint8_t OB_STOP, uint8_t OB_STDBY) => to configur
 643:../Shared/Libraries/STM32F4xx_StdPeriph_Driver/src/stm32f4xx_flash.c ****         the user Option Bytes.
 644:../Shared/Libraries/STM32F4xx_StdPeriph_Driver/src/stm32f4xx_flash.c ****       - void FLASH_OB_BORConfig(uint8_t OB_BOR) => to set the BOR Level 			 
 645:../Shared/Libraries/STM32F4xx_StdPeriph_Driver/src/stm32f4xx_flash.c **** 
 646:../Shared/Libraries/STM32F4xx_StdPeriph_Driver/src/stm32f4xx_flash.c ****    3. Once all needed Option Bytes to be programmed are correctly written, call the
 647:../Shared/Libraries/STM32F4xx_StdPeriph_Driver/src/stm32f4xx_flash.c ****       FLASH_OB_Launch() function to launch the Option Bytes programming process.
 648:../Shared/Libraries/STM32F4xx_StdPeriph_Driver/src/stm32f4xx_flash.c ****      
ARM GAS  /tmp/ccBoElqq.s 			page 32


 649:../Shared/Libraries/STM32F4xx_StdPeriph_Driver/src/stm32f4xx_flash.c ****      @note When changing the IWDG mode from HW to SW or from SW to HW, a system 
 650:../Shared/Libraries/STM32F4xx_StdPeriph_Driver/src/stm32f4xx_flash.c ****            reset is needed to make the change effective.  
 651:../Shared/Libraries/STM32F4xx_StdPeriph_Driver/src/stm32f4xx_flash.c **** 
 652:../Shared/Libraries/STM32F4xx_StdPeriph_Driver/src/stm32f4xx_flash.c ****    4. Call the FLASH_OB_Lock() function to disable the FLASH option control register
 653:../Shared/Libraries/STM32F4xx_StdPeriph_Driver/src/stm32f4xx_flash.c ****       access (recommended to protect the Option Bytes against possible unwanted operations)
 654:../Shared/Libraries/STM32F4xx_StdPeriph_Driver/src/stm32f4xx_flash.c ****     
 655:../Shared/Libraries/STM32F4xx_StdPeriph_Driver/src/stm32f4xx_flash.c **** @endverbatim
 656:../Shared/Libraries/STM32F4xx_StdPeriph_Driver/src/stm32f4xx_flash.c ****   * @{
 657:../Shared/Libraries/STM32F4xx_StdPeriph_Driver/src/stm32f4xx_flash.c ****   */
 658:../Shared/Libraries/STM32F4xx_StdPeriph_Driver/src/stm32f4xx_flash.c **** 
 659:../Shared/Libraries/STM32F4xx_StdPeriph_Driver/src/stm32f4xx_flash.c **** /**
 660:../Shared/Libraries/STM32F4xx_StdPeriph_Driver/src/stm32f4xx_flash.c ****   * @brief  Unlocks the FLASH Option Control Registers access.
 661:../Shared/Libraries/STM32F4xx_StdPeriph_Driver/src/stm32f4xx_flash.c ****   * @param  None
 662:../Shared/Libraries/STM32F4xx_StdPeriph_Driver/src/stm32f4xx_flash.c ****   * @retval None
 663:../Shared/Libraries/STM32F4xx_StdPeriph_Driver/src/stm32f4xx_flash.c ****   */
 664:../Shared/Libraries/STM32F4xx_StdPeriph_Driver/src/stm32f4xx_flash.c **** void FLASH_OB_Unlock(void)
 665:../Shared/Libraries/STM32F4xx_StdPeriph_Driver/src/stm32f4xx_flash.c **** {
 1143              		.loc 1 665 1
 1144              		.cfi_startproc
 1145              		@ args = 0, pretend = 0, frame = 0
 1146              		@ frame_needed = 1, uses_anonymous_args = 0
 1147              		@ link register save eliminated.
 1148 0000 80B4     		push	{r7}
 1149              	.LCFI70:
 1150              		.cfi_def_cfa_offset 4
 1151              		.cfi_offset 7, -4
 1152 0002 00AF     		add	r7, sp, #0
 1153              	.LCFI71:
 1154              		.cfi_def_cfa_register 7
 666:../Shared/Libraries/STM32F4xx_StdPeriph_Driver/src/stm32f4xx_flash.c ****   if((FLASH->OPTCR & FLASH_OPTCR_OPTLOCK) != RESET)
 1155              		.loc 1 666 12
 1156 0004 084B     		ldr	r3, .L77
 1157 0006 5B69     		ldr	r3, [r3, #20]
 1158              		.loc 1 666 20
 1159 0008 03F00103 		and	r3, r3, #1
 1160              		.loc 1 666 5
 1161 000c 002B     		cmp	r3, #0
 1162 000e 05D0     		beq	.L76
 667:../Shared/Libraries/STM32F4xx_StdPeriph_Driver/src/stm32f4xx_flash.c ****   {
 668:../Shared/Libraries/STM32F4xx_StdPeriph_Driver/src/stm32f4xx_flash.c ****     /* Authorizes the Option Byte register programming */
 669:../Shared/Libraries/STM32F4xx_StdPeriph_Driver/src/stm32f4xx_flash.c ****     FLASH->OPTKEYR = FLASH_OPT_KEY1;
 1163              		.loc 1 669 10
 1164 0010 054B     		ldr	r3, .L77
 1165              		.loc 1 669 20
 1166 0012 064A     		ldr	r2, .L77+4
 1167 0014 9A60     		str	r2, [r3, #8]
 670:../Shared/Libraries/STM32F4xx_StdPeriph_Driver/src/stm32f4xx_flash.c ****     FLASH->OPTKEYR = FLASH_OPT_KEY2;
 1168              		.loc 1 670 10
 1169 0016 044B     		ldr	r3, .L77
 1170              		.loc 1 670 20
 1171 0018 054A     		ldr	r2, .L77+8
 1172 001a 9A60     		str	r2, [r3, #8]
 1173              	.L76:
 671:../Shared/Libraries/STM32F4xx_StdPeriph_Driver/src/stm32f4xx_flash.c ****   }  
 672:../Shared/Libraries/STM32F4xx_StdPeriph_Driver/src/stm32f4xx_flash.c **** }
 1174              		.loc 1 672 1
 1175 001c 00BF     		nop
ARM GAS  /tmp/ccBoElqq.s 			page 33


 1176 001e BD46     		mov	sp, r7
 1177              	.LCFI72:
 1178              		.cfi_def_cfa_register 13
 1179              		@ sp needed
 1180 0020 5DF8047B 		ldr	r7, [sp], #4
 1181              	.LCFI73:
 1182              		.cfi_restore 7
 1183              		.cfi_def_cfa_offset 0
 1184 0024 7047     		bx	lr
 1185              	.L78:
 1186 0026 00BF     		.align	2
 1187              	.L77:
 1188 0028 003C0240 		.word	1073888256
 1189 002c 3B2A1908 		.word	135866939
 1190 0030 7F6E5D4C 		.word	1281191551
 1191              		.cfi_endproc
 1192              	.LFE124:
 1194              		.section	.text.FLASH_OB_Lock,"ax",%progbits
 1195              		.align	1
 1196              		.global	FLASH_OB_Lock
 1197              		.syntax unified
 1198              		.thumb
 1199              		.thumb_func
 1201              	FLASH_OB_Lock:
 1202              	.LFB125:
 673:../Shared/Libraries/STM32F4xx_StdPeriph_Driver/src/stm32f4xx_flash.c **** 
 674:../Shared/Libraries/STM32F4xx_StdPeriph_Driver/src/stm32f4xx_flash.c **** /**
 675:../Shared/Libraries/STM32F4xx_StdPeriph_Driver/src/stm32f4xx_flash.c ****   * @brief  Locks the FLASH Option Control Registers access.
 676:../Shared/Libraries/STM32F4xx_StdPeriph_Driver/src/stm32f4xx_flash.c ****   * @param  None
 677:../Shared/Libraries/STM32F4xx_StdPeriph_Driver/src/stm32f4xx_flash.c ****   * @retval None
 678:../Shared/Libraries/STM32F4xx_StdPeriph_Driver/src/stm32f4xx_flash.c ****   */
 679:../Shared/Libraries/STM32F4xx_StdPeriph_Driver/src/stm32f4xx_flash.c **** void FLASH_OB_Lock(void)
 680:../Shared/Libraries/STM32F4xx_StdPeriph_Driver/src/stm32f4xx_flash.c **** {
 1203              		.loc 1 680 1
 1204              		.cfi_startproc
 1205              		@ args = 0, pretend = 0, frame = 0
 1206              		@ frame_needed = 1, uses_anonymous_args = 0
 1207              		@ link register save eliminated.
 1208 0000 80B4     		push	{r7}
 1209              	.LCFI74:
 1210              		.cfi_def_cfa_offset 4
 1211              		.cfi_offset 7, -4
 1212 0002 00AF     		add	r7, sp, #0
 1213              	.LCFI75:
 1214              		.cfi_def_cfa_register 7
 681:../Shared/Libraries/STM32F4xx_StdPeriph_Driver/src/stm32f4xx_flash.c ****   /* Set the OPTLOCK Bit to lock the FLASH Option Byte Registers access */
 682:../Shared/Libraries/STM32F4xx_StdPeriph_Driver/src/stm32f4xx_flash.c ****   FLASH->OPTCR |= FLASH_OPTCR_OPTLOCK;
 1215              		.loc 1 682 8
 1216 0004 054B     		ldr	r3, .L80
 1217 0006 5B69     		ldr	r3, [r3, #20]
 1218 0008 044A     		ldr	r2, .L80
 1219              		.loc 1 682 16
 1220 000a 43F00103 		orr	r3, r3, #1
 1221 000e 5361     		str	r3, [r2, #20]
 683:../Shared/Libraries/STM32F4xx_StdPeriph_Driver/src/stm32f4xx_flash.c **** }
 1222              		.loc 1 683 1
 1223 0010 00BF     		nop
ARM GAS  /tmp/ccBoElqq.s 			page 34


 1224 0012 BD46     		mov	sp, r7
 1225              	.LCFI76:
 1226              		.cfi_def_cfa_register 13
 1227              		@ sp needed
 1228 0014 5DF8047B 		ldr	r7, [sp], #4
 1229              	.LCFI77:
 1230              		.cfi_restore 7
 1231              		.cfi_def_cfa_offset 0
 1232 0018 7047     		bx	lr
 1233              	.L81:
 1234 001a 00BF     		.align	2
 1235              	.L80:
 1236 001c 003C0240 		.word	1073888256
 1237              		.cfi_endproc
 1238              	.LFE125:
 1240              		.section	.text.FLASH_OB_WRPConfig,"ax",%progbits
 1241              		.align	1
 1242              		.global	FLASH_OB_WRPConfig
 1243              		.syntax unified
 1244              		.thumb
 1245              		.thumb_func
 1247              	FLASH_OB_WRPConfig:
 1248              	.LFB126:
 684:../Shared/Libraries/STM32F4xx_StdPeriph_Driver/src/stm32f4xx_flash.c **** 
 685:../Shared/Libraries/STM32F4xx_StdPeriph_Driver/src/stm32f4xx_flash.c **** /**
 686:../Shared/Libraries/STM32F4xx_StdPeriph_Driver/src/stm32f4xx_flash.c ****   * @brief  Enables or disables the write protection of the desired sectors
 687:../Shared/Libraries/STM32F4xx_StdPeriph_Driver/src/stm32f4xx_flash.c ****   * @param  OB_WRP: specifies the sector(s) to be write protected or unprotected.
 688:../Shared/Libraries/STM32F4xx_StdPeriph_Driver/src/stm32f4xx_flash.c ****   *          This parameter can be one of the following values:
 689:../Shared/Libraries/STM32F4xx_StdPeriph_Driver/src/stm32f4xx_flash.c ****   *            @arg OB_WRP: A value between OB_WRP_Sector0 and OB_WRP_Sector11                     
 690:../Shared/Libraries/STM32F4xx_StdPeriph_Driver/src/stm32f4xx_flash.c ****   *            @arg OB_WRP_Sector_All
 691:../Shared/Libraries/STM32F4xx_StdPeriph_Driver/src/stm32f4xx_flash.c ****   * @param  Newstate: new state of the Write Protection.
 692:../Shared/Libraries/STM32F4xx_StdPeriph_Driver/src/stm32f4xx_flash.c ****   *          This parameter can be: ENABLE or DISABLE.
 693:../Shared/Libraries/STM32F4xx_StdPeriph_Driver/src/stm32f4xx_flash.c ****   * @retval None  
 694:../Shared/Libraries/STM32F4xx_StdPeriph_Driver/src/stm32f4xx_flash.c ****   */
 695:../Shared/Libraries/STM32F4xx_StdPeriph_Driver/src/stm32f4xx_flash.c **** void FLASH_OB_WRPConfig(uint32_t OB_WRP, FunctionalState NewState)
 696:../Shared/Libraries/STM32F4xx_StdPeriph_Driver/src/stm32f4xx_flash.c **** { 
 1249              		.loc 1 696 1
 1250              		.cfi_startproc
 1251              		@ args = 0, pretend = 0, frame = 16
 1252              		@ frame_needed = 1, uses_anonymous_args = 0
 1253 0000 80B5     		push	{r7, lr}
 1254              	.LCFI78:
 1255              		.cfi_def_cfa_offset 8
 1256              		.cfi_offset 7, -8
 1257              		.cfi_offset 14, -4
 1258 0002 84B0     		sub	sp, sp, #16
 1259              	.LCFI79:
 1260              		.cfi_def_cfa_offset 24
 1261 0004 00AF     		add	r7, sp, #0
 1262              	.LCFI80:
 1263              		.cfi_def_cfa_register 7
 1264 0006 7860     		str	r0, [r7, #4]
 1265 0008 0B46     		mov	r3, r1
 1266 000a FB70     		strb	r3, [r7, #3]
 697:../Shared/Libraries/STM32F4xx_StdPeriph_Driver/src/stm32f4xx_flash.c ****   FLASH_Status status = FLASH_COMPLETE;
 1267              		.loc 1 697 16
 1268 000c 0823     		movs	r3, #8
ARM GAS  /tmp/ccBoElqq.s 			page 35


 1269 000e FB73     		strb	r3, [r7, #15]
 698:../Shared/Libraries/STM32F4xx_StdPeriph_Driver/src/stm32f4xx_flash.c ****   
 699:../Shared/Libraries/STM32F4xx_StdPeriph_Driver/src/stm32f4xx_flash.c ****   /* Check the parameters */
 700:../Shared/Libraries/STM32F4xx_StdPeriph_Driver/src/stm32f4xx_flash.c ****   assert_param(IS_OB_WRP(OB_WRP));
 701:../Shared/Libraries/STM32F4xx_StdPeriph_Driver/src/stm32f4xx_flash.c ****   assert_param(IS_FUNCTIONAL_STATE(NewState));
 702:../Shared/Libraries/STM32F4xx_StdPeriph_Driver/src/stm32f4xx_flash.c ****     
 703:../Shared/Libraries/STM32F4xx_StdPeriph_Driver/src/stm32f4xx_flash.c ****   status = FLASH_WaitForLastOperation();
 1270              		.loc 1 703 12
 1271 0010 FFF7FEFF 		bl	FLASH_WaitForLastOperation
 1272 0014 0346     		mov	r3, r0
 1273 0016 FB73     		strb	r3, [r7, #15]
 704:../Shared/Libraries/STM32F4xx_StdPeriph_Driver/src/stm32f4xx_flash.c **** 
 705:../Shared/Libraries/STM32F4xx_StdPeriph_Driver/src/stm32f4xx_flash.c ****   if(status == FLASH_COMPLETE)
 1274              		.loc 1 705 5
 1275 0018 FB7B     		ldrb	r3, [r7, #15]	@ zero_extendqisi2
 1276 001a 082B     		cmp	r3, #8
 1277 001c 17D1     		bne	.L85
 706:../Shared/Libraries/STM32F4xx_StdPeriph_Driver/src/stm32f4xx_flash.c ****   { 
 707:../Shared/Libraries/STM32F4xx_StdPeriph_Driver/src/stm32f4xx_flash.c ****     if(NewState != DISABLE)
 1278              		.loc 1 707 7
 1279 001e FB78     		ldrb	r3, [r7, #3]	@ zero_extendqisi2
 1280 0020 002B     		cmp	r3, #0
 1281 0022 0BD0     		beq	.L84
 708:../Shared/Libraries/STM32F4xx_StdPeriph_Driver/src/stm32f4xx_flash.c ****     {
 709:../Shared/Libraries/STM32F4xx_StdPeriph_Driver/src/stm32f4xx_flash.c ****       *(__IO uint16_t*)OPTCR_BYTE2_ADDRESS &= (~OB_WRP);
 1282              		.loc 1 709 7
 1283 0024 0C4B     		ldr	r3, .L86
 1284 0026 1B88     		ldrh	r3, [r3]	@ movhi
 1285 0028 9AB2     		uxth	r2, r3
 1286              		.loc 1 709 44
 1287 002a 7B68     		ldr	r3, [r7, #4]
 1288 002c 9BB2     		uxth	r3, r3
 1289 002e DB43     		mvns	r3, r3
 1290 0030 9BB2     		uxth	r3, r3
 1291              		.loc 1 709 7
 1292 0032 0949     		ldr	r1, .L86
 1293              		.loc 1 709 44
 1294 0034 1340     		ands	r3, r3, r2
 1295 0036 9BB2     		uxth	r3, r3
 1296 0038 0B80     		strh	r3, [r1]	@ movhi
 710:../Shared/Libraries/STM32F4xx_StdPeriph_Driver/src/stm32f4xx_flash.c ****     }
 711:../Shared/Libraries/STM32F4xx_StdPeriph_Driver/src/stm32f4xx_flash.c ****     else
 712:../Shared/Libraries/STM32F4xx_StdPeriph_Driver/src/stm32f4xx_flash.c ****     {
 713:../Shared/Libraries/STM32F4xx_StdPeriph_Driver/src/stm32f4xx_flash.c ****       *(__IO uint16_t*)OPTCR_BYTE2_ADDRESS |= (uint16_t)OB_WRP;
 714:../Shared/Libraries/STM32F4xx_StdPeriph_Driver/src/stm32f4xx_flash.c ****     }
 715:../Shared/Libraries/STM32F4xx_StdPeriph_Driver/src/stm32f4xx_flash.c ****   }
 716:../Shared/Libraries/STM32F4xx_StdPeriph_Driver/src/stm32f4xx_flash.c **** }
 1297              		.loc 1 716 1
 1298 003a 08E0     		b	.L85
 1299              	.L84:
 713:../Shared/Libraries/STM32F4xx_StdPeriph_Driver/src/stm32f4xx_flash.c ****     }
 1300              		.loc 1 713 7
 1301 003c 064B     		ldr	r3, .L86
 1302 003e 1B88     		ldrh	r3, [r3]	@ movhi
 1303 0040 9AB2     		uxth	r2, r3
 713:../Shared/Libraries/STM32F4xx_StdPeriph_Driver/src/stm32f4xx_flash.c ****     }
 1304              		.loc 1 713 47
ARM GAS  /tmp/ccBoElqq.s 			page 36


 1305 0042 7B68     		ldr	r3, [r7, #4]
 1306 0044 9BB2     		uxth	r3, r3
 713:../Shared/Libraries/STM32F4xx_StdPeriph_Driver/src/stm32f4xx_flash.c ****     }
 1307              		.loc 1 713 7
 1308 0046 0449     		ldr	r1, .L86
 713:../Shared/Libraries/STM32F4xx_StdPeriph_Driver/src/stm32f4xx_flash.c ****     }
 1309              		.loc 1 713 44
 1310 0048 1343     		orrs	r3, r3, r2
 1311 004a 9BB2     		uxth	r3, r3
 1312 004c 0B80     		strh	r3, [r1]	@ movhi
 1313              	.L85:
 1314              		.loc 1 716 1
 1315 004e 00BF     		nop
 1316 0050 1037     		adds	r7, r7, #16
 1317              	.LCFI81:
 1318              		.cfi_def_cfa_offset 8
 1319 0052 BD46     		mov	sp, r7
 1320              	.LCFI82:
 1321              		.cfi_def_cfa_register 13
 1322              		@ sp needed
 1323 0054 80BD     		pop	{r7, pc}
 1324              	.L87:
 1325 0056 00BF     		.align	2
 1326              	.L86:
 1327 0058 163C0240 		.word	1073888278
 1328              		.cfi_endproc
 1329              	.LFE126:
 1331              		.section	.text.FLASH_OB_RDPConfig,"ax",%progbits
 1332              		.align	1
 1333              		.global	FLASH_OB_RDPConfig
 1334              		.syntax unified
 1335              		.thumb
 1336              		.thumb_func
 1338              	FLASH_OB_RDPConfig:
 1339              	.LFB127:
 717:../Shared/Libraries/STM32F4xx_StdPeriph_Driver/src/stm32f4xx_flash.c **** 
 718:../Shared/Libraries/STM32F4xx_StdPeriph_Driver/src/stm32f4xx_flash.c **** /**
 719:../Shared/Libraries/STM32F4xx_StdPeriph_Driver/src/stm32f4xx_flash.c ****   * @brief  Sets the read protection level.
 720:../Shared/Libraries/STM32F4xx_StdPeriph_Driver/src/stm32f4xx_flash.c ****   * @param  OB_RDP: specifies the read protection level.
 721:../Shared/Libraries/STM32F4xx_StdPeriph_Driver/src/stm32f4xx_flash.c ****   *          This parameter can be one of the following values:
 722:../Shared/Libraries/STM32F4xx_StdPeriph_Driver/src/stm32f4xx_flash.c ****   *            @arg OB_RDP_Level_0: No protection
 723:../Shared/Libraries/STM32F4xx_StdPeriph_Driver/src/stm32f4xx_flash.c ****   *            @arg OB_RDP_Level_1: Read protection of the memory
 724:../Shared/Libraries/STM32F4xx_StdPeriph_Driver/src/stm32f4xx_flash.c ****   *            @arg OB_RDP_Level_2: Full chip protection
 725:../Shared/Libraries/STM32F4xx_StdPeriph_Driver/src/stm32f4xx_flash.c ****   *   
 726:../Shared/Libraries/STM32F4xx_StdPeriph_Driver/src/stm32f4xx_flash.c ****   * !!!Warning!!! When enabling OB_RDP level 2 it's no more possible to go back to level 1 or 0
 727:../Shared/Libraries/STM32F4xx_StdPeriph_Driver/src/stm32f4xx_flash.c ****   *    
 728:../Shared/Libraries/STM32F4xx_StdPeriph_Driver/src/stm32f4xx_flash.c ****   * @retval None
 729:../Shared/Libraries/STM32F4xx_StdPeriph_Driver/src/stm32f4xx_flash.c ****   */
 730:../Shared/Libraries/STM32F4xx_StdPeriph_Driver/src/stm32f4xx_flash.c **** void FLASH_OB_RDPConfig(uint8_t OB_RDP)
 731:../Shared/Libraries/STM32F4xx_StdPeriph_Driver/src/stm32f4xx_flash.c **** {
 1340              		.loc 1 731 1
 1341              		.cfi_startproc
 1342              		@ args = 0, pretend = 0, frame = 16
 1343              		@ frame_needed = 1, uses_anonymous_args = 0
 1344 0000 80B5     		push	{r7, lr}
 1345              	.LCFI83:
 1346              		.cfi_def_cfa_offset 8
ARM GAS  /tmp/ccBoElqq.s 			page 37


 1347              		.cfi_offset 7, -8
 1348              		.cfi_offset 14, -4
 1349 0002 84B0     		sub	sp, sp, #16
 1350              	.LCFI84:
 1351              		.cfi_def_cfa_offset 24
 1352 0004 00AF     		add	r7, sp, #0
 1353              	.LCFI85:
 1354              		.cfi_def_cfa_register 7
 1355 0006 0346     		mov	r3, r0
 1356 0008 FB71     		strb	r3, [r7, #7]
 732:../Shared/Libraries/STM32F4xx_StdPeriph_Driver/src/stm32f4xx_flash.c ****   FLASH_Status status = FLASH_COMPLETE;
 1357              		.loc 1 732 16
 1358 000a 0823     		movs	r3, #8
 1359 000c FB73     		strb	r3, [r7, #15]
 733:../Shared/Libraries/STM32F4xx_StdPeriph_Driver/src/stm32f4xx_flash.c **** 
 734:../Shared/Libraries/STM32F4xx_StdPeriph_Driver/src/stm32f4xx_flash.c ****   /* Check the parameters */
 735:../Shared/Libraries/STM32F4xx_StdPeriph_Driver/src/stm32f4xx_flash.c ****   assert_param(IS_OB_RDP(OB_RDP));
 736:../Shared/Libraries/STM32F4xx_StdPeriph_Driver/src/stm32f4xx_flash.c **** 
 737:../Shared/Libraries/STM32F4xx_StdPeriph_Driver/src/stm32f4xx_flash.c ****   status = FLASH_WaitForLastOperation();
 1360              		.loc 1 737 12
 1361 000e FFF7FEFF 		bl	FLASH_WaitForLastOperation
 1362 0012 0346     		mov	r3, r0
 1363 0014 FB73     		strb	r3, [r7, #15]
 738:../Shared/Libraries/STM32F4xx_StdPeriph_Driver/src/stm32f4xx_flash.c **** 
 739:../Shared/Libraries/STM32F4xx_StdPeriph_Driver/src/stm32f4xx_flash.c ****   if(status == FLASH_COMPLETE)
 1364              		.loc 1 739 5
 1365 0016 FB7B     		ldrb	r3, [r7, #15]	@ zero_extendqisi2
 1366 0018 082B     		cmp	r3, #8
 1367 001a 02D1     		bne	.L90
 740:../Shared/Libraries/STM32F4xx_StdPeriph_Driver/src/stm32f4xx_flash.c ****   {
 741:../Shared/Libraries/STM32F4xx_StdPeriph_Driver/src/stm32f4xx_flash.c ****     *(__IO uint8_t*)OPTCR_BYTE1_ADDRESS = OB_RDP;
 1368              		.loc 1 741 5
 1369 001c 034A     		ldr	r2, .L91
 1370              		.loc 1 741 41
 1371 001e FB79     		ldrb	r3, [r7, #7]
 1372 0020 1370     		strb	r3, [r2]
 1373              	.L90:
 742:../Shared/Libraries/STM32F4xx_StdPeriph_Driver/src/stm32f4xx_flash.c **** 
 743:../Shared/Libraries/STM32F4xx_StdPeriph_Driver/src/stm32f4xx_flash.c ****   }
 744:../Shared/Libraries/STM32F4xx_StdPeriph_Driver/src/stm32f4xx_flash.c **** }
 1374              		.loc 1 744 1
 1375 0022 00BF     		nop
 1376 0024 1037     		adds	r7, r7, #16
 1377              	.LCFI86:
 1378              		.cfi_def_cfa_offset 8
 1379 0026 BD46     		mov	sp, r7
 1380              	.LCFI87:
 1381              		.cfi_def_cfa_register 13
 1382              		@ sp needed
 1383 0028 80BD     		pop	{r7, pc}
 1384              	.L92:
 1385 002a 00BF     		.align	2
 1386              	.L91:
 1387 002c 153C0240 		.word	1073888277
 1388              		.cfi_endproc
 1389              	.LFE127:
 1391              		.section	.text.FLASH_OB_UserConfig,"ax",%progbits
ARM GAS  /tmp/ccBoElqq.s 			page 38


 1392              		.align	1
 1393              		.global	FLASH_OB_UserConfig
 1394              		.syntax unified
 1395              		.thumb
 1396              		.thumb_func
 1398              	FLASH_OB_UserConfig:
 1399              	.LFB128:
 745:../Shared/Libraries/STM32F4xx_StdPeriph_Driver/src/stm32f4xx_flash.c **** 
 746:../Shared/Libraries/STM32F4xx_StdPeriph_Driver/src/stm32f4xx_flash.c **** /**
 747:../Shared/Libraries/STM32F4xx_StdPeriph_Driver/src/stm32f4xx_flash.c ****   * @brief  Programs the FLASH User Option Byte: IWDG_SW / RST_STOP / RST_STDBY.    
 748:../Shared/Libraries/STM32F4xx_StdPeriph_Driver/src/stm32f4xx_flash.c ****   * @param  OB_IWDG: Selects the IWDG mode
 749:../Shared/Libraries/STM32F4xx_StdPeriph_Driver/src/stm32f4xx_flash.c ****   *          This parameter can be one of the following values:
 750:../Shared/Libraries/STM32F4xx_StdPeriph_Driver/src/stm32f4xx_flash.c ****   *            @arg OB_IWDG_SW: Software IWDG selected
 751:../Shared/Libraries/STM32F4xx_StdPeriph_Driver/src/stm32f4xx_flash.c ****   *            @arg OB_IWDG_HW: Hardware IWDG selected
 752:../Shared/Libraries/STM32F4xx_StdPeriph_Driver/src/stm32f4xx_flash.c ****   * @param  OB_STOP: Reset event when entering STOP mode.
 753:../Shared/Libraries/STM32F4xx_StdPeriph_Driver/src/stm32f4xx_flash.c ****   *          This parameter  can be one of the following values:
 754:../Shared/Libraries/STM32F4xx_StdPeriph_Driver/src/stm32f4xx_flash.c ****   *            @arg OB_STOP_NoRST: No reset generated when entering in STOP
 755:../Shared/Libraries/STM32F4xx_StdPeriph_Driver/src/stm32f4xx_flash.c ****   *            @arg OB_STOP_RST: Reset generated when entering in STOP
 756:../Shared/Libraries/STM32F4xx_StdPeriph_Driver/src/stm32f4xx_flash.c ****   * @param  OB_STDBY: Reset event when entering Standby mode.
 757:../Shared/Libraries/STM32F4xx_StdPeriph_Driver/src/stm32f4xx_flash.c ****   *          This parameter  can be one of the following values:
 758:../Shared/Libraries/STM32F4xx_StdPeriph_Driver/src/stm32f4xx_flash.c ****   *            @arg OB_STDBY_NoRST: No reset generated when entering in STANDBY
 759:../Shared/Libraries/STM32F4xx_StdPeriph_Driver/src/stm32f4xx_flash.c ****   *            @arg OB_STDBY_RST: Reset generated when entering in STANDBY
 760:../Shared/Libraries/STM32F4xx_StdPeriph_Driver/src/stm32f4xx_flash.c ****   * @retval None
 761:../Shared/Libraries/STM32F4xx_StdPeriph_Driver/src/stm32f4xx_flash.c ****   */
 762:../Shared/Libraries/STM32F4xx_StdPeriph_Driver/src/stm32f4xx_flash.c **** void FLASH_OB_UserConfig(uint8_t OB_IWDG, uint8_t OB_STOP, uint8_t OB_STDBY)
 763:../Shared/Libraries/STM32F4xx_StdPeriph_Driver/src/stm32f4xx_flash.c **** {
 1400              		.loc 1 763 1
 1401              		.cfi_startproc
 1402              		@ args = 0, pretend = 0, frame = 16
 1403              		@ frame_needed = 1, uses_anonymous_args = 0
 1404 0000 80B5     		push	{r7, lr}
 1405              	.LCFI88:
 1406              		.cfi_def_cfa_offset 8
 1407              		.cfi_offset 7, -8
 1408              		.cfi_offset 14, -4
 1409 0002 84B0     		sub	sp, sp, #16
 1410              	.LCFI89:
 1411              		.cfi_def_cfa_offset 24
 1412 0004 00AF     		add	r7, sp, #0
 1413              	.LCFI90:
 1414              		.cfi_def_cfa_register 7
 1415 0006 0346     		mov	r3, r0
 1416 0008 FB71     		strb	r3, [r7, #7]
 1417 000a 0B46     		mov	r3, r1
 1418 000c BB71     		strb	r3, [r7, #6]
 1419 000e 1346     		mov	r3, r2
 1420 0010 7B71     		strb	r3, [r7, #5]
 764:../Shared/Libraries/STM32F4xx_StdPeriph_Driver/src/stm32f4xx_flash.c ****   uint8_t optiontmp = 0xFF;
 1421              		.loc 1 764 11
 1422 0012 FF23     		movs	r3, #255
 1423 0014 FB73     		strb	r3, [r7, #15]
 765:../Shared/Libraries/STM32F4xx_StdPeriph_Driver/src/stm32f4xx_flash.c ****   FLASH_Status status = FLASH_COMPLETE; 
 1424              		.loc 1 765 16
 1425 0016 0823     		movs	r3, #8
 1426 0018 BB73     		strb	r3, [r7, #14]
 766:../Shared/Libraries/STM32F4xx_StdPeriph_Driver/src/stm32f4xx_flash.c **** 
 767:../Shared/Libraries/STM32F4xx_StdPeriph_Driver/src/stm32f4xx_flash.c ****   /* Check the parameters */
ARM GAS  /tmp/ccBoElqq.s 			page 39


 768:../Shared/Libraries/STM32F4xx_StdPeriph_Driver/src/stm32f4xx_flash.c ****   assert_param(IS_OB_IWDG_SOURCE(OB_IWDG));
 769:../Shared/Libraries/STM32F4xx_StdPeriph_Driver/src/stm32f4xx_flash.c ****   assert_param(IS_OB_STOP_SOURCE(OB_STOP));
 770:../Shared/Libraries/STM32F4xx_StdPeriph_Driver/src/stm32f4xx_flash.c ****   assert_param(IS_OB_STDBY_SOURCE(OB_STDBY));
 771:../Shared/Libraries/STM32F4xx_StdPeriph_Driver/src/stm32f4xx_flash.c **** 
 772:../Shared/Libraries/STM32F4xx_StdPeriph_Driver/src/stm32f4xx_flash.c ****   /* Wait for last operation to be completed */
 773:../Shared/Libraries/STM32F4xx_StdPeriph_Driver/src/stm32f4xx_flash.c ****   status = FLASH_WaitForLastOperation();
 1427              		.loc 1 773 12
 1428 001a FFF7FEFF 		bl	FLASH_WaitForLastOperation
 1429 001e 0346     		mov	r3, r0
 1430 0020 BB73     		strb	r3, [r7, #14]
 774:../Shared/Libraries/STM32F4xx_StdPeriph_Driver/src/stm32f4xx_flash.c ****   
 775:../Shared/Libraries/STM32F4xx_StdPeriph_Driver/src/stm32f4xx_flash.c ****   if(status == FLASH_COMPLETE)
 1431              		.loc 1 775 5
 1432 0022 BB7B     		ldrb	r3, [r7, #14]	@ zero_extendqisi2
 1433 0024 082B     		cmp	r3, #8
 1434 0026 11D1     		bne	.L95
 776:../Shared/Libraries/STM32F4xx_StdPeriph_Driver/src/stm32f4xx_flash.c ****   { 
 777:../Shared/Libraries/STM32F4xx_StdPeriph_Driver/src/stm32f4xx_flash.c ****     /* Mask OPTLOCK, OPTSTRT and BOR_LEV bits */
 778:../Shared/Libraries/STM32F4xx_StdPeriph_Driver/src/stm32f4xx_flash.c ****     optiontmp =  (uint8_t)((*(__IO uint8_t *)OPTCR_BYTE0_ADDRESS) & (uint8_t)0x0F); 
 1435              		.loc 1 778 67
 1436 0028 0A4B     		ldr	r3, .L96
 1437 002a 1B78     		ldrb	r3, [r3]
 1438 002c DBB2     		uxtb	r3, r3
 1439              		.loc 1 778 15
 1440 002e 03F00F03 		and	r3, r3, #15
 1441 0032 FB73     		strb	r3, [r7, #15]
 779:../Shared/Libraries/STM32F4xx_StdPeriph_Driver/src/stm32f4xx_flash.c **** 
 780:../Shared/Libraries/STM32F4xx_StdPeriph_Driver/src/stm32f4xx_flash.c ****     /* Update User Option Byte */
 781:../Shared/Libraries/STM32F4xx_StdPeriph_Driver/src/stm32f4xx_flash.c ****     *(__IO uint8_t *)OPTCR_BYTE0_ADDRESS = OB_IWDG | (uint8_t)(OB_STDBY | (uint8_t)(OB_STOP | ((uin
 1442              		.loc 1 781 75
 1443 0034 BA79     		ldrb	r2, [r7, #6]
 1444 0036 FB7B     		ldrb	r3, [r7, #15]
 1445 0038 1343     		orrs	r3, r3, r2
 1446 003a DAB2     		uxtb	r2, r3
 1447              		.loc 1 781 54
 1448 003c 7B79     		ldrb	r3, [r7, #5]
 1449 003e 1343     		orrs	r3, r3, r2
 1450 0040 DAB2     		uxtb	r2, r3
 1451              		.loc 1 781 5
 1452 0042 0449     		ldr	r1, .L96
 1453              		.loc 1 781 42
 1454 0044 FB79     		ldrb	r3, [r7, #7]
 1455 0046 1343     		orrs	r3, r3, r2
 1456 0048 DBB2     		uxtb	r3, r3
 1457 004a 0B70     		strb	r3, [r1]
 1458              	.L95:
 782:../Shared/Libraries/STM32F4xx_StdPeriph_Driver/src/stm32f4xx_flash.c ****   }  
 783:../Shared/Libraries/STM32F4xx_StdPeriph_Driver/src/stm32f4xx_flash.c **** }
 1459              		.loc 1 783 1
 1460 004c 00BF     		nop
 1461 004e 1037     		adds	r7, r7, #16
 1462              	.LCFI91:
 1463              		.cfi_def_cfa_offset 8
 1464 0050 BD46     		mov	sp, r7
 1465              	.LCFI92:
 1466              		.cfi_def_cfa_register 13
 1467              		@ sp needed
ARM GAS  /tmp/ccBoElqq.s 			page 40


 1468 0052 80BD     		pop	{r7, pc}
 1469              	.L97:
 1470              		.align	2
 1471              	.L96:
 1472 0054 143C0240 		.word	1073888276
 1473              		.cfi_endproc
 1474              	.LFE128:
 1476              		.section	.text.FLASH_OB_BORConfig,"ax",%progbits
 1477              		.align	1
 1478              		.global	FLASH_OB_BORConfig
 1479              		.syntax unified
 1480              		.thumb
 1481              		.thumb_func
 1483              	FLASH_OB_BORConfig:
 1484              	.LFB129:
 784:../Shared/Libraries/STM32F4xx_StdPeriph_Driver/src/stm32f4xx_flash.c **** 
 785:../Shared/Libraries/STM32F4xx_StdPeriph_Driver/src/stm32f4xx_flash.c **** /**
 786:../Shared/Libraries/STM32F4xx_StdPeriph_Driver/src/stm32f4xx_flash.c ****   * @brief  Sets the BOR Level. 
 787:../Shared/Libraries/STM32F4xx_StdPeriph_Driver/src/stm32f4xx_flash.c ****   * @param  OB_BOR: specifies the Option Bytes BOR Reset Level.
 788:../Shared/Libraries/STM32F4xx_StdPeriph_Driver/src/stm32f4xx_flash.c ****   *          This parameter can be one of the following values:
 789:../Shared/Libraries/STM32F4xx_StdPeriph_Driver/src/stm32f4xx_flash.c ****   *            @arg OB_BOR_LEVEL3: Supply voltage ranges from 2.7 to 3.6 V
 790:../Shared/Libraries/STM32F4xx_StdPeriph_Driver/src/stm32f4xx_flash.c ****   *            @arg OB_BOR_LEVEL2: Supply voltage ranges from 2.4 to 2.7 V
 791:../Shared/Libraries/STM32F4xx_StdPeriph_Driver/src/stm32f4xx_flash.c ****   *            @arg OB_BOR_LEVEL1: Supply voltage ranges from 2.1 to 2.4 V
 792:../Shared/Libraries/STM32F4xx_StdPeriph_Driver/src/stm32f4xx_flash.c ****   *            @arg OB_BOR_OFF: Supply voltage ranges from 1.62 to 2.1 V
 793:../Shared/Libraries/STM32F4xx_StdPeriph_Driver/src/stm32f4xx_flash.c ****   * @retval None
 794:../Shared/Libraries/STM32F4xx_StdPeriph_Driver/src/stm32f4xx_flash.c ****   */
 795:../Shared/Libraries/STM32F4xx_StdPeriph_Driver/src/stm32f4xx_flash.c **** void FLASH_OB_BORConfig(uint8_t OB_BOR)
 796:../Shared/Libraries/STM32F4xx_StdPeriph_Driver/src/stm32f4xx_flash.c **** {
 1485              		.loc 1 796 1
 1486              		.cfi_startproc
 1487              		@ args = 0, pretend = 0, frame = 8
 1488              		@ frame_needed = 1, uses_anonymous_args = 0
 1489              		@ link register save eliminated.
 1490 0000 80B4     		push	{r7}
 1491              	.LCFI93:
 1492              		.cfi_def_cfa_offset 4
 1493              		.cfi_offset 7, -4
 1494 0002 83B0     		sub	sp, sp, #12
 1495              	.LCFI94:
 1496              		.cfi_def_cfa_offset 16
 1497 0004 00AF     		add	r7, sp, #0
 1498              	.LCFI95:
 1499              		.cfi_def_cfa_register 7
 1500 0006 0346     		mov	r3, r0
 1501 0008 FB71     		strb	r3, [r7, #7]
 797:../Shared/Libraries/STM32F4xx_StdPeriph_Driver/src/stm32f4xx_flash.c ****   /* Check the parameters */
 798:../Shared/Libraries/STM32F4xx_StdPeriph_Driver/src/stm32f4xx_flash.c ****   assert_param(IS_OB_BOR(OB_BOR));
 799:../Shared/Libraries/STM32F4xx_StdPeriph_Driver/src/stm32f4xx_flash.c **** 
 800:../Shared/Libraries/STM32F4xx_StdPeriph_Driver/src/stm32f4xx_flash.c ****   /* Set the BOR Level */
 801:../Shared/Libraries/STM32F4xx_StdPeriph_Driver/src/stm32f4xx_flash.c ****   *(__IO uint8_t *)OPTCR_BYTE0_ADDRESS &= (~FLASH_OPTCR_BOR_LEV);
 1502              		.loc 1 801 3
 1503 000a 0B4B     		ldr	r3, .L99
 1504 000c 1B78     		ldrb	r3, [r3]
 1505 000e DBB2     		uxtb	r3, r3
 1506 0010 094A     		ldr	r2, .L99
 1507              		.loc 1 801 40
 1508 0012 23F00C03 		bic	r3, r3, #12
ARM GAS  /tmp/ccBoElqq.s 			page 41


 1509 0016 DBB2     		uxtb	r3, r3
 1510 0018 1370     		strb	r3, [r2]
 802:../Shared/Libraries/STM32F4xx_StdPeriph_Driver/src/stm32f4xx_flash.c ****   *(__IO uint8_t *)OPTCR_BYTE0_ADDRESS |= OB_BOR;
 1511              		.loc 1 802 3
 1512 001a 074B     		ldr	r3, .L99
 1513 001c 1B78     		ldrb	r3, [r3]
 1514 001e DAB2     		uxtb	r2, r3
 1515 0020 0549     		ldr	r1, .L99
 1516              		.loc 1 802 40
 1517 0022 FB79     		ldrb	r3, [r7, #7]
 1518 0024 1343     		orrs	r3, r3, r2
 1519 0026 DBB2     		uxtb	r3, r3
 1520 0028 0B70     		strb	r3, [r1]
 803:../Shared/Libraries/STM32F4xx_StdPeriph_Driver/src/stm32f4xx_flash.c **** 
 804:../Shared/Libraries/STM32F4xx_StdPeriph_Driver/src/stm32f4xx_flash.c **** }
 1521              		.loc 1 804 1
 1522 002a 00BF     		nop
 1523 002c 0C37     		adds	r7, r7, #12
 1524              	.LCFI96:
 1525              		.cfi_def_cfa_offset 4
 1526 002e BD46     		mov	sp, r7
 1527              	.LCFI97:
 1528              		.cfi_def_cfa_register 13
 1529              		@ sp needed
 1530 0030 5DF8047B 		ldr	r7, [sp], #4
 1531              	.LCFI98:
 1532              		.cfi_restore 7
 1533              		.cfi_def_cfa_offset 0
 1534 0034 7047     		bx	lr
 1535              	.L100:
 1536 0036 00BF     		.align	2
 1537              	.L99:
 1538 0038 143C0240 		.word	1073888276
 1539              		.cfi_endproc
 1540              	.LFE129:
 1542              		.section	.text.FLASH_OB_Launch,"ax",%progbits
 1543              		.align	1
 1544              		.global	FLASH_OB_Launch
 1545              		.syntax unified
 1546              		.thumb
 1547              		.thumb_func
 1549              	FLASH_OB_Launch:
 1550              	.LFB130:
 805:../Shared/Libraries/STM32F4xx_StdPeriph_Driver/src/stm32f4xx_flash.c **** 
 806:../Shared/Libraries/STM32F4xx_StdPeriph_Driver/src/stm32f4xx_flash.c **** /**
 807:../Shared/Libraries/STM32F4xx_StdPeriph_Driver/src/stm32f4xx_flash.c ****   * @brief  Launch the option byte loading.
 808:../Shared/Libraries/STM32F4xx_StdPeriph_Driver/src/stm32f4xx_flash.c ****   * @param  None
 809:../Shared/Libraries/STM32F4xx_StdPeriph_Driver/src/stm32f4xx_flash.c ****   * @retval FLASH Status: The returned value can be: FLASH_BUSY, FLASH_ERROR_PROGRAM,
 810:../Shared/Libraries/STM32F4xx_StdPeriph_Driver/src/stm32f4xx_flash.c ****   *                       FLASH_ERROR_WRP, FLASH_ERROR_OPERATION or FLASH_COMPLETE.
 811:../Shared/Libraries/STM32F4xx_StdPeriph_Driver/src/stm32f4xx_flash.c ****   */
 812:../Shared/Libraries/STM32F4xx_StdPeriph_Driver/src/stm32f4xx_flash.c **** FLASH_Status FLASH_OB_Launch(void)
 813:../Shared/Libraries/STM32F4xx_StdPeriph_Driver/src/stm32f4xx_flash.c **** {
 1551              		.loc 1 813 1
 1552              		.cfi_startproc
 1553              		@ args = 0, pretend = 0, frame = 8
 1554              		@ frame_needed = 1, uses_anonymous_args = 0
 1555 0000 80B5     		push	{r7, lr}
ARM GAS  /tmp/ccBoElqq.s 			page 42


 1556              	.LCFI99:
 1557              		.cfi_def_cfa_offset 8
 1558              		.cfi_offset 7, -8
 1559              		.cfi_offset 14, -4
 1560 0002 82B0     		sub	sp, sp, #8
 1561              	.LCFI100:
 1562              		.cfi_def_cfa_offset 16
 1563 0004 00AF     		add	r7, sp, #0
 1564              	.LCFI101:
 1565              		.cfi_def_cfa_register 7
 814:../Shared/Libraries/STM32F4xx_StdPeriph_Driver/src/stm32f4xx_flash.c ****   FLASH_Status status = FLASH_COMPLETE;
 1566              		.loc 1 814 16
 1567 0006 0823     		movs	r3, #8
 1568 0008 FB71     		strb	r3, [r7, #7]
 815:../Shared/Libraries/STM32F4xx_StdPeriph_Driver/src/stm32f4xx_flash.c **** 
 816:../Shared/Libraries/STM32F4xx_StdPeriph_Driver/src/stm32f4xx_flash.c ****   /* Set the OPTSTRT bit in OPTCR register */
 817:../Shared/Libraries/STM32F4xx_StdPeriph_Driver/src/stm32f4xx_flash.c ****   *(__IO uint8_t *)OPTCR_BYTE0_ADDRESS |= FLASH_OPTCR_OPTSTRT;
 1569              		.loc 1 817 3
 1570 000a 084B     		ldr	r3, .L103
 1571 000c 1B78     		ldrb	r3, [r3]
 1572 000e DBB2     		uxtb	r3, r3
 1573 0010 064A     		ldr	r2, .L103
 1574              		.loc 1 817 40
 1575 0012 43F00203 		orr	r3, r3, #2
 1576 0016 DBB2     		uxtb	r3, r3
 1577 0018 1370     		strb	r3, [r2]
 818:../Shared/Libraries/STM32F4xx_StdPeriph_Driver/src/stm32f4xx_flash.c **** 
 819:../Shared/Libraries/STM32F4xx_StdPeriph_Driver/src/stm32f4xx_flash.c ****   /* Wait for last operation to be completed */
 820:../Shared/Libraries/STM32F4xx_StdPeriph_Driver/src/stm32f4xx_flash.c ****   status = FLASH_WaitForLastOperation();
 1578              		.loc 1 820 12
 1579 001a FFF7FEFF 		bl	FLASH_WaitForLastOperation
 1580 001e 0346     		mov	r3, r0
 1581 0020 FB71     		strb	r3, [r7, #7]
 821:../Shared/Libraries/STM32F4xx_StdPeriph_Driver/src/stm32f4xx_flash.c **** 
 822:../Shared/Libraries/STM32F4xx_StdPeriph_Driver/src/stm32f4xx_flash.c ****   return status;
 1582              		.loc 1 822 10
 1583 0022 FB79     		ldrb	r3, [r7, #7]	@ zero_extendqisi2
 823:../Shared/Libraries/STM32F4xx_StdPeriph_Driver/src/stm32f4xx_flash.c **** }
 1584              		.loc 1 823 1
 1585 0024 1846     		mov	r0, r3
 1586 0026 0837     		adds	r7, r7, #8
 1587              	.LCFI102:
 1588              		.cfi_def_cfa_offset 8
 1589 0028 BD46     		mov	sp, r7
 1590              	.LCFI103:
 1591              		.cfi_def_cfa_register 13
 1592              		@ sp needed
 1593 002a 80BD     		pop	{r7, pc}
 1594              	.L104:
 1595              		.align	2
 1596              	.L103:
 1597 002c 143C0240 		.word	1073888276
 1598              		.cfi_endproc
 1599              	.LFE130:
 1601              		.section	.text.FLASH_OB_GetUser,"ax",%progbits
 1602              		.align	1
 1603              		.global	FLASH_OB_GetUser
ARM GAS  /tmp/ccBoElqq.s 			page 43


 1604              		.syntax unified
 1605              		.thumb
 1606              		.thumb_func
 1608              	FLASH_OB_GetUser:
 1609              	.LFB131:
 824:../Shared/Libraries/STM32F4xx_StdPeriph_Driver/src/stm32f4xx_flash.c **** 
 825:../Shared/Libraries/STM32F4xx_StdPeriph_Driver/src/stm32f4xx_flash.c **** /**
 826:../Shared/Libraries/STM32F4xx_StdPeriph_Driver/src/stm32f4xx_flash.c ****   * @brief  Returns the FLASH User Option Bytes values.
 827:../Shared/Libraries/STM32F4xx_StdPeriph_Driver/src/stm32f4xx_flash.c ****   * @param  None
 828:../Shared/Libraries/STM32F4xx_StdPeriph_Driver/src/stm32f4xx_flash.c ****   * @retval The FLASH User Option Bytes values: IWDG_SW(Bit0), RST_STOP(Bit1)
 829:../Shared/Libraries/STM32F4xx_StdPeriph_Driver/src/stm32f4xx_flash.c ****   *         and RST_STDBY(Bit2).
 830:../Shared/Libraries/STM32F4xx_StdPeriph_Driver/src/stm32f4xx_flash.c ****   */
 831:../Shared/Libraries/STM32F4xx_StdPeriph_Driver/src/stm32f4xx_flash.c **** uint8_t FLASH_OB_GetUser(void)
 832:../Shared/Libraries/STM32F4xx_StdPeriph_Driver/src/stm32f4xx_flash.c **** {
 1610              		.loc 1 832 1
 1611              		.cfi_startproc
 1612              		@ args = 0, pretend = 0, frame = 0
 1613              		@ frame_needed = 1, uses_anonymous_args = 0
 1614              		@ link register save eliminated.
 1615 0000 80B4     		push	{r7}
 1616              	.LCFI104:
 1617              		.cfi_def_cfa_offset 4
 1618              		.cfi_offset 7, -4
 1619 0002 00AF     		add	r7, sp, #0
 1620              	.LCFI105:
 1621              		.cfi_def_cfa_register 7
 833:../Shared/Libraries/STM32F4xx_StdPeriph_Driver/src/stm32f4xx_flash.c ****   /* Return the User Option Byte */
 834:../Shared/Libraries/STM32F4xx_StdPeriph_Driver/src/stm32f4xx_flash.c ****   return (uint8_t)(FLASH->OPTCR >> 5);
 1622              		.loc 1 834 25
 1623 0004 044B     		ldr	r3, .L107
 1624 0006 5B69     		ldr	r3, [r3, #20]
 1625              		.loc 1 834 33
 1626 0008 5B09     		lsrs	r3, r3, #5
 1627              		.loc 1 834 10
 1628 000a DBB2     		uxtb	r3, r3
 835:../Shared/Libraries/STM32F4xx_StdPeriph_Driver/src/stm32f4xx_flash.c **** }
 1629              		.loc 1 835 1
 1630 000c 1846     		mov	r0, r3
 1631 000e BD46     		mov	sp, r7
 1632              	.LCFI106:
 1633              		.cfi_def_cfa_register 13
 1634              		@ sp needed
 1635 0010 5DF8047B 		ldr	r7, [sp], #4
 1636              	.LCFI107:
 1637              		.cfi_restore 7
 1638              		.cfi_def_cfa_offset 0
 1639 0014 7047     		bx	lr
 1640              	.L108:
 1641 0016 00BF     		.align	2
 1642              	.L107:
 1643 0018 003C0240 		.word	1073888256
 1644              		.cfi_endproc
 1645              	.LFE131:
 1647              		.section	.text.FLASH_OB_GetWRP,"ax",%progbits
 1648              		.align	1
 1649              		.global	FLASH_OB_GetWRP
 1650              		.syntax unified
ARM GAS  /tmp/ccBoElqq.s 			page 44


 1651              		.thumb
 1652              		.thumb_func
 1654              	FLASH_OB_GetWRP:
 1655              	.LFB132:
 836:../Shared/Libraries/STM32F4xx_StdPeriph_Driver/src/stm32f4xx_flash.c **** 
 837:../Shared/Libraries/STM32F4xx_StdPeriph_Driver/src/stm32f4xx_flash.c **** /**
 838:../Shared/Libraries/STM32F4xx_StdPeriph_Driver/src/stm32f4xx_flash.c ****   * @brief  Returns the FLASH Write Protection Option Bytes value.
 839:../Shared/Libraries/STM32F4xx_StdPeriph_Driver/src/stm32f4xx_flash.c ****   * @param  None
 840:../Shared/Libraries/STM32F4xx_StdPeriph_Driver/src/stm32f4xx_flash.c ****   * @retval The FLASH Write Protection  Option Bytes value
 841:../Shared/Libraries/STM32F4xx_StdPeriph_Driver/src/stm32f4xx_flash.c ****   */
 842:../Shared/Libraries/STM32F4xx_StdPeriph_Driver/src/stm32f4xx_flash.c **** uint16_t FLASH_OB_GetWRP(void)
 843:../Shared/Libraries/STM32F4xx_StdPeriph_Driver/src/stm32f4xx_flash.c **** {
 1656              		.loc 1 843 1
 1657              		.cfi_startproc
 1658              		@ args = 0, pretend = 0, frame = 0
 1659              		@ frame_needed = 1, uses_anonymous_args = 0
 1660              		@ link register save eliminated.
 1661 0000 80B4     		push	{r7}
 1662              	.LCFI108:
 1663              		.cfi_def_cfa_offset 4
 1664              		.cfi_offset 7, -4
 1665 0002 00AF     		add	r7, sp, #0
 1666              	.LCFI109:
 1667              		.cfi_def_cfa_register 7
 844:../Shared/Libraries/STM32F4xx_StdPeriph_Driver/src/stm32f4xx_flash.c ****   /* Return the FLASH write protection Register value */
 845:../Shared/Libraries/STM32F4xx_StdPeriph_Driver/src/stm32f4xx_flash.c ****   return (*(__IO uint16_t *)(OPTCR_BYTE2_ADDRESS));
 1668              		.loc 1 845 11
 1669 0004 034B     		ldr	r3, .L111
 1670 0006 1B88     		ldrh	r3, [r3]	@ movhi
 1671 0008 9BB2     		uxth	r3, r3
 846:../Shared/Libraries/STM32F4xx_StdPeriph_Driver/src/stm32f4xx_flash.c **** }
 1672              		.loc 1 846 1
 1673 000a 1846     		mov	r0, r3
 1674 000c BD46     		mov	sp, r7
 1675              	.LCFI110:
 1676              		.cfi_def_cfa_register 13
 1677              		@ sp needed
 1678 000e 5DF8047B 		ldr	r7, [sp], #4
 1679              	.LCFI111:
 1680              		.cfi_restore 7
 1681              		.cfi_def_cfa_offset 0
 1682 0012 7047     		bx	lr
 1683              	.L112:
 1684              		.align	2
 1685              	.L111:
 1686 0014 163C0240 		.word	1073888278
 1687              		.cfi_endproc
 1688              	.LFE132:
 1690              		.section	.text.FLASH_OB_GetRDP,"ax",%progbits
 1691              		.align	1
 1692              		.global	FLASH_OB_GetRDP
 1693              		.syntax unified
 1694              		.thumb
 1695              		.thumb_func
 1697              	FLASH_OB_GetRDP:
 1698              	.LFB133:
 847:../Shared/Libraries/STM32F4xx_StdPeriph_Driver/src/stm32f4xx_flash.c **** 
ARM GAS  /tmp/ccBoElqq.s 			page 45


 848:../Shared/Libraries/STM32F4xx_StdPeriph_Driver/src/stm32f4xx_flash.c **** /**
 849:../Shared/Libraries/STM32F4xx_StdPeriph_Driver/src/stm32f4xx_flash.c ****   * @brief  Returns the FLASH Read Protection level.
 850:../Shared/Libraries/STM32F4xx_StdPeriph_Driver/src/stm32f4xx_flash.c ****   * @param  None
 851:../Shared/Libraries/STM32F4xx_StdPeriph_Driver/src/stm32f4xx_flash.c ****   * @retval FLASH ReadOut Protection Status:
 852:../Shared/Libraries/STM32F4xx_StdPeriph_Driver/src/stm32f4xx_flash.c ****   *           - SET, when OB_RDP_Level_1 or OB_RDP_Level_2 is set
 853:../Shared/Libraries/STM32F4xx_StdPeriph_Driver/src/stm32f4xx_flash.c ****   *           - RESET, when OB_RDP_Level_0 is set
 854:../Shared/Libraries/STM32F4xx_StdPeriph_Driver/src/stm32f4xx_flash.c ****   */
 855:../Shared/Libraries/STM32F4xx_StdPeriph_Driver/src/stm32f4xx_flash.c **** FlagStatus FLASH_OB_GetRDP(void)
 856:../Shared/Libraries/STM32F4xx_StdPeriph_Driver/src/stm32f4xx_flash.c **** {
 1699              		.loc 1 856 1
 1700              		.cfi_startproc
 1701              		@ args = 0, pretend = 0, frame = 8
 1702              		@ frame_needed = 1, uses_anonymous_args = 0
 1703              		@ link register save eliminated.
 1704 0000 80B4     		push	{r7}
 1705              	.LCFI112:
 1706              		.cfi_def_cfa_offset 4
 1707              		.cfi_offset 7, -4
 1708 0002 83B0     		sub	sp, sp, #12
 1709              	.LCFI113:
 1710              		.cfi_def_cfa_offset 16
 1711 0004 00AF     		add	r7, sp, #0
 1712              	.LCFI114:
 1713              		.cfi_def_cfa_register 7
 857:../Shared/Libraries/STM32F4xx_StdPeriph_Driver/src/stm32f4xx_flash.c ****   FlagStatus readstatus = RESET;
 1714              		.loc 1 857 14
 1715 0006 0023     		movs	r3, #0
 1716 0008 FB71     		strb	r3, [r7, #7]
 858:../Shared/Libraries/STM32F4xx_StdPeriph_Driver/src/stm32f4xx_flash.c **** 
 859:../Shared/Libraries/STM32F4xx_StdPeriph_Driver/src/stm32f4xx_flash.c ****   if ((*(__IO uint8_t*)(OPTCR_BYTE1_ADDRESS) != (uint8_t)OB_RDP_Level_0))
 1717              		.loc 1 859 8
 1718 000a 084B     		ldr	r3, .L117
 1719 000c 1B78     		ldrb	r3, [r3]
 1720 000e DBB2     		uxtb	r3, r3
 1721              		.loc 1 859 6
 1722 0010 AA2B     		cmp	r3, #170
 1723 0012 02D0     		beq	.L114
 860:../Shared/Libraries/STM32F4xx_StdPeriph_Driver/src/stm32f4xx_flash.c ****   {
 861:../Shared/Libraries/STM32F4xx_StdPeriph_Driver/src/stm32f4xx_flash.c ****     readstatus = SET;
 1724              		.loc 1 861 16
 1725 0014 0123     		movs	r3, #1
 1726 0016 FB71     		strb	r3, [r7, #7]
 1727 0018 01E0     		b	.L115
 1728              	.L114:
 862:../Shared/Libraries/STM32F4xx_StdPeriph_Driver/src/stm32f4xx_flash.c ****   }
 863:../Shared/Libraries/STM32F4xx_StdPeriph_Driver/src/stm32f4xx_flash.c ****   else
 864:../Shared/Libraries/STM32F4xx_StdPeriph_Driver/src/stm32f4xx_flash.c ****   {
 865:../Shared/Libraries/STM32F4xx_StdPeriph_Driver/src/stm32f4xx_flash.c ****     readstatus = RESET;
 1729              		.loc 1 865 16
 1730 001a 0023     		movs	r3, #0
 1731 001c FB71     		strb	r3, [r7, #7]
 1732              	.L115:
 866:../Shared/Libraries/STM32F4xx_StdPeriph_Driver/src/stm32f4xx_flash.c ****   }
 867:../Shared/Libraries/STM32F4xx_StdPeriph_Driver/src/stm32f4xx_flash.c ****   return readstatus;
 1733              		.loc 1 867 10
 1734 001e FB79     		ldrb	r3, [r7, #7]	@ zero_extendqisi2
 868:../Shared/Libraries/STM32F4xx_StdPeriph_Driver/src/stm32f4xx_flash.c **** }
ARM GAS  /tmp/ccBoElqq.s 			page 46


 1735              		.loc 1 868 1
 1736 0020 1846     		mov	r0, r3
 1737 0022 0C37     		adds	r7, r7, #12
 1738              	.LCFI115:
 1739              		.cfi_def_cfa_offset 4
 1740 0024 BD46     		mov	sp, r7
 1741              	.LCFI116:
 1742              		.cfi_def_cfa_register 13
 1743              		@ sp needed
 1744 0026 5DF8047B 		ldr	r7, [sp], #4
 1745              	.LCFI117:
 1746              		.cfi_restore 7
 1747              		.cfi_def_cfa_offset 0
 1748 002a 7047     		bx	lr
 1749              	.L118:
 1750              		.align	2
 1751              	.L117:
 1752 002c 153C0240 		.word	1073888277
 1753              		.cfi_endproc
 1754              	.LFE133:
 1756              		.section	.text.FLASH_OB_GetBOR,"ax",%progbits
 1757              		.align	1
 1758              		.global	FLASH_OB_GetBOR
 1759              		.syntax unified
 1760              		.thumb
 1761              		.thumb_func
 1763              	FLASH_OB_GetBOR:
 1764              	.LFB134:
 869:../Shared/Libraries/STM32F4xx_StdPeriph_Driver/src/stm32f4xx_flash.c **** 
 870:../Shared/Libraries/STM32F4xx_StdPeriph_Driver/src/stm32f4xx_flash.c **** /**
 871:../Shared/Libraries/STM32F4xx_StdPeriph_Driver/src/stm32f4xx_flash.c ****   * @brief  Returns the FLASH BOR level.
 872:../Shared/Libraries/STM32F4xx_StdPeriph_Driver/src/stm32f4xx_flash.c ****   * @param  None
 873:../Shared/Libraries/STM32F4xx_StdPeriph_Driver/src/stm32f4xx_flash.c ****   * @retval The FLASH BOR level:
 874:../Shared/Libraries/STM32F4xx_StdPeriph_Driver/src/stm32f4xx_flash.c ****   *           - OB_BOR_LEVEL3: Supply voltage ranges from 2.7 to 3.6 V
 875:../Shared/Libraries/STM32F4xx_StdPeriph_Driver/src/stm32f4xx_flash.c ****   *           - OB_BOR_LEVEL2: Supply voltage ranges from 2.4 to 2.7 V
 876:../Shared/Libraries/STM32F4xx_StdPeriph_Driver/src/stm32f4xx_flash.c ****   *           - OB_BOR_LEVEL1: Supply voltage ranges from 2.1 to 2.4 V
 877:../Shared/Libraries/STM32F4xx_StdPeriph_Driver/src/stm32f4xx_flash.c ****   *           - OB_BOR_OFF   : Supply voltage ranges from 1.62 to 2.1 V  
 878:../Shared/Libraries/STM32F4xx_StdPeriph_Driver/src/stm32f4xx_flash.c ****   */
 879:../Shared/Libraries/STM32F4xx_StdPeriph_Driver/src/stm32f4xx_flash.c **** uint8_t FLASH_OB_GetBOR(void)
 880:../Shared/Libraries/STM32F4xx_StdPeriph_Driver/src/stm32f4xx_flash.c **** {
 1765              		.loc 1 880 1
 1766              		.cfi_startproc
 1767              		@ args = 0, pretend = 0, frame = 0
 1768              		@ frame_needed = 1, uses_anonymous_args = 0
 1769              		@ link register save eliminated.
 1770 0000 80B4     		push	{r7}
 1771              	.LCFI118:
 1772              		.cfi_def_cfa_offset 4
 1773              		.cfi_offset 7, -4
 1774 0002 00AF     		add	r7, sp, #0
 1775              	.LCFI119:
 1776              		.cfi_def_cfa_register 7
 881:../Shared/Libraries/STM32F4xx_StdPeriph_Driver/src/stm32f4xx_flash.c ****   /* Return the FLASH BOR level */
 882:../Shared/Libraries/STM32F4xx_StdPeriph_Driver/src/stm32f4xx_flash.c ****   return (uint8_t)(*(__IO uint8_t *)(OPTCR_BYTE0_ADDRESS) & (uint8_t)0x0C);
 1777              		.loc 1 882 10
 1778 0004 054B     		ldr	r3, .L121
 1779 0006 1B78     		ldrb	r3, [r3]
ARM GAS  /tmp/ccBoElqq.s 			page 47


 1780 0008 DBB2     		uxtb	r3, r3
 1781 000a 03F00C03 		and	r3, r3, #12
 1782 000e DBB2     		uxtb	r3, r3
 883:../Shared/Libraries/STM32F4xx_StdPeriph_Driver/src/stm32f4xx_flash.c **** }
 1783              		.loc 1 883 1
 1784 0010 1846     		mov	r0, r3
 1785 0012 BD46     		mov	sp, r7
 1786              	.LCFI120:
 1787              		.cfi_def_cfa_register 13
 1788              		@ sp needed
 1789 0014 5DF8047B 		ldr	r7, [sp], #4
 1790              	.LCFI121:
 1791              		.cfi_restore 7
 1792              		.cfi_def_cfa_offset 0
 1793 0018 7047     		bx	lr
 1794              	.L122:
 1795 001a 00BF     		.align	2
 1796              	.L121:
 1797 001c 143C0240 		.word	1073888276
 1798              		.cfi_endproc
 1799              	.LFE134:
 1801              		.section	.text.FLASH_ITConfig,"ax",%progbits
 1802              		.align	1
 1803              		.global	FLASH_ITConfig
 1804              		.syntax unified
 1805              		.thumb
 1806              		.thumb_func
 1808              	FLASH_ITConfig:
 1809              	.LFB135:
 884:../Shared/Libraries/STM32F4xx_StdPeriph_Driver/src/stm32f4xx_flash.c **** 
 885:../Shared/Libraries/STM32F4xx_StdPeriph_Driver/src/stm32f4xx_flash.c **** /**
 886:../Shared/Libraries/STM32F4xx_StdPeriph_Driver/src/stm32f4xx_flash.c ****   * @}
 887:../Shared/Libraries/STM32F4xx_StdPeriph_Driver/src/stm32f4xx_flash.c ****   */
 888:../Shared/Libraries/STM32F4xx_StdPeriph_Driver/src/stm32f4xx_flash.c **** 
 889:../Shared/Libraries/STM32F4xx_StdPeriph_Driver/src/stm32f4xx_flash.c **** /** @defgroup FLASH_Group4 Interrupts and flags management functions
 890:../Shared/Libraries/STM32F4xx_StdPeriph_Driver/src/stm32f4xx_flash.c ****  *  @brief   Interrupts and flags management functions
 891:../Shared/Libraries/STM32F4xx_StdPeriph_Driver/src/stm32f4xx_flash.c ****  *
 892:../Shared/Libraries/STM32F4xx_StdPeriph_Driver/src/stm32f4xx_flash.c **** @verbatim   
 893:../Shared/Libraries/STM32F4xx_StdPeriph_Driver/src/stm32f4xx_flash.c ****  ===============================================================================
 894:../Shared/Libraries/STM32F4xx_StdPeriph_Driver/src/stm32f4xx_flash.c ****                   Interrupts and flags management functions
 895:../Shared/Libraries/STM32F4xx_StdPeriph_Driver/src/stm32f4xx_flash.c ****  ===============================================================================  
 896:../Shared/Libraries/STM32F4xx_StdPeriph_Driver/src/stm32f4xx_flash.c **** 
 897:../Shared/Libraries/STM32F4xx_StdPeriph_Driver/src/stm32f4xx_flash.c **** @endverbatim
 898:../Shared/Libraries/STM32F4xx_StdPeriph_Driver/src/stm32f4xx_flash.c ****   * @{
 899:../Shared/Libraries/STM32F4xx_StdPeriph_Driver/src/stm32f4xx_flash.c ****   */
 900:../Shared/Libraries/STM32F4xx_StdPeriph_Driver/src/stm32f4xx_flash.c **** 
 901:../Shared/Libraries/STM32F4xx_StdPeriph_Driver/src/stm32f4xx_flash.c **** /**
 902:../Shared/Libraries/STM32F4xx_StdPeriph_Driver/src/stm32f4xx_flash.c ****   * @brief  Enables or disables the specified FLASH interrupts.
 903:../Shared/Libraries/STM32F4xx_StdPeriph_Driver/src/stm32f4xx_flash.c ****   * @param  FLASH_IT: specifies the FLASH interrupt sources to be enabled or disabled.
 904:../Shared/Libraries/STM32F4xx_StdPeriph_Driver/src/stm32f4xx_flash.c ****   *          This parameter can be any combination of the following values:
 905:../Shared/Libraries/STM32F4xx_StdPeriph_Driver/src/stm32f4xx_flash.c ****   *            @arg FLASH_IT_ERR: FLASH Error Interrupt
 906:../Shared/Libraries/STM32F4xx_StdPeriph_Driver/src/stm32f4xx_flash.c ****   *            @arg FLASH_IT_EOP: FLASH end of operation Interrupt
 907:../Shared/Libraries/STM32F4xx_StdPeriph_Driver/src/stm32f4xx_flash.c ****   * @retval None 
 908:../Shared/Libraries/STM32F4xx_StdPeriph_Driver/src/stm32f4xx_flash.c ****   */
 909:../Shared/Libraries/STM32F4xx_StdPeriph_Driver/src/stm32f4xx_flash.c **** void FLASH_ITConfig(uint32_t FLASH_IT, FunctionalState NewState)
 910:../Shared/Libraries/STM32F4xx_StdPeriph_Driver/src/stm32f4xx_flash.c **** {
 1810              		.loc 1 910 1
ARM GAS  /tmp/ccBoElqq.s 			page 48


 1811              		.cfi_startproc
 1812              		@ args = 0, pretend = 0, frame = 8
 1813              		@ frame_needed = 1, uses_anonymous_args = 0
 1814              		@ link register save eliminated.
 1815 0000 80B4     		push	{r7}
 1816              	.LCFI122:
 1817              		.cfi_def_cfa_offset 4
 1818              		.cfi_offset 7, -4
 1819 0002 83B0     		sub	sp, sp, #12
 1820              	.LCFI123:
 1821              		.cfi_def_cfa_offset 16
 1822 0004 00AF     		add	r7, sp, #0
 1823              	.LCFI124:
 1824              		.cfi_def_cfa_register 7
 1825 0006 7860     		str	r0, [r7, #4]
 1826 0008 0B46     		mov	r3, r1
 1827 000a FB70     		strb	r3, [r7, #3]
 911:../Shared/Libraries/STM32F4xx_StdPeriph_Driver/src/stm32f4xx_flash.c ****   /* Check the parameters */
 912:../Shared/Libraries/STM32F4xx_StdPeriph_Driver/src/stm32f4xx_flash.c ****   assert_param(IS_FLASH_IT(FLASH_IT)); 
 913:../Shared/Libraries/STM32F4xx_StdPeriph_Driver/src/stm32f4xx_flash.c ****   assert_param(IS_FUNCTIONAL_STATE(NewState));
 914:../Shared/Libraries/STM32F4xx_StdPeriph_Driver/src/stm32f4xx_flash.c **** 
 915:../Shared/Libraries/STM32F4xx_StdPeriph_Driver/src/stm32f4xx_flash.c ****   if(NewState != DISABLE)
 1828              		.loc 1 915 5
 1829 000c FB78     		ldrb	r3, [r7, #3]	@ zero_extendqisi2
 1830 000e 002B     		cmp	r3, #0
 1831 0010 06D0     		beq	.L124
 916:../Shared/Libraries/STM32F4xx_StdPeriph_Driver/src/stm32f4xx_flash.c ****   {
 917:../Shared/Libraries/STM32F4xx_StdPeriph_Driver/src/stm32f4xx_flash.c ****     /* Enable the interrupt sources */
 918:../Shared/Libraries/STM32F4xx_StdPeriph_Driver/src/stm32f4xx_flash.c ****     FLASH->CR |= FLASH_IT;
 1832              		.loc 1 918 10
 1833 0012 0A4B     		ldr	r3, .L127
 1834 0014 1A69     		ldr	r2, [r3, #16]
 1835 0016 0949     		ldr	r1, .L127
 1836              		.loc 1 918 15
 1837 0018 7B68     		ldr	r3, [r7, #4]
 1838 001a 1343     		orrs	r3, r3, r2
 1839 001c 0B61     		str	r3, [r1, #16]
 919:../Shared/Libraries/STM32F4xx_StdPeriph_Driver/src/stm32f4xx_flash.c ****   }
 920:../Shared/Libraries/STM32F4xx_StdPeriph_Driver/src/stm32f4xx_flash.c ****   else
 921:../Shared/Libraries/STM32F4xx_StdPeriph_Driver/src/stm32f4xx_flash.c ****   {
 922:../Shared/Libraries/STM32F4xx_StdPeriph_Driver/src/stm32f4xx_flash.c ****     /* Disable the interrupt sources */
 923:../Shared/Libraries/STM32F4xx_StdPeriph_Driver/src/stm32f4xx_flash.c ****     FLASH->CR &= ~(uint32_t)FLASH_IT;
 924:../Shared/Libraries/STM32F4xx_StdPeriph_Driver/src/stm32f4xx_flash.c ****   }
 925:../Shared/Libraries/STM32F4xx_StdPeriph_Driver/src/stm32f4xx_flash.c **** }
 1840              		.loc 1 925 1
 1841 001e 06E0     		b	.L126
 1842              	.L124:
 923:../Shared/Libraries/STM32F4xx_StdPeriph_Driver/src/stm32f4xx_flash.c ****   }
 1843              		.loc 1 923 10
 1844 0020 064B     		ldr	r3, .L127
 1845 0022 1A69     		ldr	r2, [r3, #16]
 923:../Shared/Libraries/STM32F4xx_StdPeriph_Driver/src/stm32f4xx_flash.c ****   }
 1846              		.loc 1 923 18
 1847 0024 7B68     		ldr	r3, [r7, #4]
 1848 0026 DB43     		mvns	r3, r3
 923:../Shared/Libraries/STM32F4xx_StdPeriph_Driver/src/stm32f4xx_flash.c ****   }
 1849              		.loc 1 923 10
ARM GAS  /tmp/ccBoElqq.s 			page 49


 1850 0028 0449     		ldr	r1, .L127
 923:../Shared/Libraries/STM32F4xx_StdPeriph_Driver/src/stm32f4xx_flash.c ****   }
 1851              		.loc 1 923 15
 1852 002a 1340     		ands	r3, r3, r2
 1853 002c 0B61     		str	r3, [r1, #16]
 1854              	.L126:
 1855              		.loc 1 925 1
 1856 002e 00BF     		nop
 1857 0030 0C37     		adds	r7, r7, #12
 1858              	.LCFI125:
 1859              		.cfi_def_cfa_offset 4
 1860 0032 BD46     		mov	sp, r7
 1861              	.LCFI126:
 1862              		.cfi_def_cfa_register 13
 1863              		@ sp needed
 1864 0034 5DF8047B 		ldr	r7, [sp], #4
 1865              	.LCFI127:
 1866              		.cfi_restore 7
 1867              		.cfi_def_cfa_offset 0
 1868 0038 7047     		bx	lr
 1869              	.L128:
 1870 003a 00BF     		.align	2
 1871              	.L127:
 1872 003c 003C0240 		.word	1073888256
 1873              		.cfi_endproc
 1874              	.LFE135:
 1876              		.section	.text.FLASH_GetFlagStatus,"ax",%progbits
 1877              		.align	1
 1878              		.global	FLASH_GetFlagStatus
 1879              		.syntax unified
 1880              		.thumb
 1881              		.thumb_func
 1883              	FLASH_GetFlagStatus:
 1884              	.LFB136:
 926:../Shared/Libraries/STM32F4xx_StdPeriph_Driver/src/stm32f4xx_flash.c **** 
 927:../Shared/Libraries/STM32F4xx_StdPeriph_Driver/src/stm32f4xx_flash.c **** /**
 928:../Shared/Libraries/STM32F4xx_StdPeriph_Driver/src/stm32f4xx_flash.c ****   * @brief  Checks whether the specified FLASH flag is set or not.
 929:../Shared/Libraries/STM32F4xx_StdPeriph_Driver/src/stm32f4xx_flash.c ****   * @param  FLASH_FLAG: specifies the FLASH flag to check.
 930:../Shared/Libraries/STM32F4xx_StdPeriph_Driver/src/stm32f4xx_flash.c ****   *          This parameter can be one of the following values:
 931:../Shared/Libraries/STM32F4xx_StdPeriph_Driver/src/stm32f4xx_flash.c ****   *            @arg FLASH_FLAG_EOP: FLASH End of Operation flag 
 932:../Shared/Libraries/STM32F4xx_StdPeriph_Driver/src/stm32f4xx_flash.c ****   *            @arg FLASH_FLAG_OPERR: FLASH operation Error flag 
 933:../Shared/Libraries/STM32F4xx_StdPeriph_Driver/src/stm32f4xx_flash.c ****   *            @arg FLASH_FLAG_WRPERR: FLASH Write protected error flag 
 934:../Shared/Libraries/STM32F4xx_StdPeriph_Driver/src/stm32f4xx_flash.c ****   *            @arg FLASH_FLAG_PGAERR: FLASH Programming Alignment error flag
 935:../Shared/Libraries/STM32F4xx_StdPeriph_Driver/src/stm32f4xx_flash.c ****   *            @arg FLASH_FLAG_PGPERR: FLASH Programming Parallelism error flag
 936:../Shared/Libraries/STM32F4xx_StdPeriph_Driver/src/stm32f4xx_flash.c ****   *            @arg FLASH_FLAG_PGSERR: FLASH Programming Sequence error flag
 937:../Shared/Libraries/STM32F4xx_StdPeriph_Driver/src/stm32f4xx_flash.c ****   *            @arg FLASH_FLAG_BSY: FLASH Busy flag
 938:../Shared/Libraries/STM32F4xx_StdPeriph_Driver/src/stm32f4xx_flash.c ****   * @retval The new state of FLASH_FLAG (SET or RESET).
 939:../Shared/Libraries/STM32F4xx_StdPeriph_Driver/src/stm32f4xx_flash.c ****   */
 940:../Shared/Libraries/STM32F4xx_StdPeriph_Driver/src/stm32f4xx_flash.c **** FlagStatus FLASH_GetFlagStatus(uint32_t FLASH_FLAG)
 941:../Shared/Libraries/STM32F4xx_StdPeriph_Driver/src/stm32f4xx_flash.c **** {
 1885              		.loc 1 941 1
 1886              		.cfi_startproc
 1887              		@ args = 0, pretend = 0, frame = 16
 1888              		@ frame_needed = 1, uses_anonymous_args = 0
 1889              		@ link register save eliminated.
 1890 0000 80B4     		push	{r7}
 1891              	.LCFI128:
ARM GAS  /tmp/ccBoElqq.s 			page 50


 1892              		.cfi_def_cfa_offset 4
 1893              		.cfi_offset 7, -4
 1894 0002 85B0     		sub	sp, sp, #20
 1895              	.LCFI129:
 1896              		.cfi_def_cfa_offset 24
 1897 0004 00AF     		add	r7, sp, #0
 1898              	.LCFI130:
 1899              		.cfi_def_cfa_register 7
 1900 0006 7860     		str	r0, [r7, #4]
 942:../Shared/Libraries/STM32F4xx_StdPeriph_Driver/src/stm32f4xx_flash.c ****   FlagStatus bitstatus = RESET;
 1901              		.loc 1 942 14
 1902 0008 0023     		movs	r3, #0
 1903 000a FB73     		strb	r3, [r7, #15]
 943:../Shared/Libraries/STM32F4xx_StdPeriph_Driver/src/stm32f4xx_flash.c ****   /* Check the parameters */
 944:../Shared/Libraries/STM32F4xx_StdPeriph_Driver/src/stm32f4xx_flash.c ****   assert_param(IS_FLASH_GET_FLAG(FLASH_FLAG));
 945:../Shared/Libraries/STM32F4xx_StdPeriph_Driver/src/stm32f4xx_flash.c **** 
 946:../Shared/Libraries/STM32F4xx_StdPeriph_Driver/src/stm32f4xx_flash.c ****   if((FLASH->SR & FLASH_FLAG) != (uint32_t)RESET)
 1904              		.loc 1 946 12
 1905 000c 084B     		ldr	r3, .L133
 1906 000e DA68     		ldr	r2, [r3, #12]
 1907              		.loc 1 946 17
 1908 0010 7B68     		ldr	r3, [r7, #4]
 1909 0012 1340     		ands	r3, r3, r2
 1910              		.loc 1 946 5
 1911 0014 002B     		cmp	r3, #0
 1912 0016 02D0     		beq	.L130
 947:../Shared/Libraries/STM32F4xx_StdPeriph_Driver/src/stm32f4xx_flash.c ****   {
 948:../Shared/Libraries/STM32F4xx_StdPeriph_Driver/src/stm32f4xx_flash.c ****     bitstatus = SET;
 1913              		.loc 1 948 15
 1914 0018 0123     		movs	r3, #1
 1915 001a FB73     		strb	r3, [r7, #15]
 1916 001c 01E0     		b	.L131
 1917              	.L130:
 949:../Shared/Libraries/STM32F4xx_StdPeriph_Driver/src/stm32f4xx_flash.c ****   }
 950:../Shared/Libraries/STM32F4xx_StdPeriph_Driver/src/stm32f4xx_flash.c ****   else
 951:../Shared/Libraries/STM32F4xx_StdPeriph_Driver/src/stm32f4xx_flash.c ****   {
 952:../Shared/Libraries/STM32F4xx_StdPeriph_Driver/src/stm32f4xx_flash.c ****     bitstatus = RESET;
 1918              		.loc 1 952 15
 1919 001e 0023     		movs	r3, #0
 1920 0020 FB73     		strb	r3, [r7, #15]
 1921              	.L131:
 953:../Shared/Libraries/STM32F4xx_StdPeriph_Driver/src/stm32f4xx_flash.c ****   }
 954:../Shared/Libraries/STM32F4xx_StdPeriph_Driver/src/stm32f4xx_flash.c ****   /* Return the new state of FLASH_FLAG (SET or RESET) */
 955:../Shared/Libraries/STM32F4xx_StdPeriph_Driver/src/stm32f4xx_flash.c ****   return bitstatus; 
 1922              		.loc 1 955 10
 1923 0022 FB7B     		ldrb	r3, [r7, #15]	@ zero_extendqisi2
 956:../Shared/Libraries/STM32F4xx_StdPeriph_Driver/src/stm32f4xx_flash.c **** }
 1924              		.loc 1 956 1
 1925 0024 1846     		mov	r0, r3
 1926 0026 1437     		adds	r7, r7, #20
 1927              	.LCFI131:
 1928              		.cfi_def_cfa_offset 4
 1929 0028 BD46     		mov	sp, r7
 1930              	.LCFI132:
 1931              		.cfi_def_cfa_register 13
 1932              		@ sp needed
 1933 002a 5DF8047B 		ldr	r7, [sp], #4
ARM GAS  /tmp/ccBoElqq.s 			page 51


 1934              	.LCFI133:
 1935              		.cfi_restore 7
 1936              		.cfi_def_cfa_offset 0
 1937 002e 7047     		bx	lr
 1938              	.L134:
 1939              		.align	2
 1940              	.L133:
 1941 0030 003C0240 		.word	1073888256
 1942              		.cfi_endproc
 1943              	.LFE136:
 1945              		.section	.text.FLASH_ClearFlag,"ax",%progbits
 1946              		.align	1
 1947              		.global	FLASH_ClearFlag
 1948              		.syntax unified
 1949              		.thumb
 1950              		.thumb_func
 1952              	FLASH_ClearFlag:
 1953              	.LFB137:
 957:../Shared/Libraries/STM32F4xx_StdPeriph_Driver/src/stm32f4xx_flash.c **** 
 958:../Shared/Libraries/STM32F4xx_StdPeriph_Driver/src/stm32f4xx_flash.c **** /**
 959:../Shared/Libraries/STM32F4xx_StdPeriph_Driver/src/stm32f4xx_flash.c ****   * @brief  Clears the FLASH's pending flags.
 960:../Shared/Libraries/STM32F4xx_StdPeriph_Driver/src/stm32f4xx_flash.c ****   * @param  FLASH_FLAG: specifies the FLASH flags to clear.
 961:../Shared/Libraries/STM32F4xx_StdPeriph_Driver/src/stm32f4xx_flash.c ****   *          This parameter can be any combination of the following values:
 962:../Shared/Libraries/STM32F4xx_StdPeriph_Driver/src/stm32f4xx_flash.c ****   *            @arg FLASH_FLAG_EOP: FLASH End of Operation flag 
 963:../Shared/Libraries/STM32F4xx_StdPeriph_Driver/src/stm32f4xx_flash.c ****   *            @arg FLASH_FLAG_OPERR: FLASH operation Error flag 
 964:../Shared/Libraries/STM32F4xx_StdPeriph_Driver/src/stm32f4xx_flash.c ****   *            @arg FLASH_FLAG_WRPERR: FLASH Write protected error flag 
 965:../Shared/Libraries/STM32F4xx_StdPeriph_Driver/src/stm32f4xx_flash.c ****   *            @arg FLASH_FLAG_PGAERR: FLASH Programming Alignment error flag 
 966:../Shared/Libraries/STM32F4xx_StdPeriph_Driver/src/stm32f4xx_flash.c ****   *            @arg FLASH_FLAG_PGPERR: FLASH Programming Parallelism error flag
 967:../Shared/Libraries/STM32F4xx_StdPeriph_Driver/src/stm32f4xx_flash.c ****   *            @arg FLASH_FLAG_PGSERR: FLASH Programming Sequence error flag
 968:../Shared/Libraries/STM32F4xx_StdPeriph_Driver/src/stm32f4xx_flash.c ****   * @retval None
 969:../Shared/Libraries/STM32F4xx_StdPeriph_Driver/src/stm32f4xx_flash.c ****   */
 970:../Shared/Libraries/STM32F4xx_StdPeriph_Driver/src/stm32f4xx_flash.c **** void FLASH_ClearFlag(uint32_t FLASH_FLAG)
 971:../Shared/Libraries/STM32F4xx_StdPeriph_Driver/src/stm32f4xx_flash.c **** {
 1954              		.loc 1 971 1
 1955              		.cfi_startproc
 1956              		@ args = 0, pretend = 0, frame = 8
 1957              		@ frame_needed = 1, uses_anonymous_args = 0
 1958              		@ link register save eliminated.
 1959 0000 80B4     		push	{r7}
 1960              	.LCFI134:
 1961              		.cfi_def_cfa_offset 4
 1962              		.cfi_offset 7, -4
 1963 0002 83B0     		sub	sp, sp, #12
 1964              	.LCFI135:
 1965              		.cfi_def_cfa_offset 16
 1966 0004 00AF     		add	r7, sp, #0
 1967              	.LCFI136:
 1968              		.cfi_def_cfa_register 7
 1969 0006 7860     		str	r0, [r7, #4]
 972:../Shared/Libraries/STM32F4xx_StdPeriph_Driver/src/stm32f4xx_flash.c ****   /* Check the parameters */
 973:../Shared/Libraries/STM32F4xx_StdPeriph_Driver/src/stm32f4xx_flash.c ****   assert_param(IS_FLASH_CLEAR_FLAG(FLASH_FLAG));
 974:../Shared/Libraries/STM32F4xx_StdPeriph_Driver/src/stm32f4xx_flash.c ****   
 975:../Shared/Libraries/STM32F4xx_StdPeriph_Driver/src/stm32f4xx_flash.c ****   /* Clear the flags */
 976:../Shared/Libraries/STM32F4xx_StdPeriph_Driver/src/stm32f4xx_flash.c ****   FLASH->SR = FLASH_FLAG;
 1970              		.loc 1 976 8
 1971 0008 044A     		ldr	r2, .L136
 1972              		.loc 1 976 13
ARM GAS  /tmp/ccBoElqq.s 			page 52


 1973 000a 7B68     		ldr	r3, [r7, #4]
 1974 000c D360     		str	r3, [r2, #12]
 977:../Shared/Libraries/STM32F4xx_StdPeriph_Driver/src/stm32f4xx_flash.c **** }
 1975              		.loc 1 977 1
 1976 000e 00BF     		nop
 1977 0010 0C37     		adds	r7, r7, #12
 1978              	.LCFI137:
 1979              		.cfi_def_cfa_offset 4
 1980 0012 BD46     		mov	sp, r7
 1981              	.LCFI138:
 1982              		.cfi_def_cfa_register 13
 1983              		@ sp needed
 1984 0014 5DF8047B 		ldr	r7, [sp], #4
 1985              	.LCFI139:
 1986              		.cfi_restore 7
 1987              		.cfi_def_cfa_offset 0
 1988 0018 7047     		bx	lr
 1989              	.L137:
 1990 001a 00BF     		.align	2
 1991              	.L136:
 1992 001c 003C0240 		.word	1073888256
 1993              		.cfi_endproc
 1994              	.LFE137:
 1996              		.section	.text.FLASH_GetStatus,"ax",%progbits
 1997              		.align	1
 1998              		.global	FLASH_GetStatus
 1999              		.syntax unified
 2000              		.thumb
 2001              		.thumb_func
 2003              	FLASH_GetStatus:
 2004              	.LFB138:
 978:../Shared/Libraries/STM32F4xx_StdPeriph_Driver/src/stm32f4xx_flash.c **** 
 979:../Shared/Libraries/STM32F4xx_StdPeriph_Driver/src/stm32f4xx_flash.c **** /**
 980:../Shared/Libraries/STM32F4xx_StdPeriph_Driver/src/stm32f4xx_flash.c ****   * @brief  Returns the FLASH Status.
 981:../Shared/Libraries/STM32F4xx_StdPeriph_Driver/src/stm32f4xx_flash.c ****   * @param  None
 982:../Shared/Libraries/STM32F4xx_StdPeriph_Driver/src/stm32f4xx_flash.c ****   * @retval FLASH Status: The returned value can be: FLASH_BUSY, FLASH_ERROR_PROGRAM,
 983:../Shared/Libraries/STM32F4xx_StdPeriph_Driver/src/stm32f4xx_flash.c ****   *                       FLASH_ERROR_WRP, FLASH_ERROR_OPERATION or FLASH_COMPLETE.
 984:../Shared/Libraries/STM32F4xx_StdPeriph_Driver/src/stm32f4xx_flash.c ****   */
 985:../Shared/Libraries/STM32F4xx_StdPeriph_Driver/src/stm32f4xx_flash.c **** FLASH_Status FLASH_GetStatus(void)
 986:../Shared/Libraries/STM32F4xx_StdPeriph_Driver/src/stm32f4xx_flash.c **** {
 2005              		.loc 1 986 1
 2006              		.cfi_startproc
 2007              		@ args = 0, pretend = 0, frame = 8
 2008              		@ frame_needed = 1, uses_anonymous_args = 0
 2009              		@ link register save eliminated.
 2010 0000 80B4     		push	{r7}
 2011              	.LCFI140:
 2012              		.cfi_def_cfa_offset 4
 2013              		.cfi_offset 7, -4
 2014 0002 83B0     		sub	sp, sp, #12
 2015              	.LCFI141:
 2016              		.cfi_def_cfa_offset 16
 2017 0004 00AF     		add	r7, sp, #0
 2018              	.LCFI142:
 2019              		.cfi_def_cfa_register 7
 987:../Shared/Libraries/STM32F4xx_StdPeriph_Driver/src/stm32f4xx_flash.c ****   FLASH_Status flashstatus = FLASH_COMPLETE;
 2020              		.loc 1 987 16
ARM GAS  /tmp/ccBoElqq.s 			page 53


 2021 0006 0823     		movs	r3, #8
 2022 0008 FB71     		strb	r3, [r7, #7]
 988:../Shared/Libraries/STM32F4xx_StdPeriph_Driver/src/stm32f4xx_flash.c ****   
 989:../Shared/Libraries/STM32F4xx_StdPeriph_Driver/src/stm32f4xx_flash.c ****   if((FLASH->SR & FLASH_FLAG_BSY) == FLASH_FLAG_BSY) 
 2023              		.loc 1 989 12
 2024 000a 174B     		ldr	r3, .L145
 2025 000c DB68     		ldr	r3, [r3, #12]
 2026              		.loc 1 989 17
 2027 000e 03F48033 		and	r3, r3, #65536
 2028              		.loc 1 989 5
 2029 0012 B3F5803F 		cmp	r3, #65536
 2030 0016 02D1     		bne	.L139
 990:../Shared/Libraries/STM32F4xx_StdPeriph_Driver/src/stm32f4xx_flash.c ****   {
 991:../Shared/Libraries/STM32F4xx_StdPeriph_Driver/src/stm32f4xx_flash.c ****     flashstatus = FLASH_BUSY;
 2031              		.loc 1 991 17
 2032 0018 0123     		movs	r3, #1
 2033 001a FB71     		strb	r3, [r7, #7]
 2034 001c 1CE0     		b	.L140
 2035              	.L139:
 992:../Shared/Libraries/STM32F4xx_StdPeriph_Driver/src/stm32f4xx_flash.c ****   }
 993:../Shared/Libraries/STM32F4xx_StdPeriph_Driver/src/stm32f4xx_flash.c ****   else 
 994:../Shared/Libraries/STM32F4xx_StdPeriph_Driver/src/stm32f4xx_flash.c ****   {  
 995:../Shared/Libraries/STM32F4xx_StdPeriph_Driver/src/stm32f4xx_flash.c ****     if((FLASH->SR & FLASH_FLAG_WRPERR) != (uint32_t)0x00)
 2036              		.loc 1 995 14
 2037 001e 124B     		ldr	r3, .L145
 2038 0020 DB68     		ldr	r3, [r3, #12]
 2039              		.loc 1 995 19
 2040 0022 03F01003 		and	r3, r3, #16
 2041              		.loc 1 995 7
 2042 0026 002B     		cmp	r3, #0
 2043 0028 02D0     		beq	.L141
 996:../Shared/Libraries/STM32F4xx_StdPeriph_Driver/src/stm32f4xx_flash.c ****     { 
 997:../Shared/Libraries/STM32F4xx_StdPeriph_Driver/src/stm32f4xx_flash.c ****       flashstatus = FLASH_ERROR_WRP;
 2044              		.loc 1 997 19
 2045 002a 0523     		movs	r3, #5
 2046 002c FB71     		strb	r3, [r7, #7]
 2047 002e 13E0     		b	.L140
 2048              	.L141:
 998:../Shared/Libraries/STM32F4xx_StdPeriph_Driver/src/stm32f4xx_flash.c ****     }
 999:../Shared/Libraries/STM32F4xx_StdPeriph_Driver/src/stm32f4xx_flash.c ****     else 
1000:../Shared/Libraries/STM32F4xx_StdPeriph_Driver/src/stm32f4xx_flash.c ****     {
1001:../Shared/Libraries/STM32F4xx_StdPeriph_Driver/src/stm32f4xx_flash.c ****       if((FLASH->SR & (uint32_t)0xEF) != (uint32_t)0x00)
 2049              		.loc 1 1001 16
 2050 0030 0D4B     		ldr	r3, .L145
 2051 0032 DB68     		ldr	r3, [r3, #12]
 2052              		.loc 1 1001 21
 2053 0034 03F0EF03 		and	r3, r3, #239
 2054              		.loc 1 1001 9
 2055 0038 002B     		cmp	r3, #0
 2056 003a 02D0     		beq	.L142
1002:../Shared/Libraries/STM32F4xx_StdPeriph_Driver/src/stm32f4xx_flash.c ****       {
1003:../Shared/Libraries/STM32F4xx_StdPeriph_Driver/src/stm32f4xx_flash.c ****         flashstatus = FLASH_ERROR_PROGRAM; 
 2057              		.loc 1 1003 21
 2058 003c 0623     		movs	r3, #6
 2059 003e FB71     		strb	r3, [r7, #7]
 2060 0040 0AE0     		b	.L140
 2061              	.L142:
ARM GAS  /tmp/ccBoElqq.s 			page 54


1004:../Shared/Libraries/STM32F4xx_StdPeriph_Driver/src/stm32f4xx_flash.c ****       }
1005:../Shared/Libraries/STM32F4xx_StdPeriph_Driver/src/stm32f4xx_flash.c ****       else
1006:../Shared/Libraries/STM32F4xx_StdPeriph_Driver/src/stm32f4xx_flash.c ****       {
1007:../Shared/Libraries/STM32F4xx_StdPeriph_Driver/src/stm32f4xx_flash.c ****         if((FLASH->SR & FLASH_FLAG_OPERR) != (uint32_t)0x00)
 2062              		.loc 1 1007 18
 2063 0042 094B     		ldr	r3, .L145
 2064 0044 DB68     		ldr	r3, [r3, #12]
 2065              		.loc 1 1007 23
 2066 0046 03F00203 		and	r3, r3, #2
 2067              		.loc 1 1007 11
 2068 004a 002B     		cmp	r3, #0
 2069 004c 02D0     		beq	.L143
1008:../Shared/Libraries/STM32F4xx_StdPeriph_Driver/src/stm32f4xx_flash.c ****         {
1009:../Shared/Libraries/STM32F4xx_StdPeriph_Driver/src/stm32f4xx_flash.c ****           flashstatus = FLASH_ERROR_OPERATION;
 2070              		.loc 1 1009 23
 2071 004e 0723     		movs	r3, #7
 2072 0050 FB71     		strb	r3, [r7, #7]
 2073 0052 01E0     		b	.L140
 2074              	.L143:
1010:../Shared/Libraries/STM32F4xx_StdPeriph_Driver/src/stm32f4xx_flash.c ****         }
1011:../Shared/Libraries/STM32F4xx_StdPeriph_Driver/src/stm32f4xx_flash.c ****         else
1012:../Shared/Libraries/STM32F4xx_StdPeriph_Driver/src/stm32f4xx_flash.c ****         {
1013:../Shared/Libraries/STM32F4xx_StdPeriph_Driver/src/stm32f4xx_flash.c ****           flashstatus = FLASH_COMPLETE;
 2075              		.loc 1 1013 23
 2076 0054 0823     		movs	r3, #8
 2077 0056 FB71     		strb	r3, [r7, #7]
 2078              	.L140:
1014:../Shared/Libraries/STM32F4xx_StdPeriph_Driver/src/stm32f4xx_flash.c ****         }
1015:../Shared/Libraries/STM32F4xx_StdPeriph_Driver/src/stm32f4xx_flash.c ****       }
1016:../Shared/Libraries/STM32F4xx_StdPeriph_Driver/src/stm32f4xx_flash.c ****     }
1017:../Shared/Libraries/STM32F4xx_StdPeriph_Driver/src/stm32f4xx_flash.c ****   }
1018:../Shared/Libraries/STM32F4xx_StdPeriph_Driver/src/stm32f4xx_flash.c ****   /* Return the FLASH Status */
1019:../Shared/Libraries/STM32F4xx_StdPeriph_Driver/src/stm32f4xx_flash.c ****   return flashstatus;
 2079              		.loc 1 1019 10
 2080 0058 FB79     		ldrb	r3, [r7, #7]	@ zero_extendqisi2
1020:../Shared/Libraries/STM32F4xx_StdPeriph_Driver/src/stm32f4xx_flash.c **** }
 2081              		.loc 1 1020 1
 2082 005a 1846     		mov	r0, r3
 2083 005c 0C37     		adds	r7, r7, #12
 2084              	.LCFI143:
 2085              		.cfi_def_cfa_offset 4
 2086 005e BD46     		mov	sp, r7
 2087              	.LCFI144:
 2088              		.cfi_def_cfa_register 13
 2089              		@ sp needed
 2090 0060 5DF8047B 		ldr	r7, [sp], #4
 2091              	.LCFI145:
 2092              		.cfi_restore 7
 2093              		.cfi_def_cfa_offset 0
 2094 0064 7047     		bx	lr
 2095              	.L146:
 2096 0066 00BF     		.align	2
 2097              	.L145:
 2098 0068 003C0240 		.word	1073888256
 2099              		.cfi_endproc
 2100              	.LFE138:
 2102              		.section	.text.FLASH_WaitForLastOperation,"ax",%progbits
ARM GAS  /tmp/ccBoElqq.s 			page 55


 2103              		.align	1
 2104              		.global	FLASH_WaitForLastOperation
 2105              		.syntax unified
 2106              		.thumb
 2107              		.thumb_func
 2109              	FLASH_WaitForLastOperation:
 2110              	.LFB139:
1021:../Shared/Libraries/STM32F4xx_StdPeriph_Driver/src/stm32f4xx_flash.c **** 
1022:../Shared/Libraries/STM32F4xx_StdPeriph_Driver/src/stm32f4xx_flash.c **** /**
1023:../Shared/Libraries/STM32F4xx_StdPeriph_Driver/src/stm32f4xx_flash.c ****   * @brief  Waits for a FLASH operation to complete.
1024:../Shared/Libraries/STM32F4xx_StdPeriph_Driver/src/stm32f4xx_flash.c ****   * @param  None
1025:../Shared/Libraries/STM32F4xx_StdPeriph_Driver/src/stm32f4xx_flash.c ****   * @retval FLASH Status: The returned value can be: FLASH_BUSY, FLASH_ERROR_PROGRAM,
1026:../Shared/Libraries/STM32F4xx_StdPeriph_Driver/src/stm32f4xx_flash.c ****   *                       FLASH_ERROR_WRP, FLASH_ERROR_OPERATION or FLASH_COMPLETE.
1027:../Shared/Libraries/STM32F4xx_StdPeriph_Driver/src/stm32f4xx_flash.c ****   */
1028:../Shared/Libraries/STM32F4xx_StdPeriph_Driver/src/stm32f4xx_flash.c **** FLASH_Status FLASH_WaitForLastOperation(void)
1029:../Shared/Libraries/STM32F4xx_StdPeriph_Driver/src/stm32f4xx_flash.c **** { 
 2111              		.loc 1 1029 1
 2112              		.cfi_startproc
 2113              		@ args = 0, pretend = 0, frame = 8
 2114              		@ frame_needed = 1, uses_anonymous_args = 0
 2115 0000 80B5     		push	{r7, lr}
 2116              	.LCFI146:
 2117              		.cfi_def_cfa_offset 8
 2118              		.cfi_offset 7, -8
 2119              		.cfi_offset 14, -4
 2120 0002 82B0     		sub	sp, sp, #8
 2121              	.LCFI147:
 2122              		.cfi_def_cfa_offset 16
 2123 0004 00AF     		add	r7, sp, #0
 2124              	.LCFI148:
 2125              		.cfi_def_cfa_register 7
1030:../Shared/Libraries/STM32F4xx_StdPeriph_Driver/src/stm32f4xx_flash.c ****   __IO FLASH_Status status = FLASH_COMPLETE;
 2126              		.loc 1 1030 21
 2127 0006 0823     		movs	r3, #8
 2128 0008 FB71     		strb	r3, [r7, #7]
1031:../Shared/Libraries/STM32F4xx_StdPeriph_Driver/src/stm32f4xx_flash.c ****    
1032:../Shared/Libraries/STM32F4xx_StdPeriph_Driver/src/stm32f4xx_flash.c ****   /* Check for the FLASH Status */
1033:../Shared/Libraries/STM32F4xx_StdPeriph_Driver/src/stm32f4xx_flash.c ****   status = FLASH_GetStatus();
 2129              		.loc 1 1033 12
 2130 000a FFF7FEFF 		bl	FLASH_GetStatus
 2131 000e 0346     		mov	r3, r0
 2132              		.loc 1 1033 10 discriminator 1
 2133 0010 FB71     		strb	r3, [r7, #7]
1034:../Shared/Libraries/STM32F4xx_StdPeriph_Driver/src/stm32f4xx_flash.c **** 
1035:../Shared/Libraries/STM32F4xx_StdPeriph_Driver/src/stm32f4xx_flash.c ****   /* Wait for the FLASH operation to complete by polling on BUSY flag to be reset.
1036:../Shared/Libraries/STM32F4xx_StdPeriph_Driver/src/stm32f4xx_flash.c ****      Even if the FLASH operation fails, the BUSY flag will be reset and an error
1037:../Shared/Libraries/STM32F4xx_StdPeriph_Driver/src/stm32f4xx_flash.c ****      flag will be set */
1038:../Shared/Libraries/STM32F4xx_StdPeriph_Driver/src/stm32f4xx_flash.c ****   while(status == FLASH_BUSY)
 2134              		.loc 1 1038 8
 2135 0012 03E0     		b	.L148
 2136              	.L149:
1039:../Shared/Libraries/STM32F4xx_StdPeriph_Driver/src/stm32f4xx_flash.c ****   {
1040:../Shared/Libraries/STM32F4xx_StdPeriph_Driver/src/stm32f4xx_flash.c ****     status = FLASH_GetStatus();
 2137              		.loc 1 1040 14
 2138 0014 FFF7FEFF 		bl	FLASH_GetStatus
 2139 0018 0346     		mov	r3, r0
 2140              		.loc 1 1040 12 discriminator 1
ARM GAS  /tmp/ccBoElqq.s 			page 56


 2141 001a FB71     		strb	r3, [r7, #7]
 2142              	.L148:
1038:../Shared/Libraries/STM32F4xx_StdPeriph_Driver/src/stm32f4xx_flash.c ****   {
 2143              		.loc 1 1038 16
 2144 001c FB79     		ldrb	r3, [r7, #7]
 2145 001e DBB2     		uxtb	r3, r3
 2146 0020 012B     		cmp	r3, #1
 2147 0022 F7D0     		beq	.L149
1041:../Shared/Libraries/STM32F4xx_StdPeriph_Driver/src/stm32f4xx_flash.c ****   }
1042:../Shared/Libraries/STM32F4xx_StdPeriph_Driver/src/stm32f4xx_flash.c ****   /* Return the operation status */
1043:../Shared/Libraries/STM32F4xx_StdPeriph_Driver/src/stm32f4xx_flash.c ****   return status;
 2148              		.loc 1 1043 10
 2149 0024 FB79     		ldrb	r3, [r7, #7]
 2150 0026 DBB2     		uxtb	r3, r3
1044:../Shared/Libraries/STM32F4xx_StdPeriph_Driver/src/stm32f4xx_flash.c **** }
 2151              		.loc 1 1044 1
 2152 0028 1846     		mov	r0, r3
 2153 002a 0837     		adds	r7, r7, #8
 2154              	.LCFI149:
 2155              		.cfi_def_cfa_offset 8
 2156 002c BD46     		mov	sp, r7
 2157              	.LCFI150:
 2158              		.cfi_def_cfa_register 13
 2159              		@ sp needed
 2160 002e 80BD     		pop	{r7, pc}
 2161              		.cfi_endproc
 2162              	.LFE139:
 2164              		.text
 2165              	.Letext0:
 2166              		.file 2 "/usr/arm-none-eabi/include/machine/_default_types.h"
 2167              		.file 3 "/usr/arm-none-eabi/include/sys/_stdint.h"
 2168              		.file 4 "../Shared/Libraries/CMSIS/Device/ST/STM32F4xx/Include/stm32f4xx.h"
 2169              		.file 5 "../Shared/Libraries/STM32F4xx_StdPeriph_Driver/inc/stm32f4xx_flash.h"
ARM GAS  /tmp/ccBoElqq.s 			page 57

