ARM GAS  /tmp/ccTxF6x3.s 			page 1


   1              		.cpu cortex-m4
   2              		.arch armv7e-m
   3              		.fpu fpv4-sp-d16
   4              		.eabi_attribute 27, 1
   5              		.eabi_attribute 28, 1
   6              		.eabi_attribute 20, 1
   7              		.eabi_attribute 21, 1
   8              		.eabi_attribute 23, 3
   9              		.eabi_attribute 24, 1
  10              		.eabi_attribute 25, 1
  11              		.eabi_attribute 26, 1
  12              		.eabi_attribute 30, 6
  13              		.eabi_attribute 34, 1
  14              		.eabi_attribute 18, 4
  15              		.file	"stm32f4xx_spi.c"
  16              		.text
  17              	.Ltext0:
  18              		.cfi_sections	.debug_frame
  19              		.file 1 "../Shared/Libraries/STM32F4xx_StdPeriph_Driver/src/stm32f4xx_spi.c"
  20              		.section	.text.SPI_I2S_DeInit,"ax",%progbits
  21              		.align	1
  22              		.global	SPI_I2S_DeInit
  23              		.syntax unified
  24              		.thumb
  25              		.thumb_func
  27              	SPI_I2S_DeInit:
  28              	.LFB110:
   1:../Shared/Libraries/STM32F4xx_StdPeriph_Driver/src/stm32f4xx_spi.c **** /**
   2:../Shared/Libraries/STM32F4xx_StdPeriph_Driver/src/stm32f4xx_spi.c ****   ******************************************************************************
   3:../Shared/Libraries/STM32F4xx_StdPeriph_Driver/src/stm32f4xx_spi.c ****   * @file    stm32f4xx_spi.c
   4:../Shared/Libraries/STM32F4xx_StdPeriph_Driver/src/stm32f4xx_spi.c ****   * @author  MCD Application Team
   5:../Shared/Libraries/STM32F4xx_StdPeriph_Driver/src/stm32f4xx_spi.c ****   * @version V1.0.2
   6:../Shared/Libraries/STM32F4xx_StdPeriph_Driver/src/stm32f4xx_spi.c ****   * @date    05-March-2012
   7:../Shared/Libraries/STM32F4xx_StdPeriph_Driver/src/stm32f4xx_spi.c ****   * @brief   This file provides firmware functions to manage the following 
   8:../Shared/Libraries/STM32F4xx_StdPeriph_Driver/src/stm32f4xx_spi.c ****   *          functionalities of the Serial peripheral interface (SPI):
   9:../Shared/Libraries/STM32F4xx_StdPeriph_Driver/src/stm32f4xx_spi.c ****   *           - Initialization and Configuration
  10:../Shared/Libraries/STM32F4xx_StdPeriph_Driver/src/stm32f4xx_spi.c ****   *           - Data transfers functions
  11:../Shared/Libraries/STM32F4xx_StdPeriph_Driver/src/stm32f4xx_spi.c ****   *           - Hardware CRC Calculation
  12:../Shared/Libraries/STM32F4xx_StdPeriph_Driver/src/stm32f4xx_spi.c ****   *           - DMA transfers management
  13:../Shared/Libraries/STM32F4xx_StdPeriph_Driver/src/stm32f4xx_spi.c ****   *           - Interrupts and flags management 
  14:../Shared/Libraries/STM32F4xx_StdPeriph_Driver/src/stm32f4xx_spi.c ****   *           
  15:../Shared/Libraries/STM32F4xx_StdPeriph_Driver/src/stm32f4xx_spi.c ****   *  @verbatim
  16:../Shared/Libraries/STM32F4xx_StdPeriph_Driver/src/stm32f4xx_spi.c ****   *          
  17:../Shared/Libraries/STM32F4xx_StdPeriph_Driver/src/stm32f4xx_spi.c ****   *                    
  18:../Shared/Libraries/STM32F4xx_StdPeriph_Driver/src/stm32f4xx_spi.c ****   *          ===================================================================
  19:../Shared/Libraries/STM32F4xx_StdPeriph_Driver/src/stm32f4xx_spi.c ****   *                                 How to use this driver
  20:../Shared/Libraries/STM32F4xx_StdPeriph_Driver/src/stm32f4xx_spi.c ****   *          ===================================================================
  21:../Shared/Libraries/STM32F4xx_StdPeriph_Driver/src/stm32f4xx_spi.c ****   *    
  22:../Shared/Libraries/STM32F4xx_StdPeriph_Driver/src/stm32f4xx_spi.c ****   *          1. Enable peripheral clock using the following functions 
  23:../Shared/Libraries/STM32F4xx_StdPeriph_Driver/src/stm32f4xx_spi.c ****   *             RCC_APB2PeriphClockCmd(RCC_APB2Periph_SPI1, ENABLE) for SPI1
  24:../Shared/Libraries/STM32F4xx_StdPeriph_Driver/src/stm32f4xx_spi.c ****   *             RCC_APB1PeriphClockCmd(RCC_APB1Periph_SPI2, ENABLE) for SPI2
  25:../Shared/Libraries/STM32F4xx_StdPeriph_Driver/src/stm32f4xx_spi.c ****   *             RCC_APB1PeriphResetCmd(RCC_APB1Periph_SPI3, ENABLE) for SPI3.
  26:../Shared/Libraries/STM32F4xx_StdPeriph_Driver/src/stm32f4xx_spi.c ****   *
  27:../Shared/Libraries/STM32F4xx_StdPeriph_Driver/src/stm32f4xx_spi.c ****   *          2. Enable SCK, MOSI, MISO and NSS GPIO clocks using RCC_AHB1PeriphClockCmd()
  28:../Shared/Libraries/STM32F4xx_StdPeriph_Driver/src/stm32f4xx_spi.c ****   *             function.
  29:../Shared/Libraries/STM32F4xx_StdPeriph_Driver/src/stm32f4xx_spi.c ****   *             In I2S mode, if an external clock source is used then the I2S CKIN pin GPIO
  30:../Shared/Libraries/STM32F4xx_StdPeriph_Driver/src/stm32f4xx_spi.c ****   *             clock should also be enabled.
ARM GAS  /tmp/ccTxF6x3.s 			page 2


  31:../Shared/Libraries/STM32F4xx_StdPeriph_Driver/src/stm32f4xx_spi.c ****   *
  32:../Shared/Libraries/STM32F4xx_StdPeriph_Driver/src/stm32f4xx_spi.c ****   *          3. Peripherals alternate function: 
  33:../Shared/Libraries/STM32F4xx_StdPeriph_Driver/src/stm32f4xx_spi.c ****   *                 - Connect the pin to the desired peripherals' Alternate 
  34:../Shared/Libraries/STM32F4xx_StdPeriph_Driver/src/stm32f4xx_spi.c ****   *                   Function (AF) using GPIO_PinAFConfig() function
  35:../Shared/Libraries/STM32F4xx_StdPeriph_Driver/src/stm32f4xx_spi.c ****   *                 - Configure the desired pin in alternate function by:
  36:../Shared/Libraries/STM32F4xx_StdPeriph_Driver/src/stm32f4xx_spi.c ****   *                   GPIO_InitStruct->GPIO_Mode = GPIO_Mode_AF
  37:../Shared/Libraries/STM32F4xx_StdPeriph_Driver/src/stm32f4xx_spi.c ****   *                 - Select the type, pull-up/pull-down and output speed via 
  38:../Shared/Libraries/STM32F4xx_StdPeriph_Driver/src/stm32f4xx_spi.c ****   *                   GPIO_PuPd, GPIO_OType and GPIO_Speed members
  39:../Shared/Libraries/STM32F4xx_StdPeriph_Driver/src/stm32f4xx_spi.c ****   *                 - Call GPIO_Init() function
  40:../Shared/Libraries/STM32F4xx_StdPeriph_Driver/src/stm32f4xx_spi.c ****   *              In I2S mode, if an external clock source is used then the I2S CKIN pin
  41:../Shared/Libraries/STM32F4xx_StdPeriph_Driver/src/stm32f4xx_spi.c ****   *              should be also configured in Alternate function Push-pull pull-up mode. 
  42:../Shared/Libraries/STM32F4xx_StdPeriph_Driver/src/stm32f4xx_spi.c ****   *        
  43:../Shared/Libraries/STM32F4xx_StdPeriph_Driver/src/stm32f4xx_spi.c ****   *          4. Program the Polarity, Phase, First Data, Baud Rate Prescaler, Slave 
  44:../Shared/Libraries/STM32F4xx_StdPeriph_Driver/src/stm32f4xx_spi.c ****   *             Management, Peripheral Mode and CRC Polynomial values using the SPI_Init()
  45:../Shared/Libraries/STM32F4xx_StdPeriph_Driver/src/stm32f4xx_spi.c ****   *             function.
  46:../Shared/Libraries/STM32F4xx_StdPeriph_Driver/src/stm32f4xx_spi.c ****   *             In I2S mode, program the Mode, Standard, Data Format, MCLK Output, Audio 
  47:../Shared/Libraries/STM32F4xx_StdPeriph_Driver/src/stm32f4xx_spi.c ****   *             frequency and Polarity using I2S_Init() function.
  48:../Shared/Libraries/STM32F4xx_StdPeriph_Driver/src/stm32f4xx_spi.c ****   *             For I2S mode, make sure that either:
  49:../Shared/Libraries/STM32F4xx_StdPeriph_Driver/src/stm32f4xx_spi.c ****   *              - I2S PLL is configured using the functions RCC_I2SCLKConfig(RCC_I2S2CLKSource_PLL
  50:../Shared/Libraries/STM32F4xx_StdPeriph_Driver/src/stm32f4xx_spi.c ****   *                RCC_PLLI2SCmd(ENABLE) and RCC_GetFlagStatus(RCC_FLAG_PLLI2SRDY).
  51:../Shared/Libraries/STM32F4xx_StdPeriph_Driver/src/stm32f4xx_spi.c ****   *              or 
  52:../Shared/Libraries/STM32F4xx_StdPeriph_Driver/src/stm32f4xx_spi.c ****   *              - External clock source is configured using the function 
  53:../Shared/Libraries/STM32F4xx_StdPeriph_Driver/src/stm32f4xx_spi.c ****   *                RCC_I2SCLKConfig(RCC_I2S2CLKSource_Ext) and after setting correctly the define c
  54:../Shared/Libraries/STM32F4xx_StdPeriph_Driver/src/stm32f4xx_spi.c ****   *                I2S_EXTERNAL_CLOCK_VAL in the stm32f4xx_conf.h file. 
  55:../Shared/Libraries/STM32F4xx_StdPeriph_Driver/src/stm32f4xx_spi.c ****   *
  56:../Shared/Libraries/STM32F4xx_StdPeriph_Driver/src/stm32f4xx_spi.c ****   *          5. Enable the NVIC and the corresponding interrupt using the function 
  57:../Shared/Libraries/STM32F4xx_StdPeriph_Driver/src/stm32f4xx_spi.c ****   *             SPI_ITConfig() if you need to use interrupt mode. 
  58:../Shared/Libraries/STM32F4xx_StdPeriph_Driver/src/stm32f4xx_spi.c ****   *
  59:../Shared/Libraries/STM32F4xx_StdPeriph_Driver/src/stm32f4xx_spi.c ****   *          6. When using the DMA mode 
  60:../Shared/Libraries/STM32F4xx_StdPeriph_Driver/src/stm32f4xx_spi.c ****   *                   - Configure the DMA using DMA_Init() function
  61:../Shared/Libraries/STM32F4xx_StdPeriph_Driver/src/stm32f4xx_spi.c ****   *                   - Active the needed channel Request using SPI_I2S_DMACmd() function
  62:../Shared/Libraries/STM32F4xx_StdPeriph_Driver/src/stm32f4xx_spi.c ****   * 
  63:../Shared/Libraries/STM32F4xx_StdPeriph_Driver/src/stm32f4xx_spi.c ****   *          7. Enable the SPI using the SPI_Cmd() function or enable the I2S using
  64:../Shared/Libraries/STM32F4xx_StdPeriph_Driver/src/stm32f4xx_spi.c ****   *             I2S_Cmd().
  65:../Shared/Libraries/STM32F4xx_StdPeriph_Driver/src/stm32f4xx_spi.c ****   * 
  66:../Shared/Libraries/STM32F4xx_StdPeriph_Driver/src/stm32f4xx_spi.c ****   *          8. Enable the DMA using the DMA_Cmd() function when using DMA mode. 
  67:../Shared/Libraries/STM32F4xx_StdPeriph_Driver/src/stm32f4xx_spi.c ****   *
  68:../Shared/Libraries/STM32F4xx_StdPeriph_Driver/src/stm32f4xx_spi.c ****   *          9. Optionally, you can enable/configure the following parameters without
  69:../Shared/Libraries/STM32F4xx_StdPeriph_Driver/src/stm32f4xx_spi.c ****   *             re-initialization (i.e there is no need to call again SPI_Init() function):
  70:../Shared/Libraries/STM32F4xx_StdPeriph_Driver/src/stm32f4xx_spi.c ****   *              - When bidirectional mode (SPI_Direction_1Line_Rx or SPI_Direction_1Line_Tx)
  71:../Shared/Libraries/STM32F4xx_StdPeriph_Driver/src/stm32f4xx_spi.c ****   *                is programmed as Data direction parameter using the SPI_Init() function
  72:../Shared/Libraries/STM32F4xx_StdPeriph_Driver/src/stm32f4xx_spi.c ****   *                it can be possible to switch between SPI_Direction_Tx or SPI_Direction_Rx
  73:../Shared/Libraries/STM32F4xx_StdPeriph_Driver/src/stm32f4xx_spi.c ****   *                using the SPI_BiDirectionalLineConfig() function.
  74:../Shared/Libraries/STM32F4xx_StdPeriph_Driver/src/stm32f4xx_spi.c ****   *              - When SPI_NSS_Soft is selected as Slave Select Management parameter 
  75:../Shared/Libraries/STM32F4xx_StdPeriph_Driver/src/stm32f4xx_spi.c ****   *                using the SPI_Init() function it can be possible to manage the 
  76:../Shared/Libraries/STM32F4xx_StdPeriph_Driver/src/stm32f4xx_spi.c ****   *                NSS internal signal using the SPI_NSSInternalSoftwareConfig() function.
  77:../Shared/Libraries/STM32F4xx_StdPeriph_Driver/src/stm32f4xx_spi.c ****   *              - Reconfigure the data size using the SPI_DataSizeConfig() function  
  78:../Shared/Libraries/STM32F4xx_StdPeriph_Driver/src/stm32f4xx_spi.c ****   *              - Enable or disable the SS output using the SPI_SSOutputCmd() function  
  79:../Shared/Libraries/STM32F4xx_StdPeriph_Driver/src/stm32f4xx_spi.c ****   *          
  80:../Shared/Libraries/STM32F4xx_StdPeriph_Driver/src/stm32f4xx_spi.c ****   *          10. To use the CRC Hardware calculation feature refer to the Peripheral 
  81:../Shared/Libraries/STM32F4xx_StdPeriph_Driver/src/stm32f4xx_spi.c ****   *              CRC hardware Calculation subsection.
  82:../Shared/Libraries/STM32F4xx_StdPeriph_Driver/src/stm32f4xx_spi.c ****   *   
  83:../Shared/Libraries/STM32F4xx_StdPeriph_Driver/src/stm32f4xx_spi.c ****   *
  84:../Shared/Libraries/STM32F4xx_StdPeriph_Driver/src/stm32f4xx_spi.c ****   *          It is possible to use SPI in I2S full duplex mode, in this case, each SPI 
  85:../Shared/Libraries/STM32F4xx_StdPeriph_Driver/src/stm32f4xx_spi.c ****   *          peripheral is able to manage sending and receiving data simultaneously
  86:../Shared/Libraries/STM32F4xx_StdPeriph_Driver/src/stm32f4xx_spi.c ****   *          using two data lines. Each SPI peripheral has an extended block called I2Sxext
  87:../Shared/Libraries/STM32F4xx_StdPeriph_Driver/src/stm32f4xx_spi.c ****   *          (ie. I2S2ext for SPI2 and I2S3ext for SPI3).
ARM GAS  /tmp/ccTxF6x3.s 			page 3


  88:../Shared/Libraries/STM32F4xx_StdPeriph_Driver/src/stm32f4xx_spi.c ****   *          The extension block is not a full SPI IP, it is used only as I2S slave to
  89:../Shared/Libraries/STM32F4xx_StdPeriph_Driver/src/stm32f4xx_spi.c ****   *          implement full duplex mode. The extension block uses the same clock sources
  90:../Shared/Libraries/STM32F4xx_StdPeriph_Driver/src/stm32f4xx_spi.c ****   *          as its master.          
  91:../Shared/Libraries/STM32F4xx_StdPeriph_Driver/src/stm32f4xx_spi.c ****   *          To configure I2S full duplex you have to:
  92:../Shared/Libraries/STM32F4xx_StdPeriph_Driver/src/stm32f4xx_spi.c ****   *            
  93:../Shared/Libraries/STM32F4xx_StdPeriph_Driver/src/stm32f4xx_spi.c ****   *          1. Configure SPIx in I2S mode (I2S_Init() function) as described above. 
  94:../Shared/Libraries/STM32F4xx_StdPeriph_Driver/src/stm32f4xx_spi.c ****   *           
  95:../Shared/Libraries/STM32F4xx_StdPeriph_Driver/src/stm32f4xx_spi.c ****   *          2. Call the I2S_FullDuplexConfig() function using the same strucutre passed to  
  96:../Shared/Libraries/STM32F4xx_StdPeriph_Driver/src/stm32f4xx_spi.c ****   *             I2S_Init() function.
  97:../Shared/Libraries/STM32F4xx_StdPeriph_Driver/src/stm32f4xx_spi.c ****   *            
  98:../Shared/Libraries/STM32F4xx_StdPeriph_Driver/src/stm32f4xx_spi.c ****   *          3. Call I2S_Cmd() for SPIx then for its extended block.
  99:../Shared/Libraries/STM32F4xx_StdPeriph_Driver/src/stm32f4xx_spi.c ****   *          
 100:../Shared/Libraries/STM32F4xx_StdPeriph_Driver/src/stm32f4xx_spi.c ****   *          4. To configure interrupts or DMA requests and to get/clear flag status, 
 101:../Shared/Libraries/STM32F4xx_StdPeriph_Driver/src/stm32f4xx_spi.c ****   *             use I2Sxext instance for the extension block.
 102:../Shared/Libraries/STM32F4xx_StdPeriph_Driver/src/stm32f4xx_spi.c ****   *             
 103:../Shared/Libraries/STM32F4xx_StdPeriph_Driver/src/stm32f4xx_spi.c ****   *          Functions that can be called with I2Sxext instances are:
 104:../Shared/Libraries/STM32F4xx_StdPeriph_Driver/src/stm32f4xx_spi.c ****   *          I2S_Cmd(), I2S_FullDuplexConfig(), SPI_I2S_ReceiveData(), SPI_I2S_SendData(), 
 105:../Shared/Libraries/STM32F4xx_StdPeriph_Driver/src/stm32f4xx_spi.c ****   *          SPI_I2S_DMACmd(), SPI_I2S_ITConfig(), SPI_I2S_GetFlagStatus(), SPI_I2S_ClearFlag(),
 106:../Shared/Libraries/STM32F4xx_StdPeriph_Driver/src/stm32f4xx_spi.c ****   *          SPI_I2S_GetITStatus() and SPI_I2S_ClearITPendingBit().
 107:../Shared/Libraries/STM32F4xx_StdPeriph_Driver/src/stm32f4xx_spi.c ****   *                 
 108:../Shared/Libraries/STM32F4xx_StdPeriph_Driver/src/stm32f4xx_spi.c ****   *          Example: To use SPI3 in Full duplex mode (SPI3 is Master Tx, I2S3ext is Slave Rx):
 109:../Shared/Libraries/STM32F4xx_StdPeriph_Driver/src/stm32f4xx_spi.c ****   *            
 110:../Shared/Libraries/STM32F4xx_StdPeriph_Driver/src/stm32f4xx_spi.c ****   *          RCC_APB1PeriphClockCmd(RCC_APB1Periph_SPI3, ENABLE);   
 111:../Shared/Libraries/STM32F4xx_StdPeriph_Driver/src/stm32f4xx_spi.c ****   *          I2S_StructInit(&I2SInitStruct);
 112:../Shared/Libraries/STM32F4xx_StdPeriph_Driver/src/stm32f4xx_spi.c ****   *          I2SInitStruct.Mode = I2S_Mode_MasterTx;     
 113:../Shared/Libraries/STM32F4xx_StdPeriph_Driver/src/stm32f4xx_spi.c ****   *          I2S_Init(SPI3, &I2SInitStruct);
 114:../Shared/Libraries/STM32F4xx_StdPeriph_Driver/src/stm32f4xx_spi.c ****   *          I2S_FullDuplexConfig(SPI3ext, &I2SInitStruct)
 115:../Shared/Libraries/STM32F4xx_StdPeriph_Driver/src/stm32f4xx_spi.c ****   *          I2S_Cmd(SPI3, ENABLE);
 116:../Shared/Libraries/STM32F4xx_StdPeriph_Driver/src/stm32f4xx_spi.c ****   *          I2S_Cmd(SPI3ext, ENABLE);
 117:../Shared/Libraries/STM32F4xx_StdPeriph_Driver/src/stm32f4xx_spi.c ****   *          ...
 118:../Shared/Libraries/STM32F4xx_StdPeriph_Driver/src/stm32f4xx_spi.c ****   *          while (SPI_I2S_GetFlagStatus(SPI2, SPI_FLAG_TXE) == RESET)
 119:../Shared/Libraries/STM32F4xx_StdPeriph_Driver/src/stm32f4xx_spi.c ****   *          {}
 120:../Shared/Libraries/STM32F4xx_StdPeriph_Driver/src/stm32f4xx_spi.c ****   *          SPI_I2S_SendData(SPI3, txdata[i]);
 121:../Shared/Libraries/STM32F4xx_StdPeriph_Driver/src/stm32f4xx_spi.c ****   *          ...  
 122:../Shared/Libraries/STM32F4xx_StdPeriph_Driver/src/stm32f4xx_spi.c ****   *          while (SPI_I2S_GetFlagStatus(I2S3ext, SPI_FLAG_RXNE) == RESET)
 123:../Shared/Libraries/STM32F4xx_StdPeriph_Driver/src/stm32f4xx_spi.c ****   *          {}
 124:../Shared/Libraries/STM32F4xx_StdPeriph_Driver/src/stm32f4xx_spi.c ****   *          rxdata[i] = SPI_I2S_ReceiveData(I2S3ext);
 125:../Shared/Libraries/STM32F4xx_StdPeriph_Driver/src/stm32f4xx_spi.c ****   *          ...          
 126:../Shared/Libraries/STM32F4xx_StdPeriph_Driver/src/stm32f4xx_spi.c ****   *              
 127:../Shared/Libraries/STM32F4xx_StdPeriph_Driver/src/stm32f4xx_spi.c ****   *     
 128:../Shared/Libraries/STM32F4xx_StdPeriph_Driver/src/stm32f4xx_spi.c ****   * @note    In I2S mode: if an external clock is used as source clock for the I2S,  
 129:../Shared/Libraries/STM32F4xx_StdPeriph_Driver/src/stm32f4xx_spi.c ****   *          then the define I2S_EXTERNAL_CLOCK_VAL in file stm32f4xx_conf.h should 
 130:../Shared/Libraries/STM32F4xx_StdPeriph_Driver/src/stm32f4xx_spi.c ****   *          be enabled and set to the value of the source clock frequency (in Hz).
 131:../Shared/Libraries/STM32F4xx_StdPeriph_Driver/src/stm32f4xx_spi.c ****   * 
 132:../Shared/Libraries/STM32F4xx_StdPeriph_Driver/src/stm32f4xx_spi.c ****   * @note    In SPI mode: To use the SPI TI mode, call the function SPI_TIModeCmd() 
 133:../Shared/Libraries/STM32F4xx_StdPeriph_Driver/src/stm32f4xx_spi.c ****   *          just after calling the function SPI_Init().
 134:../Shared/Libraries/STM32F4xx_StdPeriph_Driver/src/stm32f4xx_spi.c ****   *
 135:../Shared/Libraries/STM32F4xx_StdPeriph_Driver/src/stm32f4xx_spi.c ****   *  @endverbatim  
 136:../Shared/Libraries/STM32F4xx_StdPeriph_Driver/src/stm32f4xx_spi.c ****   *                                  
 137:../Shared/Libraries/STM32F4xx_StdPeriph_Driver/src/stm32f4xx_spi.c ****   ******************************************************************************
 138:../Shared/Libraries/STM32F4xx_StdPeriph_Driver/src/stm32f4xx_spi.c ****   * @attention
 139:../Shared/Libraries/STM32F4xx_StdPeriph_Driver/src/stm32f4xx_spi.c ****   *
 140:../Shared/Libraries/STM32F4xx_StdPeriph_Driver/src/stm32f4xx_spi.c ****   * <h2><center>&copy; COPYRIGHT 2012 STMicroelectronics</center></h2>
 141:../Shared/Libraries/STM32F4xx_StdPeriph_Driver/src/stm32f4xx_spi.c ****   *
 142:../Shared/Libraries/STM32F4xx_StdPeriph_Driver/src/stm32f4xx_spi.c ****   * Licensed under MCD-ST Liberty SW License Agreement V2, (the "License");
 143:../Shared/Libraries/STM32F4xx_StdPeriph_Driver/src/stm32f4xx_spi.c ****   * You may not use this file except in compliance with the License.
 144:../Shared/Libraries/STM32F4xx_StdPeriph_Driver/src/stm32f4xx_spi.c ****   * You may obtain a copy of the License at:
ARM GAS  /tmp/ccTxF6x3.s 			page 4


 145:../Shared/Libraries/STM32F4xx_StdPeriph_Driver/src/stm32f4xx_spi.c ****   *
 146:../Shared/Libraries/STM32F4xx_StdPeriph_Driver/src/stm32f4xx_spi.c ****   *        http://www.st.com/software_license_agreement_liberty_v2
 147:../Shared/Libraries/STM32F4xx_StdPeriph_Driver/src/stm32f4xx_spi.c ****   *
 148:../Shared/Libraries/STM32F4xx_StdPeriph_Driver/src/stm32f4xx_spi.c ****   * Unless required by applicable law or agreed to in writing, software 
 149:../Shared/Libraries/STM32F4xx_StdPeriph_Driver/src/stm32f4xx_spi.c ****   * distributed under the License is distributed on an "AS IS" BASIS, 
 150:../Shared/Libraries/STM32F4xx_StdPeriph_Driver/src/stm32f4xx_spi.c ****   * WITHOUT WARRANTIES OR CONDITIONS OF ANY KIND, either express or implied.
 151:../Shared/Libraries/STM32F4xx_StdPeriph_Driver/src/stm32f4xx_spi.c ****   * See the License for the specific language governing permissions and
 152:../Shared/Libraries/STM32F4xx_StdPeriph_Driver/src/stm32f4xx_spi.c ****   * limitations under the License.
 153:../Shared/Libraries/STM32F4xx_StdPeriph_Driver/src/stm32f4xx_spi.c ****   *
 154:../Shared/Libraries/STM32F4xx_StdPeriph_Driver/src/stm32f4xx_spi.c ****   ******************************************************************************
 155:../Shared/Libraries/STM32F4xx_StdPeriph_Driver/src/stm32f4xx_spi.c ****   */ 
 156:../Shared/Libraries/STM32F4xx_StdPeriph_Driver/src/stm32f4xx_spi.c **** 
 157:../Shared/Libraries/STM32F4xx_StdPeriph_Driver/src/stm32f4xx_spi.c **** /* Includes ------------------------------------------------------------------*/
 158:../Shared/Libraries/STM32F4xx_StdPeriph_Driver/src/stm32f4xx_spi.c **** #include "stm32f4xx_spi.h"
 159:../Shared/Libraries/STM32F4xx_StdPeriph_Driver/src/stm32f4xx_spi.c **** #include "stm32f4xx_rcc.h"
 160:../Shared/Libraries/STM32F4xx_StdPeriph_Driver/src/stm32f4xx_spi.c **** 
 161:../Shared/Libraries/STM32F4xx_StdPeriph_Driver/src/stm32f4xx_spi.c **** /** @addtogroup STM32F4xx_StdPeriph_Driver
 162:../Shared/Libraries/STM32F4xx_StdPeriph_Driver/src/stm32f4xx_spi.c ****   * @{
 163:../Shared/Libraries/STM32F4xx_StdPeriph_Driver/src/stm32f4xx_spi.c ****   */
 164:../Shared/Libraries/STM32F4xx_StdPeriph_Driver/src/stm32f4xx_spi.c **** 
 165:../Shared/Libraries/STM32F4xx_StdPeriph_Driver/src/stm32f4xx_spi.c **** /** @defgroup SPI 
 166:../Shared/Libraries/STM32F4xx_StdPeriph_Driver/src/stm32f4xx_spi.c ****   * @brief SPI driver modules
 167:../Shared/Libraries/STM32F4xx_StdPeriph_Driver/src/stm32f4xx_spi.c ****   * @{
 168:../Shared/Libraries/STM32F4xx_StdPeriph_Driver/src/stm32f4xx_spi.c ****   */ 
 169:../Shared/Libraries/STM32F4xx_StdPeriph_Driver/src/stm32f4xx_spi.c **** 
 170:../Shared/Libraries/STM32F4xx_StdPeriph_Driver/src/stm32f4xx_spi.c **** /* Private typedef -----------------------------------------------------------*/
 171:../Shared/Libraries/STM32F4xx_StdPeriph_Driver/src/stm32f4xx_spi.c **** /* Private define ------------------------------------------------------------*/
 172:../Shared/Libraries/STM32F4xx_StdPeriph_Driver/src/stm32f4xx_spi.c **** 
 173:../Shared/Libraries/STM32F4xx_StdPeriph_Driver/src/stm32f4xx_spi.c **** /* SPI registers Masks */
 174:../Shared/Libraries/STM32F4xx_StdPeriph_Driver/src/stm32f4xx_spi.c **** #define CR1_CLEAR_MASK            ((uint16_t)0x3040)
 175:../Shared/Libraries/STM32F4xx_StdPeriph_Driver/src/stm32f4xx_spi.c **** #define I2SCFGR_CLEAR_MASK        ((uint16_t)0xF040)
 176:../Shared/Libraries/STM32F4xx_StdPeriph_Driver/src/stm32f4xx_spi.c **** 
 177:../Shared/Libraries/STM32F4xx_StdPeriph_Driver/src/stm32f4xx_spi.c **** /* RCC PLLs masks */
 178:../Shared/Libraries/STM32F4xx_StdPeriph_Driver/src/stm32f4xx_spi.c **** #define PLLCFGR_PPLR_MASK         ((uint32_t)0x70000000)
 179:../Shared/Libraries/STM32F4xx_StdPeriph_Driver/src/stm32f4xx_spi.c **** #define PLLCFGR_PPLN_MASK         ((uint32_t)0x00007FC0)
 180:../Shared/Libraries/STM32F4xx_StdPeriph_Driver/src/stm32f4xx_spi.c **** 
 181:../Shared/Libraries/STM32F4xx_StdPeriph_Driver/src/stm32f4xx_spi.c **** #define SPI_CR2_FRF               ((uint16_t)0x0010)
 182:../Shared/Libraries/STM32F4xx_StdPeriph_Driver/src/stm32f4xx_spi.c **** #define SPI_SR_TIFRFE             ((uint16_t)0x0100)
 183:../Shared/Libraries/STM32F4xx_StdPeriph_Driver/src/stm32f4xx_spi.c **** 
 184:../Shared/Libraries/STM32F4xx_StdPeriph_Driver/src/stm32f4xx_spi.c **** /* Private macro -------------------------------------------------------------*/
 185:../Shared/Libraries/STM32F4xx_StdPeriph_Driver/src/stm32f4xx_spi.c **** /* Private variables ---------------------------------------------------------*/
 186:../Shared/Libraries/STM32F4xx_StdPeriph_Driver/src/stm32f4xx_spi.c **** /* Private function prototypes -----------------------------------------------*/
 187:../Shared/Libraries/STM32F4xx_StdPeriph_Driver/src/stm32f4xx_spi.c **** /* Private functions ---------------------------------------------------------*/
 188:../Shared/Libraries/STM32F4xx_StdPeriph_Driver/src/stm32f4xx_spi.c **** 
 189:../Shared/Libraries/STM32F4xx_StdPeriph_Driver/src/stm32f4xx_spi.c **** /** @defgroup SPI_Private_Functions
 190:../Shared/Libraries/STM32F4xx_StdPeriph_Driver/src/stm32f4xx_spi.c ****   * @{
 191:../Shared/Libraries/STM32F4xx_StdPeriph_Driver/src/stm32f4xx_spi.c ****   */
 192:../Shared/Libraries/STM32F4xx_StdPeriph_Driver/src/stm32f4xx_spi.c **** 
 193:../Shared/Libraries/STM32F4xx_StdPeriph_Driver/src/stm32f4xx_spi.c **** /** @defgroup SPI_Group1 Initialization and Configuration functions
 194:../Shared/Libraries/STM32F4xx_StdPeriph_Driver/src/stm32f4xx_spi.c ****  *  @brief   Initialization and Configuration functions 
 195:../Shared/Libraries/STM32F4xx_StdPeriph_Driver/src/stm32f4xx_spi.c ****  *
 196:../Shared/Libraries/STM32F4xx_StdPeriph_Driver/src/stm32f4xx_spi.c **** @verbatim   
 197:../Shared/Libraries/STM32F4xx_StdPeriph_Driver/src/stm32f4xx_spi.c ****  ===============================================================================
 198:../Shared/Libraries/STM32F4xx_StdPeriph_Driver/src/stm32f4xx_spi.c ****                   Initialization and Configuration functions
 199:../Shared/Libraries/STM32F4xx_StdPeriph_Driver/src/stm32f4xx_spi.c ****  ===============================================================================  
 200:../Shared/Libraries/STM32F4xx_StdPeriph_Driver/src/stm32f4xx_spi.c **** 
 201:../Shared/Libraries/STM32F4xx_StdPeriph_Driver/src/stm32f4xx_spi.c ****   This section provides a set of functions allowing to initialize the SPI Direction,
ARM GAS  /tmp/ccTxF6x3.s 			page 5


 202:../Shared/Libraries/STM32F4xx_StdPeriph_Driver/src/stm32f4xx_spi.c ****   SPI Mode, SPI Data Size, SPI Polarity, SPI Phase, SPI NSS Management, SPI Baud
 203:../Shared/Libraries/STM32F4xx_StdPeriph_Driver/src/stm32f4xx_spi.c ****   Rate Prescaler, SPI First Bit and SPI CRC Polynomial.
 204:../Shared/Libraries/STM32F4xx_StdPeriph_Driver/src/stm32f4xx_spi.c ****   
 205:../Shared/Libraries/STM32F4xx_StdPeriph_Driver/src/stm32f4xx_spi.c ****   The SPI_Init() function follows the SPI configuration procedures for Master mode
 206:../Shared/Libraries/STM32F4xx_StdPeriph_Driver/src/stm32f4xx_spi.c ****   and Slave mode (details for these procedures are available in reference manual
 207:../Shared/Libraries/STM32F4xx_StdPeriph_Driver/src/stm32f4xx_spi.c ****   (RM0090)).
 208:../Shared/Libraries/STM32F4xx_StdPeriph_Driver/src/stm32f4xx_spi.c ****   
 209:../Shared/Libraries/STM32F4xx_StdPeriph_Driver/src/stm32f4xx_spi.c **** @endverbatim
 210:../Shared/Libraries/STM32F4xx_StdPeriph_Driver/src/stm32f4xx_spi.c ****   * @{
 211:../Shared/Libraries/STM32F4xx_StdPeriph_Driver/src/stm32f4xx_spi.c ****   */
 212:../Shared/Libraries/STM32F4xx_StdPeriph_Driver/src/stm32f4xx_spi.c **** 
 213:../Shared/Libraries/STM32F4xx_StdPeriph_Driver/src/stm32f4xx_spi.c **** /**
 214:../Shared/Libraries/STM32F4xx_StdPeriph_Driver/src/stm32f4xx_spi.c ****   * @brief  Deinitialize the SPIx peripheral registers to their default reset values.
 215:../Shared/Libraries/STM32F4xx_StdPeriph_Driver/src/stm32f4xx_spi.c ****   * @param  SPIx: To select the SPIx/I2Sx peripheral, where x can be: 1, 2 or 3 
 216:../Shared/Libraries/STM32F4xx_StdPeriph_Driver/src/stm32f4xx_spi.c ****   *         in SPI mode or 2 or 3 in I2S mode.   
 217:../Shared/Libraries/STM32F4xx_StdPeriph_Driver/src/stm32f4xx_spi.c ****   *         
 218:../Shared/Libraries/STM32F4xx_StdPeriph_Driver/src/stm32f4xx_spi.c ****   * @note   The extended I2S blocks (ie. I2S2ext and I2S3ext blocks) are deinitialized
 219:../Shared/Libraries/STM32F4xx_StdPeriph_Driver/src/stm32f4xx_spi.c ****   *         when the relative I2S peripheral is deinitialized (the extended block's clock
 220:../Shared/Libraries/STM32F4xx_StdPeriph_Driver/src/stm32f4xx_spi.c ****   *         is managed by the I2S peripheral clock).
 221:../Shared/Libraries/STM32F4xx_StdPeriph_Driver/src/stm32f4xx_spi.c ****   *             
 222:../Shared/Libraries/STM32F4xx_StdPeriph_Driver/src/stm32f4xx_spi.c ****   * @retval None
 223:../Shared/Libraries/STM32F4xx_StdPeriph_Driver/src/stm32f4xx_spi.c ****   */
 224:../Shared/Libraries/STM32F4xx_StdPeriph_Driver/src/stm32f4xx_spi.c **** void SPI_I2S_DeInit(SPI_TypeDef* SPIx)
 225:../Shared/Libraries/STM32F4xx_StdPeriph_Driver/src/stm32f4xx_spi.c **** {
  29              		.loc 1 225 1
  30              		.cfi_startproc
  31              		@ args = 0, pretend = 0, frame = 8
  32              		@ frame_needed = 1, uses_anonymous_args = 0
  33 0000 80B5     		push	{r7, lr}
  34              	.LCFI0:
  35              		.cfi_def_cfa_offset 8
  36              		.cfi_offset 7, -8
  37              		.cfi_offset 14, -4
  38 0002 82B0     		sub	sp, sp, #8
  39              	.LCFI1:
  40              		.cfi_def_cfa_offset 16
  41 0004 00AF     		add	r7, sp, #0
  42              	.LCFI2:
  43              		.cfi_def_cfa_register 7
  44 0006 7860     		str	r0, [r7, #4]
 226:../Shared/Libraries/STM32F4xx_StdPeriph_Driver/src/stm32f4xx_spi.c ****   /* Check the parameters */
 227:../Shared/Libraries/STM32F4xx_StdPeriph_Driver/src/stm32f4xx_spi.c ****   assert_param(IS_SPI_ALL_PERIPH(SPIx));
 228:../Shared/Libraries/STM32F4xx_StdPeriph_Driver/src/stm32f4xx_spi.c **** 
 229:../Shared/Libraries/STM32F4xx_StdPeriph_Driver/src/stm32f4xx_spi.c ****   if (SPIx == SPI1)
  45              		.loc 1 229 6
  46 0008 7B68     		ldr	r3, [r7, #4]
  47 000a 174A     		ldr	r2, .L6
  48 000c 9342     		cmp	r3, r2
  49 000e 0AD1     		bne	.L2
 230:../Shared/Libraries/STM32F4xx_StdPeriph_Driver/src/stm32f4xx_spi.c ****   {
 231:../Shared/Libraries/STM32F4xx_StdPeriph_Driver/src/stm32f4xx_spi.c ****     /* Enable SPI1 reset state */
 232:../Shared/Libraries/STM32F4xx_StdPeriph_Driver/src/stm32f4xx_spi.c ****     RCC_APB2PeriphResetCmd(RCC_APB2Periph_SPI1, ENABLE);
  50              		.loc 1 232 5
  51 0010 0121     		movs	r1, #1
  52 0012 4FF48050 		mov	r0, #4096
  53 0016 FFF7FEFF 		bl	RCC_APB2PeriphResetCmd
 233:../Shared/Libraries/STM32F4xx_StdPeriph_Driver/src/stm32f4xx_spi.c ****     /* Release SPI1 from reset state */
ARM GAS  /tmp/ccTxF6x3.s 			page 6


 234:../Shared/Libraries/STM32F4xx_StdPeriph_Driver/src/stm32f4xx_spi.c ****     RCC_APB2PeriphResetCmd(RCC_APB2Periph_SPI1, DISABLE);
  54              		.loc 1 234 5
  55 001a 0021     		movs	r1, #0
  56 001c 4FF48050 		mov	r0, #4096
  57 0020 FFF7FEFF 		bl	RCC_APB2PeriphResetCmd
 235:../Shared/Libraries/STM32F4xx_StdPeriph_Driver/src/stm32f4xx_spi.c ****   }
 236:../Shared/Libraries/STM32F4xx_StdPeriph_Driver/src/stm32f4xx_spi.c ****   else if (SPIx == SPI2)
 237:../Shared/Libraries/STM32F4xx_StdPeriph_Driver/src/stm32f4xx_spi.c ****   {
 238:../Shared/Libraries/STM32F4xx_StdPeriph_Driver/src/stm32f4xx_spi.c ****     /* Enable SPI2 reset state */
 239:../Shared/Libraries/STM32F4xx_StdPeriph_Driver/src/stm32f4xx_spi.c ****     RCC_APB1PeriphResetCmd(RCC_APB1Periph_SPI2, ENABLE);
 240:../Shared/Libraries/STM32F4xx_StdPeriph_Driver/src/stm32f4xx_spi.c ****     /* Release SPI2 from reset state */
 241:../Shared/Libraries/STM32F4xx_StdPeriph_Driver/src/stm32f4xx_spi.c ****     RCC_APB1PeriphResetCmd(RCC_APB1Periph_SPI2, DISABLE);
 242:../Shared/Libraries/STM32F4xx_StdPeriph_Driver/src/stm32f4xx_spi.c ****     }
 243:../Shared/Libraries/STM32F4xx_StdPeriph_Driver/src/stm32f4xx_spi.c ****   else
 244:../Shared/Libraries/STM32F4xx_StdPeriph_Driver/src/stm32f4xx_spi.c ****   {
 245:../Shared/Libraries/STM32F4xx_StdPeriph_Driver/src/stm32f4xx_spi.c ****     if (SPIx == SPI3)
 246:../Shared/Libraries/STM32F4xx_StdPeriph_Driver/src/stm32f4xx_spi.c ****     {
 247:../Shared/Libraries/STM32F4xx_StdPeriph_Driver/src/stm32f4xx_spi.c ****       /* Enable SPI3 reset state */
 248:../Shared/Libraries/STM32F4xx_StdPeriph_Driver/src/stm32f4xx_spi.c ****       RCC_APB1PeriphResetCmd(RCC_APB1Periph_SPI3, ENABLE);
 249:../Shared/Libraries/STM32F4xx_StdPeriph_Driver/src/stm32f4xx_spi.c ****       /* Release SPI3 from reset state */
 250:../Shared/Libraries/STM32F4xx_StdPeriph_Driver/src/stm32f4xx_spi.c ****       RCC_APB1PeriphResetCmd(RCC_APB1Periph_SPI3, DISABLE);
 251:../Shared/Libraries/STM32F4xx_StdPeriph_Driver/src/stm32f4xx_spi.c ****     }
 252:../Shared/Libraries/STM32F4xx_StdPeriph_Driver/src/stm32f4xx_spi.c ****   }
 253:../Shared/Libraries/STM32F4xx_StdPeriph_Driver/src/stm32f4xx_spi.c **** }
  58              		.loc 1 253 1
  59 0024 1CE0     		b	.L5
  60              	.L2:
 236:../Shared/Libraries/STM32F4xx_StdPeriph_Driver/src/stm32f4xx_spi.c ****   {
  61              		.loc 1 236 11
  62 0026 7B68     		ldr	r3, [r7, #4]
  63 0028 104A     		ldr	r2, .L6+4
  64 002a 9342     		cmp	r3, r2
  65 002c 0AD1     		bne	.L4
 239:../Shared/Libraries/STM32F4xx_StdPeriph_Driver/src/stm32f4xx_spi.c ****     /* Release SPI2 from reset state */
  66              		.loc 1 239 5
  67 002e 0121     		movs	r1, #1
  68 0030 4FF48040 		mov	r0, #16384
  69 0034 FFF7FEFF 		bl	RCC_APB1PeriphResetCmd
 241:../Shared/Libraries/STM32F4xx_StdPeriph_Driver/src/stm32f4xx_spi.c ****     }
  70              		.loc 1 241 5
  71 0038 0021     		movs	r1, #0
  72 003a 4FF48040 		mov	r0, #16384
  73 003e FFF7FEFF 		bl	RCC_APB1PeriphResetCmd
  74              		.loc 1 253 1
  75 0042 0DE0     		b	.L5
  76              	.L4:
 245:../Shared/Libraries/STM32F4xx_StdPeriph_Driver/src/stm32f4xx_spi.c ****     {
  77              		.loc 1 245 8
  78 0044 7B68     		ldr	r3, [r7, #4]
  79 0046 0A4A     		ldr	r2, .L6+8
  80 0048 9342     		cmp	r3, r2
  81 004a 09D1     		bne	.L5
 248:../Shared/Libraries/STM32F4xx_StdPeriph_Driver/src/stm32f4xx_spi.c ****       /* Release SPI3 from reset state */
  82              		.loc 1 248 7
  83 004c 0121     		movs	r1, #1
  84 004e 4FF40040 		mov	r0, #32768
  85 0052 FFF7FEFF 		bl	RCC_APB1PeriphResetCmd
ARM GAS  /tmp/ccTxF6x3.s 			page 7


 250:../Shared/Libraries/STM32F4xx_StdPeriph_Driver/src/stm32f4xx_spi.c ****     }
  86              		.loc 1 250 7
  87 0056 0021     		movs	r1, #0
  88 0058 4FF40040 		mov	r0, #32768
  89 005c FFF7FEFF 		bl	RCC_APB1PeriphResetCmd
  90              	.L5:
  91              		.loc 1 253 1
  92 0060 00BF     		nop
  93 0062 0837     		adds	r7, r7, #8
  94              	.LCFI3:
  95              		.cfi_def_cfa_offset 8
  96 0064 BD46     		mov	sp, r7
  97              	.LCFI4:
  98              		.cfi_def_cfa_register 13
  99              		@ sp needed
 100 0066 80BD     		pop	{r7, pc}
 101              	.L7:
 102              		.align	2
 103              	.L6:
 104 0068 00300140 		.word	1073819648
 105 006c 00380040 		.word	1073756160
 106 0070 003C0040 		.word	1073757184
 107              		.cfi_endproc
 108              	.LFE110:
 110              		.section	.text.SPI_Init,"ax",%progbits
 111              		.align	1
 112              		.global	SPI_Init
 113              		.syntax unified
 114              		.thumb
 115              		.thumb_func
 117              	SPI_Init:
 118              	.LFB111:
 254:../Shared/Libraries/STM32F4xx_StdPeriph_Driver/src/stm32f4xx_spi.c **** 
 255:../Shared/Libraries/STM32F4xx_StdPeriph_Driver/src/stm32f4xx_spi.c **** /**
 256:../Shared/Libraries/STM32F4xx_StdPeriph_Driver/src/stm32f4xx_spi.c ****   * @brief  Initializes the SPIx peripheral according to the specified 
 257:../Shared/Libraries/STM32F4xx_StdPeriph_Driver/src/stm32f4xx_spi.c ****   *         parameters in the SPI_InitStruct.
 258:../Shared/Libraries/STM32F4xx_StdPeriph_Driver/src/stm32f4xx_spi.c ****   * @param  SPIx: where x can be 1, 2 or 3 to select the SPI peripheral.
 259:../Shared/Libraries/STM32F4xx_StdPeriph_Driver/src/stm32f4xx_spi.c ****   * @param  SPI_InitStruct: pointer to a SPI_InitTypeDef structure that
 260:../Shared/Libraries/STM32F4xx_StdPeriph_Driver/src/stm32f4xx_spi.c ****   *         contains the configuration information for the specified SPI peripheral.
 261:../Shared/Libraries/STM32F4xx_StdPeriph_Driver/src/stm32f4xx_spi.c ****   * @retval None
 262:../Shared/Libraries/STM32F4xx_StdPeriph_Driver/src/stm32f4xx_spi.c ****   */
 263:../Shared/Libraries/STM32F4xx_StdPeriph_Driver/src/stm32f4xx_spi.c **** void SPI_Init(SPI_TypeDef* SPIx, SPI_InitTypeDef* SPI_InitStruct)
 264:../Shared/Libraries/STM32F4xx_StdPeriph_Driver/src/stm32f4xx_spi.c **** {
 119              		.loc 1 264 1
 120              		.cfi_startproc
 121              		@ args = 0, pretend = 0, frame = 16
 122              		@ frame_needed = 1, uses_anonymous_args = 0
 123              		@ link register save eliminated.
 124 0000 80B4     		push	{r7}
 125              	.LCFI5:
 126              		.cfi_def_cfa_offset 4
 127              		.cfi_offset 7, -4
 128 0002 85B0     		sub	sp, sp, #20
 129              	.LCFI6:
 130              		.cfi_def_cfa_offset 24
 131 0004 00AF     		add	r7, sp, #0
 132              	.LCFI7:
ARM GAS  /tmp/ccTxF6x3.s 			page 8


 133              		.cfi_def_cfa_register 7
 134 0006 7860     		str	r0, [r7, #4]
 135 0008 3960     		str	r1, [r7]
 265:../Shared/Libraries/STM32F4xx_StdPeriph_Driver/src/stm32f4xx_spi.c ****   uint16_t tmpreg = 0;
 136              		.loc 1 265 12
 137 000a 0023     		movs	r3, #0
 138 000c FB81     		strh	r3, [r7, #14]	@ movhi
 266:../Shared/Libraries/STM32F4xx_StdPeriph_Driver/src/stm32f4xx_spi.c ****   
 267:../Shared/Libraries/STM32F4xx_StdPeriph_Driver/src/stm32f4xx_spi.c ****   /* check the parameters */
 268:../Shared/Libraries/STM32F4xx_StdPeriph_Driver/src/stm32f4xx_spi.c ****   assert_param(IS_SPI_ALL_PERIPH(SPIx));
 269:../Shared/Libraries/STM32F4xx_StdPeriph_Driver/src/stm32f4xx_spi.c ****   
 270:../Shared/Libraries/STM32F4xx_StdPeriph_Driver/src/stm32f4xx_spi.c ****   /* Check the SPI parameters */
 271:../Shared/Libraries/STM32F4xx_StdPeriph_Driver/src/stm32f4xx_spi.c ****   assert_param(IS_SPI_DIRECTION_MODE(SPI_InitStruct->SPI_Direction));
 272:../Shared/Libraries/STM32F4xx_StdPeriph_Driver/src/stm32f4xx_spi.c ****   assert_param(IS_SPI_MODE(SPI_InitStruct->SPI_Mode));
 273:../Shared/Libraries/STM32F4xx_StdPeriph_Driver/src/stm32f4xx_spi.c ****   assert_param(IS_SPI_DATASIZE(SPI_InitStruct->SPI_DataSize));
 274:../Shared/Libraries/STM32F4xx_StdPeriph_Driver/src/stm32f4xx_spi.c ****   assert_param(IS_SPI_CPOL(SPI_InitStruct->SPI_CPOL));
 275:../Shared/Libraries/STM32F4xx_StdPeriph_Driver/src/stm32f4xx_spi.c ****   assert_param(IS_SPI_CPHA(SPI_InitStruct->SPI_CPHA));
 276:../Shared/Libraries/STM32F4xx_StdPeriph_Driver/src/stm32f4xx_spi.c ****   assert_param(IS_SPI_NSS(SPI_InitStruct->SPI_NSS));
 277:../Shared/Libraries/STM32F4xx_StdPeriph_Driver/src/stm32f4xx_spi.c ****   assert_param(IS_SPI_BAUDRATE_PRESCALER(SPI_InitStruct->SPI_BaudRatePrescaler));
 278:../Shared/Libraries/STM32F4xx_StdPeriph_Driver/src/stm32f4xx_spi.c ****   assert_param(IS_SPI_FIRST_BIT(SPI_InitStruct->SPI_FirstBit));
 279:../Shared/Libraries/STM32F4xx_StdPeriph_Driver/src/stm32f4xx_spi.c ****   assert_param(IS_SPI_CRC_POLYNOMIAL(SPI_InitStruct->SPI_CRCPolynomial));
 280:../Shared/Libraries/STM32F4xx_StdPeriph_Driver/src/stm32f4xx_spi.c **** 
 281:../Shared/Libraries/STM32F4xx_StdPeriph_Driver/src/stm32f4xx_spi.c **** /*---------------------------- SPIx CR1 Configuration ------------------------*/
 282:../Shared/Libraries/STM32F4xx_StdPeriph_Driver/src/stm32f4xx_spi.c ****   /* Get the SPIx CR1 value */
 283:../Shared/Libraries/STM32F4xx_StdPeriph_Driver/src/stm32f4xx_spi.c ****   tmpreg = SPIx->CR1;
 139              		.loc 1 283 10
 140 000e 7B68     		ldr	r3, [r7, #4]
 141 0010 1B88     		ldrh	r3, [r3]	@ movhi
 142 0012 FB81     		strh	r3, [r7, #14]	@ movhi
 284:../Shared/Libraries/STM32F4xx_StdPeriph_Driver/src/stm32f4xx_spi.c ****   /* Clear BIDIMode, BIDIOE, RxONLY, SSM, SSI, LSBFirst, BR, MSTR, CPOL and CPHA bits */
 285:../Shared/Libraries/STM32F4xx_StdPeriph_Driver/src/stm32f4xx_spi.c ****   tmpreg &= CR1_CLEAR_MASK;
 143              		.loc 1 285 10
 144 0014 FB89     		ldrh	r3, [r7, #14]	@ movhi
 145 0016 03F44153 		and	r3, r3, #12352
 146 001a FB81     		strh	r3, [r7, #14]	@ movhi
 286:../Shared/Libraries/STM32F4xx_StdPeriph_Driver/src/stm32f4xx_spi.c ****   /* Configure SPIx: direction, NSS management, first transmitted bit, BaudRate prescaler
 287:../Shared/Libraries/STM32F4xx_StdPeriph_Driver/src/stm32f4xx_spi.c ****      master/salve mode, CPOL and CPHA */
 288:../Shared/Libraries/STM32F4xx_StdPeriph_Driver/src/stm32f4xx_spi.c ****   /* Set BIDImode, BIDIOE and RxONLY bits according to SPI_Direction value */
 289:../Shared/Libraries/STM32F4xx_StdPeriph_Driver/src/stm32f4xx_spi.c ****   /* Set SSM, SSI and MSTR bits according to SPI_Mode and SPI_NSS values */
 290:../Shared/Libraries/STM32F4xx_StdPeriph_Driver/src/stm32f4xx_spi.c ****   /* Set LSBFirst bit according to SPI_FirstBit value */
 291:../Shared/Libraries/STM32F4xx_StdPeriph_Driver/src/stm32f4xx_spi.c ****   /* Set BR bits according to SPI_BaudRatePrescaler value */
 292:../Shared/Libraries/STM32F4xx_StdPeriph_Driver/src/stm32f4xx_spi.c ****   /* Set CPOL bit according to SPI_CPOL value */
 293:../Shared/Libraries/STM32F4xx_StdPeriph_Driver/src/stm32f4xx_spi.c ****   /* Set CPHA bit according to SPI_CPHA value */
 294:../Shared/Libraries/STM32F4xx_StdPeriph_Driver/src/stm32f4xx_spi.c ****   tmpreg |= (uint16_t)((uint32_t)SPI_InitStruct->SPI_Direction | SPI_InitStruct->SPI_Mode |
 147              		.loc 1 294 48
 148 001c 3B68     		ldr	r3, [r7]
 149 001e 1A88     		ldrh	r2, [r3]
 150              		.loc 1 294 80
 151 0020 3B68     		ldr	r3, [r7]
 152 0022 5B88     		ldrh	r3, [r3, #2]
 153              		.loc 1 294 13
 154 0024 1343     		orrs	r3, r3, r2
 155 0026 9AB2     		uxth	r2, r3
 295:../Shared/Libraries/STM32F4xx_StdPeriph_Driver/src/stm32f4xx_spi.c ****                   SPI_InitStruct->SPI_DataSize | SPI_InitStruct->SPI_CPOL |  
 156              		.loc 1 295 33
 157 0028 3B68     		ldr	r3, [r7]
 158 002a 9B88     		ldrh	r3, [r3, #4]
ARM GAS  /tmp/ccTxF6x3.s 			page 9


 294:../Shared/Libraries/STM32F4xx_StdPeriph_Driver/src/stm32f4xx_spi.c ****                   SPI_InitStruct->SPI_DataSize | SPI_InitStruct->SPI_CPOL |  
 159              		.loc 1 294 13
 160 002c 1343     		orrs	r3, r3, r2
 161 002e 9AB2     		uxth	r2, r3
 162              		.loc 1 295 64
 163 0030 3B68     		ldr	r3, [r7]
 164 0032 DB88     		ldrh	r3, [r3, #6]
 294:../Shared/Libraries/STM32F4xx_StdPeriph_Driver/src/stm32f4xx_spi.c ****                   SPI_InitStruct->SPI_DataSize | SPI_InitStruct->SPI_CPOL |  
 165              		.loc 1 294 13
 166 0034 1343     		orrs	r3, r3, r2
 167 0036 9AB2     		uxth	r2, r3
 296:../Shared/Libraries/STM32F4xx_StdPeriph_Driver/src/stm32f4xx_spi.c ****                   SPI_InitStruct->SPI_CPHA | SPI_InitStruct->SPI_NSS |  
 168              		.loc 1 296 33
 169 0038 3B68     		ldr	r3, [r7]
 170 003a 1B89     		ldrh	r3, [r3, #8]
 294:../Shared/Libraries/STM32F4xx_StdPeriph_Driver/src/stm32f4xx_spi.c ****                   SPI_InitStruct->SPI_DataSize | SPI_InitStruct->SPI_CPOL |  
 171              		.loc 1 294 13
 172 003c 1343     		orrs	r3, r3, r2
 173 003e 9AB2     		uxth	r2, r3
 174              		.loc 1 296 60
 175 0040 3B68     		ldr	r3, [r7]
 176 0042 5B89     		ldrh	r3, [r3, #10]
 294:../Shared/Libraries/STM32F4xx_StdPeriph_Driver/src/stm32f4xx_spi.c ****                   SPI_InitStruct->SPI_DataSize | SPI_InitStruct->SPI_CPOL |  
 177              		.loc 1 294 13
 178 0044 1343     		orrs	r3, r3, r2
 179 0046 9AB2     		uxth	r2, r3
 297:../Shared/Libraries/STM32F4xx_StdPeriph_Driver/src/stm32f4xx_spi.c ****                   SPI_InitStruct->SPI_BaudRatePrescaler | SPI_InitStruct->SPI_FirstBit);
 180              		.loc 1 297 33
 181 0048 3B68     		ldr	r3, [r7]
 182 004a 9B89     		ldrh	r3, [r3, #12]
 294:../Shared/Libraries/STM32F4xx_StdPeriph_Driver/src/stm32f4xx_spi.c ****                   SPI_InitStruct->SPI_DataSize | SPI_InitStruct->SPI_CPOL |  
 183              		.loc 1 294 13
 184 004c 1343     		orrs	r3, r3, r2
 185 004e 9AB2     		uxth	r2, r3
 186              		.loc 1 297 73
 187 0050 3B68     		ldr	r3, [r7]
 188 0052 DB89     		ldrh	r3, [r3, #14]
 294:../Shared/Libraries/STM32F4xx_StdPeriph_Driver/src/stm32f4xx_spi.c ****                   SPI_InitStruct->SPI_DataSize | SPI_InitStruct->SPI_CPOL |  
 189              		.loc 1 294 13
 190 0054 1343     		orrs	r3, r3, r2
 191 0056 9AB2     		uxth	r2, r3
 294:../Shared/Libraries/STM32F4xx_StdPeriph_Driver/src/stm32f4xx_spi.c ****                   SPI_InitStruct->SPI_DataSize | SPI_InitStruct->SPI_CPOL |  
 192              		.loc 1 294 10
 193 0058 FB89     		ldrh	r3, [r7, #14]	@ movhi
 194 005a 1343     		orrs	r3, r3, r2
 195 005c FB81     		strh	r3, [r7, #14]	@ movhi
 298:../Shared/Libraries/STM32F4xx_StdPeriph_Driver/src/stm32f4xx_spi.c ****   /* Write to SPIx CR1 */
 299:../Shared/Libraries/STM32F4xx_StdPeriph_Driver/src/stm32f4xx_spi.c ****   SPIx->CR1 = tmpreg;
 196              		.loc 1 299 13
 197 005e 7B68     		ldr	r3, [r7, #4]
 198 0060 FA89     		ldrh	r2, [r7, #14]	@ movhi
 199 0062 1A80     		strh	r2, [r3]	@ movhi
 300:../Shared/Libraries/STM32F4xx_StdPeriph_Driver/src/stm32f4xx_spi.c **** 
 301:../Shared/Libraries/STM32F4xx_StdPeriph_Driver/src/stm32f4xx_spi.c ****   /* Activate the SPI mode (Reset I2SMOD bit in I2SCFGR register) */
 302:../Shared/Libraries/STM32F4xx_StdPeriph_Driver/src/stm32f4xx_spi.c ****   SPIx->I2SCFGR &= (uint16_t)~((uint16_t)SPI_I2SCFGR_I2SMOD);
 200              		.loc 1 302 7
 201 0064 7B68     		ldr	r3, [r7, #4]
ARM GAS  /tmp/ccTxF6x3.s 			page 10


 202 0066 9B8B     		ldrh	r3, [r3, #28]	@ movhi
 203 0068 9BB2     		uxth	r3, r3
 204              		.loc 1 302 17
 205 006a 23F40063 		bic	r3, r3, #2048
 206 006e 9AB2     		uxth	r2, r3
 207 0070 7B68     		ldr	r3, [r7, #4]
 208 0072 9A83     		strh	r2, [r3, #28]	@ movhi
 303:../Shared/Libraries/STM32F4xx_StdPeriph_Driver/src/stm32f4xx_spi.c **** /*---------------------------- SPIx CRCPOLY Configuration --------------------*/
 304:../Shared/Libraries/STM32F4xx_StdPeriph_Driver/src/stm32f4xx_spi.c ****   /* Write to SPIx CRCPOLY */
 305:../Shared/Libraries/STM32F4xx_StdPeriph_Driver/src/stm32f4xx_spi.c ****   SPIx->CRCPR = SPI_InitStruct->SPI_CRCPolynomial;
 209              		.loc 1 305 31
 210 0074 3B68     		ldr	r3, [r7]
 211 0076 1A8A     		ldrh	r2, [r3, #16]
 212              		.loc 1 305 15
 213 0078 7B68     		ldr	r3, [r7, #4]
 214 007a 1A82     		strh	r2, [r3, #16]	@ movhi
 306:../Shared/Libraries/STM32F4xx_StdPeriph_Driver/src/stm32f4xx_spi.c **** }
 215              		.loc 1 306 1
 216 007c 00BF     		nop
 217 007e 1437     		adds	r7, r7, #20
 218              	.LCFI8:
 219              		.cfi_def_cfa_offset 4
 220 0080 BD46     		mov	sp, r7
 221              	.LCFI9:
 222              		.cfi_def_cfa_register 13
 223              		@ sp needed
 224 0082 5DF8047B 		ldr	r7, [sp], #4
 225              	.LCFI10:
 226              		.cfi_restore 7
 227              		.cfi_def_cfa_offset 0
 228 0086 7047     		bx	lr
 229              		.cfi_endproc
 230              	.LFE111:
 232              		.section	.text.I2S_Init,"ax",%progbits
 233              		.align	1
 234              		.global	I2S_Init
 235              		.syntax unified
 236              		.thumb
 237              		.thumb_func
 239              	I2S_Init:
 240              	.LFB112:
 307:../Shared/Libraries/STM32F4xx_StdPeriph_Driver/src/stm32f4xx_spi.c **** 
 308:../Shared/Libraries/STM32F4xx_StdPeriph_Driver/src/stm32f4xx_spi.c **** /**
 309:../Shared/Libraries/STM32F4xx_StdPeriph_Driver/src/stm32f4xx_spi.c ****   * @brief  Initializes the SPIx peripheral according to the specified 
 310:../Shared/Libraries/STM32F4xx_StdPeriph_Driver/src/stm32f4xx_spi.c ****   *         parameters in the I2S_InitStruct.
 311:../Shared/Libraries/STM32F4xx_StdPeriph_Driver/src/stm32f4xx_spi.c ****   * @param  SPIx: where x can be  2 or 3 to select the SPI peripheral (configured in I2S mode).
 312:../Shared/Libraries/STM32F4xx_StdPeriph_Driver/src/stm32f4xx_spi.c ****   * @param  I2S_InitStruct: pointer to an I2S_InitTypeDef structure that
 313:../Shared/Libraries/STM32F4xx_StdPeriph_Driver/src/stm32f4xx_spi.c ****   *         contains the configuration information for the specified SPI peripheral
 314:../Shared/Libraries/STM32F4xx_StdPeriph_Driver/src/stm32f4xx_spi.c ****   *         configured in I2S mode.
 315:../Shared/Libraries/STM32F4xx_StdPeriph_Driver/src/stm32f4xx_spi.c ****   *           
 316:../Shared/Libraries/STM32F4xx_StdPeriph_Driver/src/stm32f4xx_spi.c ****   * @note   The function calculates the optimal prescaler needed to obtain the most 
 317:../Shared/Libraries/STM32F4xx_StdPeriph_Driver/src/stm32f4xx_spi.c ****   *         accurate audio frequency (depending on the I2S clock source, the PLL values 
 318:../Shared/Libraries/STM32F4xx_StdPeriph_Driver/src/stm32f4xx_spi.c ****   *         and the product configuration). But in case the prescaler value is greater 
 319:../Shared/Libraries/STM32F4xx_StdPeriph_Driver/src/stm32f4xx_spi.c ****   *         than 511, the default value (0x02) will be configured instead.    
 320:../Shared/Libraries/STM32F4xx_StdPeriph_Driver/src/stm32f4xx_spi.c ****   * 
 321:../Shared/Libraries/STM32F4xx_StdPeriph_Driver/src/stm32f4xx_spi.c ****   * @note   if an external clock is used as source clock for the I2S, then the define
 322:../Shared/Libraries/STM32F4xx_StdPeriph_Driver/src/stm32f4xx_spi.c ****   *         I2S_EXTERNAL_CLOCK_VAL in file stm32f4xx_conf.h should be enabled and set
ARM GAS  /tmp/ccTxF6x3.s 			page 11


 323:../Shared/Libraries/STM32F4xx_StdPeriph_Driver/src/stm32f4xx_spi.c ****   *         to the value of the the source clock frequency (in Hz).
 324:../Shared/Libraries/STM32F4xx_StdPeriph_Driver/src/stm32f4xx_spi.c ****   *  
 325:../Shared/Libraries/STM32F4xx_StdPeriph_Driver/src/stm32f4xx_spi.c ****   * @retval None
 326:../Shared/Libraries/STM32F4xx_StdPeriph_Driver/src/stm32f4xx_spi.c ****   */
 327:../Shared/Libraries/STM32F4xx_StdPeriph_Driver/src/stm32f4xx_spi.c **** void I2S_Init(SPI_TypeDef* SPIx, I2S_InitTypeDef* I2S_InitStruct)
 328:../Shared/Libraries/STM32F4xx_StdPeriph_Driver/src/stm32f4xx_spi.c **** {
 241              		.loc 1 328 1
 242              		.cfi_startproc
 243              		@ args = 0, pretend = 0, frame = 40
 244              		@ frame_needed = 1, uses_anonymous_args = 0
 245              		@ link register save eliminated.
 246 0000 80B4     		push	{r7}
 247              	.LCFI11:
 248              		.cfi_def_cfa_offset 4
 249              		.cfi_offset 7, -4
 250 0002 8BB0     		sub	sp, sp, #44
 251              	.LCFI12:
 252              		.cfi_def_cfa_offset 48
 253 0004 00AF     		add	r7, sp, #0
 254              	.LCFI13:
 255              		.cfi_def_cfa_register 7
 256 0006 7860     		str	r0, [r7, #4]
 257 0008 3960     		str	r1, [r7]
 329:../Shared/Libraries/STM32F4xx_StdPeriph_Driver/src/stm32f4xx_spi.c ****   uint16_t tmpreg = 0, i2sdiv = 2, i2sodd = 0, packetlength = 1;
 258              		.loc 1 329 12
 259 000a 0023     		movs	r3, #0
 260 000c 7B83     		strh	r3, [r7, #26]	@ movhi
 261              		.loc 1 329 24
 262 000e 0223     		movs	r3, #2
 263 0010 FB84     		strh	r3, [r7, #38]	@ movhi
 264              		.loc 1 329 36
 265 0012 0023     		movs	r3, #0
 266 0014 BB84     		strh	r3, [r7, #36]	@ movhi
 267              		.loc 1 329 48
 268 0016 0123     		movs	r3, #1
 269 0018 7B84     		strh	r3, [r7, #34]	@ movhi
 330:../Shared/Libraries/STM32F4xx_StdPeriph_Driver/src/stm32f4xx_spi.c ****   uint32_t tmp = 0, i2sclk = 0;
 270              		.loc 1 330 12
 271 001a 0023     		movs	r3, #0
 272 001c FB61     		str	r3, [r7, #28]
 273              		.loc 1 330 21
 274 001e 0023     		movs	r3, #0
 275 0020 7B61     		str	r3, [r7, #20]
 331:../Shared/Libraries/STM32F4xx_StdPeriph_Driver/src/stm32f4xx_spi.c **** #ifndef I2S_EXTERNAL_CLOCK_VAL
 332:../Shared/Libraries/STM32F4xx_StdPeriph_Driver/src/stm32f4xx_spi.c ****   uint32_t pllm = 0, plln = 0, pllr = 0;
 276              		.loc 1 332 12
 277 0022 0023     		movs	r3, #0
 278 0024 3B61     		str	r3, [r7, #16]
 279              		.loc 1 332 22
 280 0026 0023     		movs	r3, #0
 281 0028 FB60     		str	r3, [r7, #12]
 282              		.loc 1 332 32
 283 002a 0023     		movs	r3, #0
 284 002c BB60     		str	r3, [r7, #8]
 333:../Shared/Libraries/STM32F4xx_StdPeriph_Driver/src/stm32f4xx_spi.c **** #endif /* I2S_EXTERNAL_CLOCK_VAL */
 334:../Shared/Libraries/STM32F4xx_StdPeriph_Driver/src/stm32f4xx_spi.c ****   
 335:../Shared/Libraries/STM32F4xx_StdPeriph_Driver/src/stm32f4xx_spi.c ****   /* Check the I2S parameters */
ARM GAS  /tmp/ccTxF6x3.s 			page 12


 336:../Shared/Libraries/STM32F4xx_StdPeriph_Driver/src/stm32f4xx_spi.c ****   assert_param(IS_SPI_23_PERIPH(SPIx));
 337:../Shared/Libraries/STM32F4xx_StdPeriph_Driver/src/stm32f4xx_spi.c ****   assert_param(IS_I2S_MODE(I2S_InitStruct->I2S_Mode));
 338:../Shared/Libraries/STM32F4xx_StdPeriph_Driver/src/stm32f4xx_spi.c ****   assert_param(IS_I2S_STANDARD(I2S_InitStruct->I2S_Standard));
 339:../Shared/Libraries/STM32F4xx_StdPeriph_Driver/src/stm32f4xx_spi.c ****   assert_param(IS_I2S_DATA_FORMAT(I2S_InitStruct->I2S_DataFormat));
 340:../Shared/Libraries/STM32F4xx_StdPeriph_Driver/src/stm32f4xx_spi.c ****   assert_param(IS_I2S_MCLK_OUTPUT(I2S_InitStruct->I2S_MCLKOutput));
 341:../Shared/Libraries/STM32F4xx_StdPeriph_Driver/src/stm32f4xx_spi.c ****   assert_param(IS_I2S_AUDIO_FREQ(I2S_InitStruct->I2S_AudioFreq));
 342:../Shared/Libraries/STM32F4xx_StdPeriph_Driver/src/stm32f4xx_spi.c ****   assert_param(IS_I2S_CPOL(I2S_InitStruct->I2S_CPOL));  
 343:../Shared/Libraries/STM32F4xx_StdPeriph_Driver/src/stm32f4xx_spi.c **** 
 344:../Shared/Libraries/STM32F4xx_StdPeriph_Driver/src/stm32f4xx_spi.c **** /*----------------------- SPIx I2SCFGR & I2SPR Configuration -----------------*/
 345:../Shared/Libraries/STM32F4xx_StdPeriph_Driver/src/stm32f4xx_spi.c ****   /* Clear I2SMOD, I2SE, I2SCFG, PCMSYNC, I2SSTD, CKPOL, DATLEN and CHLEN bits */
 346:../Shared/Libraries/STM32F4xx_StdPeriph_Driver/src/stm32f4xx_spi.c ****   SPIx->I2SCFGR &= I2SCFGR_CLEAR_MASK; 
 285              		.loc 1 346 7
 286 002e 7B68     		ldr	r3, [r7, #4]
 287 0030 9B8B     		ldrh	r3, [r3, #28]	@ movhi
 288 0032 9BB2     		uxth	r3, r3
 289              		.loc 1 346 17
 290 0034 23F47B63 		bic	r3, r3, #4016
 291 0038 23F00F03 		bic	r3, r3, #15
 292 003c 9AB2     		uxth	r2, r3
 293 003e 7B68     		ldr	r3, [r7, #4]
 294 0040 9A83     		strh	r2, [r3, #28]	@ movhi
 347:../Shared/Libraries/STM32F4xx_StdPeriph_Driver/src/stm32f4xx_spi.c ****   SPIx->I2SPR = 0x0002;
 295              		.loc 1 347 15
 296 0042 7B68     		ldr	r3, [r7, #4]
 297 0044 0222     		movs	r2, #2
 298 0046 1A84     		strh	r2, [r3, #32]	@ movhi
 348:../Shared/Libraries/STM32F4xx_StdPeriph_Driver/src/stm32f4xx_spi.c ****   
 349:../Shared/Libraries/STM32F4xx_StdPeriph_Driver/src/stm32f4xx_spi.c ****   /* Get the I2SCFGR register value */
 350:../Shared/Libraries/STM32F4xx_StdPeriph_Driver/src/stm32f4xx_spi.c ****   tmpreg = SPIx->I2SCFGR;
 299              		.loc 1 350 10
 300 0048 7B68     		ldr	r3, [r7, #4]
 301 004a 9B8B     		ldrh	r3, [r3, #28]	@ movhi
 302 004c 7B83     		strh	r3, [r7, #26]	@ movhi
 351:../Shared/Libraries/STM32F4xx_StdPeriph_Driver/src/stm32f4xx_spi.c ****   
 352:../Shared/Libraries/STM32F4xx_StdPeriph_Driver/src/stm32f4xx_spi.c ****   /* If the default value has to be written, reinitialize i2sdiv and i2sodd*/
 353:../Shared/Libraries/STM32F4xx_StdPeriph_Driver/src/stm32f4xx_spi.c ****   if(I2S_InitStruct->I2S_AudioFreq == I2S_AudioFreq_Default)
 303              		.loc 1 353 20
 304 004e 3B68     		ldr	r3, [r7]
 305 0050 9B68     		ldr	r3, [r3, #8]
 306              		.loc 1 353 5
 307 0052 022B     		cmp	r3, #2
 308 0054 04D1     		bne	.L10
 354:../Shared/Libraries/STM32F4xx_StdPeriph_Driver/src/stm32f4xx_spi.c ****   {
 355:../Shared/Libraries/STM32F4xx_StdPeriph_Driver/src/stm32f4xx_spi.c ****     i2sodd = (uint16_t)0;
 309              		.loc 1 355 12
 310 0056 0023     		movs	r3, #0
 311 0058 BB84     		strh	r3, [r7, #36]	@ movhi
 356:../Shared/Libraries/STM32F4xx_StdPeriph_Driver/src/stm32f4xx_spi.c ****     i2sdiv = (uint16_t)2;   
 312              		.loc 1 356 12
 313 005a 0223     		movs	r3, #2
 314 005c FB84     		strh	r3, [r7, #38]	@ movhi
 315 005e 6DE0     		b	.L11
 316              	.L10:
 357:../Shared/Libraries/STM32F4xx_StdPeriph_Driver/src/stm32f4xx_spi.c ****   }
 358:../Shared/Libraries/STM32F4xx_StdPeriph_Driver/src/stm32f4xx_spi.c ****   /* If the requested audio frequency is not the default, compute the prescaler */
 359:../Shared/Libraries/STM32F4xx_StdPeriph_Driver/src/stm32f4xx_spi.c ****   else
 360:../Shared/Libraries/STM32F4xx_StdPeriph_Driver/src/stm32f4xx_spi.c ****   {
ARM GAS  /tmp/ccTxF6x3.s 			page 13


 361:../Shared/Libraries/STM32F4xx_StdPeriph_Driver/src/stm32f4xx_spi.c ****     /* Check the frame length (For the Prescaler computing) *******************/
 362:../Shared/Libraries/STM32F4xx_StdPeriph_Driver/src/stm32f4xx_spi.c ****     if(I2S_InitStruct->I2S_DataFormat == I2S_DataFormat_16b)
 317              		.loc 1 362 22
 318 0060 3B68     		ldr	r3, [r7]
 319 0062 9B88     		ldrh	r3, [r3, #4]
 320              		.loc 1 362 7
 321 0064 002B     		cmp	r3, #0
 322 0066 02D1     		bne	.L12
 363:../Shared/Libraries/STM32F4xx_StdPeriph_Driver/src/stm32f4xx_spi.c ****     {
 364:../Shared/Libraries/STM32F4xx_StdPeriph_Driver/src/stm32f4xx_spi.c ****       /* Packet length is 16 bits */
 365:../Shared/Libraries/STM32F4xx_StdPeriph_Driver/src/stm32f4xx_spi.c ****       packetlength = 1;
 323              		.loc 1 365 20
 324 0068 0123     		movs	r3, #1
 325 006a 7B84     		strh	r3, [r7, #34]	@ movhi
 326 006c 01E0     		b	.L13
 327              	.L12:
 366:../Shared/Libraries/STM32F4xx_StdPeriph_Driver/src/stm32f4xx_spi.c ****     }
 367:../Shared/Libraries/STM32F4xx_StdPeriph_Driver/src/stm32f4xx_spi.c ****     else
 368:../Shared/Libraries/STM32F4xx_StdPeriph_Driver/src/stm32f4xx_spi.c ****     {
 369:../Shared/Libraries/STM32F4xx_StdPeriph_Driver/src/stm32f4xx_spi.c ****       /* Packet length is 32 bits */
 370:../Shared/Libraries/STM32F4xx_StdPeriph_Driver/src/stm32f4xx_spi.c ****       packetlength = 2;
 328              		.loc 1 370 20
 329 006e 0223     		movs	r3, #2
 330 0070 7B84     		strh	r3, [r7, #34]	@ movhi
 331              	.L13:
 371:../Shared/Libraries/STM32F4xx_StdPeriph_Driver/src/stm32f4xx_spi.c ****     }
 372:../Shared/Libraries/STM32F4xx_StdPeriph_Driver/src/stm32f4xx_spi.c **** 
 373:../Shared/Libraries/STM32F4xx_StdPeriph_Driver/src/stm32f4xx_spi.c ****     /* Get I2S source Clock frequency  ****************************************/
 374:../Shared/Libraries/STM32F4xx_StdPeriph_Driver/src/stm32f4xx_spi.c ****       
 375:../Shared/Libraries/STM32F4xx_StdPeriph_Driver/src/stm32f4xx_spi.c ****     /* If an external I2S clock has to be used, this define should be set  
 376:../Shared/Libraries/STM32F4xx_StdPeriph_Driver/src/stm32f4xx_spi.c ****        in the project configuration or in the stm32f4xx_conf.h file */
 377:../Shared/Libraries/STM32F4xx_StdPeriph_Driver/src/stm32f4xx_spi.c ****   #ifdef I2S_EXTERNAL_CLOCK_VAL     
 378:../Shared/Libraries/STM32F4xx_StdPeriph_Driver/src/stm32f4xx_spi.c ****     /* Set external clock as I2S clock source */
 379:../Shared/Libraries/STM32F4xx_StdPeriph_Driver/src/stm32f4xx_spi.c ****     if ((RCC->CFGR & RCC_CFGR_I2SSRC) == 0)
 380:../Shared/Libraries/STM32F4xx_StdPeriph_Driver/src/stm32f4xx_spi.c ****     {
 381:../Shared/Libraries/STM32F4xx_StdPeriph_Driver/src/stm32f4xx_spi.c ****       RCC->CFGR |= (uint32_t)RCC_CFGR_I2SSRC;
 382:../Shared/Libraries/STM32F4xx_StdPeriph_Driver/src/stm32f4xx_spi.c ****     }
 383:../Shared/Libraries/STM32F4xx_StdPeriph_Driver/src/stm32f4xx_spi.c ****     
 384:../Shared/Libraries/STM32F4xx_StdPeriph_Driver/src/stm32f4xx_spi.c ****     /* Set the I2S clock to the external clock  value */
 385:../Shared/Libraries/STM32F4xx_StdPeriph_Driver/src/stm32f4xx_spi.c ****     i2sclk = I2S_EXTERNAL_CLOCK_VAL;
 386:../Shared/Libraries/STM32F4xx_StdPeriph_Driver/src/stm32f4xx_spi.c **** 
 387:../Shared/Libraries/STM32F4xx_StdPeriph_Driver/src/stm32f4xx_spi.c ****   #else /* There is no define for External I2S clock source */
 388:../Shared/Libraries/STM32F4xx_StdPeriph_Driver/src/stm32f4xx_spi.c ****     /* Set PLLI2S as I2S clock source */
 389:../Shared/Libraries/STM32F4xx_StdPeriph_Driver/src/stm32f4xx_spi.c ****     if ((RCC->CFGR & RCC_CFGR_I2SSRC) != 0)
 332              		.loc 1 389 13
 333 0072 4B4B     		ldr	r3, .L19
 334 0074 9B68     		ldr	r3, [r3, #8]
 335              		.loc 1 389 20
 336 0076 03F40003 		and	r3, r3, #8388608
 337              		.loc 1 389 8
 338 007a 002B     		cmp	r3, #0
 339 007c 05D0     		beq	.L14
 390:../Shared/Libraries/STM32F4xx_StdPeriph_Driver/src/stm32f4xx_spi.c ****     {
 391:../Shared/Libraries/STM32F4xx_StdPeriph_Driver/src/stm32f4xx_spi.c ****       RCC->CFGR &= ~(uint32_t)RCC_CFGR_I2SSRC;
 340              		.loc 1 391 10
 341 007e 484B     		ldr	r3, .L19
 342 0080 9B68     		ldr	r3, [r3, #8]
ARM GAS  /tmp/ccTxF6x3.s 			page 14


 343 0082 474A     		ldr	r2, .L19
 344              		.loc 1 391 17
 345 0084 23F40003 		bic	r3, r3, #8388608
 346 0088 9360     		str	r3, [r2, #8]
 347              	.L14:
 392:../Shared/Libraries/STM32F4xx_StdPeriph_Driver/src/stm32f4xx_spi.c ****     }    
 393:../Shared/Libraries/STM32F4xx_StdPeriph_Driver/src/stm32f4xx_spi.c ****     
 394:../Shared/Libraries/STM32F4xx_StdPeriph_Driver/src/stm32f4xx_spi.c ****     /* Get the PLLI2SN value */
 395:../Shared/Libraries/STM32F4xx_StdPeriph_Driver/src/stm32f4xx_spi.c ****     plln = (uint32_t)(((RCC->PLLI2SCFGR & RCC_PLLI2SCFGR_PLLI2SN) >> 6) & \
 348              		.loc 1 395 28
 349 008a 454B     		ldr	r3, .L19
 350 008c D3F88430 		ldr	r3, [r3, #132]
 351              		.loc 1 395 67
 352 0090 9B09     		lsrs	r3, r3, #6
 353              		.loc 1 395 10
 354 0092 C3F30803 		ubfx	r3, r3, #0, #9
 355 0096 FB60     		str	r3, [r7, #12]
 396:../Shared/Libraries/STM32F4xx_StdPeriph_Driver/src/stm32f4xx_spi.c ****                       (RCC_PLLI2SCFGR_PLLI2SN >> 6));
 397:../Shared/Libraries/STM32F4xx_StdPeriph_Driver/src/stm32f4xx_spi.c ****     
 398:../Shared/Libraries/STM32F4xx_StdPeriph_Driver/src/stm32f4xx_spi.c ****     /* Get the PLLI2SR value */
 399:../Shared/Libraries/STM32F4xx_StdPeriph_Driver/src/stm32f4xx_spi.c ****     pllr = (uint32_t)(((RCC->PLLI2SCFGR & RCC_PLLI2SCFGR_PLLI2SR) >> 28) & \
 356              		.loc 1 399 28
 357 0098 414B     		ldr	r3, .L19
 358 009a D3F88430 		ldr	r3, [r3, #132]
 359              		.loc 1 399 67
 360 009e 1B0F     		lsrs	r3, r3, #28
 361              		.loc 1 399 10
 362 00a0 03F00703 		and	r3, r3, #7
 363 00a4 BB60     		str	r3, [r7, #8]
 400:../Shared/Libraries/STM32F4xx_StdPeriph_Driver/src/stm32f4xx_spi.c ****                       (RCC_PLLI2SCFGR_PLLI2SR >> 28));
 401:../Shared/Libraries/STM32F4xx_StdPeriph_Driver/src/stm32f4xx_spi.c ****     
 402:../Shared/Libraries/STM32F4xx_StdPeriph_Driver/src/stm32f4xx_spi.c ****     /* Get the PLLM value */
 403:../Shared/Libraries/STM32F4xx_StdPeriph_Driver/src/stm32f4xx_spi.c ****     pllm = (uint32_t)(RCC->PLLCFGR & RCC_PLLCFGR_PLLM);      
 364              		.loc 1 403 26
 365 00a6 3E4B     		ldr	r3, .L19
 366 00a8 5B68     		ldr	r3, [r3, #4]
 367              		.loc 1 403 10
 368 00aa 03F03F03 		and	r3, r3, #63
 369 00ae 3B61     		str	r3, [r7, #16]
 404:../Shared/Libraries/STM32F4xx_StdPeriph_Driver/src/stm32f4xx_spi.c ****     
 405:../Shared/Libraries/STM32F4xx_StdPeriph_Driver/src/stm32f4xx_spi.c ****     /* Get the I2S source clock value */
 406:../Shared/Libraries/STM32F4xx_StdPeriph_Driver/src/stm32f4xx_spi.c ****     i2sclk = (uint32_t)(((HSE_VALUE / pllm) * plln) / pllr);
 370              		.loc 1 406 37
 371 00b0 3C4A     		ldr	r2, .L19+4
 372 00b2 3B69     		ldr	r3, [r7, #16]
 373 00b4 B2FBF3F3 		udiv	r3, r2, r3
 374              		.loc 1 406 45
 375 00b8 FA68     		ldr	r2, [r7, #12]
 376 00ba 03FB02F2 		mul	r2, r3, r2
 377              		.loc 1 406 12
 378 00be BB68     		ldr	r3, [r7, #8]
 379 00c0 B2FBF3F3 		udiv	r3, r2, r3
 380 00c4 7B61     		str	r3, [r7, #20]
 407:../Shared/Libraries/STM32F4xx_StdPeriph_Driver/src/stm32f4xx_spi.c ****   #endif /* I2S_EXTERNAL_CLOCK_VAL */
 408:../Shared/Libraries/STM32F4xx_StdPeriph_Driver/src/stm32f4xx_spi.c ****     
 409:../Shared/Libraries/STM32F4xx_StdPeriph_Driver/src/stm32f4xx_spi.c ****     /* Compute the Real divider depending on the MCLK output state, with a floating point */
 410:../Shared/Libraries/STM32F4xx_StdPeriph_Driver/src/stm32f4xx_spi.c ****     if(I2S_InitStruct->I2S_MCLKOutput == I2S_MCLKOutput_Enable)
ARM GAS  /tmp/ccTxF6x3.s 			page 15


 381              		.loc 1 410 22
 382 00c6 3B68     		ldr	r3, [r7]
 383 00c8 DB88     		ldrh	r3, [r3, #6]
 384              		.loc 1 410 7
 385 00ca B3F5007F 		cmp	r3, #512
 386 00ce 0FD1     		bne	.L15
 411:../Shared/Libraries/STM32F4xx_StdPeriph_Driver/src/stm32f4xx_spi.c ****     {
 412:../Shared/Libraries/STM32F4xx_StdPeriph_Driver/src/stm32f4xx_spi.c ****       /* MCLK output is enabled */
 413:../Shared/Libraries/STM32F4xx_StdPeriph_Driver/src/stm32f4xx_spi.c ****       tmp = (uint16_t)(((((i2sclk / 256) * 10) / I2S_InitStruct->I2S_AudioFreq)) + 5);
 387              		.loc 1 413 35
 388 00d0 7B69     		ldr	r3, [r7, #20]
 389 00d2 1A0A     		lsrs	r2, r3, #8
 390              		.loc 1 413 42
 391 00d4 1346     		mov	r3, r2
 392 00d6 9B00     		lsls	r3, r3, #2
 393 00d8 1344     		add	r3, r3, r2
 394 00da 5B00     		lsls	r3, r3, #1
 395 00dc 1A46     		mov	r2, r3
 396              		.loc 1 413 64
 397 00de 3B68     		ldr	r3, [r7]
 398 00e0 9B68     		ldr	r3, [r3, #8]
 399              		.loc 1 413 48
 400 00e2 B2FBF3F3 		udiv	r3, r2, r3
 401              		.loc 1 413 13
 402 00e6 9BB2     		uxth	r3, r3
 403 00e8 0533     		adds	r3, r3, #5
 404 00ea 9BB2     		uxth	r3, r3
 405              		.loc 1 413 11
 406 00ec FB61     		str	r3, [r7, #28]
 407 00ee 12E0     		b	.L16
 408              	.L15:
 414:../Shared/Libraries/STM32F4xx_StdPeriph_Driver/src/stm32f4xx_spi.c ****     }
 415:../Shared/Libraries/STM32F4xx_StdPeriph_Driver/src/stm32f4xx_spi.c ****     else
 416:../Shared/Libraries/STM32F4xx_StdPeriph_Driver/src/stm32f4xx_spi.c ****     {
 417:../Shared/Libraries/STM32F4xx_StdPeriph_Driver/src/stm32f4xx_spi.c ****       /* MCLK output is disabled */
 418:../Shared/Libraries/STM32F4xx_StdPeriph_Driver/src/stm32f4xx_spi.c ****       tmp = (uint16_t)(((((i2sclk / (32 * packetlength)) *10 ) / I2S_InitStruct->I2S_AudioFreq)) + 
 409              		.loc 1 418 41
 410 00f0 7B8C     		ldrh	r3, [r7, #34]
 411 00f2 5B01     		lsls	r3, r3, #5
 412 00f4 1A46     		mov	r2, r3
 413              		.loc 1 418 35
 414 00f6 7B69     		ldr	r3, [r7, #20]
 415 00f8 B3FBF2F2 		udiv	r2, r3, r2
 416              		.loc 1 418 58
 417 00fc 1346     		mov	r3, r2
 418 00fe 9B00     		lsls	r3, r3, #2
 419 0100 1344     		add	r3, r3, r2
 420 0102 5B00     		lsls	r3, r3, #1
 421 0104 1A46     		mov	r2, r3
 422              		.loc 1 418 80
 423 0106 3B68     		ldr	r3, [r7]
 424 0108 9B68     		ldr	r3, [r3, #8]
 425              		.loc 1 418 64
 426 010a B2FBF3F3 		udiv	r3, r2, r3
 427              		.loc 1 418 13
 428 010e 9BB2     		uxth	r3, r3
 429 0110 0533     		adds	r3, r3, #5
ARM GAS  /tmp/ccTxF6x3.s 			page 16


 430 0112 9BB2     		uxth	r3, r3
 431              		.loc 1 418 11
 432 0114 FB61     		str	r3, [r7, #28]
 433              	.L16:
 419:../Shared/Libraries/STM32F4xx_StdPeriph_Driver/src/stm32f4xx_spi.c ****     }
 420:../Shared/Libraries/STM32F4xx_StdPeriph_Driver/src/stm32f4xx_spi.c ****     
 421:../Shared/Libraries/STM32F4xx_StdPeriph_Driver/src/stm32f4xx_spi.c ****     /* Remove the flatting point */
 422:../Shared/Libraries/STM32F4xx_StdPeriph_Driver/src/stm32f4xx_spi.c ****     tmp = tmp / 10;  
 434              		.loc 1 422 9
 435 0116 FB69     		ldr	r3, [r7, #28]
 436 0118 234A     		ldr	r2, .L19+8
 437 011a A2FB0323 		umull	r2, r3, r2, r3
 438 011e DB08     		lsrs	r3, r3, #3
 439 0120 FB61     		str	r3, [r7, #28]
 423:../Shared/Libraries/STM32F4xx_StdPeriph_Driver/src/stm32f4xx_spi.c ****       
 424:../Shared/Libraries/STM32F4xx_StdPeriph_Driver/src/stm32f4xx_spi.c ****     /* Check the parity of the divider */
 425:../Shared/Libraries/STM32F4xx_StdPeriph_Driver/src/stm32f4xx_spi.c ****     i2sodd = (uint16_t)(tmp & (uint16_t)0x0001);
 440              		.loc 1 425 14
 441 0122 FB69     		ldr	r3, [r7, #28]
 442 0124 9BB2     		uxth	r3, r3
 443              		.loc 1 425 12
 444 0126 03F00103 		and	r3, r3, #1
 445 012a BB84     		strh	r3, [r7, #36]	@ movhi
 426:../Shared/Libraries/STM32F4xx_StdPeriph_Driver/src/stm32f4xx_spi.c ****    
 427:../Shared/Libraries/STM32F4xx_StdPeriph_Driver/src/stm32f4xx_spi.c ****     /* Compute the i2sdiv prescaler */
 428:../Shared/Libraries/STM32F4xx_StdPeriph_Driver/src/stm32f4xx_spi.c ****     i2sdiv = (uint16_t)((tmp - i2sodd) / 2);
 446              		.loc 1 428 30
 447 012c BB8C     		ldrh	r3, [r7, #36]
 448 012e FA69     		ldr	r2, [r7, #28]
 449 0130 D31A     		subs	r3, r2, r3
 450              		.loc 1 428 40
 451 0132 5B08     		lsrs	r3, r3, #1
 452              		.loc 1 428 12
 453 0134 FB84     		strh	r3, [r7, #38]	@ movhi
 429:../Shared/Libraries/STM32F4xx_StdPeriph_Driver/src/stm32f4xx_spi.c ****    
 430:../Shared/Libraries/STM32F4xx_StdPeriph_Driver/src/stm32f4xx_spi.c ****     /* Get the Mask for the Odd bit (SPI_I2SPR[8]) register */
 431:../Shared/Libraries/STM32F4xx_StdPeriph_Driver/src/stm32f4xx_spi.c ****     i2sodd = (uint16_t) (i2sodd << 8);
 454              		.loc 1 431 12
 455 0136 BB8C     		ldrh	r3, [r7, #36]	@ movhi
 456 0138 1B02     		lsls	r3, r3, #8
 457 013a BB84     		strh	r3, [r7, #36]	@ movhi
 458              	.L11:
 432:../Shared/Libraries/STM32F4xx_StdPeriph_Driver/src/stm32f4xx_spi.c ****   }
 433:../Shared/Libraries/STM32F4xx_StdPeriph_Driver/src/stm32f4xx_spi.c **** 
 434:../Shared/Libraries/STM32F4xx_StdPeriph_Driver/src/stm32f4xx_spi.c ****   /* Test if the divider is 1 or 0 or greater than 0xFF */
 435:../Shared/Libraries/STM32F4xx_StdPeriph_Driver/src/stm32f4xx_spi.c ****   if ((i2sdiv < 2) || (i2sdiv > 0xFF))
 459              		.loc 1 435 6
 460 013c FB8C     		ldrh	r3, [r7, #38]
 461 013e 012B     		cmp	r3, #1
 462 0140 02D9     		bls	.L17
 463              		.loc 1 435 20 discriminator 1
 464 0142 FB8C     		ldrh	r3, [r7, #38]
 465 0144 FF2B     		cmp	r3, #255
 466 0146 03D9     		bls	.L18
 467              	.L17:
 436:../Shared/Libraries/STM32F4xx_StdPeriph_Driver/src/stm32f4xx_spi.c ****   {
 437:../Shared/Libraries/STM32F4xx_StdPeriph_Driver/src/stm32f4xx_spi.c ****     /* Set the default values */
ARM GAS  /tmp/ccTxF6x3.s 			page 17


 438:../Shared/Libraries/STM32F4xx_StdPeriph_Driver/src/stm32f4xx_spi.c ****     i2sdiv = 2;
 468              		.loc 1 438 12
 469 0148 0223     		movs	r3, #2
 470 014a FB84     		strh	r3, [r7, #38]	@ movhi
 439:../Shared/Libraries/STM32F4xx_StdPeriph_Driver/src/stm32f4xx_spi.c ****     i2sodd = 0;
 471              		.loc 1 439 12
 472 014c 0023     		movs	r3, #0
 473 014e BB84     		strh	r3, [r7, #36]	@ movhi
 474              	.L18:
 440:../Shared/Libraries/STM32F4xx_StdPeriph_Driver/src/stm32f4xx_spi.c ****   }
 441:../Shared/Libraries/STM32F4xx_StdPeriph_Driver/src/stm32f4xx_spi.c **** 
 442:../Shared/Libraries/STM32F4xx_StdPeriph_Driver/src/stm32f4xx_spi.c ****   /* Write to SPIx I2SPR register the computed value */
 443:../Shared/Libraries/STM32F4xx_StdPeriph_Driver/src/stm32f4xx_spi.c ****   SPIx->I2SPR = (uint16_t)((uint16_t)i2sdiv | (uint16_t)(i2sodd | (uint16_t)I2S_InitStruct->I2S_MCL
 475              		.loc 1 443 91
 476 0150 3B68     		ldr	r3, [r7]
 477 0152 DA88     		ldrh	r2, [r3, #6]
 478              		.loc 1 443 47
 479 0154 BB8C     		ldrh	r3, [r7, #36]	@ movhi
 480 0156 1343     		orrs	r3, r3, r2
 481 0158 9AB2     		uxth	r2, r3
 482              		.loc 1 443 17
 483 015a FB8C     		ldrh	r3, [r7, #38]	@ movhi
 484 015c 1343     		orrs	r3, r3, r2
 485 015e 9AB2     		uxth	r2, r3
 486              		.loc 1 443 15
 487 0160 7B68     		ldr	r3, [r7, #4]
 488 0162 1A84     		strh	r2, [r3, #32]	@ movhi
 444:../Shared/Libraries/STM32F4xx_StdPeriph_Driver/src/stm32f4xx_spi.c ****  
 445:../Shared/Libraries/STM32F4xx_StdPeriph_Driver/src/stm32f4xx_spi.c ****   /* Configure the I2S with the SPI_InitStruct values */
 446:../Shared/Libraries/STM32F4xx_StdPeriph_Driver/src/stm32f4xx_spi.c ****   tmpreg |= (uint16_t)((uint16_t)SPI_I2SCFGR_I2SMOD | (uint16_t)(I2S_InitStruct->I2S_Mode | \
 489              		.loc 1 446 80
 490 0164 3B68     		ldr	r3, [r7]
 491 0166 1A88     		ldrh	r2, [r3]
 447:../Shared/Libraries/STM32F4xx_StdPeriph_Driver/src/stm32f4xx_spi.c ****                   (uint16_t)(I2S_InitStruct->I2S_Standard | (uint16_t)(I2S_InitStruct->I2S_DataForm
 492              		.loc 1 447 44
 493 0168 3B68     		ldr	r3, [r7]
 494 016a 5988     		ldrh	r1, [r3, #2]
 495              		.loc 1 447 86
 496 016c 3B68     		ldr	r3, [r7]
 497 016e 9888     		ldrh	r0, [r3, #4]
 448:../Shared/Libraries/STM32F4xx_StdPeriph_Driver/src/stm32f4xx_spi.c ****                   (uint16_t)I2S_InitStruct->I2S_CPOL))));
 498              		.loc 1 448 43
 499 0170 3B68     		ldr	r3, [r7]
 500 0172 9B89     		ldrh	r3, [r3, #12]
 447:../Shared/Libraries/STM32F4xx_StdPeriph_Driver/src/stm32f4xx_spi.c ****                   (uint16_t)(I2S_InitStruct->I2S_Standard | (uint16_t)(I2S_InitStruct->I2S_DataForm
 501              		.loc 1 447 61
 502 0174 0343     		orrs	r3, r3, r0
 503 0176 9BB2     		uxth	r3, r3
 447:../Shared/Libraries/STM32F4xx_StdPeriph_Driver/src/stm32f4xx_spi.c ****                   (uint16_t)(I2S_InitStruct->I2S_Standard | (uint16_t)(I2S_InitStruct->I2S_DataForm
 504              		.loc 1 447 19
 505 0178 0B43     		orrs	r3, r3, r1
 506 017a 9BB2     		uxth	r3, r3
 446:../Shared/Libraries/STM32F4xx_StdPeriph_Driver/src/stm32f4xx_spi.c ****                   (uint16_t)(I2S_InitStruct->I2S_Standard | (uint16_t)(I2S_InitStruct->I2S_DataForm
 507              		.loc 1 446 55
 508 017c 1343     		orrs	r3, r3, r2
 509 017e 9AB2     		uxth	r2, r3
 446:../Shared/Libraries/STM32F4xx_StdPeriph_Driver/src/stm32f4xx_spi.c ****                   (uint16_t)(I2S_InitStruct->I2S_Standard | (uint16_t)(I2S_InitStruct->I2S_DataForm
ARM GAS  /tmp/ccTxF6x3.s 			page 18


 510              		.loc 1 446 10
 511 0180 7B8B     		ldrh	r3, [r7, #26]	@ movhi
 512 0182 1343     		orrs	r3, r3, r2
 513 0184 9BB2     		uxth	r3, r3
 514 0186 43F40063 		orr	r3, r3, #2048
 515 018a 7B83     		strh	r3, [r7, #26]	@ movhi
 449:../Shared/Libraries/STM32F4xx_StdPeriph_Driver/src/stm32f4xx_spi.c ****  
 450:../Shared/Libraries/STM32F4xx_StdPeriph_Driver/src/stm32f4xx_spi.c ****   /* Write to SPIx I2SCFGR */  
 451:../Shared/Libraries/STM32F4xx_StdPeriph_Driver/src/stm32f4xx_spi.c ****   SPIx->I2SCFGR = tmpreg;
 516              		.loc 1 451 17
 517 018c 7B68     		ldr	r3, [r7, #4]
 518 018e 7A8B     		ldrh	r2, [r7, #26]	@ movhi
 519 0190 9A83     		strh	r2, [r3, #28]	@ movhi
 452:../Shared/Libraries/STM32F4xx_StdPeriph_Driver/src/stm32f4xx_spi.c **** }
 520              		.loc 1 452 1
 521 0192 00BF     		nop
 522 0194 2C37     		adds	r7, r7, #44
 523              	.LCFI14:
 524              		.cfi_def_cfa_offset 4
 525 0196 BD46     		mov	sp, r7
 526              	.LCFI15:
 527              		.cfi_def_cfa_register 13
 528              		@ sp needed
 529 0198 5DF8047B 		ldr	r7, [sp], #4
 530              	.LCFI16:
 531              		.cfi_restore 7
 532              		.cfi_def_cfa_offset 0
 533 019c 7047     		bx	lr
 534              	.L20:
 535 019e 00BF     		.align	2
 536              	.L19:
 537 01a0 00380240 		.word	1073887232
 538 01a4 00127A00 		.word	8000000
 539 01a8 CDCCCCCC 		.word	-858993459
 540              		.cfi_endproc
 541              	.LFE112:
 543              		.section	.text.SPI_StructInit,"ax",%progbits
 544              		.align	1
 545              		.global	SPI_StructInit
 546              		.syntax unified
 547              		.thumb
 548              		.thumb_func
 550              	SPI_StructInit:
 551              	.LFB113:
 453:../Shared/Libraries/STM32F4xx_StdPeriph_Driver/src/stm32f4xx_spi.c **** 
 454:../Shared/Libraries/STM32F4xx_StdPeriph_Driver/src/stm32f4xx_spi.c **** /**
 455:../Shared/Libraries/STM32F4xx_StdPeriph_Driver/src/stm32f4xx_spi.c ****   * @brief  Fills each SPI_InitStruct member with its default value.
 456:../Shared/Libraries/STM32F4xx_StdPeriph_Driver/src/stm32f4xx_spi.c ****   * @param  SPI_InitStruct: pointer to a SPI_InitTypeDef structure which will be initialized.
 457:../Shared/Libraries/STM32F4xx_StdPeriph_Driver/src/stm32f4xx_spi.c ****   * @retval None
 458:../Shared/Libraries/STM32F4xx_StdPeriph_Driver/src/stm32f4xx_spi.c ****   */
 459:../Shared/Libraries/STM32F4xx_StdPeriph_Driver/src/stm32f4xx_spi.c **** void SPI_StructInit(SPI_InitTypeDef* SPI_InitStruct)
 460:../Shared/Libraries/STM32F4xx_StdPeriph_Driver/src/stm32f4xx_spi.c **** {
 552              		.loc 1 460 1
 553              		.cfi_startproc
 554              		@ args = 0, pretend = 0, frame = 8
 555              		@ frame_needed = 1, uses_anonymous_args = 0
 556              		@ link register save eliminated.
ARM GAS  /tmp/ccTxF6x3.s 			page 19


 557 0000 80B4     		push	{r7}
 558              	.LCFI17:
 559              		.cfi_def_cfa_offset 4
 560              		.cfi_offset 7, -4
 561 0002 83B0     		sub	sp, sp, #12
 562              	.LCFI18:
 563              		.cfi_def_cfa_offset 16
 564 0004 00AF     		add	r7, sp, #0
 565              	.LCFI19:
 566              		.cfi_def_cfa_register 7
 567 0006 7860     		str	r0, [r7, #4]
 461:../Shared/Libraries/STM32F4xx_StdPeriph_Driver/src/stm32f4xx_spi.c **** /*--------------- Reset SPI init structure parameters values -----------------*/
 462:../Shared/Libraries/STM32F4xx_StdPeriph_Driver/src/stm32f4xx_spi.c ****   /* Initialize the SPI_Direction member */
 463:../Shared/Libraries/STM32F4xx_StdPeriph_Driver/src/stm32f4xx_spi.c ****   SPI_InitStruct->SPI_Direction = SPI_Direction_2Lines_FullDuplex;
 568              		.loc 1 463 33
 569 0008 7B68     		ldr	r3, [r7, #4]
 570 000a 0022     		movs	r2, #0
 571 000c 1A80     		strh	r2, [r3]	@ movhi
 464:../Shared/Libraries/STM32F4xx_StdPeriph_Driver/src/stm32f4xx_spi.c ****   /* initialize the SPI_Mode member */
 465:../Shared/Libraries/STM32F4xx_StdPeriph_Driver/src/stm32f4xx_spi.c ****   SPI_InitStruct->SPI_Mode = SPI_Mode_Slave;
 572              		.loc 1 465 28
 573 000e 7B68     		ldr	r3, [r7, #4]
 574 0010 0022     		movs	r2, #0
 575 0012 5A80     		strh	r2, [r3, #2]	@ movhi
 466:../Shared/Libraries/STM32F4xx_StdPeriph_Driver/src/stm32f4xx_spi.c ****   /* initialize the SPI_DataSize member */
 467:../Shared/Libraries/STM32F4xx_StdPeriph_Driver/src/stm32f4xx_spi.c ****   SPI_InitStruct->SPI_DataSize = SPI_DataSize_8b;
 576              		.loc 1 467 32
 577 0014 7B68     		ldr	r3, [r7, #4]
 578 0016 0022     		movs	r2, #0
 579 0018 9A80     		strh	r2, [r3, #4]	@ movhi
 468:../Shared/Libraries/STM32F4xx_StdPeriph_Driver/src/stm32f4xx_spi.c ****   /* Initialize the SPI_CPOL member */
 469:../Shared/Libraries/STM32F4xx_StdPeriph_Driver/src/stm32f4xx_spi.c ****   SPI_InitStruct->SPI_CPOL = SPI_CPOL_Low;
 580              		.loc 1 469 28
 581 001a 7B68     		ldr	r3, [r7, #4]
 582 001c 0022     		movs	r2, #0
 583 001e DA80     		strh	r2, [r3, #6]	@ movhi
 470:../Shared/Libraries/STM32F4xx_StdPeriph_Driver/src/stm32f4xx_spi.c ****   /* Initialize the SPI_CPHA member */
 471:../Shared/Libraries/STM32F4xx_StdPeriph_Driver/src/stm32f4xx_spi.c ****   SPI_InitStruct->SPI_CPHA = SPI_CPHA_1Edge;
 584              		.loc 1 471 28
 585 0020 7B68     		ldr	r3, [r7, #4]
 586 0022 0022     		movs	r2, #0
 587 0024 1A81     		strh	r2, [r3, #8]	@ movhi
 472:../Shared/Libraries/STM32F4xx_StdPeriph_Driver/src/stm32f4xx_spi.c ****   /* Initialize the SPI_NSS member */
 473:../Shared/Libraries/STM32F4xx_StdPeriph_Driver/src/stm32f4xx_spi.c ****   SPI_InitStruct->SPI_NSS = SPI_NSS_Hard;
 588              		.loc 1 473 27
 589 0026 7B68     		ldr	r3, [r7, #4]
 590 0028 0022     		movs	r2, #0
 591 002a 5A81     		strh	r2, [r3, #10]	@ movhi
 474:../Shared/Libraries/STM32F4xx_StdPeriph_Driver/src/stm32f4xx_spi.c ****   /* Initialize the SPI_BaudRatePrescaler member */
 475:../Shared/Libraries/STM32F4xx_StdPeriph_Driver/src/stm32f4xx_spi.c ****   SPI_InitStruct->SPI_BaudRatePrescaler = SPI_BaudRatePrescaler_2;
 592              		.loc 1 475 41
 593 002c 7B68     		ldr	r3, [r7, #4]
 594 002e 0022     		movs	r2, #0
 595 0030 9A81     		strh	r2, [r3, #12]	@ movhi
 476:../Shared/Libraries/STM32F4xx_StdPeriph_Driver/src/stm32f4xx_spi.c ****   /* Initialize the SPI_FirstBit member */
 477:../Shared/Libraries/STM32F4xx_StdPeriph_Driver/src/stm32f4xx_spi.c ****   SPI_InitStruct->SPI_FirstBit = SPI_FirstBit_MSB;
 596              		.loc 1 477 32
ARM GAS  /tmp/ccTxF6x3.s 			page 20


 597 0032 7B68     		ldr	r3, [r7, #4]
 598 0034 0022     		movs	r2, #0
 599 0036 DA81     		strh	r2, [r3, #14]	@ movhi
 478:../Shared/Libraries/STM32F4xx_StdPeriph_Driver/src/stm32f4xx_spi.c ****   /* Initialize the SPI_CRCPolynomial member */
 479:../Shared/Libraries/STM32F4xx_StdPeriph_Driver/src/stm32f4xx_spi.c ****   SPI_InitStruct->SPI_CRCPolynomial = 7;
 600              		.loc 1 479 37
 601 0038 7B68     		ldr	r3, [r7, #4]
 602 003a 0722     		movs	r2, #7
 603 003c 1A82     		strh	r2, [r3, #16]	@ movhi
 480:../Shared/Libraries/STM32F4xx_StdPeriph_Driver/src/stm32f4xx_spi.c **** }
 604              		.loc 1 480 1
 605 003e 00BF     		nop
 606 0040 0C37     		adds	r7, r7, #12
 607              	.LCFI20:
 608              		.cfi_def_cfa_offset 4
 609 0042 BD46     		mov	sp, r7
 610              	.LCFI21:
 611              		.cfi_def_cfa_register 13
 612              		@ sp needed
 613 0044 5DF8047B 		ldr	r7, [sp], #4
 614              	.LCFI22:
 615              		.cfi_restore 7
 616              		.cfi_def_cfa_offset 0
 617 0048 7047     		bx	lr
 618              		.cfi_endproc
 619              	.LFE113:
 621              		.section	.text.I2S_StructInit,"ax",%progbits
 622              		.align	1
 623              		.global	I2S_StructInit
 624              		.syntax unified
 625              		.thumb
 626              		.thumb_func
 628              	I2S_StructInit:
 629              	.LFB114:
 481:../Shared/Libraries/STM32F4xx_StdPeriph_Driver/src/stm32f4xx_spi.c **** 
 482:../Shared/Libraries/STM32F4xx_StdPeriph_Driver/src/stm32f4xx_spi.c **** /**
 483:../Shared/Libraries/STM32F4xx_StdPeriph_Driver/src/stm32f4xx_spi.c ****   * @brief  Fills each I2S_InitStruct member with its default value.
 484:../Shared/Libraries/STM32F4xx_StdPeriph_Driver/src/stm32f4xx_spi.c ****   * @param  I2S_InitStruct: pointer to a I2S_InitTypeDef structure which will be initialized.
 485:../Shared/Libraries/STM32F4xx_StdPeriph_Driver/src/stm32f4xx_spi.c ****   * @retval None
 486:../Shared/Libraries/STM32F4xx_StdPeriph_Driver/src/stm32f4xx_spi.c ****   */
 487:../Shared/Libraries/STM32F4xx_StdPeriph_Driver/src/stm32f4xx_spi.c **** void I2S_StructInit(I2S_InitTypeDef* I2S_InitStruct)
 488:../Shared/Libraries/STM32F4xx_StdPeriph_Driver/src/stm32f4xx_spi.c **** {
 630              		.loc 1 488 1
 631              		.cfi_startproc
 632              		@ args = 0, pretend = 0, frame = 8
 633              		@ frame_needed = 1, uses_anonymous_args = 0
 634              		@ link register save eliminated.
 635 0000 80B4     		push	{r7}
 636              	.LCFI23:
 637              		.cfi_def_cfa_offset 4
 638              		.cfi_offset 7, -4
 639 0002 83B0     		sub	sp, sp, #12
 640              	.LCFI24:
 641              		.cfi_def_cfa_offset 16
 642 0004 00AF     		add	r7, sp, #0
 643              	.LCFI25:
 644              		.cfi_def_cfa_register 7
ARM GAS  /tmp/ccTxF6x3.s 			page 21


 645 0006 7860     		str	r0, [r7, #4]
 489:../Shared/Libraries/STM32F4xx_StdPeriph_Driver/src/stm32f4xx_spi.c **** /*--------------- Reset I2S init structure parameters values -----------------*/
 490:../Shared/Libraries/STM32F4xx_StdPeriph_Driver/src/stm32f4xx_spi.c ****   /* Initialize the I2S_Mode member */
 491:../Shared/Libraries/STM32F4xx_StdPeriph_Driver/src/stm32f4xx_spi.c ****   I2S_InitStruct->I2S_Mode = I2S_Mode_SlaveTx;
 646              		.loc 1 491 28
 647 0008 7B68     		ldr	r3, [r7, #4]
 648 000a 0022     		movs	r2, #0
 649 000c 1A80     		strh	r2, [r3]	@ movhi
 492:../Shared/Libraries/STM32F4xx_StdPeriph_Driver/src/stm32f4xx_spi.c ****   
 493:../Shared/Libraries/STM32F4xx_StdPeriph_Driver/src/stm32f4xx_spi.c ****   /* Initialize the I2S_Standard member */
 494:../Shared/Libraries/STM32F4xx_StdPeriph_Driver/src/stm32f4xx_spi.c ****   I2S_InitStruct->I2S_Standard = I2S_Standard_Phillips;
 650              		.loc 1 494 32
 651 000e 7B68     		ldr	r3, [r7, #4]
 652 0010 0022     		movs	r2, #0
 653 0012 5A80     		strh	r2, [r3, #2]	@ movhi
 495:../Shared/Libraries/STM32F4xx_StdPeriph_Driver/src/stm32f4xx_spi.c ****   
 496:../Shared/Libraries/STM32F4xx_StdPeriph_Driver/src/stm32f4xx_spi.c ****   /* Initialize the I2S_DataFormat member */
 497:../Shared/Libraries/STM32F4xx_StdPeriph_Driver/src/stm32f4xx_spi.c ****   I2S_InitStruct->I2S_DataFormat = I2S_DataFormat_16b;
 654              		.loc 1 497 34
 655 0014 7B68     		ldr	r3, [r7, #4]
 656 0016 0022     		movs	r2, #0
 657 0018 9A80     		strh	r2, [r3, #4]	@ movhi
 498:../Shared/Libraries/STM32F4xx_StdPeriph_Driver/src/stm32f4xx_spi.c ****   
 499:../Shared/Libraries/STM32F4xx_StdPeriph_Driver/src/stm32f4xx_spi.c ****   /* Initialize the I2S_MCLKOutput member */
 500:../Shared/Libraries/STM32F4xx_StdPeriph_Driver/src/stm32f4xx_spi.c ****   I2S_InitStruct->I2S_MCLKOutput = I2S_MCLKOutput_Disable;
 658              		.loc 1 500 34
 659 001a 7B68     		ldr	r3, [r7, #4]
 660 001c 0022     		movs	r2, #0
 661 001e DA80     		strh	r2, [r3, #6]	@ movhi
 501:../Shared/Libraries/STM32F4xx_StdPeriph_Driver/src/stm32f4xx_spi.c ****   
 502:../Shared/Libraries/STM32F4xx_StdPeriph_Driver/src/stm32f4xx_spi.c ****   /* Initialize the I2S_AudioFreq member */
 503:../Shared/Libraries/STM32F4xx_StdPeriph_Driver/src/stm32f4xx_spi.c ****   I2S_InitStruct->I2S_AudioFreq = I2S_AudioFreq_Default;
 662              		.loc 1 503 33
 663 0020 7B68     		ldr	r3, [r7, #4]
 664 0022 0222     		movs	r2, #2
 665 0024 9A60     		str	r2, [r3, #8]
 504:../Shared/Libraries/STM32F4xx_StdPeriph_Driver/src/stm32f4xx_spi.c ****   
 505:../Shared/Libraries/STM32F4xx_StdPeriph_Driver/src/stm32f4xx_spi.c ****   /* Initialize the I2S_CPOL member */
 506:../Shared/Libraries/STM32F4xx_StdPeriph_Driver/src/stm32f4xx_spi.c ****   I2S_InitStruct->I2S_CPOL = I2S_CPOL_Low;
 666              		.loc 1 506 28
 667 0026 7B68     		ldr	r3, [r7, #4]
 668 0028 0022     		movs	r2, #0
 669 002a 9A81     		strh	r2, [r3, #12]	@ movhi
 507:../Shared/Libraries/STM32F4xx_StdPeriph_Driver/src/stm32f4xx_spi.c **** }
 670              		.loc 1 507 1
 671 002c 00BF     		nop
 672 002e 0C37     		adds	r7, r7, #12
 673              	.LCFI26:
 674              		.cfi_def_cfa_offset 4
 675 0030 BD46     		mov	sp, r7
 676              	.LCFI27:
 677              		.cfi_def_cfa_register 13
 678              		@ sp needed
 679 0032 5DF8047B 		ldr	r7, [sp], #4
 680              	.LCFI28:
 681              		.cfi_restore 7
 682              		.cfi_def_cfa_offset 0
ARM GAS  /tmp/ccTxF6x3.s 			page 22


 683 0036 7047     		bx	lr
 684              		.cfi_endproc
 685              	.LFE114:
 687              		.section	.text.SPI_Cmd,"ax",%progbits
 688              		.align	1
 689              		.global	SPI_Cmd
 690              		.syntax unified
 691              		.thumb
 692              		.thumb_func
 694              	SPI_Cmd:
 695              	.LFB115:
 508:../Shared/Libraries/STM32F4xx_StdPeriph_Driver/src/stm32f4xx_spi.c **** 
 509:../Shared/Libraries/STM32F4xx_StdPeriph_Driver/src/stm32f4xx_spi.c **** /**
 510:../Shared/Libraries/STM32F4xx_StdPeriph_Driver/src/stm32f4xx_spi.c ****   * @brief  Enables or disables the specified SPI peripheral.
 511:../Shared/Libraries/STM32F4xx_StdPeriph_Driver/src/stm32f4xx_spi.c ****   * @param  SPIx: where x can be 1, 2 or 3 to select the SPI peripheral.
 512:../Shared/Libraries/STM32F4xx_StdPeriph_Driver/src/stm32f4xx_spi.c ****   * @param  NewState: new state of the SPIx peripheral. 
 513:../Shared/Libraries/STM32F4xx_StdPeriph_Driver/src/stm32f4xx_spi.c ****   *          This parameter can be: ENABLE or DISABLE.
 514:../Shared/Libraries/STM32F4xx_StdPeriph_Driver/src/stm32f4xx_spi.c ****   * @retval None
 515:../Shared/Libraries/STM32F4xx_StdPeriph_Driver/src/stm32f4xx_spi.c ****   */
 516:../Shared/Libraries/STM32F4xx_StdPeriph_Driver/src/stm32f4xx_spi.c **** void SPI_Cmd(SPI_TypeDef* SPIx, FunctionalState NewState)
 517:../Shared/Libraries/STM32F4xx_StdPeriph_Driver/src/stm32f4xx_spi.c **** {
 696              		.loc 1 517 1
 697              		.cfi_startproc
 698              		@ args = 0, pretend = 0, frame = 8
 699              		@ frame_needed = 1, uses_anonymous_args = 0
 700              		@ link register save eliminated.
 701 0000 80B4     		push	{r7}
 702              	.LCFI29:
 703              		.cfi_def_cfa_offset 4
 704              		.cfi_offset 7, -4
 705 0002 83B0     		sub	sp, sp, #12
 706              	.LCFI30:
 707              		.cfi_def_cfa_offset 16
 708 0004 00AF     		add	r7, sp, #0
 709              	.LCFI31:
 710              		.cfi_def_cfa_register 7
 711 0006 7860     		str	r0, [r7, #4]
 712 0008 0B46     		mov	r3, r1
 713 000a FB70     		strb	r3, [r7, #3]
 518:../Shared/Libraries/STM32F4xx_StdPeriph_Driver/src/stm32f4xx_spi.c ****   /* Check the parameters */
 519:../Shared/Libraries/STM32F4xx_StdPeriph_Driver/src/stm32f4xx_spi.c ****   assert_param(IS_SPI_ALL_PERIPH(SPIx));
 520:../Shared/Libraries/STM32F4xx_StdPeriph_Driver/src/stm32f4xx_spi.c ****   assert_param(IS_FUNCTIONAL_STATE(NewState));
 521:../Shared/Libraries/STM32F4xx_StdPeriph_Driver/src/stm32f4xx_spi.c ****   if (NewState != DISABLE)
 714              		.loc 1 521 6
 715 000c FB78     		ldrb	r3, [r7, #3]	@ zero_extendqisi2
 716 000e 002B     		cmp	r3, #0
 717 0010 08D0     		beq	.L24
 522:../Shared/Libraries/STM32F4xx_StdPeriph_Driver/src/stm32f4xx_spi.c ****   {
 523:../Shared/Libraries/STM32F4xx_StdPeriph_Driver/src/stm32f4xx_spi.c ****     /* Enable the selected SPI peripheral */
 524:../Shared/Libraries/STM32F4xx_StdPeriph_Driver/src/stm32f4xx_spi.c ****     SPIx->CR1 |= SPI_CR1_SPE;
 718              		.loc 1 524 9
 719 0012 7B68     		ldr	r3, [r7, #4]
 720 0014 1B88     		ldrh	r3, [r3]	@ movhi
 721 0016 9BB2     		uxth	r3, r3
 722              		.loc 1 524 15
 723 0018 43F04003 		orr	r3, r3, #64
 724 001c 9AB2     		uxth	r2, r3
ARM GAS  /tmp/ccTxF6x3.s 			page 23


 725 001e 7B68     		ldr	r3, [r7, #4]
 726 0020 1A80     		strh	r2, [r3]	@ movhi
 525:../Shared/Libraries/STM32F4xx_StdPeriph_Driver/src/stm32f4xx_spi.c ****   }
 526:../Shared/Libraries/STM32F4xx_StdPeriph_Driver/src/stm32f4xx_spi.c ****   else
 527:../Shared/Libraries/STM32F4xx_StdPeriph_Driver/src/stm32f4xx_spi.c ****   {
 528:../Shared/Libraries/STM32F4xx_StdPeriph_Driver/src/stm32f4xx_spi.c ****     /* Disable the selected SPI peripheral */
 529:../Shared/Libraries/STM32F4xx_StdPeriph_Driver/src/stm32f4xx_spi.c ****     SPIx->CR1 &= (uint16_t)~((uint16_t)SPI_CR1_SPE);
 530:../Shared/Libraries/STM32F4xx_StdPeriph_Driver/src/stm32f4xx_spi.c ****   }
 531:../Shared/Libraries/STM32F4xx_StdPeriph_Driver/src/stm32f4xx_spi.c **** }
 727              		.loc 1 531 1
 728 0022 07E0     		b	.L26
 729              	.L24:
 529:../Shared/Libraries/STM32F4xx_StdPeriph_Driver/src/stm32f4xx_spi.c ****   }
 730              		.loc 1 529 9
 731 0024 7B68     		ldr	r3, [r7, #4]
 732 0026 1B88     		ldrh	r3, [r3]	@ movhi
 733 0028 9BB2     		uxth	r3, r3
 529:../Shared/Libraries/STM32F4xx_StdPeriph_Driver/src/stm32f4xx_spi.c ****   }
 734              		.loc 1 529 15
 735 002a 23F04003 		bic	r3, r3, #64
 736 002e 9AB2     		uxth	r2, r3
 737 0030 7B68     		ldr	r3, [r7, #4]
 738 0032 1A80     		strh	r2, [r3]	@ movhi
 739              	.L26:
 740              		.loc 1 531 1
 741 0034 00BF     		nop
 742 0036 0C37     		adds	r7, r7, #12
 743              	.LCFI32:
 744              		.cfi_def_cfa_offset 4
 745 0038 BD46     		mov	sp, r7
 746              	.LCFI33:
 747              		.cfi_def_cfa_register 13
 748              		@ sp needed
 749 003a 5DF8047B 		ldr	r7, [sp], #4
 750              	.LCFI34:
 751              		.cfi_restore 7
 752              		.cfi_def_cfa_offset 0
 753 003e 7047     		bx	lr
 754              		.cfi_endproc
 755              	.LFE115:
 757              		.section	.text.I2S_Cmd,"ax",%progbits
 758              		.align	1
 759              		.global	I2S_Cmd
 760              		.syntax unified
 761              		.thumb
 762              		.thumb_func
 764              	I2S_Cmd:
 765              	.LFB116:
 532:../Shared/Libraries/STM32F4xx_StdPeriph_Driver/src/stm32f4xx_spi.c **** 
 533:../Shared/Libraries/STM32F4xx_StdPeriph_Driver/src/stm32f4xx_spi.c **** /**
 534:../Shared/Libraries/STM32F4xx_StdPeriph_Driver/src/stm32f4xx_spi.c ****   * @brief  Enables or disables the specified SPI peripheral (in I2S mode).
 535:../Shared/Libraries/STM32F4xx_StdPeriph_Driver/src/stm32f4xx_spi.c ****   * @param  SPIx: where x can be 2 or 3 to select the SPI peripheral (or I2Sxext 
 536:../Shared/Libraries/STM32F4xx_StdPeriph_Driver/src/stm32f4xx_spi.c ****   *         for full duplex mode).
 537:../Shared/Libraries/STM32F4xx_StdPeriph_Driver/src/stm32f4xx_spi.c ****   * @param  NewState: new state of the SPIx peripheral. 
 538:../Shared/Libraries/STM32F4xx_StdPeriph_Driver/src/stm32f4xx_spi.c ****   *         This parameter can be: ENABLE or DISABLE.
 539:../Shared/Libraries/STM32F4xx_StdPeriph_Driver/src/stm32f4xx_spi.c ****   * @retval None
 540:../Shared/Libraries/STM32F4xx_StdPeriph_Driver/src/stm32f4xx_spi.c ****   */
ARM GAS  /tmp/ccTxF6x3.s 			page 24


 541:../Shared/Libraries/STM32F4xx_StdPeriph_Driver/src/stm32f4xx_spi.c **** void I2S_Cmd(SPI_TypeDef* SPIx, FunctionalState NewState)
 542:../Shared/Libraries/STM32F4xx_StdPeriph_Driver/src/stm32f4xx_spi.c **** {
 766              		.loc 1 542 1
 767              		.cfi_startproc
 768              		@ args = 0, pretend = 0, frame = 8
 769              		@ frame_needed = 1, uses_anonymous_args = 0
 770              		@ link register save eliminated.
 771 0000 80B4     		push	{r7}
 772              	.LCFI35:
 773              		.cfi_def_cfa_offset 4
 774              		.cfi_offset 7, -4
 775 0002 83B0     		sub	sp, sp, #12
 776              	.LCFI36:
 777              		.cfi_def_cfa_offset 16
 778 0004 00AF     		add	r7, sp, #0
 779              	.LCFI37:
 780              		.cfi_def_cfa_register 7
 781 0006 7860     		str	r0, [r7, #4]
 782 0008 0B46     		mov	r3, r1
 783 000a FB70     		strb	r3, [r7, #3]
 543:../Shared/Libraries/STM32F4xx_StdPeriph_Driver/src/stm32f4xx_spi.c ****   /* Check the parameters */
 544:../Shared/Libraries/STM32F4xx_StdPeriph_Driver/src/stm32f4xx_spi.c ****   assert_param(IS_SPI_23_PERIPH_EXT(SPIx));
 545:../Shared/Libraries/STM32F4xx_StdPeriph_Driver/src/stm32f4xx_spi.c ****   assert_param(IS_FUNCTIONAL_STATE(NewState));
 546:../Shared/Libraries/STM32F4xx_StdPeriph_Driver/src/stm32f4xx_spi.c ****   
 547:../Shared/Libraries/STM32F4xx_StdPeriph_Driver/src/stm32f4xx_spi.c ****   if (NewState != DISABLE)
 784              		.loc 1 547 6
 785 000c FB78     		ldrb	r3, [r7, #3]	@ zero_extendqisi2
 786 000e 002B     		cmp	r3, #0
 787 0010 08D0     		beq	.L28
 548:../Shared/Libraries/STM32F4xx_StdPeriph_Driver/src/stm32f4xx_spi.c ****   {
 549:../Shared/Libraries/STM32F4xx_StdPeriph_Driver/src/stm32f4xx_spi.c ****     /* Enable the selected SPI peripheral (in I2S mode) */
 550:../Shared/Libraries/STM32F4xx_StdPeriph_Driver/src/stm32f4xx_spi.c ****     SPIx->I2SCFGR |= SPI_I2SCFGR_I2SE;
 788              		.loc 1 550 9
 789 0012 7B68     		ldr	r3, [r7, #4]
 790 0014 9B8B     		ldrh	r3, [r3, #28]	@ movhi
 791 0016 9BB2     		uxth	r3, r3
 792              		.loc 1 550 19
 793 0018 43F48063 		orr	r3, r3, #1024
 794 001c 9AB2     		uxth	r2, r3
 795 001e 7B68     		ldr	r3, [r7, #4]
 796 0020 9A83     		strh	r2, [r3, #28]	@ movhi
 551:../Shared/Libraries/STM32F4xx_StdPeriph_Driver/src/stm32f4xx_spi.c ****   }
 552:../Shared/Libraries/STM32F4xx_StdPeriph_Driver/src/stm32f4xx_spi.c ****   else
 553:../Shared/Libraries/STM32F4xx_StdPeriph_Driver/src/stm32f4xx_spi.c ****   {
 554:../Shared/Libraries/STM32F4xx_StdPeriph_Driver/src/stm32f4xx_spi.c ****     /* Disable the selected SPI peripheral in I2S mode */
 555:../Shared/Libraries/STM32F4xx_StdPeriph_Driver/src/stm32f4xx_spi.c ****     SPIx->I2SCFGR &= (uint16_t)~((uint16_t)SPI_I2SCFGR_I2SE);
 556:../Shared/Libraries/STM32F4xx_StdPeriph_Driver/src/stm32f4xx_spi.c ****   }
 557:../Shared/Libraries/STM32F4xx_StdPeriph_Driver/src/stm32f4xx_spi.c **** }
 797              		.loc 1 557 1
 798 0022 07E0     		b	.L30
 799              	.L28:
 555:../Shared/Libraries/STM32F4xx_StdPeriph_Driver/src/stm32f4xx_spi.c ****   }
 800              		.loc 1 555 9
 801 0024 7B68     		ldr	r3, [r7, #4]
 802 0026 9B8B     		ldrh	r3, [r3, #28]	@ movhi
 803 0028 9BB2     		uxth	r3, r3
 555:../Shared/Libraries/STM32F4xx_StdPeriph_Driver/src/stm32f4xx_spi.c ****   }
ARM GAS  /tmp/ccTxF6x3.s 			page 25


 804              		.loc 1 555 19
 805 002a 23F48063 		bic	r3, r3, #1024
 806 002e 9AB2     		uxth	r2, r3
 807 0030 7B68     		ldr	r3, [r7, #4]
 808 0032 9A83     		strh	r2, [r3, #28]	@ movhi
 809              	.L30:
 810              		.loc 1 557 1
 811 0034 00BF     		nop
 812 0036 0C37     		adds	r7, r7, #12
 813              	.LCFI38:
 814              		.cfi_def_cfa_offset 4
 815 0038 BD46     		mov	sp, r7
 816              	.LCFI39:
 817              		.cfi_def_cfa_register 13
 818              		@ sp needed
 819 003a 5DF8047B 		ldr	r7, [sp], #4
 820              	.LCFI40:
 821              		.cfi_restore 7
 822              		.cfi_def_cfa_offset 0
 823 003e 7047     		bx	lr
 824              		.cfi_endproc
 825              	.LFE116:
 827              		.section	.text.SPI_DataSizeConfig,"ax",%progbits
 828              		.align	1
 829              		.global	SPI_DataSizeConfig
 830              		.syntax unified
 831              		.thumb
 832              		.thumb_func
 834              	SPI_DataSizeConfig:
 835              	.LFB117:
 558:../Shared/Libraries/STM32F4xx_StdPeriph_Driver/src/stm32f4xx_spi.c **** 
 559:../Shared/Libraries/STM32F4xx_StdPeriph_Driver/src/stm32f4xx_spi.c **** /**
 560:../Shared/Libraries/STM32F4xx_StdPeriph_Driver/src/stm32f4xx_spi.c ****   * @brief  Configures the data size for the selected SPI.
 561:../Shared/Libraries/STM32F4xx_StdPeriph_Driver/src/stm32f4xx_spi.c ****   * @param  SPIx: where x can be 1, 2 or 3 to select the SPI peripheral.
 562:../Shared/Libraries/STM32F4xx_StdPeriph_Driver/src/stm32f4xx_spi.c ****   * @param  SPI_DataSize: specifies the SPI data size.
 563:../Shared/Libraries/STM32F4xx_StdPeriph_Driver/src/stm32f4xx_spi.c ****   *          This parameter can be one of the following values:
 564:../Shared/Libraries/STM32F4xx_StdPeriph_Driver/src/stm32f4xx_spi.c ****   *            @arg SPI_DataSize_16b: Set data frame format to 16bit
 565:../Shared/Libraries/STM32F4xx_StdPeriph_Driver/src/stm32f4xx_spi.c ****   *            @arg SPI_DataSize_8b: Set data frame format to 8bit
 566:../Shared/Libraries/STM32F4xx_StdPeriph_Driver/src/stm32f4xx_spi.c ****   * @retval None
 567:../Shared/Libraries/STM32F4xx_StdPeriph_Driver/src/stm32f4xx_spi.c ****   */
 568:../Shared/Libraries/STM32F4xx_StdPeriph_Driver/src/stm32f4xx_spi.c **** void SPI_DataSizeConfig(SPI_TypeDef* SPIx, uint16_t SPI_DataSize)
 569:../Shared/Libraries/STM32F4xx_StdPeriph_Driver/src/stm32f4xx_spi.c **** {
 836              		.loc 1 569 1
 837              		.cfi_startproc
 838              		@ args = 0, pretend = 0, frame = 8
 839              		@ frame_needed = 1, uses_anonymous_args = 0
 840              		@ link register save eliminated.
 841 0000 80B4     		push	{r7}
 842              	.LCFI41:
 843              		.cfi_def_cfa_offset 4
 844              		.cfi_offset 7, -4
 845 0002 83B0     		sub	sp, sp, #12
 846              	.LCFI42:
 847              		.cfi_def_cfa_offset 16
 848 0004 00AF     		add	r7, sp, #0
 849              	.LCFI43:
 850              		.cfi_def_cfa_register 7
ARM GAS  /tmp/ccTxF6x3.s 			page 26


 851 0006 7860     		str	r0, [r7, #4]
 852 0008 0B46     		mov	r3, r1
 853 000a 7B80     		strh	r3, [r7, #2]	@ movhi
 570:../Shared/Libraries/STM32F4xx_StdPeriph_Driver/src/stm32f4xx_spi.c ****   /* Check the parameters */
 571:../Shared/Libraries/STM32F4xx_StdPeriph_Driver/src/stm32f4xx_spi.c ****   assert_param(IS_SPI_ALL_PERIPH(SPIx));
 572:../Shared/Libraries/STM32F4xx_StdPeriph_Driver/src/stm32f4xx_spi.c ****   assert_param(IS_SPI_DATASIZE(SPI_DataSize));
 573:../Shared/Libraries/STM32F4xx_StdPeriph_Driver/src/stm32f4xx_spi.c ****   /* Clear DFF bit */
 574:../Shared/Libraries/STM32F4xx_StdPeriph_Driver/src/stm32f4xx_spi.c ****   SPIx->CR1 &= (uint16_t)~SPI_DataSize_16b;
 854              		.loc 1 574 7
 855 000c 7B68     		ldr	r3, [r7, #4]
 856 000e 1B88     		ldrh	r3, [r3]	@ movhi
 857 0010 9BB2     		uxth	r3, r3
 858              		.loc 1 574 13
 859 0012 23F40063 		bic	r3, r3, #2048
 860 0016 9AB2     		uxth	r2, r3
 861 0018 7B68     		ldr	r3, [r7, #4]
 862 001a 1A80     		strh	r2, [r3]	@ movhi
 575:../Shared/Libraries/STM32F4xx_StdPeriph_Driver/src/stm32f4xx_spi.c ****   /* Set new DFF bit value */
 576:../Shared/Libraries/STM32F4xx_StdPeriph_Driver/src/stm32f4xx_spi.c ****   SPIx->CR1 |= SPI_DataSize;
 863              		.loc 1 576 7
 864 001c 7B68     		ldr	r3, [r7, #4]
 865 001e 1B88     		ldrh	r3, [r3]	@ movhi
 866 0020 9AB2     		uxth	r2, r3
 867              		.loc 1 576 13
 868 0022 7B88     		ldrh	r3, [r7, #2]	@ movhi
 869 0024 1343     		orrs	r3, r3, r2
 870 0026 9AB2     		uxth	r2, r3
 871 0028 7B68     		ldr	r3, [r7, #4]
 872 002a 1A80     		strh	r2, [r3]	@ movhi
 577:../Shared/Libraries/STM32F4xx_StdPeriph_Driver/src/stm32f4xx_spi.c **** }
 873              		.loc 1 577 1
 874 002c 00BF     		nop
 875 002e 0C37     		adds	r7, r7, #12
 876              	.LCFI44:
 877              		.cfi_def_cfa_offset 4
 878 0030 BD46     		mov	sp, r7
 879              	.LCFI45:
 880              		.cfi_def_cfa_register 13
 881              		@ sp needed
 882 0032 5DF8047B 		ldr	r7, [sp], #4
 883              	.LCFI46:
 884              		.cfi_restore 7
 885              		.cfi_def_cfa_offset 0
 886 0036 7047     		bx	lr
 887              		.cfi_endproc
 888              	.LFE117:
 890              		.section	.text.SPI_BiDirectionalLineConfig,"ax",%progbits
 891              		.align	1
 892              		.global	SPI_BiDirectionalLineConfig
 893              		.syntax unified
 894              		.thumb
 895              		.thumb_func
 897              	SPI_BiDirectionalLineConfig:
 898              	.LFB118:
 578:../Shared/Libraries/STM32F4xx_StdPeriph_Driver/src/stm32f4xx_spi.c **** 
 579:../Shared/Libraries/STM32F4xx_StdPeriph_Driver/src/stm32f4xx_spi.c **** /**
 580:../Shared/Libraries/STM32F4xx_StdPeriph_Driver/src/stm32f4xx_spi.c ****   * @brief  Selects the data transfer direction in bidirectional mode for the specified SPI.
ARM GAS  /tmp/ccTxF6x3.s 			page 27


 581:../Shared/Libraries/STM32F4xx_StdPeriph_Driver/src/stm32f4xx_spi.c ****   * @param  SPIx: where x can be 1, 2 or 3 to select the SPI peripheral.
 582:../Shared/Libraries/STM32F4xx_StdPeriph_Driver/src/stm32f4xx_spi.c ****   * @param  SPI_Direction: specifies the data transfer direction in bidirectional mode. 
 583:../Shared/Libraries/STM32F4xx_StdPeriph_Driver/src/stm32f4xx_spi.c ****   *          This parameter can be one of the following values:
 584:../Shared/Libraries/STM32F4xx_StdPeriph_Driver/src/stm32f4xx_spi.c ****   *            @arg SPI_Direction_Tx: Selects Tx transmission direction
 585:../Shared/Libraries/STM32F4xx_StdPeriph_Driver/src/stm32f4xx_spi.c ****   *            @arg SPI_Direction_Rx: Selects Rx receive direction
 586:../Shared/Libraries/STM32F4xx_StdPeriph_Driver/src/stm32f4xx_spi.c ****   * @retval None
 587:../Shared/Libraries/STM32F4xx_StdPeriph_Driver/src/stm32f4xx_spi.c ****   */
 588:../Shared/Libraries/STM32F4xx_StdPeriph_Driver/src/stm32f4xx_spi.c **** void SPI_BiDirectionalLineConfig(SPI_TypeDef* SPIx, uint16_t SPI_Direction)
 589:../Shared/Libraries/STM32F4xx_StdPeriph_Driver/src/stm32f4xx_spi.c **** {
 899              		.loc 1 589 1
 900              		.cfi_startproc
 901              		@ args = 0, pretend = 0, frame = 8
 902              		@ frame_needed = 1, uses_anonymous_args = 0
 903              		@ link register save eliminated.
 904 0000 80B4     		push	{r7}
 905              	.LCFI47:
 906              		.cfi_def_cfa_offset 4
 907              		.cfi_offset 7, -4
 908 0002 83B0     		sub	sp, sp, #12
 909              	.LCFI48:
 910              		.cfi_def_cfa_offset 16
 911 0004 00AF     		add	r7, sp, #0
 912              	.LCFI49:
 913              		.cfi_def_cfa_register 7
 914 0006 7860     		str	r0, [r7, #4]
 915 0008 0B46     		mov	r3, r1
 916 000a 7B80     		strh	r3, [r7, #2]	@ movhi
 590:../Shared/Libraries/STM32F4xx_StdPeriph_Driver/src/stm32f4xx_spi.c ****   /* Check the parameters */
 591:../Shared/Libraries/STM32F4xx_StdPeriph_Driver/src/stm32f4xx_spi.c ****   assert_param(IS_SPI_ALL_PERIPH(SPIx));
 592:../Shared/Libraries/STM32F4xx_StdPeriph_Driver/src/stm32f4xx_spi.c ****   assert_param(IS_SPI_DIRECTION(SPI_Direction));
 593:../Shared/Libraries/STM32F4xx_StdPeriph_Driver/src/stm32f4xx_spi.c ****   if (SPI_Direction == SPI_Direction_Tx)
 917              		.loc 1 593 6
 918 000c 7B88     		ldrh	r3, [r7, #2]
 919 000e B3F5804F 		cmp	r3, #16384
 920 0012 08D1     		bne	.L33
 594:../Shared/Libraries/STM32F4xx_StdPeriph_Driver/src/stm32f4xx_spi.c ****   {
 595:../Shared/Libraries/STM32F4xx_StdPeriph_Driver/src/stm32f4xx_spi.c ****     /* Set the Tx only mode */
 596:../Shared/Libraries/STM32F4xx_StdPeriph_Driver/src/stm32f4xx_spi.c ****     SPIx->CR1 |= SPI_Direction_Tx;
 921              		.loc 1 596 9
 922 0014 7B68     		ldr	r3, [r7, #4]
 923 0016 1B88     		ldrh	r3, [r3]	@ movhi
 924 0018 9BB2     		uxth	r3, r3
 925              		.loc 1 596 15
 926 001a 43F48043 		orr	r3, r3, #16384
 927 001e 9AB2     		uxth	r2, r3
 928 0020 7B68     		ldr	r3, [r7, #4]
 929 0022 1A80     		strh	r2, [r3]	@ movhi
 597:../Shared/Libraries/STM32F4xx_StdPeriph_Driver/src/stm32f4xx_spi.c ****   }
 598:../Shared/Libraries/STM32F4xx_StdPeriph_Driver/src/stm32f4xx_spi.c ****   else
 599:../Shared/Libraries/STM32F4xx_StdPeriph_Driver/src/stm32f4xx_spi.c ****   {
 600:../Shared/Libraries/STM32F4xx_StdPeriph_Driver/src/stm32f4xx_spi.c ****     /* Set the Rx only mode */
 601:../Shared/Libraries/STM32F4xx_StdPeriph_Driver/src/stm32f4xx_spi.c ****     SPIx->CR1 &= SPI_Direction_Rx;
 602:../Shared/Libraries/STM32F4xx_StdPeriph_Driver/src/stm32f4xx_spi.c ****   }
 603:../Shared/Libraries/STM32F4xx_StdPeriph_Driver/src/stm32f4xx_spi.c **** }
 930              		.loc 1 603 1
 931 0024 07E0     		b	.L35
 932              	.L33:
ARM GAS  /tmp/ccTxF6x3.s 			page 28


 601:../Shared/Libraries/STM32F4xx_StdPeriph_Driver/src/stm32f4xx_spi.c ****   }
 933              		.loc 1 601 9
 934 0026 7B68     		ldr	r3, [r7, #4]
 935 0028 1B88     		ldrh	r3, [r3]	@ movhi
 936 002a 9BB2     		uxth	r3, r3
 601:../Shared/Libraries/STM32F4xx_StdPeriph_Driver/src/stm32f4xx_spi.c ****   }
 937              		.loc 1 601 15
 938 002c 23F48043 		bic	r3, r3, #16384
 939 0030 9AB2     		uxth	r2, r3
 940 0032 7B68     		ldr	r3, [r7, #4]
 941 0034 1A80     		strh	r2, [r3]	@ movhi
 942              	.L35:
 943              		.loc 1 603 1
 944 0036 00BF     		nop
 945 0038 0C37     		adds	r7, r7, #12
 946              	.LCFI50:
 947              		.cfi_def_cfa_offset 4
 948 003a BD46     		mov	sp, r7
 949              	.LCFI51:
 950              		.cfi_def_cfa_register 13
 951              		@ sp needed
 952 003c 5DF8047B 		ldr	r7, [sp], #4
 953              	.LCFI52:
 954              		.cfi_restore 7
 955              		.cfi_def_cfa_offset 0
 956 0040 7047     		bx	lr
 957              		.cfi_endproc
 958              	.LFE118:
 960              		.section	.text.SPI_NSSInternalSoftwareConfig,"ax",%progbits
 961              		.align	1
 962              		.global	SPI_NSSInternalSoftwareConfig
 963              		.syntax unified
 964              		.thumb
 965              		.thumb_func
 967              	SPI_NSSInternalSoftwareConfig:
 968              	.LFB119:
 604:../Shared/Libraries/STM32F4xx_StdPeriph_Driver/src/stm32f4xx_spi.c **** 
 605:../Shared/Libraries/STM32F4xx_StdPeriph_Driver/src/stm32f4xx_spi.c **** /**
 606:../Shared/Libraries/STM32F4xx_StdPeriph_Driver/src/stm32f4xx_spi.c ****   * @brief  Configures internally by software the NSS pin for the selected SPI.
 607:../Shared/Libraries/STM32F4xx_StdPeriph_Driver/src/stm32f4xx_spi.c ****   * @param  SPIx: where x can be 1, 2 or 3 to select the SPI peripheral.
 608:../Shared/Libraries/STM32F4xx_StdPeriph_Driver/src/stm32f4xx_spi.c ****   * @param  SPI_NSSInternalSoft: specifies the SPI NSS internal state.
 609:../Shared/Libraries/STM32F4xx_StdPeriph_Driver/src/stm32f4xx_spi.c ****   *          This parameter can be one of the following values:
 610:../Shared/Libraries/STM32F4xx_StdPeriph_Driver/src/stm32f4xx_spi.c ****   *            @arg SPI_NSSInternalSoft_Set: Set NSS pin internally
 611:../Shared/Libraries/STM32F4xx_StdPeriph_Driver/src/stm32f4xx_spi.c ****   *            @arg SPI_NSSInternalSoft_Reset: Reset NSS pin internally
 612:../Shared/Libraries/STM32F4xx_StdPeriph_Driver/src/stm32f4xx_spi.c ****   * @retval None
 613:../Shared/Libraries/STM32F4xx_StdPeriph_Driver/src/stm32f4xx_spi.c ****   */
 614:../Shared/Libraries/STM32F4xx_StdPeriph_Driver/src/stm32f4xx_spi.c **** void SPI_NSSInternalSoftwareConfig(SPI_TypeDef* SPIx, uint16_t SPI_NSSInternalSoft)
 615:../Shared/Libraries/STM32F4xx_StdPeriph_Driver/src/stm32f4xx_spi.c **** {
 969              		.loc 1 615 1
 970              		.cfi_startproc
 971              		@ args = 0, pretend = 0, frame = 8
 972              		@ frame_needed = 1, uses_anonymous_args = 0
 973              		@ link register save eliminated.
 974 0000 80B4     		push	{r7}
 975              	.LCFI53:
 976              		.cfi_def_cfa_offset 4
 977              		.cfi_offset 7, -4
ARM GAS  /tmp/ccTxF6x3.s 			page 29


 978 0002 83B0     		sub	sp, sp, #12
 979              	.LCFI54:
 980              		.cfi_def_cfa_offset 16
 981 0004 00AF     		add	r7, sp, #0
 982              	.LCFI55:
 983              		.cfi_def_cfa_register 7
 984 0006 7860     		str	r0, [r7, #4]
 985 0008 0B46     		mov	r3, r1
 986 000a 7B80     		strh	r3, [r7, #2]	@ movhi
 616:../Shared/Libraries/STM32F4xx_StdPeriph_Driver/src/stm32f4xx_spi.c ****   /* Check the parameters */
 617:../Shared/Libraries/STM32F4xx_StdPeriph_Driver/src/stm32f4xx_spi.c ****   assert_param(IS_SPI_ALL_PERIPH(SPIx));
 618:../Shared/Libraries/STM32F4xx_StdPeriph_Driver/src/stm32f4xx_spi.c ****   assert_param(IS_SPI_NSS_INTERNAL(SPI_NSSInternalSoft));
 619:../Shared/Libraries/STM32F4xx_StdPeriph_Driver/src/stm32f4xx_spi.c ****   if (SPI_NSSInternalSoft != SPI_NSSInternalSoft_Reset)
 987              		.loc 1 619 6
 988 000c 7B88     		ldrh	r3, [r7, #2]
 989 000e 4FF6FF62 		movw	r2, #65279
 990 0012 9342     		cmp	r3, r2
 991 0014 08D0     		beq	.L37
 620:../Shared/Libraries/STM32F4xx_StdPeriph_Driver/src/stm32f4xx_spi.c ****   {
 621:../Shared/Libraries/STM32F4xx_StdPeriph_Driver/src/stm32f4xx_spi.c ****     /* Set NSS pin internally by software */
 622:../Shared/Libraries/STM32F4xx_StdPeriph_Driver/src/stm32f4xx_spi.c ****     SPIx->CR1 |= SPI_NSSInternalSoft_Set;
 992              		.loc 1 622 9
 993 0016 7B68     		ldr	r3, [r7, #4]
 994 0018 1B88     		ldrh	r3, [r3]	@ movhi
 995 001a 9BB2     		uxth	r3, r3
 996              		.loc 1 622 15
 997 001c 43F48073 		orr	r3, r3, #256
 998 0020 9AB2     		uxth	r2, r3
 999 0022 7B68     		ldr	r3, [r7, #4]
 1000 0024 1A80     		strh	r2, [r3]	@ movhi
 623:../Shared/Libraries/STM32F4xx_StdPeriph_Driver/src/stm32f4xx_spi.c ****   }
 624:../Shared/Libraries/STM32F4xx_StdPeriph_Driver/src/stm32f4xx_spi.c ****   else
 625:../Shared/Libraries/STM32F4xx_StdPeriph_Driver/src/stm32f4xx_spi.c ****   {
 626:../Shared/Libraries/STM32F4xx_StdPeriph_Driver/src/stm32f4xx_spi.c ****     /* Reset NSS pin internally by software */
 627:../Shared/Libraries/STM32F4xx_StdPeriph_Driver/src/stm32f4xx_spi.c ****     SPIx->CR1 &= SPI_NSSInternalSoft_Reset;
 628:../Shared/Libraries/STM32F4xx_StdPeriph_Driver/src/stm32f4xx_spi.c ****   }
 629:../Shared/Libraries/STM32F4xx_StdPeriph_Driver/src/stm32f4xx_spi.c **** }
 1001              		.loc 1 629 1
 1002 0026 07E0     		b	.L39
 1003              	.L37:
 627:../Shared/Libraries/STM32F4xx_StdPeriph_Driver/src/stm32f4xx_spi.c ****   }
 1004              		.loc 1 627 9
 1005 0028 7B68     		ldr	r3, [r7, #4]
 1006 002a 1B88     		ldrh	r3, [r3]	@ movhi
 1007 002c 9BB2     		uxth	r3, r3
 627:../Shared/Libraries/STM32F4xx_StdPeriph_Driver/src/stm32f4xx_spi.c ****   }
 1008              		.loc 1 627 15
 1009 002e 23F48073 		bic	r3, r3, #256
 1010 0032 9AB2     		uxth	r2, r3
 1011 0034 7B68     		ldr	r3, [r7, #4]
 1012 0036 1A80     		strh	r2, [r3]	@ movhi
 1013              	.L39:
 1014              		.loc 1 629 1
 1015 0038 00BF     		nop
 1016 003a 0C37     		adds	r7, r7, #12
 1017              	.LCFI56:
 1018              		.cfi_def_cfa_offset 4
ARM GAS  /tmp/ccTxF6x3.s 			page 30


 1019 003c BD46     		mov	sp, r7
 1020              	.LCFI57:
 1021              		.cfi_def_cfa_register 13
 1022              		@ sp needed
 1023 003e 5DF8047B 		ldr	r7, [sp], #4
 1024              	.LCFI58:
 1025              		.cfi_restore 7
 1026              		.cfi_def_cfa_offset 0
 1027 0042 7047     		bx	lr
 1028              		.cfi_endproc
 1029              	.LFE119:
 1031              		.section	.text.SPI_SSOutputCmd,"ax",%progbits
 1032              		.align	1
 1033              		.global	SPI_SSOutputCmd
 1034              		.syntax unified
 1035              		.thumb
 1036              		.thumb_func
 1038              	SPI_SSOutputCmd:
 1039              	.LFB120:
 630:../Shared/Libraries/STM32F4xx_StdPeriph_Driver/src/stm32f4xx_spi.c **** 
 631:../Shared/Libraries/STM32F4xx_StdPeriph_Driver/src/stm32f4xx_spi.c **** /**
 632:../Shared/Libraries/STM32F4xx_StdPeriph_Driver/src/stm32f4xx_spi.c ****   * @brief  Enables or disables the SS output for the selected SPI.
 633:../Shared/Libraries/STM32F4xx_StdPeriph_Driver/src/stm32f4xx_spi.c ****   * @param  SPIx: where x can be 1, 2 or 3 to select the SPI peripheral.
 634:../Shared/Libraries/STM32F4xx_StdPeriph_Driver/src/stm32f4xx_spi.c ****   * @param  NewState: new state of the SPIx SS output. 
 635:../Shared/Libraries/STM32F4xx_StdPeriph_Driver/src/stm32f4xx_spi.c ****   *          This parameter can be: ENABLE or DISABLE.
 636:../Shared/Libraries/STM32F4xx_StdPeriph_Driver/src/stm32f4xx_spi.c ****   * @retval None
 637:../Shared/Libraries/STM32F4xx_StdPeriph_Driver/src/stm32f4xx_spi.c ****   */
 638:../Shared/Libraries/STM32F4xx_StdPeriph_Driver/src/stm32f4xx_spi.c **** void SPI_SSOutputCmd(SPI_TypeDef* SPIx, FunctionalState NewState)
 639:../Shared/Libraries/STM32F4xx_StdPeriph_Driver/src/stm32f4xx_spi.c **** {
 1040              		.loc 1 639 1
 1041              		.cfi_startproc
 1042              		@ args = 0, pretend = 0, frame = 8
 1043              		@ frame_needed = 1, uses_anonymous_args = 0
 1044              		@ link register save eliminated.
 1045 0000 80B4     		push	{r7}
 1046              	.LCFI59:
 1047              		.cfi_def_cfa_offset 4
 1048              		.cfi_offset 7, -4
 1049 0002 83B0     		sub	sp, sp, #12
 1050              	.LCFI60:
 1051              		.cfi_def_cfa_offset 16
 1052 0004 00AF     		add	r7, sp, #0
 1053              	.LCFI61:
 1054              		.cfi_def_cfa_register 7
 1055 0006 7860     		str	r0, [r7, #4]
 1056 0008 0B46     		mov	r3, r1
 1057 000a FB70     		strb	r3, [r7, #3]
 640:../Shared/Libraries/STM32F4xx_StdPeriph_Driver/src/stm32f4xx_spi.c ****   /* Check the parameters */
 641:../Shared/Libraries/STM32F4xx_StdPeriph_Driver/src/stm32f4xx_spi.c ****   assert_param(IS_SPI_ALL_PERIPH(SPIx));
 642:../Shared/Libraries/STM32F4xx_StdPeriph_Driver/src/stm32f4xx_spi.c ****   assert_param(IS_FUNCTIONAL_STATE(NewState));
 643:../Shared/Libraries/STM32F4xx_StdPeriph_Driver/src/stm32f4xx_spi.c ****   if (NewState != DISABLE)
 1058              		.loc 1 643 6
 1059 000c FB78     		ldrb	r3, [r7, #3]	@ zero_extendqisi2
 1060 000e 002B     		cmp	r3, #0
 1061 0010 08D0     		beq	.L41
 644:../Shared/Libraries/STM32F4xx_StdPeriph_Driver/src/stm32f4xx_spi.c ****   {
 645:../Shared/Libraries/STM32F4xx_StdPeriph_Driver/src/stm32f4xx_spi.c ****     /* Enable the selected SPI SS output */
ARM GAS  /tmp/ccTxF6x3.s 			page 31


 646:../Shared/Libraries/STM32F4xx_StdPeriph_Driver/src/stm32f4xx_spi.c ****     SPIx->CR2 |= (uint16_t)SPI_CR2_SSOE;
 1062              		.loc 1 646 9
 1063 0012 7B68     		ldr	r3, [r7, #4]
 1064 0014 9B88     		ldrh	r3, [r3, #4]	@ movhi
 1065 0016 9BB2     		uxth	r3, r3
 1066              		.loc 1 646 15
 1067 0018 43F00403 		orr	r3, r3, #4
 1068 001c 9AB2     		uxth	r2, r3
 1069 001e 7B68     		ldr	r3, [r7, #4]
 1070 0020 9A80     		strh	r2, [r3, #4]	@ movhi
 647:../Shared/Libraries/STM32F4xx_StdPeriph_Driver/src/stm32f4xx_spi.c ****   }
 648:../Shared/Libraries/STM32F4xx_StdPeriph_Driver/src/stm32f4xx_spi.c ****   else
 649:../Shared/Libraries/STM32F4xx_StdPeriph_Driver/src/stm32f4xx_spi.c ****   {
 650:../Shared/Libraries/STM32F4xx_StdPeriph_Driver/src/stm32f4xx_spi.c ****     /* Disable the selected SPI SS output */
 651:../Shared/Libraries/STM32F4xx_StdPeriph_Driver/src/stm32f4xx_spi.c ****     SPIx->CR2 &= (uint16_t)~((uint16_t)SPI_CR2_SSOE);
 652:../Shared/Libraries/STM32F4xx_StdPeriph_Driver/src/stm32f4xx_spi.c ****   }
 653:../Shared/Libraries/STM32F4xx_StdPeriph_Driver/src/stm32f4xx_spi.c **** }
 1071              		.loc 1 653 1
 1072 0022 07E0     		b	.L43
 1073              	.L41:
 651:../Shared/Libraries/STM32F4xx_StdPeriph_Driver/src/stm32f4xx_spi.c ****   }
 1074              		.loc 1 651 9
 1075 0024 7B68     		ldr	r3, [r7, #4]
 1076 0026 9B88     		ldrh	r3, [r3, #4]	@ movhi
 1077 0028 9BB2     		uxth	r3, r3
 651:../Shared/Libraries/STM32F4xx_StdPeriph_Driver/src/stm32f4xx_spi.c ****   }
 1078              		.loc 1 651 15
 1079 002a 23F00403 		bic	r3, r3, #4
 1080 002e 9AB2     		uxth	r2, r3
 1081 0030 7B68     		ldr	r3, [r7, #4]
 1082 0032 9A80     		strh	r2, [r3, #4]	@ movhi
 1083              	.L43:
 1084              		.loc 1 653 1
 1085 0034 00BF     		nop
 1086 0036 0C37     		adds	r7, r7, #12
 1087              	.LCFI62:
 1088              		.cfi_def_cfa_offset 4
 1089 0038 BD46     		mov	sp, r7
 1090              	.LCFI63:
 1091              		.cfi_def_cfa_register 13
 1092              		@ sp needed
 1093 003a 5DF8047B 		ldr	r7, [sp], #4
 1094              	.LCFI64:
 1095              		.cfi_restore 7
 1096              		.cfi_def_cfa_offset 0
 1097 003e 7047     		bx	lr
 1098              		.cfi_endproc
 1099              	.LFE120:
 1101              		.section	.text.SPI_TIModeCmd,"ax",%progbits
 1102              		.align	1
 1103              		.global	SPI_TIModeCmd
 1104              		.syntax unified
 1105              		.thumb
 1106              		.thumb_func
 1108              	SPI_TIModeCmd:
 1109              	.LFB121:
 654:../Shared/Libraries/STM32F4xx_StdPeriph_Driver/src/stm32f4xx_spi.c **** 
ARM GAS  /tmp/ccTxF6x3.s 			page 32


 655:../Shared/Libraries/STM32F4xx_StdPeriph_Driver/src/stm32f4xx_spi.c **** /**
 656:../Shared/Libraries/STM32F4xx_StdPeriph_Driver/src/stm32f4xx_spi.c ****   * @brief  Enables or disables the SPIx/I2Sx DMA interface.
 657:../Shared/Libraries/STM32F4xx_StdPeriph_Driver/src/stm32f4xx_spi.c ****   *   
 658:../Shared/Libraries/STM32F4xx_StdPeriph_Driver/src/stm32f4xx_spi.c ****   * @note   This function can be called only after the SPI_Init() function has 
 659:../Shared/Libraries/STM32F4xx_StdPeriph_Driver/src/stm32f4xx_spi.c ****   *         been called. 
 660:../Shared/Libraries/STM32F4xx_StdPeriph_Driver/src/stm32f4xx_spi.c ****   * @note   When TI mode is selected, the control bits SSM, SSI, CPOL and CPHA 
 661:../Shared/Libraries/STM32F4xx_StdPeriph_Driver/src/stm32f4xx_spi.c ****   *         are not taken into consideration and are configured by hardware
 662:../Shared/Libraries/STM32F4xx_StdPeriph_Driver/src/stm32f4xx_spi.c ****   *         respectively to the TI mode requirements.  
 663:../Shared/Libraries/STM32F4xx_StdPeriph_Driver/src/stm32f4xx_spi.c ****   * 
 664:../Shared/Libraries/STM32F4xx_StdPeriph_Driver/src/stm32f4xx_spi.c ****   * @param  SPIx: where x can be 1, 2 or 3 
 665:../Shared/Libraries/STM32F4xx_StdPeriph_Driver/src/stm32f4xx_spi.c ****   * @param  NewState: new state of the selected SPI TI communication mode.
 666:../Shared/Libraries/STM32F4xx_StdPeriph_Driver/src/stm32f4xx_spi.c ****   *          This parameter can be: ENABLE or DISABLE.
 667:../Shared/Libraries/STM32F4xx_StdPeriph_Driver/src/stm32f4xx_spi.c ****   * @retval None
 668:../Shared/Libraries/STM32F4xx_StdPeriph_Driver/src/stm32f4xx_spi.c ****   */
 669:../Shared/Libraries/STM32F4xx_StdPeriph_Driver/src/stm32f4xx_spi.c **** void SPI_TIModeCmd(SPI_TypeDef* SPIx, FunctionalState NewState)
 670:../Shared/Libraries/STM32F4xx_StdPeriph_Driver/src/stm32f4xx_spi.c **** {
 1110              		.loc 1 670 1
 1111              		.cfi_startproc
 1112              		@ args = 0, pretend = 0, frame = 8
 1113              		@ frame_needed = 1, uses_anonymous_args = 0
 1114              		@ link register save eliminated.
 1115 0000 80B4     		push	{r7}
 1116              	.LCFI65:
 1117              		.cfi_def_cfa_offset 4
 1118              		.cfi_offset 7, -4
 1119 0002 83B0     		sub	sp, sp, #12
 1120              	.LCFI66:
 1121              		.cfi_def_cfa_offset 16
 1122 0004 00AF     		add	r7, sp, #0
 1123              	.LCFI67:
 1124              		.cfi_def_cfa_register 7
 1125 0006 7860     		str	r0, [r7, #4]
 1126 0008 0B46     		mov	r3, r1
 1127 000a FB70     		strb	r3, [r7, #3]
 671:../Shared/Libraries/STM32F4xx_StdPeriph_Driver/src/stm32f4xx_spi.c ****   /* Check the parameters */
 672:../Shared/Libraries/STM32F4xx_StdPeriph_Driver/src/stm32f4xx_spi.c ****   assert_param(IS_SPI_ALL_PERIPH(SPIx));
 673:../Shared/Libraries/STM32F4xx_StdPeriph_Driver/src/stm32f4xx_spi.c ****   assert_param(IS_FUNCTIONAL_STATE(NewState));
 674:../Shared/Libraries/STM32F4xx_StdPeriph_Driver/src/stm32f4xx_spi.c **** 
 675:../Shared/Libraries/STM32F4xx_StdPeriph_Driver/src/stm32f4xx_spi.c ****   if (NewState != DISABLE)
 1128              		.loc 1 675 6
 1129 000c FB78     		ldrb	r3, [r7, #3]	@ zero_extendqisi2
 1130 000e 002B     		cmp	r3, #0
 1131 0010 08D0     		beq	.L45
 676:../Shared/Libraries/STM32F4xx_StdPeriph_Driver/src/stm32f4xx_spi.c ****   {
 677:../Shared/Libraries/STM32F4xx_StdPeriph_Driver/src/stm32f4xx_spi.c ****     /* Enable the TI mode for the selected SPI peripheral */
 678:../Shared/Libraries/STM32F4xx_StdPeriph_Driver/src/stm32f4xx_spi.c ****     SPIx->CR2 |= SPI_CR2_FRF;
 1132              		.loc 1 678 9
 1133 0012 7B68     		ldr	r3, [r7, #4]
 1134 0014 9B88     		ldrh	r3, [r3, #4]	@ movhi
 1135 0016 9BB2     		uxth	r3, r3
 1136              		.loc 1 678 15
 1137 0018 43F01003 		orr	r3, r3, #16
 1138 001c 9AB2     		uxth	r2, r3
 1139 001e 7B68     		ldr	r3, [r7, #4]
 1140 0020 9A80     		strh	r2, [r3, #4]	@ movhi
 679:../Shared/Libraries/STM32F4xx_StdPeriph_Driver/src/stm32f4xx_spi.c ****   }
 680:../Shared/Libraries/STM32F4xx_StdPeriph_Driver/src/stm32f4xx_spi.c ****   else
ARM GAS  /tmp/ccTxF6x3.s 			page 33


 681:../Shared/Libraries/STM32F4xx_StdPeriph_Driver/src/stm32f4xx_spi.c ****   {
 682:../Shared/Libraries/STM32F4xx_StdPeriph_Driver/src/stm32f4xx_spi.c ****     /* Disable the TI mode for the selected SPI peripheral */
 683:../Shared/Libraries/STM32F4xx_StdPeriph_Driver/src/stm32f4xx_spi.c ****     SPIx->CR2 &= (uint16_t)~SPI_CR2_FRF;
 684:../Shared/Libraries/STM32F4xx_StdPeriph_Driver/src/stm32f4xx_spi.c ****   }
 685:../Shared/Libraries/STM32F4xx_StdPeriph_Driver/src/stm32f4xx_spi.c **** }
 1141              		.loc 1 685 1
 1142 0022 07E0     		b	.L47
 1143              	.L45:
 683:../Shared/Libraries/STM32F4xx_StdPeriph_Driver/src/stm32f4xx_spi.c ****   }
 1144              		.loc 1 683 9
 1145 0024 7B68     		ldr	r3, [r7, #4]
 1146 0026 9B88     		ldrh	r3, [r3, #4]	@ movhi
 1147 0028 9BB2     		uxth	r3, r3
 683:../Shared/Libraries/STM32F4xx_StdPeriph_Driver/src/stm32f4xx_spi.c ****   }
 1148              		.loc 1 683 15
 1149 002a 23F01003 		bic	r3, r3, #16
 1150 002e 9AB2     		uxth	r2, r3
 1151 0030 7B68     		ldr	r3, [r7, #4]
 1152 0032 9A80     		strh	r2, [r3, #4]	@ movhi
 1153              	.L47:
 1154              		.loc 1 685 1
 1155 0034 00BF     		nop
 1156 0036 0C37     		adds	r7, r7, #12
 1157              	.LCFI68:
 1158              		.cfi_def_cfa_offset 4
 1159 0038 BD46     		mov	sp, r7
 1160              	.LCFI69:
 1161              		.cfi_def_cfa_register 13
 1162              		@ sp needed
 1163 003a 5DF8047B 		ldr	r7, [sp], #4
 1164              	.LCFI70:
 1165              		.cfi_restore 7
 1166              		.cfi_def_cfa_offset 0
 1167 003e 7047     		bx	lr
 1168              		.cfi_endproc
 1169              	.LFE121:
 1171              		.section	.text.I2S_FullDuplexConfig,"ax",%progbits
 1172              		.align	1
 1173              		.global	I2S_FullDuplexConfig
 1174              		.syntax unified
 1175              		.thumb
 1176              		.thumb_func
 1178              	I2S_FullDuplexConfig:
 1179              	.LFB122:
 686:../Shared/Libraries/STM32F4xx_StdPeriph_Driver/src/stm32f4xx_spi.c **** 
 687:../Shared/Libraries/STM32F4xx_StdPeriph_Driver/src/stm32f4xx_spi.c **** /**
 688:../Shared/Libraries/STM32F4xx_StdPeriph_Driver/src/stm32f4xx_spi.c ****   * @brief  Configures the full duplex mode for the I2Sx peripheral using its
 689:../Shared/Libraries/STM32F4xx_StdPeriph_Driver/src/stm32f4xx_spi.c ****   *         extension I2Sxext according to the specified parameters in the 
 690:../Shared/Libraries/STM32F4xx_StdPeriph_Driver/src/stm32f4xx_spi.c ****   *         I2S_InitStruct.
 691:../Shared/Libraries/STM32F4xx_StdPeriph_Driver/src/stm32f4xx_spi.c ****   * @param  I2Sxext: where x can be  2 or 3 to select the I2S peripheral extension block.
 692:../Shared/Libraries/STM32F4xx_StdPeriph_Driver/src/stm32f4xx_spi.c ****   * @param  I2S_InitStruct: pointer to an I2S_InitTypeDef structure that
 693:../Shared/Libraries/STM32F4xx_StdPeriph_Driver/src/stm32f4xx_spi.c ****   *         contains the configuration information for the specified I2S peripheral
 694:../Shared/Libraries/STM32F4xx_StdPeriph_Driver/src/stm32f4xx_spi.c ****   *         extension.
 695:../Shared/Libraries/STM32F4xx_StdPeriph_Driver/src/stm32f4xx_spi.c ****   * 
 696:../Shared/Libraries/STM32F4xx_StdPeriph_Driver/src/stm32f4xx_spi.c ****   * @note   The structure pointed by I2S_InitStruct parameter should be the same
 697:../Shared/Libraries/STM32F4xx_StdPeriph_Driver/src/stm32f4xx_spi.c ****   *         used for the master I2S peripheral. In this case, if the master is 
 698:../Shared/Libraries/STM32F4xx_StdPeriph_Driver/src/stm32f4xx_spi.c ****   *         configured as transmitter, the slave will be receiver and vice versa.
ARM GAS  /tmp/ccTxF6x3.s 			page 34


 699:../Shared/Libraries/STM32F4xx_StdPeriph_Driver/src/stm32f4xx_spi.c ****   *         Or you can force a different mode by modifying the field I2S_Mode to the
 700:../Shared/Libraries/STM32F4xx_StdPeriph_Driver/src/stm32f4xx_spi.c ****   *         value I2S_SlaveRx or I2S_SlaveTx indepedently of the master configuration.    
 701:../Shared/Libraries/STM32F4xx_StdPeriph_Driver/src/stm32f4xx_spi.c ****   *         
 702:../Shared/Libraries/STM32F4xx_StdPeriph_Driver/src/stm32f4xx_spi.c ****   * @note   The I2S full duplex extension can be configured in slave mode only.    
 703:../Shared/Libraries/STM32F4xx_StdPeriph_Driver/src/stm32f4xx_spi.c ****   *  
 704:../Shared/Libraries/STM32F4xx_StdPeriph_Driver/src/stm32f4xx_spi.c ****   * @retval None
 705:../Shared/Libraries/STM32F4xx_StdPeriph_Driver/src/stm32f4xx_spi.c ****   */
 706:../Shared/Libraries/STM32F4xx_StdPeriph_Driver/src/stm32f4xx_spi.c **** void I2S_FullDuplexConfig(SPI_TypeDef* I2Sxext, I2S_InitTypeDef* I2S_InitStruct)
 707:../Shared/Libraries/STM32F4xx_StdPeriph_Driver/src/stm32f4xx_spi.c **** {
 1180              		.loc 1 707 1
 1181              		.cfi_startproc
 1182              		@ args = 0, pretend = 0, frame = 16
 1183              		@ frame_needed = 1, uses_anonymous_args = 0
 1184              		@ link register save eliminated.
 1185 0000 80B4     		push	{r7}
 1186              	.LCFI71:
 1187              		.cfi_def_cfa_offset 4
 1188              		.cfi_offset 7, -4
 1189 0002 85B0     		sub	sp, sp, #20
 1190              	.LCFI72:
 1191              		.cfi_def_cfa_offset 24
 1192 0004 00AF     		add	r7, sp, #0
 1193              	.LCFI73:
 1194              		.cfi_def_cfa_register 7
 1195 0006 7860     		str	r0, [r7, #4]
 1196 0008 3960     		str	r1, [r7]
 708:../Shared/Libraries/STM32F4xx_StdPeriph_Driver/src/stm32f4xx_spi.c ****   uint16_t tmpreg = 0, tmp = 0;
 1197              		.loc 1 708 12
 1198 000a 0023     		movs	r3, #0
 1199 000c BB81     		strh	r3, [r7, #12]	@ movhi
 1200              		.loc 1 708 24
 1201 000e 0023     		movs	r3, #0
 1202 0010 FB81     		strh	r3, [r7, #14]	@ movhi
 709:../Shared/Libraries/STM32F4xx_StdPeriph_Driver/src/stm32f4xx_spi.c ****   
 710:../Shared/Libraries/STM32F4xx_StdPeriph_Driver/src/stm32f4xx_spi.c ****   /* Check the I2S parameters */
 711:../Shared/Libraries/STM32F4xx_StdPeriph_Driver/src/stm32f4xx_spi.c ****   assert_param(IS_I2S_EXT_PERIPH(I2Sxext));
 712:../Shared/Libraries/STM32F4xx_StdPeriph_Driver/src/stm32f4xx_spi.c ****   assert_param(IS_I2S_MODE(I2S_InitStruct->I2S_Mode));
 713:../Shared/Libraries/STM32F4xx_StdPeriph_Driver/src/stm32f4xx_spi.c ****   assert_param(IS_I2S_STANDARD(I2S_InitStruct->I2S_Standard));
 714:../Shared/Libraries/STM32F4xx_StdPeriph_Driver/src/stm32f4xx_spi.c ****   assert_param(IS_I2S_DATA_FORMAT(I2S_InitStruct->I2S_DataFormat));
 715:../Shared/Libraries/STM32F4xx_StdPeriph_Driver/src/stm32f4xx_spi.c ****   assert_param(IS_I2S_CPOL(I2S_InitStruct->I2S_CPOL));  
 716:../Shared/Libraries/STM32F4xx_StdPeriph_Driver/src/stm32f4xx_spi.c **** 
 717:../Shared/Libraries/STM32F4xx_StdPeriph_Driver/src/stm32f4xx_spi.c **** /*----------------------- SPIx I2SCFGR & I2SPR Configuration -----------------*/
 718:../Shared/Libraries/STM32F4xx_StdPeriph_Driver/src/stm32f4xx_spi.c ****   /* Clear I2SMOD, I2SE, I2SCFG, PCMSYNC, I2SSTD, CKPOL, DATLEN and CHLEN bits */
 719:../Shared/Libraries/STM32F4xx_StdPeriph_Driver/src/stm32f4xx_spi.c ****   I2Sxext->I2SCFGR &= I2SCFGR_CLEAR_MASK; 
 1203              		.loc 1 719 10
 1204 0012 7B68     		ldr	r3, [r7, #4]
 1205 0014 9B8B     		ldrh	r3, [r3, #28]	@ movhi
 1206 0016 9BB2     		uxth	r3, r3
 1207              		.loc 1 719 20
 1208 0018 23F47B63 		bic	r3, r3, #4016
 1209 001c 23F00F03 		bic	r3, r3, #15
 1210 0020 9AB2     		uxth	r2, r3
 1211 0022 7B68     		ldr	r3, [r7, #4]
 1212 0024 9A83     		strh	r2, [r3, #28]	@ movhi
 720:../Shared/Libraries/STM32F4xx_StdPeriph_Driver/src/stm32f4xx_spi.c ****   I2Sxext->I2SPR = 0x0002;
 1213              		.loc 1 720 18
 1214 0026 7B68     		ldr	r3, [r7, #4]
ARM GAS  /tmp/ccTxF6x3.s 			page 35


 1215 0028 0222     		movs	r2, #2
 1216 002a 1A84     		strh	r2, [r3, #32]	@ movhi
 721:../Shared/Libraries/STM32F4xx_StdPeriph_Driver/src/stm32f4xx_spi.c ****   
 722:../Shared/Libraries/STM32F4xx_StdPeriph_Driver/src/stm32f4xx_spi.c ****   /* Get the I2SCFGR register value */
 723:../Shared/Libraries/STM32F4xx_StdPeriph_Driver/src/stm32f4xx_spi.c ****   tmpreg = I2Sxext->I2SCFGR;
 1217              		.loc 1 723 10
 1218 002c 7B68     		ldr	r3, [r7, #4]
 1219 002e 9B8B     		ldrh	r3, [r3, #28]	@ movhi
 1220 0030 BB81     		strh	r3, [r7, #12]	@ movhi
 724:../Shared/Libraries/STM32F4xx_StdPeriph_Driver/src/stm32f4xx_spi.c ****   
 725:../Shared/Libraries/STM32F4xx_StdPeriph_Driver/src/stm32f4xx_spi.c ****   /* Get the mode to be configured for the extended I2S */
 726:../Shared/Libraries/STM32F4xx_StdPeriph_Driver/src/stm32f4xx_spi.c ****   if ((I2S_InitStruct->I2S_Mode == I2S_Mode_MasterTx) || (I2S_InitStruct->I2S_Mode == I2S_Mode_Slav
 1221              		.loc 1 726 22
 1222 0032 3B68     		ldr	r3, [r7]
 1223 0034 1B88     		ldrh	r3, [r3]
 1224              		.loc 1 726 6
 1225 0036 B3F5007F 		cmp	r3, #512
 1226 003a 03D0     		beq	.L49
 1227              		.loc 1 726 73 discriminator 1
 1228 003c 3B68     		ldr	r3, [r7]
 1229 003e 1B88     		ldrh	r3, [r3]
 1230              		.loc 1 726 55 discriminator 1
 1231 0040 002B     		cmp	r3, #0
 1232 0042 03D1     		bne	.L50
 1233              	.L49:
 727:../Shared/Libraries/STM32F4xx_StdPeriph_Driver/src/stm32f4xx_spi.c ****   {
 728:../Shared/Libraries/STM32F4xx_StdPeriph_Driver/src/stm32f4xx_spi.c ****     tmp = I2S_Mode_SlaveRx;
 1234              		.loc 1 728 9
 1235 0044 4FF48073 		mov	r3, #256
 1236 0048 FB81     		strh	r3, [r7, #14]	@ movhi
 1237 004a 0BE0     		b	.L51
 1238              	.L50:
 729:../Shared/Libraries/STM32F4xx_StdPeriph_Driver/src/stm32f4xx_spi.c ****   }
 730:../Shared/Libraries/STM32F4xx_StdPeriph_Driver/src/stm32f4xx_spi.c ****   else
 731:../Shared/Libraries/STM32F4xx_StdPeriph_Driver/src/stm32f4xx_spi.c ****   {
 732:../Shared/Libraries/STM32F4xx_StdPeriph_Driver/src/stm32f4xx_spi.c ****     if ((I2S_InitStruct->I2S_Mode == I2S_Mode_MasterRx) || (I2S_InitStruct->I2S_Mode == I2S_Mode_Sl
 1239              		.loc 1 732 24
 1240 004c 3B68     		ldr	r3, [r7]
 1241 004e 1B88     		ldrh	r3, [r3]
 1242              		.loc 1 732 8
 1243 0050 B3F5407F 		cmp	r3, #768
 1244 0054 04D0     		beq	.L52
 1245              		.loc 1 732 75 discriminator 1
 1246 0056 3B68     		ldr	r3, [r7]
 1247 0058 1B88     		ldrh	r3, [r3]
 1248              		.loc 1 732 57 discriminator 1
 1249 005a B3F5807F 		cmp	r3, #256
 1250 005e 01D1     		bne	.L51
 1251              	.L52:
 733:../Shared/Libraries/STM32F4xx_StdPeriph_Driver/src/stm32f4xx_spi.c ****     {
 734:../Shared/Libraries/STM32F4xx_StdPeriph_Driver/src/stm32f4xx_spi.c ****       tmp = I2S_Mode_SlaveTx;
 1252              		.loc 1 734 11
 1253 0060 0023     		movs	r3, #0
 1254 0062 FB81     		strh	r3, [r7, #14]	@ movhi
 1255              	.L51:
 735:../Shared/Libraries/STM32F4xx_StdPeriph_Driver/src/stm32f4xx_spi.c ****     }
 736:../Shared/Libraries/STM32F4xx_StdPeriph_Driver/src/stm32f4xx_spi.c ****   }
ARM GAS  /tmp/ccTxF6x3.s 			page 36


 737:../Shared/Libraries/STM32F4xx_StdPeriph_Driver/src/stm32f4xx_spi.c **** 
 738:../Shared/Libraries/STM32F4xx_StdPeriph_Driver/src/stm32f4xx_spi.c ****  
 739:../Shared/Libraries/STM32F4xx_StdPeriph_Driver/src/stm32f4xx_spi.c ****   /* Configure the I2S with the SPI_InitStruct values */
 740:../Shared/Libraries/STM32F4xx_StdPeriph_Driver/src/stm32f4xx_spi.c ****   tmpreg |= (uint16_t)((uint16_t)SPI_I2SCFGR_I2SMOD | (uint16_t)(tmp | \
 741:../Shared/Libraries/STM32F4xx_StdPeriph_Driver/src/stm32f4xx_spi.c ****                   (uint16_t)(I2S_InitStruct->I2S_Standard | (uint16_t)(I2S_InitStruct->I2S_DataForm
 1256              		.loc 1 741 44
 1257 0064 3B68     		ldr	r3, [r7]
 1258 0066 5A88     		ldrh	r2, [r3, #2]
 1259              		.loc 1 741 86
 1260 0068 3B68     		ldr	r3, [r7]
 1261 006a 9988     		ldrh	r1, [r3, #4]
 742:../Shared/Libraries/STM32F4xx_StdPeriph_Driver/src/stm32f4xx_spi.c ****                   (uint16_t)I2S_InitStruct->I2S_CPOL))));
 1262              		.loc 1 742 43
 1263 006c 3B68     		ldr	r3, [r7]
 1264 006e 9B89     		ldrh	r3, [r3, #12]
 741:../Shared/Libraries/STM32F4xx_StdPeriph_Driver/src/stm32f4xx_spi.c ****                   (uint16_t)I2S_InitStruct->I2S_CPOL))));
 1265              		.loc 1 741 61
 1266 0070 0B43     		orrs	r3, r3, r1
 1267 0072 9BB2     		uxth	r3, r3
 741:../Shared/Libraries/STM32F4xx_StdPeriph_Driver/src/stm32f4xx_spi.c ****                   (uint16_t)I2S_InitStruct->I2S_CPOL))));
 1268              		.loc 1 741 19
 1269 0074 1343     		orrs	r3, r3, r2
 1270 0076 9AB2     		uxth	r2, r3
 740:../Shared/Libraries/STM32F4xx_StdPeriph_Driver/src/stm32f4xx_spi.c ****                   (uint16_t)(I2S_InitStruct->I2S_Standard | (uint16_t)(I2S_InitStruct->I2S_DataForm
 1271              		.loc 1 740 55
 1272 0078 FB89     		ldrh	r3, [r7, #14]	@ movhi
 1273 007a 1343     		orrs	r3, r3, r2
 1274 007c 9AB2     		uxth	r2, r3
 740:../Shared/Libraries/STM32F4xx_StdPeriph_Driver/src/stm32f4xx_spi.c ****                   (uint16_t)(I2S_InitStruct->I2S_Standard | (uint16_t)(I2S_InitStruct->I2S_DataForm
 1275              		.loc 1 740 10
 1276 007e BB89     		ldrh	r3, [r7, #12]	@ movhi
 1277 0080 1343     		orrs	r3, r3, r2
 1278 0082 9BB2     		uxth	r3, r3
 1279 0084 43F40063 		orr	r3, r3, #2048
 1280 0088 BB81     		strh	r3, [r7, #12]	@ movhi
 743:../Shared/Libraries/STM32F4xx_StdPeriph_Driver/src/stm32f4xx_spi.c ****  
 744:../Shared/Libraries/STM32F4xx_StdPeriph_Driver/src/stm32f4xx_spi.c ****   /* Write to SPIx I2SCFGR */  
 745:../Shared/Libraries/STM32F4xx_StdPeriph_Driver/src/stm32f4xx_spi.c ****   I2Sxext->I2SCFGR = tmpreg;
 1281              		.loc 1 745 20
 1282 008a 7B68     		ldr	r3, [r7, #4]
 1283 008c BA89     		ldrh	r2, [r7, #12]	@ movhi
 1284 008e 9A83     		strh	r2, [r3, #28]	@ movhi
 746:../Shared/Libraries/STM32F4xx_StdPeriph_Driver/src/stm32f4xx_spi.c **** }
 1285              		.loc 1 746 1
 1286 0090 00BF     		nop
 1287 0092 1437     		adds	r7, r7, #20
 1288              	.LCFI74:
 1289              		.cfi_def_cfa_offset 4
 1290 0094 BD46     		mov	sp, r7
 1291              	.LCFI75:
 1292              		.cfi_def_cfa_register 13
 1293              		@ sp needed
 1294 0096 5DF8047B 		ldr	r7, [sp], #4
 1295              	.LCFI76:
 1296              		.cfi_restore 7
 1297              		.cfi_def_cfa_offset 0
 1298 009a 7047     		bx	lr
ARM GAS  /tmp/ccTxF6x3.s 			page 37


 1299              		.cfi_endproc
 1300              	.LFE122:
 1302              		.section	.text.SPI_I2S_ReceiveData,"ax",%progbits
 1303              		.align	1
 1304              		.global	SPI_I2S_ReceiveData
 1305              		.syntax unified
 1306              		.thumb
 1307              		.thumb_func
 1309              	SPI_I2S_ReceiveData:
 1310              	.LFB123:
 747:../Shared/Libraries/STM32F4xx_StdPeriph_Driver/src/stm32f4xx_spi.c **** 
 748:../Shared/Libraries/STM32F4xx_StdPeriph_Driver/src/stm32f4xx_spi.c **** /**
 749:../Shared/Libraries/STM32F4xx_StdPeriph_Driver/src/stm32f4xx_spi.c ****   * @}
 750:../Shared/Libraries/STM32F4xx_StdPeriph_Driver/src/stm32f4xx_spi.c ****   */
 751:../Shared/Libraries/STM32F4xx_StdPeriph_Driver/src/stm32f4xx_spi.c **** 
 752:../Shared/Libraries/STM32F4xx_StdPeriph_Driver/src/stm32f4xx_spi.c **** /** @defgroup SPI_Group2 Data transfers functions
 753:../Shared/Libraries/STM32F4xx_StdPeriph_Driver/src/stm32f4xx_spi.c ****  *  @brief   Data transfers functions
 754:../Shared/Libraries/STM32F4xx_StdPeriph_Driver/src/stm32f4xx_spi.c ****  *
 755:../Shared/Libraries/STM32F4xx_StdPeriph_Driver/src/stm32f4xx_spi.c **** @verbatim   
 756:../Shared/Libraries/STM32F4xx_StdPeriph_Driver/src/stm32f4xx_spi.c ****  ===============================================================================
 757:../Shared/Libraries/STM32F4xx_StdPeriph_Driver/src/stm32f4xx_spi.c ****                          Data transfers functions
 758:../Shared/Libraries/STM32F4xx_StdPeriph_Driver/src/stm32f4xx_spi.c ****  ===============================================================================  
 759:../Shared/Libraries/STM32F4xx_StdPeriph_Driver/src/stm32f4xx_spi.c **** 
 760:../Shared/Libraries/STM32F4xx_StdPeriph_Driver/src/stm32f4xx_spi.c ****   This section provides a set of functions allowing to manage the SPI data transfers
 761:../Shared/Libraries/STM32F4xx_StdPeriph_Driver/src/stm32f4xx_spi.c ****   
 762:../Shared/Libraries/STM32F4xx_StdPeriph_Driver/src/stm32f4xx_spi.c ****   In reception, data are received and then stored into an internal Rx buffer while 
 763:../Shared/Libraries/STM32F4xx_StdPeriph_Driver/src/stm32f4xx_spi.c ****   In transmission, data are first stored into an internal Tx buffer before being 
 764:../Shared/Libraries/STM32F4xx_StdPeriph_Driver/src/stm32f4xx_spi.c ****   transmitted.
 765:../Shared/Libraries/STM32F4xx_StdPeriph_Driver/src/stm32f4xx_spi.c **** 
 766:../Shared/Libraries/STM32F4xx_StdPeriph_Driver/src/stm32f4xx_spi.c ****   The read access of the SPI_DR register can be done using the SPI_I2S_ReceiveData()
 767:../Shared/Libraries/STM32F4xx_StdPeriph_Driver/src/stm32f4xx_spi.c ****   function and returns the Rx buffered value. Whereas a write access to the SPI_DR 
 768:../Shared/Libraries/STM32F4xx_StdPeriph_Driver/src/stm32f4xx_spi.c ****   can be done using SPI_I2S_SendData() function and stores the written data into 
 769:../Shared/Libraries/STM32F4xx_StdPeriph_Driver/src/stm32f4xx_spi.c ****   Tx buffer.
 770:../Shared/Libraries/STM32F4xx_StdPeriph_Driver/src/stm32f4xx_spi.c **** 
 771:../Shared/Libraries/STM32F4xx_StdPeriph_Driver/src/stm32f4xx_spi.c **** @endverbatim
 772:../Shared/Libraries/STM32F4xx_StdPeriph_Driver/src/stm32f4xx_spi.c ****   * @{
 773:../Shared/Libraries/STM32F4xx_StdPeriph_Driver/src/stm32f4xx_spi.c ****   */
 774:../Shared/Libraries/STM32F4xx_StdPeriph_Driver/src/stm32f4xx_spi.c **** 
 775:../Shared/Libraries/STM32F4xx_StdPeriph_Driver/src/stm32f4xx_spi.c **** /**
 776:../Shared/Libraries/STM32F4xx_StdPeriph_Driver/src/stm32f4xx_spi.c ****   * @brief  Returns the most recent received data by the SPIx/I2Sx peripheral. 
 777:../Shared/Libraries/STM32F4xx_StdPeriph_Driver/src/stm32f4xx_spi.c ****   * @param  SPIx: To select the SPIx/I2Sx peripheral, where x can be: 1, 2 or 3 
 778:../Shared/Libraries/STM32F4xx_StdPeriph_Driver/src/stm32f4xx_spi.c ****   *         in SPI mode or 2 or 3 in I2S mode or I2Sxext for I2S full duplex mode. 
 779:../Shared/Libraries/STM32F4xx_StdPeriph_Driver/src/stm32f4xx_spi.c ****   * @retval The value of the received data.
 780:../Shared/Libraries/STM32F4xx_StdPeriph_Driver/src/stm32f4xx_spi.c ****   */
 781:../Shared/Libraries/STM32F4xx_StdPeriph_Driver/src/stm32f4xx_spi.c **** uint16_t SPI_I2S_ReceiveData(SPI_TypeDef* SPIx)
 782:../Shared/Libraries/STM32F4xx_StdPeriph_Driver/src/stm32f4xx_spi.c **** {
 1311              		.loc 1 782 1
 1312              		.cfi_startproc
 1313              		@ args = 0, pretend = 0, frame = 8
 1314              		@ frame_needed = 1, uses_anonymous_args = 0
 1315              		@ link register save eliminated.
 1316 0000 80B4     		push	{r7}
 1317              	.LCFI77:
 1318              		.cfi_def_cfa_offset 4
 1319              		.cfi_offset 7, -4
 1320 0002 83B0     		sub	sp, sp, #12
 1321              	.LCFI78:
ARM GAS  /tmp/ccTxF6x3.s 			page 38


 1322              		.cfi_def_cfa_offset 16
 1323 0004 00AF     		add	r7, sp, #0
 1324              	.LCFI79:
 1325              		.cfi_def_cfa_register 7
 1326 0006 7860     		str	r0, [r7, #4]
 783:../Shared/Libraries/STM32F4xx_StdPeriph_Driver/src/stm32f4xx_spi.c ****   /* Check the parameters */
 784:../Shared/Libraries/STM32F4xx_StdPeriph_Driver/src/stm32f4xx_spi.c ****   assert_param(IS_SPI_ALL_PERIPH_EXT(SPIx));
 785:../Shared/Libraries/STM32F4xx_StdPeriph_Driver/src/stm32f4xx_spi.c ****   
 786:../Shared/Libraries/STM32F4xx_StdPeriph_Driver/src/stm32f4xx_spi.c ****   /* Return the data in the DR register */
 787:../Shared/Libraries/STM32F4xx_StdPeriph_Driver/src/stm32f4xx_spi.c ****   return SPIx->DR;
 1327              		.loc 1 787 14
 1328 0008 7B68     		ldr	r3, [r7, #4]
 1329 000a 9B89     		ldrh	r3, [r3, #12]	@ movhi
 1330 000c 9BB2     		uxth	r3, r3
 788:../Shared/Libraries/STM32F4xx_StdPeriph_Driver/src/stm32f4xx_spi.c **** }
 1331              		.loc 1 788 1
 1332 000e 1846     		mov	r0, r3
 1333 0010 0C37     		adds	r7, r7, #12
 1334              	.LCFI80:
 1335              		.cfi_def_cfa_offset 4
 1336 0012 BD46     		mov	sp, r7
 1337              	.LCFI81:
 1338              		.cfi_def_cfa_register 13
 1339              		@ sp needed
 1340 0014 5DF8047B 		ldr	r7, [sp], #4
 1341              	.LCFI82:
 1342              		.cfi_restore 7
 1343              		.cfi_def_cfa_offset 0
 1344 0018 7047     		bx	lr
 1345              		.cfi_endproc
 1346              	.LFE123:
 1348              		.section	.text.SPI_I2S_SendData,"ax",%progbits
 1349              		.align	1
 1350              		.global	SPI_I2S_SendData
 1351              		.syntax unified
 1352              		.thumb
 1353              		.thumb_func
 1355              	SPI_I2S_SendData:
 1356              	.LFB124:
 789:../Shared/Libraries/STM32F4xx_StdPeriph_Driver/src/stm32f4xx_spi.c **** 
 790:../Shared/Libraries/STM32F4xx_StdPeriph_Driver/src/stm32f4xx_spi.c **** /**
 791:../Shared/Libraries/STM32F4xx_StdPeriph_Driver/src/stm32f4xx_spi.c ****   * @brief  Transmits a Data through the SPIx/I2Sx peripheral.
 792:../Shared/Libraries/STM32F4xx_StdPeriph_Driver/src/stm32f4xx_spi.c ****   * @param  SPIx: To select the SPIx/I2Sx peripheral, where x can be: 1, 2 or 3 
 793:../Shared/Libraries/STM32F4xx_StdPeriph_Driver/src/stm32f4xx_spi.c ****   *         in SPI mode or 2 or 3 in I2S mode or I2Sxext for I2S full duplex mode.     
 794:../Shared/Libraries/STM32F4xx_StdPeriph_Driver/src/stm32f4xx_spi.c ****   * @param  Data: Data to be transmitted.
 795:../Shared/Libraries/STM32F4xx_StdPeriph_Driver/src/stm32f4xx_spi.c ****   * @retval None
 796:../Shared/Libraries/STM32F4xx_StdPeriph_Driver/src/stm32f4xx_spi.c ****   */
 797:../Shared/Libraries/STM32F4xx_StdPeriph_Driver/src/stm32f4xx_spi.c **** void SPI_I2S_SendData(SPI_TypeDef* SPIx, uint16_t Data)
 798:../Shared/Libraries/STM32F4xx_StdPeriph_Driver/src/stm32f4xx_spi.c **** {
 1357              		.loc 1 798 1
 1358              		.cfi_startproc
 1359              		@ args = 0, pretend = 0, frame = 8
 1360              		@ frame_needed = 1, uses_anonymous_args = 0
 1361              		@ link register save eliminated.
 1362 0000 80B4     		push	{r7}
 1363              	.LCFI83:
 1364              		.cfi_def_cfa_offset 4
ARM GAS  /tmp/ccTxF6x3.s 			page 39


 1365              		.cfi_offset 7, -4
 1366 0002 83B0     		sub	sp, sp, #12
 1367              	.LCFI84:
 1368              		.cfi_def_cfa_offset 16
 1369 0004 00AF     		add	r7, sp, #0
 1370              	.LCFI85:
 1371              		.cfi_def_cfa_register 7
 1372 0006 7860     		str	r0, [r7, #4]
 1373 0008 0B46     		mov	r3, r1
 1374 000a 7B80     		strh	r3, [r7, #2]	@ movhi
 799:../Shared/Libraries/STM32F4xx_StdPeriph_Driver/src/stm32f4xx_spi.c ****   /* Check the parameters */
 800:../Shared/Libraries/STM32F4xx_StdPeriph_Driver/src/stm32f4xx_spi.c ****   assert_param(IS_SPI_ALL_PERIPH_EXT(SPIx));
 801:../Shared/Libraries/STM32F4xx_StdPeriph_Driver/src/stm32f4xx_spi.c ****   
 802:../Shared/Libraries/STM32F4xx_StdPeriph_Driver/src/stm32f4xx_spi.c ****   /* Write in the DR register the data to be sent */
 803:../Shared/Libraries/STM32F4xx_StdPeriph_Driver/src/stm32f4xx_spi.c ****   SPIx->DR = Data;
 1375              		.loc 1 803 12
 1376 000c 7B68     		ldr	r3, [r7, #4]
 1377 000e 7A88     		ldrh	r2, [r7, #2]	@ movhi
 1378 0010 9A81     		strh	r2, [r3, #12]	@ movhi
 804:../Shared/Libraries/STM32F4xx_StdPeriph_Driver/src/stm32f4xx_spi.c **** }
 1379              		.loc 1 804 1
 1380 0012 00BF     		nop
 1381 0014 0C37     		adds	r7, r7, #12
 1382              	.LCFI86:
 1383              		.cfi_def_cfa_offset 4
 1384 0016 BD46     		mov	sp, r7
 1385              	.LCFI87:
 1386              		.cfi_def_cfa_register 13
 1387              		@ sp needed
 1388 0018 5DF8047B 		ldr	r7, [sp], #4
 1389              	.LCFI88:
 1390              		.cfi_restore 7
 1391              		.cfi_def_cfa_offset 0
 1392 001c 7047     		bx	lr
 1393              		.cfi_endproc
 1394              	.LFE124:
 1396              		.section	.text.SPI_CalculateCRC,"ax",%progbits
 1397              		.align	1
 1398              		.global	SPI_CalculateCRC
 1399              		.syntax unified
 1400              		.thumb
 1401              		.thumb_func
 1403              	SPI_CalculateCRC:
 1404              	.LFB125:
 805:../Shared/Libraries/STM32F4xx_StdPeriph_Driver/src/stm32f4xx_spi.c **** 
 806:../Shared/Libraries/STM32F4xx_StdPeriph_Driver/src/stm32f4xx_spi.c **** /**
 807:../Shared/Libraries/STM32F4xx_StdPeriph_Driver/src/stm32f4xx_spi.c ****   * @}
 808:../Shared/Libraries/STM32F4xx_StdPeriph_Driver/src/stm32f4xx_spi.c ****   */
 809:../Shared/Libraries/STM32F4xx_StdPeriph_Driver/src/stm32f4xx_spi.c **** 
 810:../Shared/Libraries/STM32F4xx_StdPeriph_Driver/src/stm32f4xx_spi.c **** /** @defgroup SPI_Group3 Hardware CRC Calculation functions
 811:../Shared/Libraries/STM32F4xx_StdPeriph_Driver/src/stm32f4xx_spi.c ****  *  @brief   Hardware CRC Calculation functions
 812:../Shared/Libraries/STM32F4xx_StdPeriph_Driver/src/stm32f4xx_spi.c ****  *
 813:../Shared/Libraries/STM32F4xx_StdPeriph_Driver/src/stm32f4xx_spi.c **** @verbatim   
 814:../Shared/Libraries/STM32F4xx_StdPeriph_Driver/src/stm32f4xx_spi.c ****  ===============================================================================
 815:../Shared/Libraries/STM32F4xx_StdPeriph_Driver/src/stm32f4xx_spi.c ****                          Hardware CRC Calculation functions
 816:../Shared/Libraries/STM32F4xx_StdPeriph_Driver/src/stm32f4xx_spi.c ****  ===============================================================================  
 817:../Shared/Libraries/STM32F4xx_StdPeriph_Driver/src/stm32f4xx_spi.c **** 
ARM GAS  /tmp/ccTxF6x3.s 			page 40


 818:../Shared/Libraries/STM32F4xx_StdPeriph_Driver/src/stm32f4xx_spi.c ****   This section provides a set of functions allowing to manage the SPI CRC hardware 
 819:../Shared/Libraries/STM32F4xx_StdPeriph_Driver/src/stm32f4xx_spi.c ****   calculation
 820:../Shared/Libraries/STM32F4xx_StdPeriph_Driver/src/stm32f4xx_spi.c **** 
 821:../Shared/Libraries/STM32F4xx_StdPeriph_Driver/src/stm32f4xx_spi.c ****   SPI communication using CRC is possible through the following procedure:
 822:../Shared/Libraries/STM32F4xx_StdPeriph_Driver/src/stm32f4xx_spi.c ****      1. Program the Data direction, Polarity, Phase, First Data, Baud Rate Prescaler, 
 823:../Shared/Libraries/STM32F4xx_StdPeriph_Driver/src/stm32f4xx_spi.c ****         Slave Management, Peripheral Mode and CRC Polynomial values using the SPI_Init()
 824:../Shared/Libraries/STM32F4xx_StdPeriph_Driver/src/stm32f4xx_spi.c ****         function.
 825:../Shared/Libraries/STM32F4xx_StdPeriph_Driver/src/stm32f4xx_spi.c ****      2. Enable the CRC calculation using the SPI_CalculateCRC() function.
 826:../Shared/Libraries/STM32F4xx_StdPeriph_Driver/src/stm32f4xx_spi.c ****      3. Enable the SPI using the SPI_Cmd() function
 827:../Shared/Libraries/STM32F4xx_StdPeriph_Driver/src/stm32f4xx_spi.c ****      4. Before writing the last data to the TX buffer, set the CRCNext bit using the 
 828:../Shared/Libraries/STM32F4xx_StdPeriph_Driver/src/stm32f4xx_spi.c ****       SPI_TransmitCRC() function to indicate that after transmission of the last 
 829:../Shared/Libraries/STM32F4xx_StdPeriph_Driver/src/stm32f4xx_spi.c ****       data, the CRC should be transmitted.
 830:../Shared/Libraries/STM32F4xx_StdPeriph_Driver/src/stm32f4xx_spi.c ****      5. After transmitting the last data, the SPI transmits the CRC. The SPI_CR1_CRCNEXT
 831:../Shared/Libraries/STM32F4xx_StdPeriph_Driver/src/stm32f4xx_spi.c ****         bit is reset. The CRC is also received and compared against the SPI_RXCRCR 
 832:../Shared/Libraries/STM32F4xx_StdPeriph_Driver/src/stm32f4xx_spi.c ****         value. 
 833:../Shared/Libraries/STM32F4xx_StdPeriph_Driver/src/stm32f4xx_spi.c ****         If the value does not match, the SPI_FLAG_CRCERR flag is set and an interrupt
 834:../Shared/Libraries/STM32F4xx_StdPeriph_Driver/src/stm32f4xx_spi.c ****         can be generated when the SPI_I2S_IT_ERR interrupt is enabled.
 835:../Shared/Libraries/STM32F4xx_StdPeriph_Driver/src/stm32f4xx_spi.c **** 
 836:../Shared/Libraries/STM32F4xx_StdPeriph_Driver/src/stm32f4xx_spi.c **** @note It is advised not to read the calculated CRC values during the communication.
 837:../Shared/Libraries/STM32F4xx_StdPeriph_Driver/src/stm32f4xx_spi.c **** 
 838:../Shared/Libraries/STM32F4xx_StdPeriph_Driver/src/stm32f4xx_spi.c **** @note When the SPI is in slave mode, be careful to enable CRC calculation only 
 839:../Shared/Libraries/STM32F4xx_StdPeriph_Driver/src/stm32f4xx_spi.c ****       when the clock is stable, that is, when the clock is in the steady state. 
 840:../Shared/Libraries/STM32F4xx_StdPeriph_Driver/src/stm32f4xx_spi.c ****       If not, a wrong CRC calculation may be done. In fact, the CRC is sensitive 
 841:../Shared/Libraries/STM32F4xx_StdPeriph_Driver/src/stm32f4xx_spi.c ****       to the SCK slave input clock as soon as CRCEN is set, and this, whatever 
 842:../Shared/Libraries/STM32F4xx_StdPeriph_Driver/src/stm32f4xx_spi.c ****       the value of the SPE bit.
 843:../Shared/Libraries/STM32F4xx_StdPeriph_Driver/src/stm32f4xx_spi.c **** 
 844:../Shared/Libraries/STM32F4xx_StdPeriph_Driver/src/stm32f4xx_spi.c **** @note With high bitrate frequencies, be careful when transmitting the CRC.
 845:../Shared/Libraries/STM32F4xx_StdPeriph_Driver/src/stm32f4xx_spi.c ****       As the number of used CPU cycles has to be as low as possible in the CRC 
 846:../Shared/Libraries/STM32F4xx_StdPeriph_Driver/src/stm32f4xx_spi.c ****       transfer phase, it is forbidden to call software functions in the CRC 
 847:../Shared/Libraries/STM32F4xx_StdPeriph_Driver/src/stm32f4xx_spi.c ****       transmission sequence to avoid errors in the last data and CRC reception. 
 848:../Shared/Libraries/STM32F4xx_StdPeriph_Driver/src/stm32f4xx_spi.c ****       In fact, CRCNEXT bit has to be written before the end of the transmission/reception 
 849:../Shared/Libraries/STM32F4xx_StdPeriph_Driver/src/stm32f4xx_spi.c ****       of the last data.
 850:../Shared/Libraries/STM32F4xx_StdPeriph_Driver/src/stm32f4xx_spi.c **** 
 851:../Shared/Libraries/STM32F4xx_StdPeriph_Driver/src/stm32f4xx_spi.c **** @note For high bit rate frequencies, it is advised to use the DMA mode to avoid the
 852:../Shared/Libraries/STM32F4xx_StdPeriph_Driver/src/stm32f4xx_spi.c ****       degradation of the SPI speed performance due to CPU accesses impacting the 
 853:../Shared/Libraries/STM32F4xx_StdPeriph_Driver/src/stm32f4xx_spi.c ****       SPI bandwidth.
 854:../Shared/Libraries/STM32F4xx_StdPeriph_Driver/src/stm32f4xx_spi.c **** 
 855:../Shared/Libraries/STM32F4xx_StdPeriph_Driver/src/stm32f4xx_spi.c **** @note When the STM32F4xx is configured as slave and the NSS hardware mode is 
 856:../Shared/Libraries/STM32F4xx_StdPeriph_Driver/src/stm32f4xx_spi.c ****       used, the NSS pin needs to be kept low between the data phase and the CRC 
 857:../Shared/Libraries/STM32F4xx_StdPeriph_Driver/src/stm32f4xx_spi.c ****       phase.
 858:../Shared/Libraries/STM32F4xx_StdPeriph_Driver/src/stm32f4xx_spi.c **** 
 859:../Shared/Libraries/STM32F4xx_StdPeriph_Driver/src/stm32f4xx_spi.c **** @note When the SPI is configured in slave mode with the CRC feature enabled, CRC
 860:../Shared/Libraries/STM32F4xx_StdPeriph_Driver/src/stm32f4xx_spi.c ****       calculation takes place even if a high level is applied on the NSS pin. 
 861:../Shared/Libraries/STM32F4xx_StdPeriph_Driver/src/stm32f4xx_spi.c ****       This may happen for example in case of a multi-slave environment where the 
 862:../Shared/Libraries/STM32F4xx_StdPeriph_Driver/src/stm32f4xx_spi.c ****       communication master addresses slaves alternately.
 863:../Shared/Libraries/STM32F4xx_StdPeriph_Driver/src/stm32f4xx_spi.c **** 
 864:../Shared/Libraries/STM32F4xx_StdPeriph_Driver/src/stm32f4xx_spi.c **** @note Between a slave de-selection (high level on NSS) and a new slave selection 
 865:../Shared/Libraries/STM32F4xx_StdPeriph_Driver/src/stm32f4xx_spi.c ****       (low level on NSS), the CRC value should be cleared on both master and slave
 866:../Shared/Libraries/STM32F4xx_StdPeriph_Driver/src/stm32f4xx_spi.c ****       sides in order to resynchronize the master and slave for their respective 
 867:../Shared/Libraries/STM32F4xx_StdPeriph_Driver/src/stm32f4xx_spi.c ****       CRC calculation.
 868:../Shared/Libraries/STM32F4xx_StdPeriph_Driver/src/stm32f4xx_spi.c **** 
 869:../Shared/Libraries/STM32F4xx_StdPeriph_Driver/src/stm32f4xx_spi.c **** @note To clear the CRC, follow the procedure below:
 870:../Shared/Libraries/STM32F4xx_StdPeriph_Driver/src/stm32f4xx_spi.c ****         1. Disable SPI using the SPI_Cmd() function
 871:../Shared/Libraries/STM32F4xx_StdPeriph_Driver/src/stm32f4xx_spi.c ****         2. Disable the CRC calculation using the SPI_CalculateCRC() function.
 872:../Shared/Libraries/STM32F4xx_StdPeriph_Driver/src/stm32f4xx_spi.c ****         3. Enable the CRC calculation using the SPI_CalculateCRC() function.
 873:../Shared/Libraries/STM32F4xx_StdPeriph_Driver/src/stm32f4xx_spi.c ****         4. Enable SPI using the SPI_Cmd() function.
 874:../Shared/Libraries/STM32F4xx_StdPeriph_Driver/src/stm32f4xx_spi.c **** 
ARM GAS  /tmp/ccTxF6x3.s 			page 41


 875:../Shared/Libraries/STM32F4xx_StdPeriph_Driver/src/stm32f4xx_spi.c **** @endverbatim
 876:../Shared/Libraries/STM32F4xx_StdPeriph_Driver/src/stm32f4xx_spi.c ****   * @{
 877:../Shared/Libraries/STM32F4xx_StdPeriph_Driver/src/stm32f4xx_spi.c ****   */
 878:../Shared/Libraries/STM32F4xx_StdPeriph_Driver/src/stm32f4xx_spi.c **** 
 879:../Shared/Libraries/STM32F4xx_StdPeriph_Driver/src/stm32f4xx_spi.c **** /**
 880:../Shared/Libraries/STM32F4xx_StdPeriph_Driver/src/stm32f4xx_spi.c ****   * @brief  Enables or disables the CRC value calculation of the transferred bytes.
 881:../Shared/Libraries/STM32F4xx_StdPeriph_Driver/src/stm32f4xx_spi.c ****   * @param  SPIx: where x can be 1, 2 or 3 to select the SPI peripheral.
 882:../Shared/Libraries/STM32F4xx_StdPeriph_Driver/src/stm32f4xx_spi.c ****   * @param  NewState: new state of the SPIx CRC value calculation.
 883:../Shared/Libraries/STM32F4xx_StdPeriph_Driver/src/stm32f4xx_spi.c ****   *          This parameter can be: ENABLE or DISABLE.
 884:../Shared/Libraries/STM32F4xx_StdPeriph_Driver/src/stm32f4xx_spi.c ****   * @retval None
 885:../Shared/Libraries/STM32F4xx_StdPeriph_Driver/src/stm32f4xx_spi.c ****   */
 886:../Shared/Libraries/STM32F4xx_StdPeriph_Driver/src/stm32f4xx_spi.c **** void SPI_CalculateCRC(SPI_TypeDef* SPIx, FunctionalState NewState)
 887:../Shared/Libraries/STM32F4xx_StdPeriph_Driver/src/stm32f4xx_spi.c **** {
 1405              		.loc 1 887 1
 1406              		.cfi_startproc
 1407              		@ args = 0, pretend = 0, frame = 8
 1408              		@ frame_needed = 1, uses_anonymous_args = 0
 1409              		@ link register save eliminated.
 1410 0000 80B4     		push	{r7}
 1411              	.LCFI89:
 1412              		.cfi_def_cfa_offset 4
 1413              		.cfi_offset 7, -4
 1414 0002 83B0     		sub	sp, sp, #12
 1415              	.LCFI90:
 1416              		.cfi_def_cfa_offset 16
 1417 0004 00AF     		add	r7, sp, #0
 1418              	.LCFI91:
 1419              		.cfi_def_cfa_register 7
 1420 0006 7860     		str	r0, [r7, #4]
 1421 0008 0B46     		mov	r3, r1
 1422 000a FB70     		strb	r3, [r7, #3]
 888:../Shared/Libraries/STM32F4xx_StdPeriph_Driver/src/stm32f4xx_spi.c ****   /* Check the parameters */
 889:../Shared/Libraries/STM32F4xx_StdPeriph_Driver/src/stm32f4xx_spi.c ****   assert_param(IS_SPI_ALL_PERIPH(SPIx));
 890:../Shared/Libraries/STM32F4xx_StdPeriph_Driver/src/stm32f4xx_spi.c ****   assert_param(IS_FUNCTIONAL_STATE(NewState));
 891:../Shared/Libraries/STM32F4xx_StdPeriph_Driver/src/stm32f4xx_spi.c ****   if (NewState != DISABLE)
 1423              		.loc 1 891 6
 1424 000c FB78     		ldrb	r3, [r7, #3]	@ zero_extendqisi2
 1425 000e 002B     		cmp	r3, #0
 1426 0010 08D0     		beq	.L57
 892:../Shared/Libraries/STM32F4xx_StdPeriph_Driver/src/stm32f4xx_spi.c ****   {
 893:../Shared/Libraries/STM32F4xx_StdPeriph_Driver/src/stm32f4xx_spi.c ****     /* Enable the selected SPI CRC calculation */
 894:../Shared/Libraries/STM32F4xx_StdPeriph_Driver/src/stm32f4xx_spi.c ****     SPIx->CR1 |= SPI_CR1_CRCEN;
 1427              		.loc 1 894 9
 1428 0012 7B68     		ldr	r3, [r7, #4]
 1429 0014 1B88     		ldrh	r3, [r3]	@ movhi
 1430 0016 9BB2     		uxth	r3, r3
 1431              		.loc 1 894 15
 1432 0018 43F40053 		orr	r3, r3, #8192
 1433 001c 9AB2     		uxth	r2, r3
 1434 001e 7B68     		ldr	r3, [r7, #4]
 1435 0020 1A80     		strh	r2, [r3]	@ movhi
 895:../Shared/Libraries/STM32F4xx_StdPeriph_Driver/src/stm32f4xx_spi.c ****   }
 896:../Shared/Libraries/STM32F4xx_StdPeriph_Driver/src/stm32f4xx_spi.c ****   else
 897:../Shared/Libraries/STM32F4xx_StdPeriph_Driver/src/stm32f4xx_spi.c ****   {
 898:../Shared/Libraries/STM32F4xx_StdPeriph_Driver/src/stm32f4xx_spi.c ****     /* Disable the selected SPI CRC calculation */
 899:../Shared/Libraries/STM32F4xx_StdPeriph_Driver/src/stm32f4xx_spi.c ****     SPIx->CR1 &= (uint16_t)~((uint16_t)SPI_CR1_CRCEN);
 900:../Shared/Libraries/STM32F4xx_StdPeriph_Driver/src/stm32f4xx_spi.c ****   }
ARM GAS  /tmp/ccTxF6x3.s 			page 42


 901:../Shared/Libraries/STM32F4xx_StdPeriph_Driver/src/stm32f4xx_spi.c **** }
 1436              		.loc 1 901 1
 1437 0022 07E0     		b	.L59
 1438              	.L57:
 899:../Shared/Libraries/STM32F4xx_StdPeriph_Driver/src/stm32f4xx_spi.c ****   }
 1439              		.loc 1 899 9
 1440 0024 7B68     		ldr	r3, [r7, #4]
 1441 0026 1B88     		ldrh	r3, [r3]	@ movhi
 1442 0028 9BB2     		uxth	r3, r3
 899:../Shared/Libraries/STM32F4xx_StdPeriph_Driver/src/stm32f4xx_spi.c ****   }
 1443              		.loc 1 899 15
 1444 002a 23F40053 		bic	r3, r3, #8192
 1445 002e 9AB2     		uxth	r2, r3
 1446 0030 7B68     		ldr	r3, [r7, #4]
 1447 0032 1A80     		strh	r2, [r3]	@ movhi
 1448              	.L59:
 1449              		.loc 1 901 1
 1450 0034 00BF     		nop
 1451 0036 0C37     		adds	r7, r7, #12
 1452              	.LCFI92:
 1453              		.cfi_def_cfa_offset 4
 1454 0038 BD46     		mov	sp, r7
 1455              	.LCFI93:
 1456              		.cfi_def_cfa_register 13
 1457              		@ sp needed
 1458 003a 5DF8047B 		ldr	r7, [sp], #4
 1459              	.LCFI94:
 1460              		.cfi_restore 7
 1461              		.cfi_def_cfa_offset 0
 1462 003e 7047     		bx	lr
 1463              		.cfi_endproc
 1464              	.LFE125:
 1466              		.section	.text.SPI_TransmitCRC,"ax",%progbits
 1467              		.align	1
 1468              		.global	SPI_TransmitCRC
 1469              		.syntax unified
 1470              		.thumb
 1471              		.thumb_func
 1473              	SPI_TransmitCRC:
 1474              	.LFB126:
 902:../Shared/Libraries/STM32F4xx_StdPeriph_Driver/src/stm32f4xx_spi.c **** 
 903:../Shared/Libraries/STM32F4xx_StdPeriph_Driver/src/stm32f4xx_spi.c **** /**
 904:../Shared/Libraries/STM32F4xx_StdPeriph_Driver/src/stm32f4xx_spi.c ****   * @brief  Transmit the SPIx CRC value.
 905:../Shared/Libraries/STM32F4xx_StdPeriph_Driver/src/stm32f4xx_spi.c ****   * @param  SPIx: where x can be 1, 2 or 3 to select the SPI peripheral.
 906:../Shared/Libraries/STM32F4xx_StdPeriph_Driver/src/stm32f4xx_spi.c ****   * @retval None
 907:../Shared/Libraries/STM32F4xx_StdPeriph_Driver/src/stm32f4xx_spi.c ****   */
 908:../Shared/Libraries/STM32F4xx_StdPeriph_Driver/src/stm32f4xx_spi.c **** void SPI_TransmitCRC(SPI_TypeDef* SPIx)
 909:../Shared/Libraries/STM32F4xx_StdPeriph_Driver/src/stm32f4xx_spi.c **** {
 1475              		.loc 1 909 1
 1476              		.cfi_startproc
 1477              		@ args = 0, pretend = 0, frame = 8
 1478              		@ frame_needed = 1, uses_anonymous_args = 0
 1479              		@ link register save eliminated.
 1480 0000 80B4     		push	{r7}
 1481              	.LCFI95:
 1482              		.cfi_def_cfa_offset 4
 1483              		.cfi_offset 7, -4
ARM GAS  /tmp/ccTxF6x3.s 			page 43


 1484 0002 83B0     		sub	sp, sp, #12
 1485              	.LCFI96:
 1486              		.cfi_def_cfa_offset 16
 1487 0004 00AF     		add	r7, sp, #0
 1488              	.LCFI97:
 1489              		.cfi_def_cfa_register 7
 1490 0006 7860     		str	r0, [r7, #4]
 910:../Shared/Libraries/STM32F4xx_StdPeriph_Driver/src/stm32f4xx_spi.c ****   /* Check the parameters */
 911:../Shared/Libraries/STM32F4xx_StdPeriph_Driver/src/stm32f4xx_spi.c ****   assert_param(IS_SPI_ALL_PERIPH(SPIx));
 912:../Shared/Libraries/STM32F4xx_StdPeriph_Driver/src/stm32f4xx_spi.c ****   
 913:../Shared/Libraries/STM32F4xx_StdPeriph_Driver/src/stm32f4xx_spi.c ****   /* Enable the selected SPI CRC transmission */
 914:../Shared/Libraries/STM32F4xx_StdPeriph_Driver/src/stm32f4xx_spi.c ****   SPIx->CR1 |= SPI_CR1_CRCNEXT;
 1491              		.loc 1 914 7
 1492 0008 7B68     		ldr	r3, [r7, #4]
 1493 000a 1B88     		ldrh	r3, [r3]	@ movhi
 1494 000c 9BB2     		uxth	r3, r3
 1495              		.loc 1 914 13
 1496 000e 43F48053 		orr	r3, r3, #4096
 1497 0012 9AB2     		uxth	r2, r3
 1498 0014 7B68     		ldr	r3, [r7, #4]
 1499 0016 1A80     		strh	r2, [r3]	@ movhi
 915:../Shared/Libraries/STM32F4xx_StdPeriph_Driver/src/stm32f4xx_spi.c **** }
 1500              		.loc 1 915 1
 1501 0018 00BF     		nop
 1502 001a 0C37     		adds	r7, r7, #12
 1503              	.LCFI98:
 1504              		.cfi_def_cfa_offset 4
 1505 001c BD46     		mov	sp, r7
 1506              	.LCFI99:
 1507              		.cfi_def_cfa_register 13
 1508              		@ sp needed
 1509 001e 5DF8047B 		ldr	r7, [sp], #4
 1510              	.LCFI100:
 1511              		.cfi_restore 7
 1512              		.cfi_def_cfa_offset 0
 1513 0022 7047     		bx	lr
 1514              		.cfi_endproc
 1515              	.LFE126:
 1517              		.section	.text.SPI_GetCRC,"ax",%progbits
 1518              		.align	1
 1519              		.global	SPI_GetCRC
 1520              		.syntax unified
 1521              		.thumb
 1522              		.thumb_func
 1524              	SPI_GetCRC:
 1525              	.LFB127:
 916:../Shared/Libraries/STM32F4xx_StdPeriph_Driver/src/stm32f4xx_spi.c **** 
 917:../Shared/Libraries/STM32F4xx_StdPeriph_Driver/src/stm32f4xx_spi.c **** /**
 918:../Shared/Libraries/STM32F4xx_StdPeriph_Driver/src/stm32f4xx_spi.c ****   * @brief  Returns the transmit or the receive CRC register value for the specified SPI.
 919:../Shared/Libraries/STM32F4xx_StdPeriph_Driver/src/stm32f4xx_spi.c ****   * @param  SPIx: where x can be 1, 2 or 3 to select the SPI peripheral.
 920:../Shared/Libraries/STM32F4xx_StdPeriph_Driver/src/stm32f4xx_spi.c ****   * @param  SPI_CRC: specifies the CRC register to be read.
 921:../Shared/Libraries/STM32F4xx_StdPeriph_Driver/src/stm32f4xx_spi.c ****   *          This parameter can be one of the following values:
 922:../Shared/Libraries/STM32F4xx_StdPeriph_Driver/src/stm32f4xx_spi.c ****   *            @arg SPI_CRC_Tx: Selects Tx CRC register
 923:../Shared/Libraries/STM32F4xx_StdPeriph_Driver/src/stm32f4xx_spi.c ****   *            @arg SPI_CRC_Rx: Selects Rx CRC register
 924:../Shared/Libraries/STM32F4xx_StdPeriph_Driver/src/stm32f4xx_spi.c ****   * @retval The selected CRC register value..
 925:../Shared/Libraries/STM32F4xx_StdPeriph_Driver/src/stm32f4xx_spi.c ****   */
 926:../Shared/Libraries/STM32F4xx_StdPeriph_Driver/src/stm32f4xx_spi.c **** uint16_t SPI_GetCRC(SPI_TypeDef* SPIx, uint8_t SPI_CRC)
ARM GAS  /tmp/ccTxF6x3.s 			page 44


 927:../Shared/Libraries/STM32F4xx_StdPeriph_Driver/src/stm32f4xx_spi.c **** {
 1526              		.loc 1 927 1
 1527              		.cfi_startproc
 1528              		@ args = 0, pretend = 0, frame = 16
 1529              		@ frame_needed = 1, uses_anonymous_args = 0
 1530              		@ link register save eliminated.
 1531 0000 80B4     		push	{r7}
 1532              	.LCFI101:
 1533              		.cfi_def_cfa_offset 4
 1534              		.cfi_offset 7, -4
 1535 0002 85B0     		sub	sp, sp, #20
 1536              	.LCFI102:
 1537              		.cfi_def_cfa_offset 24
 1538 0004 00AF     		add	r7, sp, #0
 1539              	.LCFI103:
 1540              		.cfi_def_cfa_register 7
 1541 0006 7860     		str	r0, [r7, #4]
 1542 0008 0B46     		mov	r3, r1
 1543 000a FB70     		strb	r3, [r7, #3]
 928:../Shared/Libraries/STM32F4xx_StdPeriph_Driver/src/stm32f4xx_spi.c ****   uint16_t crcreg = 0;
 1544              		.loc 1 928 12
 1545 000c 0023     		movs	r3, #0
 1546 000e FB81     		strh	r3, [r7, #14]	@ movhi
 929:../Shared/Libraries/STM32F4xx_StdPeriph_Driver/src/stm32f4xx_spi.c ****   /* Check the parameters */
 930:../Shared/Libraries/STM32F4xx_StdPeriph_Driver/src/stm32f4xx_spi.c ****   assert_param(IS_SPI_ALL_PERIPH(SPIx));
 931:../Shared/Libraries/STM32F4xx_StdPeriph_Driver/src/stm32f4xx_spi.c ****   assert_param(IS_SPI_CRC(SPI_CRC));
 932:../Shared/Libraries/STM32F4xx_StdPeriph_Driver/src/stm32f4xx_spi.c ****   if (SPI_CRC != SPI_CRC_Rx)
 1547              		.loc 1 932 6
 1548 0010 FB78     		ldrb	r3, [r7, #3]	@ zero_extendqisi2
 1549 0012 012B     		cmp	r3, #1
 1550 0014 03D0     		beq	.L62
 933:../Shared/Libraries/STM32F4xx_StdPeriph_Driver/src/stm32f4xx_spi.c ****   {
 934:../Shared/Libraries/STM32F4xx_StdPeriph_Driver/src/stm32f4xx_spi.c ****     /* Get the Tx CRC register */
 935:../Shared/Libraries/STM32F4xx_StdPeriph_Driver/src/stm32f4xx_spi.c ****     crcreg = SPIx->TXCRCR;
 1551              		.loc 1 935 12
 1552 0016 7B68     		ldr	r3, [r7, #4]
 1553 0018 1B8B     		ldrh	r3, [r3, #24]	@ movhi
 1554 001a FB81     		strh	r3, [r7, #14]	@ movhi
 1555 001c 02E0     		b	.L63
 1556              	.L62:
 936:../Shared/Libraries/STM32F4xx_StdPeriph_Driver/src/stm32f4xx_spi.c ****   }
 937:../Shared/Libraries/STM32F4xx_StdPeriph_Driver/src/stm32f4xx_spi.c ****   else
 938:../Shared/Libraries/STM32F4xx_StdPeriph_Driver/src/stm32f4xx_spi.c ****   {
 939:../Shared/Libraries/STM32F4xx_StdPeriph_Driver/src/stm32f4xx_spi.c ****     /* Get the Rx CRC register */
 940:../Shared/Libraries/STM32F4xx_StdPeriph_Driver/src/stm32f4xx_spi.c ****     crcreg = SPIx->RXCRCR;
 1557              		.loc 1 940 12
 1558 001e 7B68     		ldr	r3, [r7, #4]
 1559 0020 9B8A     		ldrh	r3, [r3, #20]	@ movhi
 1560 0022 FB81     		strh	r3, [r7, #14]	@ movhi
 1561              	.L63:
 941:../Shared/Libraries/STM32F4xx_StdPeriph_Driver/src/stm32f4xx_spi.c ****   }
 942:../Shared/Libraries/STM32F4xx_StdPeriph_Driver/src/stm32f4xx_spi.c ****   /* Return the selected CRC register */
 943:../Shared/Libraries/STM32F4xx_StdPeriph_Driver/src/stm32f4xx_spi.c ****   return crcreg;
 1562              		.loc 1 943 10
 1563 0024 FB89     		ldrh	r3, [r7, #14]
 944:../Shared/Libraries/STM32F4xx_StdPeriph_Driver/src/stm32f4xx_spi.c **** }
 1564              		.loc 1 944 1
ARM GAS  /tmp/ccTxF6x3.s 			page 45


 1565 0026 1846     		mov	r0, r3
 1566 0028 1437     		adds	r7, r7, #20
 1567              	.LCFI104:
 1568              		.cfi_def_cfa_offset 4
 1569 002a BD46     		mov	sp, r7
 1570              	.LCFI105:
 1571              		.cfi_def_cfa_register 13
 1572              		@ sp needed
 1573 002c 5DF8047B 		ldr	r7, [sp], #4
 1574              	.LCFI106:
 1575              		.cfi_restore 7
 1576              		.cfi_def_cfa_offset 0
 1577 0030 7047     		bx	lr
 1578              		.cfi_endproc
 1579              	.LFE127:
 1581              		.section	.text.SPI_GetCRCPolynomial,"ax",%progbits
 1582              		.align	1
 1583              		.global	SPI_GetCRCPolynomial
 1584              		.syntax unified
 1585              		.thumb
 1586              		.thumb_func
 1588              	SPI_GetCRCPolynomial:
 1589              	.LFB128:
 945:../Shared/Libraries/STM32F4xx_StdPeriph_Driver/src/stm32f4xx_spi.c **** 
 946:../Shared/Libraries/STM32F4xx_StdPeriph_Driver/src/stm32f4xx_spi.c **** /**
 947:../Shared/Libraries/STM32F4xx_StdPeriph_Driver/src/stm32f4xx_spi.c ****   * @brief  Returns the CRC Polynomial register value for the specified SPI.
 948:../Shared/Libraries/STM32F4xx_StdPeriph_Driver/src/stm32f4xx_spi.c ****   * @param  SPIx: where x can be 1, 2 or 3 to select the SPI peripheral.
 949:../Shared/Libraries/STM32F4xx_StdPeriph_Driver/src/stm32f4xx_spi.c ****   * @retval The CRC Polynomial register value.
 950:../Shared/Libraries/STM32F4xx_StdPeriph_Driver/src/stm32f4xx_spi.c ****   */
 951:../Shared/Libraries/STM32F4xx_StdPeriph_Driver/src/stm32f4xx_spi.c **** uint16_t SPI_GetCRCPolynomial(SPI_TypeDef* SPIx)
 952:../Shared/Libraries/STM32F4xx_StdPeriph_Driver/src/stm32f4xx_spi.c **** {
 1590              		.loc 1 952 1
 1591              		.cfi_startproc
 1592              		@ args = 0, pretend = 0, frame = 8
 1593              		@ frame_needed = 1, uses_anonymous_args = 0
 1594              		@ link register save eliminated.
 1595 0000 80B4     		push	{r7}
 1596              	.LCFI107:
 1597              		.cfi_def_cfa_offset 4
 1598              		.cfi_offset 7, -4
 1599 0002 83B0     		sub	sp, sp, #12
 1600              	.LCFI108:
 1601              		.cfi_def_cfa_offset 16
 1602 0004 00AF     		add	r7, sp, #0
 1603              	.LCFI109:
 1604              		.cfi_def_cfa_register 7
 1605 0006 7860     		str	r0, [r7, #4]
 953:../Shared/Libraries/STM32F4xx_StdPeriph_Driver/src/stm32f4xx_spi.c ****   /* Check the parameters */
 954:../Shared/Libraries/STM32F4xx_StdPeriph_Driver/src/stm32f4xx_spi.c ****   assert_param(IS_SPI_ALL_PERIPH(SPIx));
 955:../Shared/Libraries/STM32F4xx_StdPeriph_Driver/src/stm32f4xx_spi.c ****   
 956:../Shared/Libraries/STM32F4xx_StdPeriph_Driver/src/stm32f4xx_spi.c ****   /* Return the CRC polynomial register */
 957:../Shared/Libraries/STM32F4xx_StdPeriph_Driver/src/stm32f4xx_spi.c ****   return SPIx->CRCPR;
 1606              		.loc 1 957 14
 1607 0008 7B68     		ldr	r3, [r7, #4]
 1608 000a 1B8A     		ldrh	r3, [r3, #16]	@ movhi
 1609 000c 9BB2     		uxth	r3, r3
 958:../Shared/Libraries/STM32F4xx_StdPeriph_Driver/src/stm32f4xx_spi.c **** }
ARM GAS  /tmp/ccTxF6x3.s 			page 46


 1610              		.loc 1 958 1
 1611 000e 1846     		mov	r0, r3
 1612 0010 0C37     		adds	r7, r7, #12
 1613              	.LCFI110:
 1614              		.cfi_def_cfa_offset 4
 1615 0012 BD46     		mov	sp, r7
 1616              	.LCFI111:
 1617              		.cfi_def_cfa_register 13
 1618              		@ sp needed
 1619 0014 5DF8047B 		ldr	r7, [sp], #4
 1620              	.LCFI112:
 1621              		.cfi_restore 7
 1622              		.cfi_def_cfa_offset 0
 1623 0018 7047     		bx	lr
 1624              		.cfi_endproc
 1625              	.LFE128:
 1627              		.section	.text.SPI_I2S_DMACmd,"ax",%progbits
 1628              		.align	1
 1629              		.global	SPI_I2S_DMACmd
 1630              		.syntax unified
 1631              		.thumb
 1632              		.thumb_func
 1634              	SPI_I2S_DMACmd:
 1635              	.LFB129:
 959:../Shared/Libraries/STM32F4xx_StdPeriph_Driver/src/stm32f4xx_spi.c **** 
 960:../Shared/Libraries/STM32F4xx_StdPeriph_Driver/src/stm32f4xx_spi.c **** /**
 961:../Shared/Libraries/STM32F4xx_StdPeriph_Driver/src/stm32f4xx_spi.c ****   * @}
 962:../Shared/Libraries/STM32F4xx_StdPeriph_Driver/src/stm32f4xx_spi.c ****   */
 963:../Shared/Libraries/STM32F4xx_StdPeriph_Driver/src/stm32f4xx_spi.c **** 
 964:../Shared/Libraries/STM32F4xx_StdPeriph_Driver/src/stm32f4xx_spi.c **** /** @defgroup SPI_Group4 DMA transfers management functions
 965:../Shared/Libraries/STM32F4xx_StdPeriph_Driver/src/stm32f4xx_spi.c ****  *  @brief   DMA transfers management functions
 966:../Shared/Libraries/STM32F4xx_StdPeriph_Driver/src/stm32f4xx_spi.c ****   *
 967:../Shared/Libraries/STM32F4xx_StdPeriph_Driver/src/stm32f4xx_spi.c **** @verbatim   
 968:../Shared/Libraries/STM32F4xx_StdPeriph_Driver/src/stm32f4xx_spi.c ****  ===============================================================================
 969:../Shared/Libraries/STM32F4xx_StdPeriph_Driver/src/stm32f4xx_spi.c ****                          DMA transfers management functions
 970:../Shared/Libraries/STM32F4xx_StdPeriph_Driver/src/stm32f4xx_spi.c ****  ===============================================================================  
 971:../Shared/Libraries/STM32F4xx_StdPeriph_Driver/src/stm32f4xx_spi.c **** 
 972:../Shared/Libraries/STM32F4xx_StdPeriph_Driver/src/stm32f4xx_spi.c **** @endverbatim
 973:../Shared/Libraries/STM32F4xx_StdPeriph_Driver/src/stm32f4xx_spi.c ****   * @{
 974:../Shared/Libraries/STM32F4xx_StdPeriph_Driver/src/stm32f4xx_spi.c ****   */
 975:../Shared/Libraries/STM32F4xx_StdPeriph_Driver/src/stm32f4xx_spi.c **** 
 976:../Shared/Libraries/STM32F4xx_StdPeriph_Driver/src/stm32f4xx_spi.c **** /**
 977:../Shared/Libraries/STM32F4xx_StdPeriph_Driver/src/stm32f4xx_spi.c ****   * @brief  Enables or disables the SPIx/I2Sx DMA interface.
 978:../Shared/Libraries/STM32F4xx_StdPeriph_Driver/src/stm32f4xx_spi.c ****   * @param  SPIx: To select the SPIx/I2Sx peripheral, where x can be: 1, 2 or 3 
 979:../Shared/Libraries/STM32F4xx_StdPeriph_Driver/src/stm32f4xx_spi.c ****   *         in SPI mode or 2 or 3 in I2S mode or I2Sxext for I2S full duplex mode. 
 980:../Shared/Libraries/STM32F4xx_StdPeriph_Driver/src/stm32f4xx_spi.c ****   * @param  SPI_I2S_DMAReq: specifies the SPI DMA transfer request to be enabled or disabled. 
 981:../Shared/Libraries/STM32F4xx_StdPeriph_Driver/src/stm32f4xx_spi.c ****   *          This parameter can be any combination of the following values:
 982:../Shared/Libraries/STM32F4xx_StdPeriph_Driver/src/stm32f4xx_spi.c ****   *            @arg SPI_I2S_DMAReq_Tx: Tx buffer DMA transfer request
 983:../Shared/Libraries/STM32F4xx_StdPeriph_Driver/src/stm32f4xx_spi.c ****   *            @arg SPI_I2S_DMAReq_Rx: Rx buffer DMA transfer request
 984:../Shared/Libraries/STM32F4xx_StdPeriph_Driver/src/stm32f4xx_spi.c ****   * @param  NewState: new state of the selected SPI DMA transfer request.
 985:../Shared/Libraries/STM32F4xx_StdPeriph_Driver/src/stm32f4xx_spi.c ****   *          This parameter can be: ENABLE or DISABLE.
 986:../Shared/Libraries/STM32F4xx_StdPeriph_Driver/src/stm32f4xx_spi.c ****   * @retval None
 987:../Shared/Libraries/STM32F4xx_StdPeriph_Driver/src/stm32f4xx_spi.c ****   */
 988:../Shared/Libraries/STM32F4xx_StdPeriph_Driver/src/stm32f4xx_spi.c **** void SPI_I2S_DMACmd(SPI_TypeDef* SPIx, uint16_t SPI_I2S_DMAReq, FunctionalState NewState)
 989:../Shared/Libraries/STM32F4xx_StdPeriph_Driver/src/stm32f4xx_spi.c **** {
 1636              		.loc 1 989 1
 1637              		.cfi_startproc
ARM GAS  /tmp/ccTxF6x3.s 			page 47


 1638              		@ args = 0, pretend = 0, frame = 8
 1639              		@ frame_needed = 1, uses_anonymous_args = 0
 1640              		@ link register save eliminated.
 1641 0000 80B4     		push	{r7}
 1642              	.LCFI113:
 1643              		.cfi_def_cfa_offset 4
 1644              		.cfi_offset 7, -4
 1645 0002 83B0     		sub	sp, sp, #12
 1646              	.LCFI114:
 1647              		.cfi_def_cfa_offset 16
 1648 0004 00AF     		add	r7, sp, #0
 1649              	.LCFI115:
 1650              		.cfi_def_cfa_register 7
 1651 0006 7860     		str	r0, [r7, #4]
 1652 0008 0B46     		mov	r3, r1
 1653 000a 7B80     		strh	r3, [r7, #2]	@ movhi
 1654 000c 1346     		mov	r3, r2
 1655 000e 7B70     		strb	r3, [r7, #1]
 990:../Shared/Libraries/STM32F4xx_StdPeriph_Driver/src/stm32f4xx_spi.c ****   /* Check the parameters */
 991:../Shared/Libraries/STM32F4xx_StdPeriph_Driver/src/stm32f4xx_spi.c ****   assert_param(IS_SPI_ALL_PERIPH_EXT(SPIx));
 992:../Shared/Libraries/STM32F4xx_StdPeriph_Driver/src/stm32f4xx_spi.c ****   assert_param(IS_FUNCTIONAL_STATE(NewState));
 993:../Shared/Libraries/STM32F4xx_StdPeriph_Driver/src/stm32f4xx_spi.c ****   assert_param(IS_SPI_I2S_DMAREQ(SPI_I2S_DMAReq));
 994:../Shared/Libraries/STM32F4xx_StdPeriph_Driver/src/stm32f4xx_spi.c **** 
 995:../Shared/Libraries/STM32F4xx_StdPeriph_Driver/src/stm32f4xx_spi.c ****   if (NewState != DISABLE)
 1656              		.loc 1 995 6
 1657 0010 7B78     		ldrb	r3, [r7, #1]	@ zero_extendqisi2
 1658 0012 002B     		cmp	r3, #0
 1659 0014 08D0     		beq	.L68
 996:../Shared/Libraries/STM32F4xx_StdPeriph_Driver/src/stm32f4xx_spi.c ****   {
 997:../Shared/Libraries/STM32F4xx_StdPeriph_Driver/src/stm32f4xx_spi.c ****     /* Enable the selected SPI DMA requests */
 998:../Shared/Libraries/STM32F4xx_StdPeriph_Driver/src/stm32f4xx_spi.c ****     SPIx->CR2 |= SPI_I2S_DMAReq;
 1660              		.loc 1 998 9
 1661 0016 7B68     		ldr	r3, [r7, #4]
 1662 0018 9B88     		ldrh	r3, [r3, #4]	@ movhi
 1663 001a 9AB2     		uxth	r2, r3
 1664              		.loc 1 998 15
 1665 001c 7B88     		ldrh	r3, [r7, #2]	@ movhi
 1666 001e 1343     		orrs	r3, r3, r2
 1667 0020 9AB2     		uxth	r2, r3
 1668 0022 7B68     		ldr	r3, [r7, #4]
 1669 0024 9A80     		strh	r2, [r3, #4]	@ movhi
 999:../Shared/Libraries/STM32F4xx_StdPeriph_Driver/src/stm32f4xx_spi.c ****   }
1000:../Shared/Libraries/STM32F4xx_StdPeriph_Driver/src/stm32f4xx_spi.c ****   else
1001:../Shared/Libraries/STM32F4xx_StdPeriph_Driver/src/stm32f4xx_spi.c ****   {
1002:../Shared/Libraries/STM32F4xx_StdPeriph_Driver/src/stm32f4xx_spi.c ****     /* Disable the selected SPI DMA requests */
1003:../Shared/Libraries/STM32F4xx_StdPeriph_Driver/src/stm32f4xx_spi.c ****     SPIx->CR2 &= (uint16_t)~SPI_I2S_DMAReq;
1004:../Shared/Libraries/STM32F4xx_StdPeriph_Driver/src/stm32f4xx_spi.c ****   }
1005:../Shared/Libraries/STM32F4xx_StdPeriph_Driver/src/stm32f4xx_spi.c **** }
 1670              		.loc 1 1005 1
 1671 0026 09E0     		b	.L70
 1672              	.L68:
1003:../Shared/Libraries/STM32F4xx_StdPeriph_Driver/src/stm32f4xx_spi.c ****   }
 1673              		.loc 1 1003 9
 1674 0028 7B68     		ldr	r3, [r7, #4]
 1675 002a 9B88     		ldrh	r3, [r3, #4]	@ movhi
 1676 002c 9AB2     		uxth	r2, r3
1003:../Shared/Libraries/STM32F4xx_StdPeriph_Driver/src/stm32f4xx_spi.c ****   }
ARM GAS  /tmp/ccTxF6x3.s 			page 48


 1677              		.loc 1 1003 18
 1678 002e 7B88     		ldrh	r3, [r7, #2]	@ movhi
 1679 0030 DB43     		mvns	r3, r3
 1680 0032 9BB2     		uxth	r3, r3
1003:../Shared/Libraries/STM32F4xx_StdPeriph_Driver/src/stm32f4xx_spi.c ****   }
 1681              		.loc 1 1003 15
 1682 0034 1340     		ands	r3, r3, r2
 1683 0036 9AB2     		uxth	r2, r3
 1684 0038 7B68     		ldr	r3, [r7, #4]
 1685 003a 9A80     		strh	r2, [r3, #4]	@ movhi
 1686              	.L70:
 1687              		.loc 1 1005 1
 1688 003c 00BF     		nop
 1689 003e 0C37     		adds	r7, r7, #12
 1690              	.LCFI116:
 1691              		.cfi_def_cfa_offset 4
 1692 0040 BD46     		mov	sp, r7
 1693              	.LCFI117:
 1694              		.cfi_def_cfa_register 13
 1695              		@ sp needed
 1696 0042 5DF8047B 		ldr	r7, [sp], #4
 1697              	.LCFI118:
 1698              		.cfi_restore 7
 1699              		.cfi_def_cfa_offset 0
 1700 0046 7047     		bx	lr
 1701              		.cfi_endproc
 1702              	.LFE129:
 1704              		.section	.text.SPI_I2S_ITConfig,"ax",%progbits
 1705              		.align	1
 1706              		.global	SPI_I2S_ITConfig
 1707              		.syntax unified
 1708              		.thumb
 1709              		.thumb_func
 1711              	SPI_I2S_ITConfig:
 1712              	.LFB130:
1006:../Shared/Libraries/STM32F4xx_StdPeriph_Driver/src/stm32f4xx_spi.c **** 
1007:../Shared/Libraries/STM32F4xx_StdPeriph_Driver/src/stm32f4xx_spi.c **** /**
1008:../Shared/Libraries/STM32F4xx_StdPeriph_Driver/src/stm32f4xx_spi.c ****   * @}
1009:../Shared/Libraries/STM32F4xx_StdPeriph_Driver/src/stm32f4xx_spi.c ****   */
1010:../Shared/Libraries/STM32F4xx_StdPeriph_Driver/src/stm32f4xx_spi.c **** 
1011:../Shared/Libraries/STM32F4xx_StdPeriph_Driver/src/stm32f4xx_spi.c **** /** @defgroup SPI_Group5 Interrupts and flags management functions
1012:../Shared/Libraries/STM32F4xx_StdPeriph_Driver/src/stm32f4xx_spi.c ****  *  @brief   Interrupts and flags management functions
1013:../Shared/Libraries/STM32F4xx_StdPeriph_Driver/src/stm32f4xx_spi.c ****   *
1014:../Shared/Libraries/STM32F4xx_StdPeriph_Driver/src/stm32f4xx_spi.c **** @verbatim   
1015:../Shared/Libraries/STM32F4xx_StdPeriph_Driver/src/stm32f4xx_spi.c ****  ===============================================================================
1016:../Shared/Libraries/STM32F4xx_StdPeriph_Driver/src/stm32f4xx_spi.c ****                          Interrupts and flags management functions
1017:../Shared/Libraries/STM32F4xx_StdPeriph_Driver/src/stm32f4xx_spi.c ****  ===============================================================================  
1018:../Shared/Libraries/STM32F4xx_StdPeriph_Driver/src/stm32f4xx_spi.c **** 
1019:../Shared/Libraries/STM32F4xx_StdPeriph_Driver/src/stm32f4xx_spi.c ****   This section provides a set of functions allowing to configure the SPI Interrupts 
1020:../Shared/Libraries/STM32F4xx_StdPeriph_Driver/src/stm32f4xx_spi.c ****   sources and check or clear the flags or pending bits status.
1021:../Shared/Libraries/STM32F4xx_StdPeriph_Driver/src/stm32f4xx_spi.c ****   The user should identify which mode will be used in his application to manage 
1022:../Shared/Libraries/STM32F4xx_StdPeriph_Driver/src/stm32f4xx_spi.c ****   the communication: Polling mode, Interrupt mode or DMA mode. 
1023:../Shared/Libraries/STM32F4xx_StdPeriph_Driver/src/stm32f4xx_spi.c ****     
1024:../Shared/Libraries/STM32F4xx_StdPeriph_Driver/src/stm32f4xx_spi.c ****   Polling Mode
1025:../Shared/Libraries/STM32F4xx_StdPeriph_Driver/src/stm32f4xx_spi.c ****   =============
1026:../Shared/Libraries/STM32F4xx_StdPeriph_Driver/src/stm32f4xx_spi.c ****   In Polling Mode, the SPI/I2S communication can be managed by 9 flags:
1027:../Shared/Libraries/STM32F4xx_StdPeriph_Driver/src/stm32f4xx_spi.c ****      1. SPI_I2S_FLAG_TXE : to indicate the status of the transmit buffer register
ARM GAS  /tmp/ccTxF6x3.s 			page 49


1028:../Shared/Libraries/STM32F4xx_StdPeriph_Driver/src/stm32f4xx_spi.c ****      2. SPI_I2S_FLAG_RXNE : to indicate the status of the receive buffer register
1029:../Shared/Libraries/STM32F4xx_StdPeriph_Driver/src/stm32f4xx_spi.c ****      3. SPI_I2S_FLAG_BSY : to indicate the state of the communication layer of the SPI.
1030:../Shared/Libraries/STM32F4xx_StdPeriph_Driver/src/stm32f4xx_spi.c ****      4. SPI_FLAG_CRCERR : to indicate if a CRC Calculation error occur              
1031:../Shared/Libraries/STM32F4xx_StdPeriph_Driver/src/stm32f4xx_spi.c ****      5. SPI_FLAG_MODF : to indicate if a Mode Fault error occur
1032:../Shared/Libraries/STM32F4xx_StdPeriph_Driver/src/stm32f4xx_spi.c ****      6. SPI_I2S_FLAG_OVR : to indicate if an Overrun error occur
1033:../Shared/Libraries/STM32F4xx_StdPeriph_Driver/src/stm32f4xx_spi.c ****      7. I2S_FLAG_TIFRFE: to indicate a Frame Format error occurs.
1034:../Shared/Libraries/STM32F4xx_StdPeriph_Driver/src/stm32f4xx_spi.c ****      8. I2S_FLAG_UDR: to indicate an Underrun error occurs.
1035:../Shared/Libraries/STM32F4xx_StdPeriph_Driver/src/stm32f4xx_spi.c ****      9. I2S_FLAG_CHSIDE: to indicate Channel Side.
1036:../Shared/Libraries/STM32F4xx_StdPeriph_Driver/src/stm32f4xx_spi.c **** 
1037:../Shared/Libraries/STM32F4xx_StdPeriph_Driver/src/stm32f4xx_spi.c **** @note Do not use the BSY flag to handle each data transmission or reception.  It is
1038:../Shared/Libraries/STM32F4xx_StdPeriph_Driver/src/stm32f4xx_spi.c ****       better to use the TXE and RXNE flags instead.
1039:../Shared/Libraries/STM32F4xx_StdPeriph_Driver/src/stm32f4xx_spi.c **** 
1040:../Shared/Libraries/STM32F4xx_StdPeriph_Driver/src/stm32f4xx_spi.c ****   In this Mode it is advised to use the following functions:
1041:../Shared/Libraries/STM32F4xx_StdPeriph_Driver/src/stm32f4xx_spi.c ****      - FlagStatus SPI_I2S_GetFlagStatus(SPI_TypeDef* SPIx, uint16_t SPI_I2S_FLAG);
1042:../Shared/Libraries/STM32F4xx_StdPeriph_Driver/src/stm32f4xx_spi.c ****      - void SPI_I2S_ClearFlag(SPI_TypeDef* SPIx, uint16_t SPI_I2S_FLAG);
1043:../Shared/Libraries/STM32F4xx_StdPeriph_Driver/src/stm32f4xx_spi.c **** 
1044:../Shared/Libraries/STM32F4xx_StdPeriph_Driver/src/stm32f4xx_spi.c ****   Interrupt Mode
1045:../Shared/Libraries/STM32F4xx_StdPeriph_Driver/src/stm32f4xx_spi.c ****   ===============
1046:../Shared/Libraries/STM32F4xx_StdPeriph_Driver/src/stm32f4xx_spi.c ****   In Interrupt Mode, the SPI communication can be managed by 3 interrupt sources
1047:../Shared/Libraries/STM32F4xx_StdPeriph_Driver/src/stm32f4xx_spi.c ****   and 7 pending bits: 
1048:../Shared/Libraries/STM32F4xx_StdPeriph_Driver/src/stm32f4xx_spi.c ****   Pending Bits:
1049:../Shared/Libraries/STM32F4xx_StdPeriph_Driver/src/stm32f4xx_spi.c ****   ------------- 
1050:../Shared/Libraries/STM32F4xx_StdPeriph_Driver/src/stm32f4xx_spi.c ****      1. SPI_I2S_IT_TXE : to indicate the status of the transmit buffer register
1051:../Shared/Libraries/STM32F4xx_StdPeriph_Driver/src/stm32f4xx_spi.c ****      2. SPI_I2S_IT_RXNE : to indicate the status of the receive buffer register
1052:../Shared/Libraries/STM32F4xx_StdPeriph_Driver/src/stm32f4xx_spi.c ****      3. SPI_IT_CRCERR : to indicate if a CRC Calculation error occur (available in SPI mode only)  
1053:../Shared/Libraries/STM32F4xx_StdPeriph_Driver/src/stm32f4xx_spi.c ****      4. SPI_IT_MODF : to indicate if a Mode Fault error occur (available in SPI mode only)
1054:../Shared/Libraries/STM32F4xx_StdPeriph_Driver/src/stm32f4xx_spi.c ****      5. SPI_I2S_IT_OVR : to indicate if an Overrun error occur
1055:../Shared/Libraries/STM32F4xx_StdPeriph_Driver/src/stm32f4xx_spi.c ****      6. I2S_IT_UDR : to indicate an Underrun Error occurs (available in I2S mode only).
1056:../Shared/Libraries/STM32F4xx_StdPeriph_Driver/src/stm32f4xx_spi.c ****      7. I2S_FLAG_TIFRFE : to indicate a Frame Format error occurs (available in TI mode only).
1057:../Shared/Libraries/STM32F4xx_StdPeriph_Driver/src/stm32f4xx_spi.c **** 
1058:../Shared/Libraries/STM32F4xx_StdPeriph_Driver/src/stm32f4xx_spi.c ****   Interrupt Source:
1059:../Shared/Libraries/STM32F4xx_StdPeriph_Driver/src/stm32f4xx_spi.c ****   -----------------
1060:../Shared/Libraries/STM32F4xx_StdPeriph_Driver/src/stm32f4xx_spi.c ****      1. SPI_I2S_IT_TXE: specifies the interrupt source for the Tx buffer empty 
1061:../Shared/Libraries/STM32F4xx_StdPeriph_Driver/src/stm32f4xx_spi.c ****                         interrupt.  
1062:../Shared/Libraries/STM32F4xx_StdPeriph_Driver/src/stm32f4xx_spi.c ****      2. SPI_I2S_IT_RXNE : specifies the interrupt source for the Rx buffer not 
1063:../Shared/Libraries/STM32F4xx_StdPeriph_Driver/src/stm32f4xx_spi.c ****                           empty interrupt.
1064:../Shared/Libraries/STM32F4xx_StdPeriph_Driver/src/stm32f4xx_spi.c ****      3. SPI_I2S_IT_ERR : specifies the interrupt source for the errors interrupt.
1065:../Shared/Libraries/STM32F4xx_StdPeriph_Driver/src/stm32f4xx_spi.c **** 
1066:../Shared/Libraries/STM32F4xx_StdPeriph_Driver/src/stm32f4xx_spi.c ****   In this Mode it is advised to use the following functions:
1067:../Shared/Libraries/STM32F4xx_StdPeriph_Driver/src/stm32f4xx_spi.c ****      - void SPI_I2S_ITConfig(SPI_TypeDef* SPIx, uint8_t SPI_I2S_IT, FunctionalState NewState);
1068:../Shared/Libraries/STM32F4xx_StdPeriph_Driver/src/stm32f4xx_spi.c ****      - ITStatus SPI_I2S_GetITStatus(SPI_TypeDef* SPIx, uint8_t SPI_I2S_IT);
1069:../Shared/Libraries/STM32F4xx_StdPeriph_Driver/src/stm32f4xx_spi.c ****      - void SPI_I2S_ClearITPendingBit(SPI_TypeDef* SPIx, uint8_t SPI_I2S_IT);
1070:../Shared/Libraries/STM32F4xx_StdPeriph_Driver/src/stm32f4xx_spi.c **** 
1071:../Shared/Libraries/STM32F4xx_StdPeriph_Driver/src/stm32f4xx_spi.c ****   DMA Mode
1072:../Shared/Libraries/STM32F4xx_StdPeriph_Driver/src/stm32f4xx_spi.c ****   ========
1073:../Shared/Libraries/STM32F4xx_StdPeriph_Driver/src/stm32f4xx_spi.c ****   In DMA Mode, the SPI communication can be managed by 2 DMA Channel requests:
1074:../Shared/Libraries/STM32F4xx_StdPeriph_Driver/src/stm32f4xx_spi.c ****      1. SPI_I2S_DMAReq_Tx: specifies the Tx buffer DMA transfer request
1075:../Shared/Libraries/STM32F4xx_StdPeriph_Driver/src/stm32f4xx_spi.c ****      2. SPI_I2S_DMAReq_Rx: specifies the Rx buffer DMA transfer request
1076:../Shared/Libraries/STM32F4xx_StdPeriph_Driver/src/stm32f4xx_spi.c **** 
1077:../Shared/Libraries/STM32F4xx_StdPeriph_Driver/src/stm32f4xx_spi.c ****   In this Mode it is advised to use the following function:
1078:../Shared/Libraries/STM32F4xx_StdPeriph_Driver/src/stm32f4xx_spi.c ****     - void SPI_I2S_DMACmd(SPI_TypeDef* SPIx, uint16_t SPI_I2S_DMAReq, FunctionalState NewState);
1079:../Shared/Libraries/STM32F4xx_StdPeriph_Driver/src/stm32f4xx_spi.c **** 
1080:../Shared/Libraries/STM32F4xx_StdPeriph_Driver/src/stm32f4xx_spi.c **** @endverbatim
1081:../Shared/Libraries/STM32F4xx_StdPeriph_Driver/src/stm32f4xx_spi.c ****   * @{
1082:../Shared/Libraries/STM32F4xx_StdPeriph_Driver/src/stm32f4xx_spi.c ****   */
1083:../Shared/Libraries/STM32F4xx_StdPeriph_Driver/src/stm32f4xx_spi.c **** 
1084:../Shared/Libraries/STM32F4xx_StdPeriph_Driver/src/stm32f4xx_spi.c **** /**
ARM GAS  /tmp/ccTxF6x3.s 			page 50


1085:../Shared/Libraries/STM32F4xx_StdPeriph_Driver/src/stm32f4xx_spi.c ****   * @brief  Enables or disables the specified SPI/I2S interrupts.
1086:../Shared/Libraries/STM32F4xx_StdPeriph_Driver/src/stm32f4xx_spi.c ****   * @param  SPIx: To select the SPIx/I2Sx peripheral, where x can be: 1, 2 or 3 
1087:../Shared/Libraries/STM32F4xx_StdPeriph_Driver/src/stm32f4xx_spi.c ****   *         in SPI mode or 2 or 3 in I2S mode or I2Sxext for I2S full duplex mode. 
1088:../Shared/Libraries/STM32F4xx_StdPeriph_Driver/src/stm32f4xx_spi.c ****   * @param  SPI_I2S_IT: specifies the SPI interrupt source to be enabled or disabled. 
1089:../Shared/Libraries/STM32F4xx_StdPeriph_Driver/src/stm32f4xx_spi.c ****   *          This parameter can be one of the following values:
1090:../Shared/Libraries/STM32F4xx_StdPeriph_Driver/src/stm32f4xx_spi.c ****   *            @arg SPI_I2S_IT_TXE: Tx buffer empty interrupt mask
1091:../Shared/Libraries/STM32F4xx_StdPeriph_Driver/src/stm32f4xx_spi.c ****   *            @arg SPI_I2S_IT_RXNE: Rx buffer not empty interrupt mask
1092:../Shared/Libraries/STM32F4xx_StdPeriph_Driver/src/stm32f4xx_spi.c ****   *            @arg SPI_I2S_IT_ERR: Error interrupt mask
1093:../Shared/Libraries/STM32F4xx_StdPeriph_Driver/src/stm32f4xx_spi.c ****   * @param  NewState: new state of the specified SPI interrupt.
1094:../Shared/Libraries/STM32F4xx_StdPeriph_Driver/src/stm32f4xx_spi.c ****   *          This parameter can be: ENABLE or DISABLE.
1095:../Shared/Libraries/STM32F4xx_StdPeriph_Driver/src/stm32f4xx_spi.c ****   * @retval None
1096:../Shared/Libraries/STM32F4xx_StdPeriph_Driver/src/stm32f4xx_spi.c ****   */
1097:../Shared/Libraries/STM32F4xx_StdPeriph_Driver/src/stm32f4xx_spi.c **** void SPI_I2S_ITConfig(SPI_TypeDef* SPIx, uint8_t SPI_I2S_IT, FunctionalState NewState)
1098:../Shared/Libraries/STM32F4xx_StdPeriph_Driver/src/stm32f4xx_spi.c **** {
 1713              		.loc 1 1098 1
 1714              		.cfi_startproc
 1715              		@ args = 0, pretend = 0, frame = 16
 1716              		@ frame_needed = 1, uses_anonymous_args = 0
 1717              		@ link register save eliminated.
 1718 0000 80B4     		push	{r7}
 1719              	.LCFI119:
 1720              		.cfi_def_cfa_offset 4
 1721              		.cfi_offset 7, -4
 1722 0002 85B0     		sub	sp, sp, #20
 1723              	.LCFI120:
 1724              		.cfi_def_cfa_offset 24
 1725 0004 00AF     		add	r7, sp, #0
 1726              	.LCFI121:
 1727              		.cfi_def_cfa_register 7
 1728 0006 7860     		str	r0, [r7, #4]
 1729 0008 0B46     		mov	r3, r1
 1730 000a FB70     		strb	r3, [r7, #3]
 1731 000c 1346     		mov	r3, r2
 1732 000e BB70     		strb	r3, [r7, #2]
1099:../Shared/Libraries/STM32F4xx_StdPeriph_Driver/src/stm32f4xx_spi.c ****   uint16_t itpos = 0, itmask = 0 ;
 1733              		.loc 1 1099 12
 1734 0010 0023     		movs	r3, #0
 1735 0012 FB81     		strh	r3, [r7, #14]	@ movhi
 1736              		.loc 1 1099 23
 1737 0014 0023     		movs	r3, #0
 1738 0016 BB81     		strh	r3, [r7, #12]	@ movhi
1100:../Shared/Libraries/STM32F4xx_StdPeriph_Driver/src/stm32f4xx_spi.c ****   
1101:../Shared/Libraries/STM32F4xx_StdPeriph_Driver/src/stm32f4xx_spi.c ****   /* Check the parameters */
1102:../Shared/Libraries/STM32F4xx_StdPeriph_Driver/src/stm32f4xx_spi.c ****   assert_param(IS_SPI_ALL_PERIPH_EXT(SPIx));
1103:../Shared/Libraries/STM32F4xx_StdPeriph_Driver/src/stm32f4xx_spi.c ****   assert_param(IS_FUNCTIONAL_STATE(NewState));
1104:../Shared/Libraries/STM32F4xx_StdPeriph_Driver/src/stm32f4xx_spi.c ****   assert_param(IS_SPI_I2S_CONFIG_IT(SPI_I2S_IT));
1105:../Shared/Libraries/STM32F4xx_StdPeriph_Driver/src/stm32f4xx_spi.c **** 
1106:../Shared/Libraries/STM32F4xx_StdPeriph_Driver/src/stm32f4xx_spi.c ****   /* Get the SPI IT index */
1107:../Shared/Libraries/STM32F4xx_StdPeriph_Driver/src/stm32f4xx_spi.c ****   itpos = SPI_I2S_IT >> 4;
 1739              		.loc 1 1107 9
 1740 0018 FB78     		ldrb	r3, [r7, #3]	@ zero_extendqisi2
 1741 001a 1B09     		lsrs	r3, r3, #4
 1742 001c DBB2     		uxtb	r3, r3
 1743 001e FB81     		strh	r3, [r7, #14]	@ movhi
1108:../Shared/Libraries/STM32F4xx_StdPeriph_Driver/src/stm32f4xx_spi.c **** 
1109:../Shared/Libraries/STM32F4xx_StdPeriph_Driver/src/stm32f4xx_spi.c ****   /* Set the IT mask */
1110:../Shared/Libraries/STM32F4xx_StdPeriph_Driver/src/stm32f4xx_spi.c ****   itmask = (uint16_t)1 << (uint16_t)itpos;
ARM GAS  /tmp/ccTxF6x3.s 			page 51


 1744              		.loc 1 1110 27
 1745 0020 FB89     		ldrh	r3, [r7, #14]
 1746              		.loc 1 1110 24
 1747 0022 0122     		movs	r2, #1
 1748 0024 02FA03F3 		lsl	r3, r2, r3
 1749              		.loc 1 1110 10
 1750 0028 BB81     		strh	r3, [r7, #12]	@ movhi
1111:../Shared/Libraries/STM32F4xx_StdPeriph_Driver/src/stm32f4xx_spi.c **** 
1112:../Shared/Libraries/STM32F4xx_StdPeriph_Driver/src/stm32f4xx_spi.c ****   if (NewState != DISABLE)
 1751              		.loc 1 1112 6
 1752 002a BB78     		ldrb	r3, [r7, #2]	@ zero_extendqisi2
 1753 002c 002B     		cmp	r3, #0
 1754 002e 08D0     		beq	.L72
1113:../Shared/Libraries/STM32F4xx_StdPeriph_Driver/src/stm32f4xx_spi.c ****   {
1114:../Shared/Libraries/STM32F4xx_StdPeriph_Driver/src/stm32f4xx_spi.c ****     /* Enable the selected SPI interrupt */
1115:../Shared/Libraries/STM32F4xx_StdPeriph_Driver/src/stm32f4xx_spi.c ****     SPIx->CR2 |= itmask;
 1755              		.loc 1 1115 9
 1756 0030 7B68     		ldr	r3, [r7, #4]
 1757 0032 9B88     		ldrh	r3, [r3, #4]	@ movhi
 1758 0034 9AB2     		uxth	r2, r3
 1759              		.loc 1 1115 15
 1760 0036 BB89     		ldrh	r3, [r7, #12]	@ movhi
 1761 0038 1343     		orrs	r3, r3, r2
 1762 003a 9AB2     		uxth	r2, r3
 1763 003c 7B68     		ldr	r3, [r7, #4]
 1764 003e 9A80     		strh	r2, [r3, #4]	@ movhi
1116:../Shared/Libraries/STM32F4xx_StdPeriph_Driver/src/stm32f4xx_spi.c ****   }
1117:../Shared/Libraries/STM32F4xx_StdPeriph_Driver/src/stm32f4xx_spi.c ****   else
1118:../Shared/Libraries/STM32F4xx_StdPeriph_Driver/src/stm32f4xx_spi.c ****   {
1119:../Shared/Libraries/STM32F4xx_StdPeriph_Driver/src/stm32f4xx_spi.c ****     /* Disable the selected SPI interrupt */
1120:../Shared/Libraries/STM32F4xx_StdPeriph_Driver/src/stm32f4xx_spi.c ****     SPIx->CR2 &= (uint16_t)~itmask;
1121:../Shared/Libraries/STM32F4xx_StdPeriph_Driver/src/stm32f4xx_spi.c ****   }
1122:../Shared/Libraries/STM32F4xx_StdPeriph_Driver/src/stm32f4xx_spi.c **** }
 1765              		.loc 1 1122 1
 1766 0040 09E0     		b	.L74
 1767              	.L72:
1120:../Shared/Libraries/STM32F4xx_StdPeriph_Driver/src/stm32f4xx_spi.c ****   }
 1768              		.loc 1 1120 9
 1769 0042 7B68     		ldr	r3, [r7, #4]
 1770 0044 9B88     		ldrh	r3, [r3, #4]	@ movhi
 1771 0046 9AB2     		uxth	r2, r3
1120:../Shared/Libraries/STM32F4xx_StdPeriph_Driver/src/stm32f4xx_spi.c ****   }
 1772              		.loc 1 1120 18
 1773 0048 BB89     		ldrh	r3, [r7, #12]	@ movhi
 1774 004a DB43     		mvns	r3, r3
 1775 004c 9BB2     		uxth	r3, r3
1120:../Shared/Libraries/STM32F4xx_StdPeriph_Driver/src/stm32f4xx_spi.c ****   }
 1776              		.loc 1 1120 15
 1777 004e 1340     		ands	r3, r3, r2
 1778 0050 9AB2     		uxth	r2, r3
 1779 0052 7B68     		ldr	r3, [r7, #4]
 1780 0054 9A80     		strh	r2, [r3, #4]	@ movhi
 1781              	.L74:
 1782              		.loc 1 1122 1
 1783 0056 00BF     		nop
 1784 0058 1437     		adds	r7, r7, #20
 1785              	.LCFI122:
ARM GAS  /tmp/ccTxF6x3.s 			page 52


 1786              		.cfi_def_cfa_offset 4
 1787 005a BD46     		mov	sp, r7
 1788              	.LCFI123:
 1789              		.cfi_def_cfa_register 13
 1790              		@ sp needed
 1791 005c 5DF8047B 		ldr	r7, [sp], #4
 1792              	.LCFI124:
 1793              		.cfi_restore 7
 1794              		.cfi_def_cfa_offset 0
 1795 0060 7047     		bx	lr
 1796              		.cfi_endproc
 1797              	.LFE130:
 1799              		.section	.text.SPI_I2S_GetFlagStatus,"ax",%progbits
 1800              		.align	1
 1801              		.global	SPI_I2S_GetFlagStatus
 1802              		.syntax unified
 1803              		.thumb
 1804              		.thumb_func
 1806              	SPI_I2S_GetFlagStatus:
 1807              	.LFB131:
1123:../Shared/Libraries/STM32F4xx_StdPeriph_Driver/src/stm32f4xx_spi.c **** 
1124:../Shared/Libraries/STM32F4xx_StdPeriph_Driver/src/stm32f4xx_spi.c **** /**
1125:../Shared/Libraries/STM32F4xx_StdPeriph_Driver/src/stm32f4xx_spi.c ****   * @brief  Checks whether the specified SPIx/I2Sx flag is set or not.
1126:../Shared/Libraries/STM32F4xx_StdPeriph_Driver/src/stm32f4xx_spi.c ****   * @param  SPIx: To select the SPIx/I2Sx peripheral, where x can be: 1, 2 or 3 
1127:../Shared/Libraries/STM32F4xx_StdPeriph_Driver/src/stm32f4xx_spi.c ****   *         in SPI mode or 2 or 3 in I2S mode or I2Sxext for I2S full duplex mode. 
1128:../Shared/Libraries/STM32F4xx_StdPeriph_Driver/src/stm32f4xx_spi.c ****   * @param  SPI_I2S_FLAG: specifies the SPI flag to check. 
1129:../Shared/Libraries/STM32F4xx_StdPeriph_Driver/src/stm32f4xx_spi.c ****   *          This parameter can be one of the following values:
1130:../Shared/Libraries/STM32F4xx_StdPeriph_Driver/src/stm32f4xx_spi.c ****   *            @arg SPI_I2S_FLAG_TXE: Transmit buffer empty flag.
1131:../Shared/Libraries/STM32F4xx_StdPeriph_Driver/src/stm32f4xx_spi.c ****   *            @arg SPI_I2S_FLAG_RXNE: Receive buffer not empty flag.
1132:../Shared/Libraries/STM32F4xx_StdPeriph_Driver/src/stm32f4xx_spi.c ****   *            @arg SPI_I2S_FLAG_BSY: Busy flag.
1133:../Shared/Libraries/STM32F4xx_StdPeriph_Driver/src/stm32f4xx_spi.c ****   *            @arg SPI_I2S_FLAG_OVR: Overrun flag.
1134:../Shared/Libraries/STM32F4xx_StdPeriph_Driver/src/stm32f4xx_spi.c ****   *            @arg SPI_FLAG_MODF: Mode Fault flag.
1135:../Shared/Libraries/STM32F4xx_StdPeriph_Driver/src/stm32f4xx_spi.c ****   *            @arg SPI_FLAG_CRCERR: CRC Error flag.
1136:../Shared/Libraries/STM32F4xx_StdPeriph_Driver/src/stm32f4xx_spi.c ****   *            @arg SPI_I2S_FLAG_TIFRFE: Format Error.
1137:../Shared/Libraries/STM32F4xx_StdPeriph_Driver/src/stm32f4xx_spi.c ****   *            @arg I2S_FLAG_UDR: Underrun Error flag.
1138:../Shared/Libraries/STM32F4xx_StdPeriph_Driver/src/stm32f4xx_spi.c ****   *            @arg I2S_FLAG_CHSIDE: Channel Side flag.  
1139:../Shared/Libraries/STM32F4xx_StdPeriph_Driver/src/stm32f4xx_spi.c ****   * @retval The new state of SPI_I2S_FLAG (SET or RESET).
1140:../Shared/Libraries/STM32F4xx_StdPeriph_Driver/src/stm32f4xx_spi.c ****   */
1141:../Shared/Libraries/STM32F4xx_StdPeriph_Driver/src/stm32f4xx_spi.c **** FlagStatus SPI_I2S_GetFlagStatus(SPI_TypeDef* SPIx, uint16_t SPI_I2S_FLAG)
1142:../Shared/Libraries/STM32F4xx_StdPeriph_Driver/src/stm32f4xx_spi.c **** {
 1808              		.loc 1 1142 1
 1809              		.cfi_startproc
 1810              		@ args = 0, pretend = 0, frame = 16
 1811              		@ frame_needed = 1, uses_anonymous_args = 0
 1812              		@ link register save eliminated.
 1813 0000 80B4     		push	{r7}
 1814              	.LCFI125:
 1815              		.cfi_def_cfa_offset 4
 1816              		.cfi_offset 7, -4
 1817 0002 85B0     		sub	sp, sp, #20
 1818              	.LCFI126:
 1819              		.cfi_def_cfa_offset 24
 1820 0004 00AF     		add	r7, sp, #0
 1821              	.LCFI127:
 1822              		.cfi_def_cfa_register 7
 1823 0006 7860     		str	r0, [r7, #4]
 1824 0008 0B46     		mov	r3, r1
ARM GAS  /tmp/ccTxF6x3.s 			page 53


 1825 000a 7B80     		strh	r3, [r7, #2]	@ movhi
1143:../Shared/Libraries/STM32F4xx_StdPeriph_Driver/src/stm32f4xx_spi.c ****   FlagStatus bitstatus = RESET;
 1826              		.loc 1 1143 14
 1827 000c 0023     		movs	r3, #0
 1828 000e FB73     		strb	r3, [r7, #15]
1144:../Shared/Libraries/STM32F4xx_StdPeriph_Driver/src/stm32f4xx_spi.c ****   /* Check the parameters */
1145:../Shared/Libraries/STM32F4xx_StdPeriph_Driver/src/stm32f4xx_spi.c ****   assert_param(IS_SPI_ALL_PERIPH_EXT(SPIx));
1146:../Shared/Libraries/STM32F4xx_StdPeriph_Driver/src/stm32f4xx_spi.c ****   assert_param(IS_SPI_I2S_GET_FLAG(SPI_I2S_FLAG));
1147:../Shared/Libraries/STM32F4xx_StdPeriph_Driver/src/stm32f4xx_spi.c ****   
1148:../Shared/Libraries/STM32F4xx_StdPeriph_Driver/src/stm32f4xx_spi.c ****   /* Check the status of the specified SPI flag */
1149:../Shared/Libraries/STM32F4xx_StdPeriph_Driver/src/stm32f4xx_spi.c ****   if ((SPIx->SR & SPI_I2S_FLAG) != (uint16_t)RESET)
 1829              		.loc 1 1149 12
 1830 0010 7B68     		ldr	r3, [r7, #4]
 1831 0012 1B89     		ldrh	r3, [r3, #8]	@ movhi
 1832 0014 9AB2     		uxth	r2, r3
 1833              		.loc 1 1149 33
 1834 0016 7B88     		ldrh	r3, [r7, #2]	@ movhi
 1835 0018 1340     		ands	r3, r3, r2
 1836 001a 9BB2     		uxth	r3, r3
 1837              		.loc 1 1149 6
 1838 001c 002B     		cmp	r3, #0
 1839 001e 02D0     		beq	.L76
1150:../Shared/Libraries/STM32F4xx_StdPeriph_Driver/src/stm32f4xx_spi.c ****   {
1151:../Shared/Libraries/STM32F4xx_StdPeriph_Driver/src/stm32f4xx_spi.c ****     /* SPI_I2S_FLAG is set */
1152:../Shared/Libraries/STM32F4xx_StdPeriph_Driver/src/stm32f4xx_spi.c ****     bitstatus = SET;
 1840              		.loc 1 1152 15
 1841 0020 0123     		movs	r3, #1
 1842 0022 FB73     		strb	r3, [r7, #15]
 1843 0024 01E0     		b	.L77
 1844              	.L76:
1153:../Shared/Libraries/STM32F4xx_StdPeriph_Driver/src/stm32f4xx_spi.c ****   }
1154:../Shared/Libraries/STM32F4xx_StdPeriph_Driver/src/stm32f4xx_spi.c ****   else
1155:../Shared/Libraries/STM32F4xx_StdPeriph_Driver/src/stm32f4xx_spi.c ****   {
1156:../Shared/Libraries/STM32F4xx_StdPeriph_Driver/src/stm32f4xx_spi.c ****     /* SPI_I2S_FLAG is reset */
1157:../Shared/Libraries/STM32F4xx_StdPeriph_Driver/src/stm32f4xx_spi.c ****     bitstatus = RESET;
 1845              		.loc 1 1157 15
 1846 0026 0023     		movs	r3, #0
 1847 0028 FB73     		strb	r3, [r7, #15]
 1848              	.L77:
1158:../Shared/Libraries/STM32F4xx_StdPeriph_Driver/src/stm32f4xx_spi.c ****   }
1159:../Shared/Libraries/STM32F4xx_StdPeriph_Driver/src/stm32f4xx_spi.c ****   /* Return the SPI_I2S_FLAG status */
1160:../Shared/Libraries/STM32F4xx_StdPeriph_Driver/src/stm32f4xx_spi.c ****   return  bitstatus;
 1849              		.loc 1 1160 11
 1850 002a FB7B     		ldrb	r3, [r7, #15]	@ zero_extendqisi2
1161:../Shared/Libraries/STM32F4xx_StdPeriph_Driver/src/stm32f4xx_spi.c **** }
 1851              		.loc 1 1161 1
 1852 002c 1846     		mov	r0, r3
 1853 002e 1437     		adds	r7, r7, #20
 1854              	.LCFI128:
 1855              		.cfi_def_cfa_offset 4
 1856 0030 BD46     		mov	sp, r7
 1857              	.LCFI129:
 1858              		.cfi_def_cfa_register 13
 1859              		@ sp needed
 1860 0032 5DF8047B 		ldr	r7, [sp], #4
 1861              	.LCFI130:
 1862              		.cfi_restore 7
ARM GAS  /tmp/ccTxF6x3.s 			page 54


 1863              		.cfi_def_cfa_offset 0
 1864 0036 7047     		bx	lr
 1865              		.cfi_endproc
 1866              	.LFE131:
 1868              		.section	.text.SPI_I2S_ClearFlag,"ax",%progbits
 1869              		.align	1
 1870              		.global	SPI_I2S_ClearFlag
 1871              		.syntax unified
 1872              		.thumb
 1873              		.thumb_func
 1875              	SPI_I2S_ClearFlag:
 1876              	.LFB132:
1162:../Shared/Libraries/STM32F4xx_StdPeriph_Driver/src/stm32f4xx_spi.c **** 
1163:../Shared/Libraries/STM32F4xx_StdPeriph_Driver/src/stm32f4xx_spi.c **** /**
1164:../Shared/Libraries/STM32F4xx_StdPeriph_Driver/src/stm32f4xx_spi.c ****   * @brief  Clears the SPIx CRC Error (CRCERR) flag.
1165:../Shared/Libraries/STM32F4xx_StdPeriph_Driver/src/stm32f4xx_spi.c ****   * @param  SPIx: To select the SPIx/I2Sx peripheral, where x can be: 1, 2 or 3 
1166:../Shared/Libraries/STM32F4xx_StdPeriph_Driver/src/stm32f4xx_spi.c ****   *         in SPI mode or 2 or 3 in I2S mode or I2Sxext for I2S full duplex mode. 
1167:../Shared/Libraries/STM32F4xx_StdPeriph_Driver/src/stm32f4xx_spi.c ****   * @param  SPI_I2S_FLAG: specifies the SPI flag to clear. 
1168:../Shared/Libraries/STM32F4xx_StdPeriph_Driver/src/stm32f4xx_spi.c ****   *          This function clears only CRCERR flag.
1169:../Shared/Libraries/STM32F4xx_StdPeriph_Driver/src/stm32f4xx_spi.c ****   *            @arg SPI_FLAG_CRCERR: CRC Error flag.  
1170:../Shared/Libraries/STM32F4xx_StdPeriph_Driver/src/stm32f4xx_spi.c ****   *  
1171:../Shared/Libraries/STM32F4xx_StdPeriph_Driver/src/stm32f4xx_spi.c ****   * @note   OVR (OverRun error) flag is cleared by software sequence: a read 
1172:../Shared/Libraries/STM32F4xx_StdPeriph_Driver/src/stm32f4xx_spi.c ****   *          operation to SPI_DR register (SPI_I2S_ReceiveData()) followed by a read 
1173:../Shared/Libraries/STM32F4xx_StdPeriph_Driver/src/stm32f4xx_spi.c ****   *          operation to SPI_SR register (SPI_I2S_GetFlagStatus()).
1174:../Shared/Libraries/STM32F4xx_StdPeriph_Driver/src/stm32f4xx_spi.c ****   * @note   UDR (UnderRun error) flag is cleared by a read operation to 
1175:../Shared/Libraries/STM32F4xx_StdPeriph_Driver/src/stm32f4xx_spi.c ****   *          SPI_SR register (SPI_I2S_GetFlagStatus()).   
1176:../Shared/Libraries/STM32F4xx_StdPeriph_Driver/src/stm32f4xx_spi.c ****   * @note   MODF (Mode Fault) flag is cleared by software sequence: a read/write 
1177:../Shared/Libraries/STM32F4xx_StdPeriph_Driver/src/stm32f4xx_spi.c ****   *          operation to SPI_SR register (SPI_I2S_GetFlagStatus()) followed by a 
1178:../Shared/Libraries/STM32F4xx_StdPeriph_Driver/src/stm32f4xx_spi.c ****   *          write operation to SPI_CR1 register (SPI_Cmd() to enable the SPI).
1179:../Shared/Libraries/STM32F4xx_StdPeriph_Driver/src/stm32f4xx_spi.c ****   *  
1180:../Shared/Libraries/STM32F4xx_StdPeriph_Driver/src/stm32f4xx_spi.c ****   * @retval None
1181:../Shared/Libraries/STM32F4xx_StdPeriph_Driver/src/stm32f4xx_spi.c ****   */
1182:../Shared/Libraries/STM32F4xx_StdPeriph_Driver/src/stm32f4xx_spi.c **** void SPI_I2S_ClearFlag(SPI_TypeDef* SPIx, uint16_t SPI_I2S_FLAG)
1183:../Shared/Libraries/STM32F4xx_StdPeriph_Driver/src/stm32f4xx_spi.c **** {
 1877              		.loc 1 1183 1
 1878              		.cfi_startproc
 1879              		@ args = 0, pretend = 0, frame = 8
 1880              		@ frame_needed = 1, uses_anonymous_args = 0
 1881              		@ link register save eliminated.
 1882 0000 80B4     		push	{r7}
 1883              	.LCFI131:
 1884              		.cfi_def_cfa_offset 4
 1885              		.cfi_offset 7, -4
 1886 0002 83B0     		sub	sp, sp, #12
 1887              	.LCFI132:
 1888              		.cfi_def_cfa_offset 16
 1889 0004 00AF     		add	r7, sp, #0
 1890              	.LCFI133:
 1891              		.cfi_def_cfa_register 7
 1892 0006 7860     		str	r0, [r7, #4]
 1893 0008 0B46     		mov	r3, r1
 1894 000a 7B80     		strh	r3, [r7, #2]	@ movhi
1184:../Shared/Libraries/STM32F4xx_StdPeriph_Driver/src/stm32f4xx_spi.c ****   /* Check the parameters */
1185:../Shared/Libraries/STM32F4xx_StdPeriph_Driver/src/stm32f4xx_spi.c ****   assert_param(IS_SPI_ALL_PERIPH_EXT(SPIx));
1186:../Shared/Libraries/STM32F4xx_StdPeriph_Driver/src/stm32f4xx_spi.c ****   assert_param(IS_SPI_I2S_CLEAR_FLAG(SPI_I2S_FLAG));
1187:../Shared/Libraries/STM32F4xx_StdPeriph_Driver/src/stm32f4xx_spi.c ****     
1188:../Shared/Libraries/STM32F4xx_StdPeriph_Driver/src/stm32f4xx_spi.c ****   /* Clear the selected SPI CRC Error (CRCERR) flag */
ARM GAS  /tmp/ccTxF6x3.s 			page 55


1189:../Shared/Libraries/STM32F4xx_StdPeriph_Driver/src/stm32f4xx_spi.c ****   SPIx->SR = (uint16_t)~SPI_I2S_FLAG;
 1895              		.loc 1 1189 14
 1896 000c 7B88     		ldrh	r3, [r7, #2]	@ movhi
 1897 000e DB43     		mvns	r3, r3
 1898 0010 9AB2     		uxth	r2, r3
 1899              		.loc 1 1189 12
 1900 0012 7B68     		ldr	r3, [r7, #4]
 1901 0014 1A81     		strh	r2, [r3, #8]	@ movhi
1190:../Shared/Libraries/STM32F4xx_StdPeriph_Driver/src/stm32f4xx_spi.c **** }
 1902              		.loc 1 1190 1
 1903 0016 00BF     		nop
 1904 0018 0C37     		adds	r7, r7, #12
 1905              	.LCFI134:
 1906              		.cfi_def_cfa_offset 4
 1907 001a BD46     		mov	sp, r7
 1908              	.LCFI135:
 1909              		.cfi_def_cfa_register 13
 1910              		@ sp needed
 1911 001c 5DF8047B 		ldr	r7, [sp], #4
 1912              	.LCFI136:
 1913              		.cfi_restore 7
 1914              		.cfi_def_cfa_offset 0
 1915 0020 7047     		bx	lr
 1916              		.cfi_endproc
 1917              	.LFE132:
 1919              		.section	.text.SPI_I2S_GetITStatus,"ax",%progbits
 1920              		.align	1
 1921              		.global	SPI_I2S_GetITStatus
 1922              		.syntax unified
 1923              		.thumb
 1924              		.thumb_func
 1926              	SPI_I2S_GetITStatus:
 1927              	.LFB133:
1191:../Shared/Libraries/STM32F4xx_StdPeriph_Driver/src/stm32f4xx_spi.c **** 
1192:../Shared/Libraries/STM32F4xx_StdPeriph_Driver/src/stm32f4xx_spi.c **** /**
1193:../Shared/Libraries/STM32F4xx_StdPeriph_Driver/src/stm32f4xx_spi.c ****   * @brief  Checks whether the specified SPIx/I2Sx interrupt has occurred or not.
1194:../Shared/Libraries/STM32F4xx_StdPeriph_Driver/src/stm32f4xx_spi.c ****   * @param  SPIx: To select the SPIx/I2Sx peripheral, where x can be: 1, 2 or 3 
1195:../Shared/Libraries/STM32F4xx_StdPeriph_Driver/src/stm32f4xx_spi.c ****   *         in SPI mode or 2 or 3 in I2S mode or I2Sxext for I2S full duplex mode.  
1196:../Shared/Libraries/STM32F4xx_StdPeriph_Driver/src/stm32f4xx_spi.c ****   * @param  SPI_I2S_IT: specifies the SPI interrupt source to check. 
1197:../Shared/Libraries/STM32F4xx_StdPeriph_Driver/src/stm32f4xx_spi.c ****   *          This parameter can be one of the following values:
1198:../Shared/Libraries/STM32F4xx_StdPeriph_Driver/src/stm32f4xx_spi.c ****   *            @arg SPI_I2S_IT_TXE: Transmit buffer empty interrupt.
1199:../Shared/Libraries/STM32F4xx_StdPeriph_Driver/src/stm32f4xx_spi.c ****   *            @arg SPI_I2S_IT_RXNE: Receive buffer not empty interrupt.
1200:../Shared/Libraries/STM32F4xx_StdPeriph_Driver/src/stm32f4xx_spi.c ****   *            @arg SPI_I2S_IT_OVR: Overrun interrupt.
1201:../Shared/Libraries/STM32F4xx_StdPeriph_Driver/src/stm32f4xx_spi.c ****   *            @arg SPI_IT_MODF: Mode Fault interrupt.
1202:../Shared/Libraries/STM32F4xx_StdPeriph_Driver/src/stm32f4xx_spi.c ****   *            @arg SPI_IT_CRCERR: CRC Error interrupt.
1203:../Shared/Libraries/STM32F4xx_StdPeriph_Driver/src/stm32f4xx_spi.c ****   *            @arg I2S_IT_UDR: Underrun interrupt.  
1204:../Shared/Libraries/STM32F4xx_StdPeriph_Driver/src/stm32f4xx_spi.c ****   *            @arg SPI_I2S_IT_TIFRFE: Format Error interrupt.  
1205:../Shared/Libraries/STM32F4xx_StdPeriph_Driver/src/stm32f4xx_spi.c ****   * @retval The new state of SPI_I2S_IT (SET or RESET).
1206:../Shared/Libraries/STM32F4xx_StdPeriph_Driver/src/stm32f4xx_spi.c ****   */
1207:../Shared/Libraries/STM32F4xx_StdPeriph_Driver/src/stm32f4xx_spi.c **** ITStatus SPI_I2S_GetITStatus(SPI_TypeDef* SPIx, uint8_t SPI_I2S_IT)
1208:../Shared/Libraries/STM32F4xx_StdPeriph_Driver/src/stm32f4xx_spi.c **** {
 1928              		.loc 1 1208 1
 1929              		.cfi_startproc
 1930              		@ args = 0, pretend = 0, frame = 16
 1931              		@ frame_needed = 1, uses_anonymous_args = 0
 1932              		@ link register save eliminated.
 1933 0000 80B4     		push	{r7}
ARM GAS  /tmp/ccTxF6x3.s 			page 56


 1934              	.LCFI137:
 1935              		.cfi_def_cfa_offset 4
 1936              		.cfi_offset 7, -4
 1937 0002 85B0     		sub	sp, sp, #20
 1938              	.LCFI138:
 1939              		.cfi_def_cfa_offset 24
 1940 0004 00AF     		add	r7, sp, #0
 1941              	.LCFI139:
 1942              		.cfi_def_cfa_register 7
 1943 0006 7860     		str	r0, [r7, #4]
 1944 0008 0B46     		mov	r3, r1
 1945 000a FB70     		strb	r3, [r7, #3]
1209:../Shared/Libraries/STM32F4xx_StdPeriph_Driver/src/stm32f4xx_spi.c ****   ITStatus bitstatus = RESET;
 1946              		.loc 1 1209 12
 1947 000c 0023     		movs	r3, #0
 1948 000e FB73     		strb	r3, [r7, #15]
1210:../Shared/Libraries/STM32F4xx_StdPeriph_Driver/src/stm32f4xx_spi.c ****   uint16_t itpos = 0, itmask = 0, enablestatus = 0;
 1949              		.loc 1 1210 12
 1950 0010 0023     		movs	r3, #0
 1951 0012 BB81     		strh	r3, [r7, #12]	@ movhi
 1952              		.loc 1 1210 23
 1953 0014 0023     		movs	r3, #0
 1954 0016 7B81     		strh	r3, [r7, #10]	@ movhi
 1955              		.loc 1 1210 35
 1956 0018 0023     		movs	r3, #0
 1957 001a 3B81     		strh	r3, [r7, #8]	@ movhi
1211:../Shared/Libraries/STM32F4xx_StdPeriph_Driver/src/stm32f4xx_spi.c **** 
1212:../Shared/Libraries/STM32F4xx_StdPeriph_Driver/src/stm32f4xx_spi.c ****   /* Check the parameters */
1213:../Shared/Libraries/STM32F4xx_StdPeriph_Driver/src/stm32f4xx_spi.c ****   assert_param(IS_SPI_ALL_PERIPH_EXT(SPIx));
1214:../Shared/Libraries/STM32F4xx_StdPeriph_Driver/src/stm32f4xx_spi.c ****   assert_param(IS_SPI_I2S_GET_IT(SPI_I2S_IT));
1215:../Shared/Libraries/STM32F4xx_StdPeriph_Driver/src/stm32f4xx_spi.c **** 
1216:../Shared/Libraries/STM32F4xx_StdPeriph_Driver/src/stm32f4xx_spi.c ****   /* Get the SPI_I2S_IT index */
1217:../Shared/Libraries/STM32F4xx_StdPeriph_Driver/src/stm32f4xx_spi.c ****   itpos = 0x01 << (SPI_I2S_IT & 0x0F);
 1958              		.loc 1 1217 31
 1959 001c FB78     		ldrb	r3, [r7, #3]	@ zero_extendqisi2
 1960 001e 03F00F03 		and	r3, r3, #15
 1961              		.loc 1 1217 16
 1962 0022 0122     		movs	r2, #1
 1963 0024 02FA03F3 		lsl	r3, r2, r3
 1964              		.loc 1 1217 9
 1965 0028 BB81     		strh	r3, [r7, #12]	@ movhi
1218:../Shared/Libraries/STM32F4xx_StdPeriph_Driver/src/stm32f4xx_spi.c **** 
1219:../Shared/Libraries/STM32F4xx_StdPeriph_Driver/src/stm32f4xx_spi.c ****   /* Get the SPI_I2S_IT IT mask */
1220:../Shared/Libraries/STM32F4xx_StdPeriph_Driver/src/stm32f4xx_spi.c ****   itmask = SPI_I2S_IT >> 4;
 1966              		.loc 1 1220 10
 1967 002a FB78     		ldrb	r3, [r7, #3]	@ zero_extendqisi2
 1968 002c 1B09     		lsrs	r3, r3, #4
 1969 002e DBB2     		uxtb	r3, r3
 1970 0030 7B81     		strh	r3, [r7, #10]	@ movhi
1221:../Shared/Libraries/STM32F4xx_StdPeriph_Driver/src/stm32f4xx_spi.c **** 
1222:../Shared/Libraries/STM32F4xx_StdPeriph_Driver/src/stm32f4xx_spi.c ****   /* Set the IT mask */
1223:../Shared/Libraries/STM32F4xx_StdPeriph_Driver/src/stm32f4xx_spi.c ****   itmask = 0x01 << itmask;
 1971              		.loc 1 1223 17
 1972 0032 7B89     		ldrh	r3, [r7, #10]
 1973 0034 0122     		movs	r2, #1
 1974 0036 02FA03F3 		lsl	r3, r2, r3
 1975              		.loc 1 1223 10
ARM GAS  /tmp/ccTxF6x3.s 			page 57


 1976 003a 7B81     		strh	r3, [r7, #10]	@ movhi
1224:../Shared/Libraries/STM32F4xx_StdPeriph_Driver/src/stm32f4xx_spi.c **** 
1225:../Shared/Libraries/STM32F4xx_StdPeriph_Driver/src/stm32f4xx_spi.c ****   /* Get the SPI_I2S_IT enable bit status */
1226:../Shared/Libraries/STM32F4xx_StdPeriph_Driver/src/stm32f4xx_spi.c ****   enablestatus = (SPIx->CR2 & itmask) ;
 1977              		.loc 1 1226 23
 1978 003c 7B68     		ldr	r3, [r7, #4]
 1979 003e 9B88     		ldrh	r3, [r3, #4]	@ movhi
 1980 0040 9AB2     		uxth	r2, r3
 1981              		.loc 1 1226 16
 1982 0042 7B89     		ldrh	r3, [r7, #10]	@ movhi
 1983 0044 1340     		ands	r3, r3, r2
 1984 0046 3B81     		strh	r3, [r7, #8]	@ movhi
1227:../Shared/Libraries/STM32F4xx_StdPeriph_Driver/src/stm32f4xx_spi.c **** 
1228:../Shared/Libraries/STM32F4xx_StdPeriph_Driver/src/stm32f4xx_spi.c ****   /* Check the status of the specified SPI interrupt */
1229:../Shared/Libraries/STM32F4xx_StdPeriph_Driver/src/stm32f4xx_spi.c ****   if (((SPIx->SR & itpos) != (uint16_t)RESET) && enablestatus)
 1985              		.loc 1 1229 13
 1986 0048 7B68     		ldr	r3, [r7, #4]
 1987 004a 1B89     		ldrh	r3, [r3, #8]	@ movhi
 1988 004c 9AB2     		uxth	r2, r3
 1989              		.loc 1 1229 27
 1990 004e BB89     		ldrh	r3, [r7, #12]	@ movhi
 1991 0050 1340     		ands	r3, r3, r2
 1992 0052 9BB2     		uxth	r3, r3
 1993              		.loc 1 1229 6
 1994 0054 002B     		cmp	r3, #0
 1995 0056 05D0     		beq	.L81
 1996              		.loc 1 1229 47 discriminator 1
 1997 0058 3B89     		ldrh	r3, [r7, #8]
 1998 005a 002B     		cmp	r3, #0
 1999 005c 02D0     		beq	.L81
1230:../Shared/Libraries/STM32F4xx_StdPeriph_Driver/src/stm32f4xx_spi.c ****   {
1231:../Shared/Libraries/STM32F4xx_StdPeriph_Driver/src/stm32f4xx_spi.c ****     /* SPI_I2S_IT is set */
1232:../Shared/Libraries/STM32F4xx_StdPeriph_Driver/src/stm32f4xx_spi.c ****     bitstatus = SET;
 2000              		.loc 1 1232 15
 2001 005e 0123     		movs	r3, #1
 2002 0060 FB73     		strb	r3, [r7, #15]
 2003 0062 01E0     		b	.L82
 2004              	.L81:
1233:../Shared/Libraries/STM32F4xx_StdPeriph_Driver/src/stm32f4xx_spi.c ****   }
1234:../Shared/Libraries/STM32F4xx_StdPeriph_Driver/src/stm32f4xx_spi.c ****   else
1235:../Shared/Libraries/STM32F4xx_StdPeriph_Driver/src/stm32f4xx_spi.c ****   {
1236:../Shared/Libraries/STM32F4xx_StdPeriph_Driver/src/stm32f4xx_spi.c ****     /* SPI_I2S_IT is reset */
1237:../Shared/Libraries/STM32F4xx_StdPeriph_Driver/src/stm32f4xx_spi.c ****     bitstatus = RESET;
 2005              		.loc 1 1237 15
 2006 0064 0023     		movs	r3, #0
 2007 0066 FB73     		strb	r3, [r7, #15]
 2008              	.L82:
1238:../Shared/Libraries/STM32F4xx_StdPeriph_Driver/src/stm32f4xx_spi.c ****   }
1239:../Shared/Libraries/STM32F4xx_StdPeriph_Driver/src/stm32f4xx_spi.c ****   /* Return the SPI_I2S_IT status */
1240:../Shared/Libraries/STM32F4xx_StdPeriph_Driver/src/stm32f4xx_spi.c ****   return bitstatus;
 2009              		.loc 1 1240 10
 2010 0068 FB7B     		ldrb	r3, [r7, #15]	@ zero_extendqisi2
1241:../Shared/Libraries/STM32F4xx_StdPeriph_Driver/src/stm32f4xx_spi.c **** }
 2011              		.loc 1 1241 1
 2012 006a 1846     		mov	r0, r3
 2013 006c 1437     		adds	r7, r7, #20
 2014              	.LCFI140:
ARM GAS  /tmp/ccTxF6x3.s 			page 58


 2015              		.cfi_def_cfa_offset 4
 2016 006e BD46     		mov	sp, r7
 2017              	.LCFI141:
 2018              		.cfi_def_cfa_register 13
 2019              		@ sp needed
 2020 0070 5DF8047B 		ldr	r7, [sp], #4
 2021              	.LCFI142:
 2022              		.cfi_restore 7
 2023              		.cfi_def_cfa_offset 0
 2024 0074 7047     		bx	lr
 2025              		.cfi_endproc
 2026              	.LFE133:
 2028              		.section	.text.SPI_I2S_ClearITPendingBit,"ax",%progbits
 2029              		.align	1
 2030              		.global	SPI_I2S_ClearITPendingBit
 2031              		.syntax unified
 2032              		.thumb
 2033              		.thumb_func
 2035              	SPI_I2S_ClearITPendingBit:
 2036              	.LFB134:
1242:../Shared/Libraries/STM32F4xx_StdPeriph_Driver/src/stm32f4xx_spi.c **** 
1243:../Shared/Libraries/STM32F4xx_StdPeriph_Driver/src/stm32f4xx_spi.c **** /**
1244:../Shared/Libraries/STM32F4xx_StdPeriph_Driver/src/stm32f4xx_spi.c ****   * @brief  Clears the SPIx CRC Error (CRCERR) interrupt pending bit.
1245:../Shared/Libraries/STM32F4xx_StdPeriph_Driver/src/stm32f4xx_spi.c ****   * @param  SPIx: To select the SPIx/I2Sx peripheral, where x can be: 1, 2 or 3 
1246:../Shared/Libraries/STM32F4xx_StdPeriph_Driver/src/stm32f4xx_spi.c ****   *         in SPI mode or 2 or 3 in I2S mode or I2Sxext for I2S full duplex mode.  
1247:../Shared/Libraries/STM32F4xx_StdPeriph_Driver/src/stm32f4xx_spi.c ****   * @param  SPI_I2S_IT: specifies the SPI interrupt pending bit to clear.
1248:../Shared/Libraries/STM32F4xx_StdPeriph_Driver/src/stm32f4xx_spi.c ****   *         This function clears only CRCERR interrupt pending bit.   
1249:../Shared/Libraries/STM32F4xx_StdPeriph_Driver/src/stm32f4xx_spi.c ****   *            @arg SPI_IT_CRCERR: CRC Error interrupt.
1250:../Shared/Libraries/STM32F4xx_StdPeriph_Driver/src/stm32f4xx_spi.c ****   *   
1251:../Shared/Libraries/STM32F4xx_StdPeriph_Driver/src/stm32f4xx_spi.c ****   * @note   OVR (OverRun Error) interrupt pending bit is cleared by software 
1252:../Shared/Libraries/STM32F4xx_StdPeriph_Driver/src/stm32f4xx_spi.c ****   *          sequence: a read operation to SPI_DR register (SPI_I2S_ReceiveData()) 
1253:../Shared/Libraries/STM32F4xx_StdPeriph_Driver/src/stm32f4xx_spi.c ****   *          followed by a read operation to SPI_SR register (SPI_I2S_GetITStatus()).
1254:../Shared/Libraries/STM32F4xx_StdPeriph_Driver/src/stm32f4xx_spi.c ****   * @note   UDR (UnderRun Error) interrupt pending bit is cleared by a read 
1255:../Shared/Libraries/STM32F4xx_StdPeriph_Driver/src/stm32f4xx_spi.c ****   *          operation to SPI_SR register (SPI_I2S_GetITStatus()).   
1256:../Shared/Libraries/STM32F4xx_StdPeriph_Driver/src/stm32f4xx_spi.c ****   * @note   MODF (Mode Fault) interrupt pending bit is cleared by software sequence:
1257:../Shared/Libraries/STM32F4xx_StdPeriph_Driver/src/stm32f4xx_spi.c ****   *          a read/write operation to SPI_SR register (SPI_I2S_GetITStatus()) 
1258:../Shared/Libraries/STM32F4xx_StdPeriph_Driver/src/stm32f4xx_spi.c ****   *          followed by a write operation to SPI_CR1 register (SPI_Cmd() to enable 
1259:../Shared/Libraries/STM32F4xx_StdPeriph_Driver/src/stm32f4xx_spi.c ****   *          the SPI).
1260:../Shared/Libraries/STM32F4xx_StdPeriph_Driver/src/stm32f4xx_spi.c ****   * @retval None
1261:../Shared/Libraries/STM32F4xx_StdPeriph_Driver/src/stm32f4xx_spi.c ****   */
1262:../Shared/Libraries/STM32F4xx_StdPeriph_Driver/src/stm32f4xx_spi.c **** void SPI_I2S_ClearITPendingBit(SPI_TypeDef* SPIx, uint8_t SPI_I2S_IT)
1263:../Shared/Libraries/STM32F4xx_StdPeriph_Driver/src/stm32f4xx_spi.c **** {
 2037              		.loc 1 1263 1
 2038              		.cfi_startproc
 2039              		@ args = 0, pretend = 0, frame = 16
 2040              		@ frame_needed = 1, uses_anonymous_args = 0
 2041              		@ link register save eliminated.
 2042 0000 80B4     		push	{r7}
 2043              	.LCFI143:
 2044              		.cfi_def_cfa_offset 4
 2045              		.cfi_offset 7, -4
 2046 0002 85B0     		sub	sp, sp, #20
 2047              	.LCFI144:
 2048              		.cfi_def_cfa_offset 24
 2049 0004 00AF     		add	r7, sp, #0
 2050              	.LCFI145:
 2051              		.cfi_def_cfa_register 7
ARM GAS  /tmp/ccTxF6x3.s 			page 59


 2052 0006 7860     		str	r0, [r7, #4]
 2053 0008 0B46     		mov	r3, r1
 2054 000a FB70     		strb	r3, [r7, #3]
1264:../Shared/Libraries/STM32F4xx_StdPeriph_Driver/src/stm32f4xx_spi.c ****   uint16_t itpos = 0;
 2055              		.loc 1 1264 12
 2056 000c 0023     		movs	r3, #0
 2057 000e FB81     		strh	r3, [r7, #14]	@ movhi
1265:../Shared/Libraries/STM32F4xx_StdPeriph_Driver/src/stm32f4xx_spi.c ****   /* Check the parameters */
1266:../Shared/Libraries/STM32F4xx_StdPeriph_Driver/src/stm32f4xx_spi.c ****   assert_param(IS_SPI_ALL_PERIPH_EXT(SPIx));
1267:../Shared/Libraries/STM32F4xx_StdPeriph_Driver/src/stm32f4xx_spi.c ****   assert_param(IS_SPI_I2S_CLEAR_IT(SPI_I2S_IT));
1268:../Shared/Libraries/STM32F4xx_StdPeriph_Driver/src/stm32f4xx_spi.c **** 
1269:../Shared/Libraries/STM32F4xx_StdPeriph_Driver/src/stm32f4xx_spi.c ****   /* Get the SPI_I2S IT index */
1270:../Shared/Libraries/STM32F4xx_StdPeriph_Driver/src/stm32f4xx_spi.c ****   itpos = 0x01 << (SPI_I2S_IT & 0x0F);
 2058              		.loc 1 1270 31
 2059 0010 FB78     		ldrb	r3, [r7, #3]	@ zero_extendqisi2
 2060 0012 03F00F03 		and	r3, r3, #15
 2061              		.loc 1 1270 16
 2062 0016 0122     		movs	r2, #1
 2063 0018 02FA03F3 		lsl	r3, r2, r3
 2064              		.loc 1 1270 9
 2065 001c FB81     		strh	r3, [r7, #14]	@ movhi
1271:../Shared/Libraries/STM32F4xx_StdPeriph_Driver/src/stm32f4xx_spi.c **** 
1272:../Shared/Libraries/STM32F4xx_StdPeriph_Driver/src/stm32f4xx_spi.c ****   /* Clear the selected SPI CRC Error (CRCERR) interrupt pending bit */
1273:../Shared/Libraries/STM32F4xx_StdPeriph_Driver/src/stm32f4xx_spi.c ****   SPIx->SR = (uint16_t)~itpos;
 2066              		.loc 1 1273 14
 2067 001e FB89     		ldrh	r3, [r7, #14]	@ movhi
 2068 0020 DB43     		mvns	r3, r3
 2069 0022 9AB2     		uxth	r2, r3
 2070              		.loc 1 1273 12
 2071 0024 7B68     		ldr	r3, [r7, #4]
 2072 0026 1A81     		strh	r2, [r3, #8]	@ movhi
1274:../Shared/Libraries/STM32F4xx_StdPeriph_Driver/src/stm32f4xx_spi.c **** }
 2073              		.loc 1 1274 1
 2074 0028 00BF     		nop
 2075 002a 1437     		adds	r7, r7, #20
 2076              	.LCFI146:
 2077              		.cfi_def_cfa_offset 4
 2078 002c BD46     		mov	sp, r7
 2079              	.LCFI147:
 2080              		.cfi_def_cfa_register 13
 2081              		@ sp needed
 2082 002e 5DF8047B 		ldr	r7, [sp], #4
 2083              	.LCFI148:
 2084              		.cfi_restore 7
 2085              		.cfi_def_cfa_offset 0
 2086 0032 7047     		bx	lr
 2087              		.cfi_endproc
 2088              	.LFE134:
 2090              		.text
 2091              	.Letext0:
 2092              		.file 2 "/usr/arm-none-eabi/include/machine/_default_types.h"
 2093              		.file 3 "/usr/arm-none-eabi/include/sys/_stdint.h"
 2094              		.file 4 "../Shared/Libraries/CMSIS/Device/ST/STM32F4xx/Include/stm32f4xx.h"
 2095              		.file 5 "../Shared/Libraries/STM32F4xx_StdPeriph_Driver/inc/stm32f4xx_spi.h"
 2096              		.file 6 "../Shared/Libraries/STM32F4xx_StdPeriph_Driver/inc/stm32f4xx_rcc.h"
ARM GAS  /tmp/ccTxF6x3.s 			page 60

