ARM GAS  /tmp/ccNR4ALM.s 			page 1


   1              		.cpu cortex-m4
   2              		.arch armv7e-m
   3              		.fpu fpv4-sp-d16
   4              		.eabi_attribute 27, 1
   5              		.eabi_attribute 28, 1
   6              		.eabi_attribute 20, 1
   7              		.eabi_attribute 21, 1
   8              		.eabi_attribute 23, 3
   9              		.eabi_attribute 24, 1
  10              		.eabi_attribute 25, 1
  11              		.eabi_attribute 26, 1
  12              		.eabi_attribute 30, 6
  13              		.eabi_attribute 34, 1
  14              		.eabi_attribute 18, 4
  15              		.file	"stm32f4xx_crc.c"
  16              		.text
  17              	.Ltext0:
  18              		.cfi_sections	.debug_frame
  19              		.file 1 "../Shared/Libraries/STM32F4xx_StdPeriph_Driver/src/stm32f4xx_crc.c"
  20              		.section	.text.CRC_ResetDR,"ax",%progbits
  21              		.align	1
  22              		.global	CRC_ResetDR
  23              		.syntax unified
  24              		.thumb
  25              		.thumb_func
  27              	CRC_ResetDR:
  28              	.LFB110:
   1:../Shared/Libraries/STM32F4xx_StdPeriph_Driver/src/stm32f4xx_crc.c **** /**
   2:../Shared/Libraries/STM32F4xx_StdPeriph_Driver/src/stm32f4xx_crc.c ****   ******************************************************************************
   3:../Shared/Libraries/STM32F4xx_StdPeriph_Driver/src/stm32f4xx_crc.c ****   * @file    stm32f4xx_crc.c
   4:../Shared/Libraries/STM32F4xx_StdPeriph_Driver/src/stm32f4xx_crc.c ****   * @author  MCD Application Team
   5:../Shared/Libraries/STM32F4xx_StdPeriph_Driver/src/stm32f4xx_crc.c ****   * @version V1.0.2
   6:../Shared/Libraries/STM32F4xx_StdPeriph_Driver/src/stm32f4xx_crc.c ****   * @date    05-March-2012
   7:../Shared/Libraries/STM32F4xx_StdPeriph_Driver/src/stm32f4xx_crc.c ****   * @brief   This file provides all the CRC firmware functions.
   8:../Shared/Libraries/STM32F4xx_StdPeriph_Driver/src/stm32f4xx_crc.c ****   ******************************************************************************
   9:../Shared/Libraries/STM32F4xx_StdPeriph_Driver/src/stm32f4xx_crc.c ****   * @attention
  10:../Shared/Libraries/STM32F4xx_StdPeriph_Driver/src/stm32f4xx_crc.c ****   *
  11:../Shared/Libraries/STM32F4xx_StdPeriph_Driver/src/stm32f4xx_crc.c ****   * <h2><center>&copy; COPYRIGHT 2012 STMicroelectronics</center></h2>
  12:../Shared/Libraries/STM32F4xx_StdPeriph_Driver/src/stm32f4xx_crc.c ****   *
  13:../Shared/Libraries/STM32F4xx_StdPeriph_Driver/src/stm32f4xx_crc.c ****   * Licensed under MCD-ST Liberty SW License Agreement V2, (the "License");
  14:../Shared/Libraries/STM32F4xx_StdPeriph_Driver/src/stm32f4xx_crc.c ****   * You may not use this file except in compliance with the License.
  15:../Shared/Libraries/STM32F4xx_StdPeriph_Driver/src/stm32f4xx_crc.c ****   * You may obtain a copy of the License at:
  16:../Shared/Libraries/STM32F4xx_StdPeriph_Driver/src/stm32f4xx_crc.c ****   *
  17:../Shared/Libraries/STM32F4xx_StdPeriph_Driver/src/stm32f4xx_crc.c ****   *        http://www.st.com/software_license_agreement_liberty_v2
  18:../Shared/Libraries/STM32F4xx_StdPeriph_Driver/src/stm32f4xx_crc.c ****   *
  19:../Shared/Libraries/STM32F4xx_StdPeriph_Driver/src/stm32f4xx_crc.c ****   * Unless required by applicable law or agreed to in writing, software 
  20:../Shared/Libraries/STM32F4xx_StdPeriph_Driver/src/stm32f4xx_crc.c ****   * distributed under the License is distributed on an "AS IS" BASIS, 
  21:../Shared/Libraries/STM32F4xx_StdPeriph_Driver/src/stm32f4xx_crc.c ****   * WITHOUT WARRANTIES OR CONDITIONS OF ANY KIND, either express or implied.
  22:../Shared/Libraries/STM32F4xx_StdPeriph_Driver/src/stm32f4xx_crc.c ****   * See the License for the specific language governing permissions and
  23:../Shared/Libraries/STM32F4xx_StdPeriph_Driver/src/stm32f4xx_crc.c ****   * limitations under the License.
  24:../Shared/Libraries/STM32F4xx_StdPeriph_Driver/src/stm32f4xx_crc.c ****   *
  25:../Shared/Libraries/STM32F4xx_StdPeriph_Driver/src/stm32f4xx_crc.c ****   ******************************************************************************
  26:../Shared/Libraries/STM32F4xx_StdPeriph_Driver/src/stm32f4xx_crc.c ****   */
  27:../Shared/Libraries/STM32F4xx_StdPeriph_Driver/src/stm32f4xx_crc.c **** 
  28:../Shared/Libraries/STM32F4xx_StdPeriph_Driver/src/stm32f4xx_crc.c **** /* Includes ------------------------------------------------------------------*/
  29:../Shared/Libraries/STM32F4xx_StdPeriph_Driver/src/stm32f4xx_crc.c **** #include "stm32f4xx_crc.h"
  30:../Shared/Libraries/STM32F4xx_StdPeriph_Driver/src/stm32f4xx_crc.c **** 
ARM GAS  /tmp/ccNR4ALM.s 			page 2


  31:../Shared/Libraries/STM32F4xx_StdPeriph_Driver/src/stm32f4xx_crc.c **** /** @addtogroup STM32F4xx_StdPeriph_Driver
  32:../Shared/Libraries/STM32F4xx_StdPeriph_Driver/src/stm32f4xx_crc.c ****   * @{
  33:../Shared/Libraries/STM32F4xx_StdPeriph_Driver/src/stm32f4xx_crc.c ****   */
  34:../Shared/Libraries/STM32F4xx_StdPeriph_Driver/src/stm32f4xx_crc.c **** 
  35:../Shared/Libraries/STM32F4xx_StdPeriph_Driver/src/stm32f4xx_crc.c **** /** @defgroup CRC 
  36:../Shared/Libraries/STM32F4xx_StdPeriph_Driver/src/stm32f4xx_crc.c ****   * @brief CRC driver modules
  37:../Shared/Libraries/STM32F4xx_StdPeriph_Driver/src/stm32f4xx_crc.c ****   * @{
  38:../Shared/Libraries/STM32F4xx_StdPeriph_Driver/src/stm32f4xx_crc.c ****   */
  39:../Shared/Libraries/STM32F4xx_StdPeriph_Driver/src/stm32f4xx_crc.c **** 
  40:../Shared/Libraries/STM32F4xx_StdPeriph_Driver/src/stm32f4xx_crc.c **** /* Private typedef -----------------------------------------------------------*/
  41:../Shared/Libraries/STM32F4xx_StdPeriph_Driver/src/stm32f4xx_crc.c **** /* Private define ------------------------------------------------------------*/
  42:../Shared/Libraries/STM32F4xx_StdPeriph_Driver/src/stm32f4xx_crc.c **** /* Private macro -------------------------------------------------------------*/
  43:../Shared/Libraries/STM32F4xx_StdPeriph_Driver/src/stm32f4xx_crc.c **** /* Private variables ---------------------------------------------------------*/
  44:../Shared/Libraries/STM32F4xx_StdPeriph_Driver/src/stm32f4xx_crc.c **** /* Private function prototypes -----------------------------------------------*/
  45:../Shared/Libraries/STM32F4xx_StdPeriph_Driver/src/stm32f4xx_crc.c **** /* Private functions ---------------------------------------------------------*/
  46:../Shared/Libraries/STM32F4xx_StdPeriph_Driver/src/stm32f4xx_crc.c **** 
  47:../Shared/Libraries/STM32F4xx_StdPeriph_Driver/src/stm32f4xx_crc.c **** /** @defgroup CRC_Private_Functions
  48:../Shared/Libraries/STM32F4xx_StdPeriph_Driver/src/stm32f4xx_crc.c ****   * @{
  49:../Shared/Libraries/STM32F4xx_StdPeriph_Driver/src/stm32f4xx_crc.c ****   */
  50:../Shared/Libraries/STM32F4xx_StdPeriph_Driver/src/stm32f4xx_crc.c **** 
  51:../Shared/Libraries/STM32F4xx_StdPeriph_Driver/src/stm32f4xx_crc.c **** /**
  52:../Shared/Libraries/STM32F4xx_StdPeriph_Driver/src/stm32f4xx_crc.c ****   * @brief  Resets the CRC Data register (DR).
  53:../Shared/Libraries/STM32F4xx_StdPeriph_Driver/src/stm32f4xx_crc.c ****   * @param  None
  54:../Shared/Libraries/STM32F4xx_StdPeriph_Driver/src/stm32f4xx_crc.c ****   * @retval None
  55:../Shared/Libraries/STM32F4xx_StdPeriph_Driver/src/stm32f4xx_crc.c ****   */
  56:../Shared/Libraries/STM32F4xx_StdPeriph_Driver/src/stm32f4xx_crc.c **** void CRC_ResetDR(void)
  57:../Shared/Libraries/STM32F4xx_StdPeriph_Driver/src/stm32f4xx_crc.c **** {
  29              		.loc 1 57 1
  30              		.cfi_startproc
  31              		@ args = 0, pretend = 0, frame = 0
  32              		@ frame_needed = 1, uses_anonymous_args = 0
  33              		@ link register save eliminated.
  34 0000 80B4     		push	{r7}
  35              	.LCFI0:
  36              		.cfi_def_cfa_offset 4
  37              		.cfi_offset 7, -4
  38 0002 00AF     		add	r7, sp, #0
  39              	.LCFI1:
  40              		.cfi_def_cfa_register 7
  58:../Shared/Libraries/STM32F4xx_StdPeriph_Driver/src/stm32f4xx_crc.c ****   /* Reset CRC generator */
  59:../Shared/Libraries/STM32F4xx_StdPeriph_Driver/src/stm32f4xx_crc.c ****   CRC->CR = CRC_CR_RESET;
  41              		.loc 1 59 6
  42 0004 034B     		ldr	r3, .L2
  43              		.loc 1 59 11
  44 0006 0122     		movs	r2, #1
  45 0008 9A60     		str	r2, [r3, #8]
  60:../Shared/Libraries/STM32F4xx_StdPeriph_Driver/src/stm32f4xx_crc.c **** }
  46              		.loc 1 60 1
  47 000a 00BF     		nop
  48 000c BD46     		mov	sp, r7
  49              	.LCFI2:
  50              		.cfi_def_cfa_register 13
  51              		@ sp needed
  52 000e 5DF8047B 		ldr	r7, [sp], #4
  53              	.LCFI3:
  54              		.cfi_restore 7
  55              		.cfi_def_cfa_offset 0
ARM GAS  /tmp/ccNR4ALM.s 			page 3


  56 0012 7047     		bx	lr
  57              	.L3:
  58              		.align	2
  59              	.L2:
  60 0014 00300240 		.word	1073885184
  61              		.cfi_endproc
  62              	.LFE110:
  64              		.section	.text.CRC_CalcCRC,"ax",%progbits
  65              		.align	1
  66              		.global	CRC_CalcCRC
  67              		.syntax unified
  68              		.thumb
  69              		.thumb_func
  71              	CRC_CalcCRC:
  72              	.LFB111:
  61:../Shared/Libraries/STM32F4xx_StdPeriph_Driver/src/stm32f4xx_crc.c **** 
  62:../Shared/Libraries/STM32F4xx_StdPeriph_Driver/src/stm32f4xx_crc.c **** /**
  63:../Shared/Libraries/STM32F4xx_StdPeriph_Driver/src/stm32f4xx_crc.c ****   * @brief  Computes the 32-bit CRC of a given data word(32-bit).
  64:../Shared/Libraries/STM32F4xx_StdPeriph_Driver/src/stm32f4xx_crc.c ****   * @param  Data: data word(32-bit) to compute its CRC
  65:../Shared/Libraries/STM32F4xx_StdPeriph_Driver/src/stm32f4xx_crc.c ****   * @retval 32-bit CRC
  66:../Shared/Libraries/STM32F4xx_StdPeriph_Driver/src/stm32f4xx_crc.c ****   */
  67:../Shared/Libraries/STM32F4xx_StdPeriph_Driver/src/stm32f4xx_crc.c **** uint32_t CRC_CalcCRC(uint32_t Data)
  68:../Shared/Libraries/STM32F4xx_StdPeriph_Driver/src/stm32f4xx_crc.c **** {
  73              		.loc 1 68 1
  74              		.cfi_startproc
  75              		@ args = 0, pretend = 0, frame = 8
  76              		@ frame_needed = 1, uses_anonymous_args = 0
  77              		@ link register save eliminated.
  78 0000 80B4     		push	{r7}
  79              	.LCFI4:
  80              		.cfi_def_cfa_offset 4
  81              		.cfi_offset 7, -4
  82 0002 83B0     		sub	sp, sp, #12
  83              	.LCFI5:
  84              		.cfi_def_cfa_offset 16
  85 0004 00AF     		add	r7, sp, #0
  86              	.LCFI6:
  87              		.cfi_def_cfa_register 7
  88 0006 7860     		str	r0, [r7, #4]
  69:../Shared/Libraries/STM32F4xx_StdPeriph_Driver/src/stm32f4xx_crc.c ****   CRC->DR = Data;
  89              		.loc 1 69 6
  90 0008 054A     		ldr	r2, .L6
  91              		.loc 1 69 11
  92 000a 7B68     		ldr	r3, [r7, #4]
  93 000c 1360     		str	r3, [r2]
  70:../Shared/Libraries/STM32F4xx_StdPeriph_Driver/src/stm32f4xx_crc.c ****   
  71:../Shared/Libraries/STM32F4xx_StdPeriph_Driver/src/stm32f4xx_crc.c ****   return (CRC->DR);
  94              		.loc 1 71 14
  95 000e 044B     		ldr	r3, .L6
  96 0010 1B68     		ldr	r3, [r3]
  72:../Shared/Libraries/STM32F4xx_StdPeriph_Driver/src/stm32f4xx_crc.c **** }
  97              		.loc 1 72 1
  98 0012 1846     		mov	r0, r3
  99 0014 0C37     		adds	r7, r7, #12
 100              	.LCFI7:
 101              		.cfi_def_cfa_offset 4
 102 0016 BD46     		mov	sp, r7
ARM GAS  /tmp/ccNR4ALM.s 			page 4


 103              	.LCFI8:
 104              		.cfi_def_cfa_register 13
 105              		@ sp needed
 106 0018 5DF8047B 		ldr	r7, [sp], #4
 107              	.LCFI9:
 108              		.cfi_restore 7
 109              		.cfi_def_cfa_offset 0
 110 001c 7047     		bx	lr
 111              	.L7:
 112 001e 00BF     		.align	2
 113              	.L6:
 114 0020 00300240 		.word	1073885184
 115              		.cfi_endproc
 116              	.LFE111:
 118              		.section	.text.CRC_CalcBlockCRC,"ax",%progbits
 119              		.align	1
 120              		.global	CRC_CalcBlockCRC
 121              		.syntax unified
 122              		.thumb
 123              		.thumb_func
 125              	CRC_CalcBlockCRC:
 126              	.LFB112:
  73:../Shared/Libraries/STM32F4xx_StdPeriph_Driver/src/stm32f4xx_crc.c **** 
  74:../Shared/Libraries/STM32F4xx_StdPeriph_Driver/src/stm32f4xx_crc.c **** /**
  75:../Shared/Libraries/STM32F4xx_StdPeriph_Driver/src/stm32f4xx_crc.c ****   * @brief  Computes the 32-bit CRC of a given buffer of data word(32-bit).
  76:../Shared/Libraries/STM32F4xx_StdPeriph_Driver/src/stm32f4xx_crc.c ****   * @param  pBuffer: pointer to the buffer containing the data to be computed
  77:../Shared/Libraries/STM32F4xx_StdPeriph_Driver/src/stm32f4xx_crc.c ****   * @param  BufferLength: length of the buffer to be computed					
  78:../Shared/Libraries/STM32F4xx_StdPeriph_Driver/src/stm32f4xx_crc.c ****   * @retval 32-bit CRC
  79:../Shared/Libraries/STM32F4xx_StdPeriph_Driver/src/stm32f4xx_crc.c ****   */
  80:../Shared/Libraries/STM32F4xx_StdPeriph_Driver/src/stm32f4xx_crc.c **** uint32_t CRC_CalcBlockCRC(uint32_t pBuffer[], uint32_t BufferLength)
  81:../Shared/Libraries/STM32F4xx_StdPeriph_Driver/src/stm32f4xx_crc.c **** {
 127              		.loc 1 81 1
 128              		.cfi_startproc
 129              		@ args = 0, pretend = 0, frame = 16
 130              		@ frame_needed = 1, uses_anonymous_args = 0
 131              		@ link register save eliminated.
 132 0000 80B4     		push	{r7}
 133              	.LCFI10:
 134              		.cfi_def_cfa_offset 4
 135              		.cfi_offset 7, -4
 136 0002 85B0     		sub	sp, sp, #20
 137              	.LCFI11:
 138              		.cfi_def_cfa_offset 24
 139 0004 00AF     		add	r7, sp, #0
 140              	.LCFI12:
 141              		.cfi_def_cfa_register 7
 142 0006 7860     		str	r0, [r7, #4]
 143 0008 3960     		str	r1, [r7]
  82:../Shared/Libraries/STM32F4xx_StdPeriph_Driver/src/stm32f4xx_crc.c ****   uint32_t index = 0;
 144              		.loc 1 82 12
 145 000a 0023     		movs	r3, #0
 146 000c FB60     		str	r3, [r7, #12]
  83:../Shared/Libraries/STM32F4xx_StdPeriph_Driver/src/stm32f4xx_crc.c ****   
  84:../Shared/Libraries/STM32F4xx_StdPeriph_Driver/src/stm32f4xx_crc.c ****   for(index = 0; index < BufferLength; index++)
 147              		.loc 1 84 13
 148 000e 0023     		movs	r3, #0
 149 0010 FB60     		str	r3, [r7, #12]
ARM GAS  /tmp/ccNR4ALM.s 			page 5


 150              		.loc 1 84 3
 151 0012 09E0     		b	.L9
 152              	.L10:
  85:../Shared/Libraries/STM32F4xx_StdPeriph_Driver/src/stm32f4xx_crc.c ****   {
  86:../Shared/Libraries/STM32F4xx_StdPeriph_Driver/src/stm32f4xx_crc.c ****     CRC->DR = pBuffer[index];
 153              		.loc 1 86 22
 154 0014 FB68     		ldr	r3, [r7, #12]
 155 0016 9B00     		lsls	r3, r3, #2
 156 0018 7A68     		ldr	r2, [r7, #4]
 157 001a 1344     		add	r3, r3, r2
 158              		.loc 1 86 8
 159 001c 084A     		ldr	r2, .L12
 160              		.loc 1 86 22
 161 001e 1B68     		ldr	r3, [r3]
 162              		.loc 1 86 13
 163 0020 1360     		str	r3, [r2]
  84:../Shared/Libraries/STM32F4xx_StdPeriph_Driver/src/stm32f4xx_crc.c ****   {
 164              		.loc 1 84 45 discriminator 3
 165 0022 FB68     		ldr	r3, [r7, #12]
 166 0024 0133     		adds	r3, r3, #1
 167 0026 FB60     		str	r3, [r7, #12]
 168              	.L9:
  84:../Shared/Libraries/STM32F4xx_StdPeriph_Driver/src/stm32f4xx_crc.c ****   {
 169              		.loc 1 84 24 discriminator 1
 170 0028 FA68     		ldr	r2, [r7, #12]
 171 002a 3B68     		ldr	r3, [r7]
 172 002c 9A42     		cmp	r2, r3
 173 002e F1D3     		bcc	.L10
  87:../Shared/Libraries/STM32F4xx_StdPeriph_Driver/src/stm32f4xx_crc.c ****   }
  88:../Shared/Libraries/STM32F4xx_StdPeriph_Driver/src/stm32f4xx_crc.c ****   return (CRC->DR);
 174              		.loc 1 88 14
 175 0030 034B     		ldr	r3, .L12
 176 0032 1B68     		ldr	r3, [r3]
  89:../Shared/Libraries/STM32F4xx_StdPeriph_Driver/src/stm32f4xx_crc.c **** }
 177              		.loc 1 89 1
 178 0034 1846     		mov	r0, r3
 179 0036 1437     		adds	r7, r7, #20
 180              	.LCFI13:
 181              		.cfi_def_cfa_offset 4
 182 0038 BD46     		mov	sp, r7
 183              	.LCFI14:
 184              		.cfi_def_cfa_register 13
 185              		@ sp needed
 186 003a 5DF8047B 		ldr	r7, [sp], #4
 187              	.LCFI15:
 188              		.cfi_restore 7
 189              		.cfi_def_cfa_offset 0
 190 003e 7047     		bx	lr
 191              	.L13:
 192              		.align	2
 193              	.L12:
 194 0040 00300240 		.word	1073885184
 195              		.cfi_endproc
 196              	.LFE112:
 198              		.section	.text.CRC_GetCRC,"ax",%progbits
 199              		.align	1
 200              		.global	CRC_GetCRC
ARM GAS  /tmp/ccNR4ALM.s 			page 6


 201              		.syntax unified
 202              		.thumb
 203              		.thumb_func
 205              	CRC_GetCRC:
 206              	.LFB113:
  90:../Shared/Libraries/STM32F4xx_StdPeriph_Driver/src/stm32f4xx_crc.c **** 
  91:../Shared/Libraries/STM32F4xx_StdPeriph_Driver/src/stm32f4xx_crc.c **** /**
  92:../Shared/Libraries/STM32F4xx_StdPeriph_Driver/src/stm32f4xx_crc.c ****   * @brief  Returns the current CRC value.
  93:../Shared/Libraries/STM32F4xx_StdPeriph_Driver/src/stm32f4xx_crc.c ****   * @param  None
  94:../Shared/Libraries/STM32F4xx_StdPeriph_Driver/src/stm32f4xx_crc.c ****   * @retval 32-bit CRC
  95:../Shared/Libraries/STM32F4xx_StdPeriph_Driver/src/stm32f4xx_crc.c ****   */
  96:../Shared/Libraries/STM32F4xx_StdPeriph_Driver/src/stm32f4xx_crc.c **** uint32_t CRC_GetCRC(void)
  97:../Shared/Libraries/STM32F4xx_StdPeriph_Driver/src/stm32f4xx_crc.c **** {
 207              		.loc 1 97 1
 208              		.cfi_startproc
 209              		@ args = 0, pretend = 0, frame = 0
 210              		@ frame_needed = 1, uses_anonymous_args = 0
 211              		@ link register save eliminated.
 212 0000 80B4     		push	{r7}
 213              	.LCFI16:
 214              		.cfi_def_cfa_offset 4
 215              		.cfi_offset 7, -4
 216 0002 00AF     		add	r7, sp, #0
 217              	.LCFI17:
 218              		.cfi_def_cfa_register 7
  98:../Shared/Libraries/STM32F4xx_StdPeriph_Driver/src/stm32f4xx_crc.c ****   return (CRC->DR);
 219              		.loc 1 98 14
 220 0004 034B     		ldr	r3, .L16
 221 0006 1B68     		ldr	r3, [r3]
  99:../Shared/Libraries/STM32F4xx_StdPeriph_Driver/src/stm32f4xx_crc.c **** }
 222              		.loc 1 99 1
 223 0008 1846     		mov	r0, r3
 224 000a BD46     		mov	sp, r7
 225              	.LCFI18:
 226              		.cfi_def_cfa_register 13
 227              		@ sp needed
 228 000c 5DF8047B 		ldr	r7, [sp], #4
 229              	.LCFI19:
 230              		.cfi_restore 7
 231              		.cfi_def_cfa_offset 0
 232 0010 7047     		bx	lr
 233              	.L17:
 234 0012 00BF     		.align	2
 235              	.L16:
 236 0014 00300240 		.word	1073885184
 237              		.cfi_endproc
 238              	.LFE113:
 240              		.section	.text.CRC_SetIDRegister,"ax",%progbits
 241              		.align	1
 242              		.global	CRC_SetIDRegister
 243              		.syntax unified
 244              		.thumb
 245              		.thumb_func
 247              	CRC_SetIDRegister:
 248              	.LFB114:
 100:../Shared/Libraries/STM32F4xx_StdPeriph_Driver/src/stm32f4xx_crc.c **** 
 101:../Shared/Libraries/STM32F4xx_StdPeriph_Driver/src/stm32f4xx_crc.c **** /**
ARM GAS  /tmp/ccNR4ALM.s 			page 7


 102:../Shared/Libraries/STM32F4xx_StdPeriph_Driver/src/stm32f4xx_crc.c ****   * @brief  Stores a 8-bit data in the Independent Data(ID) register.
 103:../Shared/Libraries/STM32F4xx_StdPeriph_Driver/src/stm32f4xx_crc.c ****   * @param  IDValue: 8-bit value to be stored in the ID register 					
 104:../Shared/Libraries/STM32F4xx_StdPeriph_Driver/src/stm32f4xx_crc.c ****   * @retval None
 105:../Shared/Libraries/STM32F4xx_StdPeriph_Driver/src/stm32f4xx_crc.c ****   */
 106:../Shared/Libraries/STM32F4xx_StdPeriph_Driver/src/stm32f4xx_crc.c **** void CRC_SetIDRegister(uint8_t IDValue)
 107:../Shared/Libraries/STM32F4xx_StdPeriph_Driver/src/stm32f4xx_crc.c **** {
 249              		.loc 1 107 1
 250              		.cfi_startproc
 251              		@ args = 0, pretend = 0, frame = 8
 252              		@ frame_needed = 1, uses_anonymous_args = 0
 253              		@ link register save eliminated.
 254 0000 80B4     		push	{r7}
 255              	.LCFI20:
 256              		.cfi_def_cfa_offset 4
 257              		.cfi_offset 7, -4
 258 0002 83B0     		sub	sp, sp, #12
 259              	.LCFI21:
 260              		.cfi_def_cfa_offset 16
 261 0004 00AF     		add	r7, sp, #0
 262              	.LCFI22:
 263              		.cfi_def_cfa_register 7
 264 0006 0346     		mov	r3, r0
 265 0008 FB71     		strb	r3, [r7, #7]
 108:../Shared/Libraries/STM32F4xx_StdPeriph_Driver/src/stm32f4xx_crc.c ****   CRC->IDR = IDValue;
 266              		.loc 1 108 6
 267 000a 044A     		ldr	r2, .L19
 268              		.loc 1 108 12
 269 000c FB79     		ldrb	r3, [r7, #7]
 270 000e 1371     		strb	r3, [r2, #4]
 109:../Shared/Libraries/STM32F4xx_StdPeriph_Driver/src/stm32f4xx_crc.c **** }
 271              		.loc 1 109 1
 272 0010 00BF     		nop
 273 0012 0C37     		adds	r7, r7, #12
 274              	.LCFI23:
 275              		.cfi_def_cfa_offset 4
 276 0014 BD46     		mov	sp, r7
 277              	.LCFI24:
 278              		.cfi_def_cfa_register 13
 279              		@ sp needed
 280 0016 5DF8047B 		ldr	r7, [sp], #4
 281              	.LCFI25:
 282              		.cfi_restore 7
 283              		.cfi_def_cfa_offset 0
 284 001a 7047     		bx	lr
 285              	.L20:
 286              		.align	2
 287              	.L19:
 288 001c 00300240 		.word	1073885184
 289              		.cfi_endproc
 290              	.LFE114:
 292              		.section	.text.CRC_GetIDRegister,"ax",%progbits
 293              		.align	1
 294              		.global	CRC_GetIDRegister
 295              		.syntax unified
 296              		.thumb
 297              		.thumb_func
 299              	CRC_GetIDRegister:
ARM GAS  /tmp/ccNR4ALM.s 			page 8


 300              	.LFB115:
 110:../Shared/Libraries/STM32F4xx_StdPeriph_Driver/src/stm32f4xx_crc.c **** 
 111:../Shared/Libraries/STM32F4xx_StdPeriph_Driver/src/stm32f4xx_crc.c **** /**
 112:../Shared/Libraries/STM32F4xx_StdPeriph_Driver/src/stm32f4xx_crc.c ****   * @brief  Returns the 8-bit data stored in the Independent Data(ID) register
 113:../Shared/Libraries/STM32F4xx_StdPeriph_Driver/src/stm32f4xx_crc.c ****   * @param  None
 114:../Shared/Libraries/STM32F4xx_StdPeriph_Driver/src/stm32f4xx_crc.c ****   * @retval 8-bit value of the ID register 
 115:../Shared/Libraries/STM32F4xx_StdPeriph_Driver/src/stm32f4xx_crc.c ****   */
 116:../Shared/Libraries/STM32F4xx_StdPeriph_Driver/src/stm32f4xx_crc.c **** uint8_t CRC_GetIDRegister(void)
 117:../Shared/Libraries/STM32F4xx_StdPeriph_Driver/src/stm32f4xx_crc.c **** {
 301              		.loc 1 117 1
 302              		.cfi_startproc
 303              		@ args = 0, pretend = 0, frame = 0
 304              		@ frame_needed = 1, uses_anonymous_args = 0
 305              		@ link register save eliminated.
 306 0000 80B4     		push	{r7}
 307              	.LCFI26:
 308              		.cfi_def_cfa_offset 4
 309              		.cfi_offset 7, -4
 310 0002 00AF     		add	r7, sp, #0
 311              	.LCFI27:
 312              		.cfi_def_cfa_register 7
 118:../Shared/Libraries/STM32F4xx_StdPeriph_Driver/src/stm32f4xx_crc.c ****   return (CRC->IDR);
 313              		.loc 1 118 14
 314 0004 034B     		ldr	r3, .L23
 315 0006 1B79     		ldrb	r3, [r3, #4]
 316 0008 DBB2     		uxtb	r3, r3
 119:../Shared/Libraries/STM32F4xx_StdPeriph_Driver/src/stm32f4xx_crc.c **** }
 317              		.loc 1 119 1
 318 000a 1846     		mov	r0, r3
 319 000c BD46     		mov	sp, r7
 320              	.LCFI28:
 321              		.cfi_def_cfa_register 13
 322              		@ sp needed
 323 000e 5DF8047B 		ldr	r7, [sp], #4
 324              	.LCFI29:
 325              		.cfi_restore 7
 326              		.cfi_def_cfa_offset 0
 327 0012 7047     		bx	lr
 328              	.L24:
 329              		.align	2
 330              	.L23:
 331 0014 00300240 		.word	1073885184
 332              		.cfi_endproc
 333              	.LFE115:
 335              		.text
 336              	.Letext0:
 337              		.file 2 "/usr/arm-none-eabi/include/machine/_default_types.h"
 338              		.file 3 "/usr/arm-none-eabi/include/sys/_stdint.h"
 339              		.file 4 "../Shared/Libraries/CMSIS/Device/ST/STM32F4xx/Include/stm32f4xx.h"
ARM GAS  /tmp/ccNR4ALM.s 			page 9

