ARM GAS  /tmp/ccirATIZ.s 			page 1


   1              		.cpu cortex-m4
   2              		.arch armv7e-m
   3              		.fpu fpv4-sp-d16
   4              		.eabi_attribute 27, 1
   5              		.eabi_attribute 28, 1
   6              		.eabi_attribute 20, 1
   7              		.eabi_attribute 21, 1
   8              		.eabi_attribute 23, 3
   9              		.eabi_attribute 24, 1
  10              		.eabi_attribute 25, 1
  11              		.eabi_attribute 26, 1
  12              		.eabi_attribute 30, 6
  13              		.eabi_attribute 34, 1
  14              		.eabi_attribute 18, 4
  15              		.file	"crc.c"
  16              		.text
  17              	.Ltext0:
  18              		.cfi_sections	.debug_frame
  19              		.file 1 "../Shared/src/crc.c"
  20              		.section	.text.crc8,"ax",%progbits
  21              		.align	1
  22              		.global	crc8
  23              		.syntax unified
  24              		.thumb
  25              		.thumb_func
  27              	crc8:
  28              	.LFB113:
   1:../Shared/src/crc.c **** #include "crc.h"
   2:../Shared/src/crc.c **** 
   3:../Shared/src/crc.c **** uint8_t crc8(uint8_t *data, uint32_t length) {
  29              		.loc 1 3 46
  30              		.cfi_startproc
  31              		@ args = 0, pretend = 0, frame = 24
  32              		@ frame_needed = 1, uses_anonymous_args = 0
  33              		@ link register save eliminated.
  34 0000 80B4     		push	{r7}
  35              	.LCFI0:
  36              		.cfi_def_cfa_offset 4
  37              		.cfi_offset 7, -4
  38 0002 87B0     		sub	sp, sp, #28
  39              	.LCFI1:
  40              		.cfi_def_cfa_offset 32
  41 0004 00AF     		add	r7, sp, #0
  42              	.LCFI2:
  43              		.cfi_def_cfa_register 7
  44 0006 7860     		str	r0, [r7, #4]
  45 0008 3960     		str	r1, [r7]
   4:../Shared/src/crc.c ****   uint8_t crc = 0;
  46              		.loc 1 4 11
  47 000a 0023     		movs	r3, #0
  48 000c FB75     		strb	r3, [r7, #23]
  49              	.LBB2:
   5:../Shared/src/crc.c **** 
   6:../Shared/src/crc.c ****   for (uint32_t i = 0; i < length; i++) {
  50              		.loc 1 6 17
  51 000e 0023     		movs	r3, #0
  52 0010 3B61     		str	r3, [r7, #16]
ARM GAS  /tmp/ccirATIZ.s 			page 2


  53              		.loc 1 6 3
  54 0012 22E0     		b	.L2
  55              	.L7:
   7:../Shared/src/crc.c ****     crc ^= data[i];
  56              		.loc 1 7 16
  57 0014 7A68     		ldr	r2, [r7, #4]
  58 0016 3B69     		ldr	r3, [r7, #16]
  59 0018 1344     		add	r3, r3, r2
  60 001a 1A78     		ldrb	r2, [r3]	@ zero_extendqisi2
  61              		.loc 1 7 9
  62 001c FB7D     		ldrb	r3, [r7, #23]
  63 001e 5340     		eors	r3, r3, r2
  64 0020 FB75     		strb	r3, [r7, #23]
  65              	.LBB3:
   8:../Shared/src/crc.c ****     for (uint8_t j = 0; j < 8; j++) {
  66              		.loc 1 8 18
  67 0022 0023     		movs	r3, #0
  68 0024 FB73     		strb	r3, [r7, #15]
  69              		.loc 1 8 5
  70 0026 12E0     		b	.L3
  71              	.L6:
   9:../Shared/src/crc.c ****       if (crc & 0x80) {
  72              		.loc 1 9 11
  73 0028 97F91730 		ldrsb	r3, [r7, #23]
  74              		.loc 1 9 10
  75 002c 002B     		cmp	r3, #0
  76 002e 08DA     		bge	.L4
  10:../Shared/src/crc.c ****         crc = (crc << 1) ^ 0x07;
  77              		.loc 1 10 26
  78 0030 97F91730 		ldrsb	r3, [r7, #23]
  79 0034 5B00     		lsls	r3, r3, #1
  80 0036 5BB2     		sxtb	r3, r3
  81 0038 83F00703 		eor	r3, r3, #7
  82 003c 5BB2     		sxtb	r3, r3
  83              		.loc 1 10 13
  84 003e FB75     		strb	r3, [r7, #23]
  85 0040 02E0     		b	.L5
  86              	.L4:
  11:../Shared/src/crc.c ****       } else {
  12:../Shared/src/crc.c ****         crc <<= 1;
  87              		.loc 1 12 13
  88 0042 FB7D     		ldrb	r3, [r7, #23]
  89 0044 5B00     		lsls	r3, r3, #1
  90 0046 FB75     		strb	r3, [r7, #23]
  91              	.L5:
   8:../Shared/src/crc.c ****       if (crc & 0x80) {
  92              		.loc 1 8 33 discriminator 2
  93 0048 FB7B     		ldrb	r3, [r7, #15]	@ zero_extendqisi2
  94 004a 0133     		adds	r3, r3, #1
  95 004c FB73     		strb	r3, [r7, #15]
  96              	.L3:
   8:../Shared/src/crc.c ****       if (crc & 0x80) {
  97              		.loc 1 8 27 discriminator 1
  98 004e FB7B     		ldrb	r3, [r7, #15]	@ zero_extendqisi2
  99 0050 072B     		cmp	r3, #7
 100 0052 E9D9     		bls	.L6
 101              	.LBE3:
ARM GAS  /tmp/ccirATIZ.s 			page 3


   6:../Shared/src/crc.c ****     crc ^= data[i];
 102              		.loc 1 6 37 discriminator 2
 103 0054 3B69     		ldr	r3, [r7, #16]
 104 0056 0133     		adds	r3, r3, #1
 105 0058 3B61     		str	r3, [r7, #16]
 106              	.L2:
   6:../Shared/src/crc.c ****     crc ^= data[i];
 107              		.loc 1 6 26 discriminator 1
 108 005a 3A69     		ldr	r2, [r7, #16]
 109 005c 3B68     		ldr	r3, [r7]
 110 005e 9A42     		cmp	r2, r3
 111 0060 D8D3     		bcc	.L7
 112              	.LBE2:
  13:../Shared/src/crc.c ****       }
  14:../Shared/src/crc.c ****     }
  15:../Shared/src/crc.c ****   }
  16:../Shared/src/crc.c **** 
  17:../Shared/src/crc.c ****   return crc;
 113              		.loc 1 17 10
 114 0062 FB7D     		ldrb	r3, [r7, #23]	@ zero_extendqisi2
  18:../Shared/src/crc.c **** }
 115              		.loc 1 18 1
 116 0064 1846     		mov	r0, r3
 117 0066 1C37     		adds	r7, r7, #28
 118              	.LCFI3:
 119              		.cfi_def_cfa_offset 4
 120 0068 BD46     		mov	sp, r7
 121              	.LCFI4:
 122              		.cfi_def_cfa_register 13
 123              		@ sp needed
 124 006a 5DF8047B 		ldr	r7, [sp], #4
 125              	.LCFI5:
 126              		.cfi_restore 7
 127              		.cfi_def_cfa_offset 0
 128 006e 7047     		bx	lr
 129              		.cfi_endproc
 130              	.LFE113:
 132              		.section	.text.crc32,"ax",%progbits
 133              		.align	1
 134              		.global	crc32
 135              		.syntax unified
 136              		.thumb
 137              		.thumb_func
 139              	crc32:
 140              	.LFB114:
  19:../Shared/src/crc.c **** 
  20:../Shared/src/crc.c **** uint32_t crc32(const uint8_t *data, const uint32_t length) {
 141              		.loc 1 20 60
 142              		.cfi_startproc
 143              		@ args = 0, pretend = 0, frame = 24
 144              		@ frame_needed = 1, uses_anonymous_args = 0
 145              		@ link register save eliminated.
 146 0000 80B4     		push	{r7}
 147              	.LCFI6:
 148              		.cfi_def_cfa_offset 4
 149              		.cfi_offset 7, -4
 150 0002 87B0     		sub	sp, sp, #28
ARM GAS  /tmp/ccirATIZ.s 			page 4


 151              	.LCFI7:
 152              		.cfi_def_cfa_offset 32
 153 0004 00AF     		add	r7, sp, #0
 154              	.LCFI8:
 155              		.cfi_def_cfa_register 7
 156 0006 7860     		str	r0, [r7, #4]
 157 0008 3960     		str	r1, [r7]
  21:../Shared/src/crc.c ****   uint8_t byte;
  22:../Shared/src/crc.c ****   uint32_t crc = 0xffffffff;
 158              		.loc 1 22 12
 159 000a 4FF0FF33 		mov	r3, #-1
 160 000e 7B61     		str	r3, [r7, #20]
 161              	.LBB4:
  23:../Shared/src/crc.c ****   uint32_t mask;
  24:../Shared/src/crc.c **** 
  25:../Shared/src/crc.c ****   for (uint32_t i = 0; i < length; i++) {
 162              		.loc 1 25 17
 163 0010 0023     		movs	r3, #0
 164 0012 3B61     		str	r3, [r7, #16]
 165              		.loc 1 25 3
 166 0014 20E0     		b	.L10
 167              	.L13:
  26:../Shared/src/crc.c ****     byte = data[i];
 168              		.loc 1 26 16
 169 0016 7A68     		ldr	r2, [r7, #4]
 170 0018 3B69     		ldr	r3, [r7, #16]
 171 001a 1344     		add	r3, r3, r2
 172              		.loc 1 26 10
 173 001c 1B78     		ldrb	r3, [r3]
 174 001e BB73     		strb	r3, [r7, #14]
  27:../Shared/src/crc.c ****     crc = crc ^ byte;
 175              		.loc 1 27 15
 176 0020 BB7B     		ldrb	r3, [r7, #14]	@ zero_extendqisi2
 177              		.loc 1 27 9
 178 0022 7A69     		ldr	r2, [r7, #20]
 179 0024 5340     		eors	r3, r3, r2
 180 0026 7B61     		str	r3, [r7, #20]
 181              	.LBB5:
  28:../Shared/src/crc.c **** 
  29:../Shared/src/crc.c ****     for (uint8_t j = 0; j < 8; j++) {
 182              		.loc 1 29 18
 183 0028 0023     		movs	r3, #0
 184 002a FB73     		strb	r3, [r7, #15]
 185              		.loc 1 29 5
 186 002c 0EE0     		b	.L11
 187              	.L12:
  30:../Shared/src/crc.c ****       mask = -(crc & 1);
 188              		.loc 1 30 20
 189 002e 7B69     		ldr	r3, [r7, #20]
 190 0030 03F00103 		and	r3, r3, #1
 191              		.loc 1 30 12
 192 0034 5B42     		rsbs	r3, r3, #0
 193 0036 BB60     		str	r3, [r7, #8]
  31:../Shared/src/crc.c ****       crc = (crc >> 1) ^ (0xedb88320 & mask);
 194              		.loc 1 31 18
 195 0038 7B69     		ldr	r3, [r7, #20]
 196 003a 5A08     		lsrs	r2, r3, #1
ARM GAS  /tmp/ccirATIZ.s 			page 5


 197              		.loc 1 31 38
 198 003c B968     		ldr	r1, [r7, #8]
 199 003e 0C4B     		ldr	r3, .L15
 200 0040 0B40     		ands	r3, r3, r1
 201              		.loc 1 31 11
 202 0042 5340     		eors	r3, r3, r2
 203 0044 7B61     		str	r3, [r7, #20]
  29:../Shared/src/crc.c ****       mask = -(crc & 1);
 204              		.loc 1 29 33 discriminator 3
 205 0046 FB7B     		ldrb	r3, [r7, #15]	@ zero_extendqisi2
 206 0048 0133     		adds	r3, r3, #1
 207 004a FB73     		strb	r3, [r7, #15]
 208              	.L11:
  29:../Shared/src/crc.c ****       mask = -(crc & 1);
 209              		.loc 1 29 27 discriminator 1
 210 004c FB7B     		ldrb	r3, [r7, #15]	@ zero_extendqisi2
 211 004e 072B     		cmp	r3, #7
 212 0050 EDD9     		bls	.L12
 213              	.LBE5:
  25:../Shared/src/crc.c ****     byte = data[i];
 214              		.loc 1 25 37 discriminator 2
 215 0052 3B69     		ldr	r3, [r7, #16]
 216 0054 0133     		adds	r3, r3, #1
 217 0056 3B61     		str	r3, [r7, #16]
 218              	.L10:
  25:../Shared/src/crc.c ****     byte = data[i];
 219              		.loc 1 25 26 discriminator 1
 220 0058 3A69     		ldr	r2, [r7, #16]
 221 005a 3B68     		ldr	r3, [r7]
 222 005c 9A42     		cmp	r2, r3
 223 005e DAD3     		bcc	.L13
 224              	.LBE4:
  32:../Shared/src/crc.c ****     }
  33:../Shared/src/crc.c ****   }
  34:../Shared/src/crc.c **** 
  35:../Shared/src/crc.c ****   return ~crc;
 225              		.loc 1 35 10
 226 0060 7B69     		ldr	r3, [r7, #20]
 227 0062 DB43     		mvns	r3, r3
  36:../Shared/src/crc.c **** }
 228              		.loc 1 36 1
 229 0064 1846     		mov	r0, r3
 230 0066 1C37     		adds	r7, r7, #28
 231              	.LCFI9:
 232              		.cfi_def_cfa_offset 4
 233 0068 BD46     		mov	sp, r7
 234              	.LCFI10:
 235              		.cfi_def_cfa_register 13
 236              		@ sp needed
 237 006a 5DF8047B 		ldr	r7, [sp], #4
 238              	.LCFI11:
 239              		.cfi_restore 7
 240              		.cfi_def_cfa_offset 0
 241 006e 7047     		bx	lr
 242              	.L16:
 243              		.align	2
 244              	.L15:
ARM GAS  /tmp/ccirATIZ.s 			page 6


 245 0070 2083B8ED 		.word	-306674912
 246              		.cfi_endproc
 247              	.LFE114:
 249              		.text
 250              	.Letext0:
 251              		.file 2 "/usr/arm-none-eabi/include/machine/_default_types.h"
 252              		.file 3 "/usr/arm-none-eabi/include/sys/_stdint.h"
ARM GAS  /tmp/ccirATIZ.s 			page 7


DEFINED SYMBOLS
                            *ABS*:00000000 crc.c
     /tmp/ccirATIZ.s:21     .text.crc8:00000000 $t
     /tmp/ccirATIZ.s:27     .text.crc8:00000000 crc8
     /tmp/ccirATIZ.s:133    .text.crc32:00000000 $t
     /tmp/ccirATIZ.s:139    .text.crc32:00000000 crc32
     /tmp/ccirATIZ.s:245    .text.crc32:00000070 $d
                           .group:00000000 wm4.0.62e24ee945655210df7a12269291771b
                           .group:00000000 wm4.stm32f4xx.h.54.f84a67a8e71ba9719846fdff1868826c
                           .group:00000000 wm4.core_cm4.h.32.5f62939b60122629d60d85d0c4a14709
                           .group:00000000 wm4._newlib_version.h.4.411db44ea2338a62eca2f0777f81481b
                           .group:00000000 wm4.features.h.33.2eefb68b261e70563a8ac654e712169f
                           .group:00000000 wm4._default_types.h.15.247e5cd201eca3442cbf5404108c4935
                           .group:00000000 wm4._intsup.h.10.48bafbb683905c4daa4565a85aeeb264
                           .group:00000000 wm4._stdint.h.10.c24fa3af3bc1706662bb5593a907e841
                           .group:00000000 wm4.stdint.h.23.d53047a68f4a85177f80b422d52785ed
                           .group:00000000 wm4.core_cmInstr.h.25.f50f886f2edf670cf199b35fd96f5c91
                           .group:00000000 wm4.core_cm4_simd.h.29.b4a3fdfb606cb3b26119424324d4b963
                           .group:00000000 wm4.core_cm4.h.153.5393ef7e6cebf34dd51ca528f9218ab3
                           .group:00000000 wm4.stm32f4xx.h.289.fa68dcae75666a037ce29b5a1b57e3b3
                           .group:00000000 wm4.stm32f4xx_conf.h.3.bc52e76ab6b5c9037500dbf5bb8f9be4
                           .group:00000000 wm4.misc.h.86.a3996e7f17199502fad3c7f62e5cdb3f
                           .group:00000000 wm4.stm32f4xx_adc.h.31.d96d805acd0f0c0392ec4633757dead3
                           .group:00000000 wm4.stm32f4xx_can.h.31.3bb56c6436c7a6e6af1611046e81f48c
                           .group:00000000 wm4.stm32f4xx_cryp.h.31.94bbbb19b99df10306f31e78c333a77b
                           .group:00000000 wm4.stm32f4xx_dac.h.31.b8d45e7eaf71ee4bf01c1317dbc06f77
                           .group:00000000 wm4.stm32f4xx_dbgmcu.h.30.70a81ec54c2707baa9fca77391eeeaaa
                           .group:00000000 wm4.stm32f4xx_dcmi.h.30.9d0942d58c357d2eed15e044bf9b4a77
                           .group:00000000 wm4.stm32f4xx_dma.h.31.815bb924b30b1c776b3cd51113fdfe60
                           .group:00000000 wm4.stm32f4xx_exti.h.31.86bd18e979f97217bb1d3b80fde0231e
                           .group:00000000 wm4.stm32f4xx_flash.h.31.74f2ed42d890f144ca7eb5ae8172f0d0
                           .group:00000000 wm4.stm32f4xx_fsmc.h.31.ff58629e0c603fb2f9b3f00c0657fdfa
                           .group:00000000 wm4.stm32f4xx_gpio.h.31.d9aeae10cfa353d85d475c0d4900c452
                           .group:00000000 wm4.stm32f4xx_hash.h.31.5c109425d30f0b9cc0a26ad38182d91f
                           .group:00000000 wm4.stm32f4xx_i2c.h.31.edf5baa611075c49ae13f56be9040be3
                           .group:00000000 wm4.stm32f4xx_iwdg.h.31.30e376e6d8d424aab7fddd66cf691c7b
                           .group:00000000 wm4.stm32f4xx_pwr.h.31.bb774fc1b632cb8d2ecaec8c6524d2c0
                           .group:00000000 wm4.stm32f4xx_rcc.h.30.820e94551583d2b835c8cf3ad722e16c
                           .group:00000000 wm4.stm32f4xx_rng.h.31.1ec493d56b7a8e5a71238519cae6dea7
                           .group:00000000 wm4.stm32f4xx_rtc.h.31.bddeb98c63c8fa06fac80b5dd8296471
                           .group:00000000 wm4.stm32f4xx_sdio.h.31.8c6dff42ffa718b444c3420717601ff2
                           .group:00000000 wm4.stm32f4xx_spi.h.31.fb1b2c8214b87a47d4457633b7c31c3c
                           .group:00000000 wm4.stm32f4xx_syscfg.h.31.5a680f88d55b7816ae613c20f199cbd9
                           .group:00000000 wm4.stm32f4xx_tim.h.31.b1d608fbde729347e4ccf70799e654d2
                           .group:00000000 wm4.stm32f4xx_usart.h.31.f8d29b14aa4d39de5495adcc92749d3c
                           .group:00000000 wm4.stm32f4xx_wwdg.h.31.b45a80fa1ec64984adf786f7e489f31b
                           .group:00000000 wm4.stm32f4xx.h.6975.cdbdae9d5de06f1ba6b770f59cbe4d6c
                           .group:00000000 wm4.stdbool.h.29.c08aa3eec75cf5b9b5003883f43253f0
                           .group:00000000 wm4.newlib.h.7.59e76574e8950a1900b83fbbda2ff693
                           .group:00000000 wm4.ieeefp.h.77.5ad60f72ea25fc152400b550ac118212
                           .group:00000000 wm4.config.h.224.10ee1ad185d877c6e334e6581faab44d
                           .group:00000000 wm4._ansi.h.31.de524f58584151836e90d8620a16f8e8
                           .group:00000000 wm4.stdio.h.31.7c0e28c411445f3f9c5b11accf882760
                           .group:00000000 wm4.stddef.h.185.cbb642e1ccd385e8aa504b15cb7fb086
                           .group:00000000 wm4.cdefs.h.49.56fd742369e655e7e8a7e365e706e208
                           .group:00000000 wm4.stddef.h.39.6817658cc6bc4c7c8354d2009e4a5777
                           .group:00000000 wm4.stdarg.h.34.3a23a216c0c293b3d2ea2e89281481e6
ARM GAS  /tmp/ccirATIZ.s 			page 8


                           .group:00000000 wm4._types.h.20.dd0d04dca3800a0d2a6129b87f3adbb2
                           .group:00000000 wm4.stddef.h.158.6f8e08a347b1cff664332fa350bfceb3
                           .group:00000000 wm4._types.h.127.3bdfe3ff8ea2d0985b03d9cbe93480e3
                           .group:00000000 wm4.reent.h.18.25503cdc8b7e55dd0d6ea7b3e5af7a03
                           .group:00000000 wm4.lock.h.2.1461d1fff82dffe8bfddc23307f6484f
                           .group:00000000 wm4.reent.h.78.7f0775353a33c852a1479c008f68cd03
                           .group:00000000 wm4.stdio.h.67.0cf8a9c281ab0b348aef5c02e7e48825
                           .group:00000000 wm4.stdio.h.2.4aa87247282eca6c8f36f9de33d8df1a
                           .group:00000000 wm4.stdio.h.87.a1e20d2651f9bfb66e51bfbe849db00a
                           .group:00000000 wm4.string.h.8.c4b8571ce60dff2817f43fec8b86aecd
                           .group:00000000 wm4.stddef.h.158.eec8bf00b5213f43d095cb984c5f22e3

NO UNDEFINED SYMBOLS
