ARM GAS  /tmp/ccnqaCtK.s 			page 1


   1              		.cpu cortex-m4
   2              		.arch armv7e-m
   3              		.fpu fpv4-sp-d16
   4              		.eabi_attribute 27, 1
   5              		.eabi_attribute 28, 1
   6              		.eabi_attribute 20, 1
   7              		.eabi_attribute 21, 1
   8              		.eabi_attribute 23, 3
   9              		.eabi_attribute 24, 1
  10              		.eabi_attribute 25, 1
  11              		.eabi_attribute 26, 1
  12              		.eabi_attribute 30, 6
  13              		.eabi_attribute 34, 1
  14              		.eabi_attribute 18, 4
  15              		.file	"rcc.c"
  16              		.text
  17              	.Ltext0:
  18              		.cfi_sections	.debug_frame
  19              		.file 1 "../Shared/src/rcc.c"
  20              		.section	.text.RCC_Setup,"ax",%progbits
  21              		.align	1
  22              		.global	RCC_Setup
  23              		.syntax unified
  24              		.thumb
  25              		.thumb_func
  27              	RCC_Setup:
  28              	.LFB113:
   1:../Shared/src/rcc.c **** #include "rcc.h"
   2:../Shared/src/rcc.c **** #include "main.h"
   3:../Shared/src/rcc.c **** 
   4:../Shared/src/rcc.c **** void RCC_Setup(void) {
  29              		.loc 1 4 22
  30              		.cfi_startproc
  31              		@ args = 0, pretend = 0, frame = 0
  32              		@ frame_needed = 1, uses_anonymous_args = 0
  33 0000 80B5     		push	{r7, lr}
  34              	.LCFI0:
  35              		.cfi_def_cfa_offset 8
  36              		.cfi_offset 7, -8
  37              		.cfi_offset 14, -4
  38 0002 00AF     		add	r7, sp, #0
  39              	.LCFI1:
  40              		.cfi_def_cfa_register 7
   5:../Shared/src/rcc.c ****   /*Initialize GPIOB for toggling LEDs*/
   6:../Shared/src/rcc.c ****   /*USART_3 (USART_A_TX: PD8, USART_A_RX: PD9)*/
   7:../Shared/src/rcc.c ****   /* Initiate clock for GPIOB and GPIOD*/
   8:../Shared/src/rcc.c ****   RCC_AHB1PeriphClockCmd(RCC_AHB1Periph_GPIOB | RCC_AHB1Periph_GPIOD, ENABLE);
  41              		.loc 1 8 3
  42 0004 0121     		movs	r1, #1
  43 0006 0A20     		movs	r0, #10
  44 0008 FFF7FEFF 		bl	RCC_AHB1PeriphClockCmd
   9:../Shared/src/rcc.c **** 
  10:../Shared/src/rcc.c ****   /*Initialize USART3 clock*/
  11:../Shared/src/rcc.c ****   RCC_APB1PeriphClockCmd(RCC_APB1Periph_USART3, ENABLE);
  45              		.loc 1 11 3
  46 000c 0121     		movs	r1, #1
  47 000e 4FF48020 		mov	r0, #262144
ARM GAS  /tmp/ccnqaCtK.s 			page 2


  48 0012 FFF7FEFF 		bl	RCC_APB1PeriphClockCmd
  12:../Shared/src/rcc.c **** }
  49              		.loc 1 12 1
  50 0016 00BF     		nop
  51 0018 80BD     		pop	{r7, pc}
  52              		.cfi_endproc
  53              	.LFE113:
  55              		.section	.text.RCC_Teardown,"ax",%progbits
  56              		.align	1
  57              		.global	RCC_Teardown
  58              		.syntax unified
  59              		.thumb
  60              		.thumb_func
  62              	RCC_Teardown:
  63              	.LFB114:
  13:../Shared/src/rcc.c **** 
  14:../Shared/src/rcc.c **** void RCC_Teardown(void) {
  64              		.loc 1 14 25
  65              		.cfi_startproc
  66              		@ args = 0, pretend = 0, frame = 0
  67              		@ frame_needed = 1, uses_anonymous_args = 0
  68 0000 80B5     		push	{r7, lr}
  69              	.LCFI2:
  70              		.cfi_def_cfa_offset 8
  71              		.cfi_offset 7, -8
  72              		.cfi_offset 14, -4
  73 0002 00AF     		add	r7, sp, #0
  74              	.LCFI3:
  75              		.cfi_def_cfa_register 7
  15:../Shared/src/rcc.c ****   RCC_AHB1PeriphClockCmd(RCC_AHB1Periph_GPIOB | RCC_AHB1Periph_GPIOD, DISABLE);
  76              		.loc 1 15 3
  77 0004 0021     		movs	r1, #0
  78 0006 0A20     		movs	r0, #10
  79 0008 FFF7FEFF 		bl	RCC_AHB1PeriphClockCmd
  16:../Shared/src/rcc.c ****   RCC_APB1PeriphClockCmd(RCC_APB1Periph_USART3, DISABLE);
  80              		.loc 1 16 3
  81 000c 0021     		movs	r1, #0
  82 000e 4FF48020 		mov	r0, #262144
  83 0012 FFF7FEFF 		bl	RCC_APB1PeriphClockCmd
  17:../Shared/src/rcc.c **** }...
  84              		.loc 1 17 1
  85 0016 00BF     		nop
  86 0018 80BD     		pop	{r7, pc}
  87              		.cfi_endproc
  88              	.LFE114:
  90              		.text
  91              	.Letext0:
  92              		.file 2 "/usr/arm-none-eabi/include/machine/_default_types.h"
  93              		.file 3 "/usr/arm-none-eabi/include/sys/_stdint.h"
  94              		.file 4 "../Shared/Libraries/CMSIS/Device/ST/STM32F4xx/Include/stm32f4xx.h"
  95              		.file 5 "../Shared/Libraries/STM32F4xx_StdPeriph_Driver/inc/stm32f4xx_rcc.h"
ARM GAS  /tmp/ccnqaCtK.s 			page 3


DEFINED SYMBOLS
                            *ABS*:00000000 rcc.c
     /tmp/ccnqaCtK.s:21     .text.RCC_Setup:00000000 $t
     /tmp/ccnqaCtK.s:27     .text.RCC_Setup:00000000 RCC_Setup
     /tmp/ccnqaCtK.s:56     .text.RCC_Teardown:00000000 $t
     /tmp/ccnqaCtK.s:62     .text.RCC_Teardown:00000000 RCC_Teardown
                           .group:00000000 wm4.0.62e24ee945655210df7a12269291771b
                           .group:00000000 wm4.stm32f4xx.h.54.f84a67a8e71ba9719846fdff1868826c
                           .group:00000000 wm4.core_cm4.h.32.5f62939b60122629d60d85d0c4a14709
                           .group:00000000 wm4._newlib_version.h.4.411db44ea2338a62eca2f0777f81481b
                           .group:00000000 wm4.features.h.33.2eefb68b261e70563a8ac654e712169f
                           .group:00000000 wm4._default_types.h.15.247e5cd201eca3442cbf5404108c4935
                           .group:00000000 wm4._intsup.h.10.48bafbb683905c4daa4565a85aeeb264
                           .group:00000000 wm4._stdint.h.10.c24fa3af3bc1706662bb5593a907e841
                           .group:00000000 wm4.stdint.h.23.d53047a68f4a85177f80b422d52785ed
                           .group:00000000 wm4.core_cmInstr.h.25.f50f886f2edf670cf199b35fd96f5c91
                           .group:00000000 wm4.core_cm4_simd.h.29.b4a3fdfb606cb3b26119424324d4b963
                           .group:00000000 wm4.core_cm4.h.153.5393ef7e6cebf34dd51ca528f9218ab3
                           .group:00000000 wm4.stm32f4xx.h.289.fa68dcae75666a037ce29b5a1b57e3b3
                           .group:00000000 wm4.stm32f4xx_conf.h.3.bc52e76ab6b5c9037500dbf5bb8f9be4
                           .group:00000000 wm4.misc.h.86.a3996e7f17199502fad3c7f62e5cdb3f
                           .group:00000000 wm4.stm32f4xx_adc.h.31.d96d805acd0f0c0392ec4633757dead3
                           .group:00000000 wm4.stm32f4xx_can.h.31.3bb56c6436c7a6e6af1611046e81f48c
                           .group:00000000 wm4.stm32f4xx_cryp.h.31.94bbbb19b99df10306f31e78c333a77b
                           .group:00000000 wm4.stm32f4xx_dac.h.31.b8d45e7eaf71ee4bf01c1317dbc06f77
                           .group:00000000 wm4.stm32f4xx_dbgmcu.h.30.70a81ec54c2707baa9fca77391eeeaaa
                           .group:00000000 wm4.stm32f4xx_dcmi.h.30.9d0942d58c357d2eed15e044bf9b4a77
                           .group:00000000 wm4.stm32f4xx_dma.h.31.815bb924b30b1c776b3cd51113fdfe60
                           .group:00000000 wm4.stm32f4xx_exti.h.31.86bd18e979f97217bb1d3b80fde0231e
                           .group:00000000 wm4.stm32f4xx_flash.h.31.74f2ed42d890f144ca7eb5ae8172f0d0
                           .group:00000000 wm4.stm32f4xx_fsmc.h.31.ff58629e0c603fb2f9b3f00c0657fdfa
                           .group:00000000 wm4.stm32f4xx_gpio.h.31.d9aeae10cfa353d85d475c0d4900c452
                           .group:00000000 wm4.stm32f4xx_hash.h.31.5c109425d30f0b9cc0a26ad38182d91f
                           .group:00000000 wm4.stm32f4xx_i2c.h.31.edf5baa611075c49ae13f56be9040be3
                           .group:00000000 wm4.stm32f4xx_iwdg.h.31.30e376e6d8d424aab7fddd66cf691c7b
                           .group:00000000 wm4.stm32f4xx_pwr.h.31.bb774fc1b632cb8d2ecaec8c6524d2c0
                           .group:00000000 wm4.stm32f4xx_rcc.h.30.820e94551583d2b835c8cf3ad722e16c
                           .group:00000000 wm4.stm32f4xx_rng.h.31.1ec493d56b7a8e5a71238519cae6dea7
                           .group:00000000 wm4.stm32f4xx_rtc.h.31.bddeb98c63c8fa06fac80b5dd8296471
                           .group:00000000 wm4.stm32f4xx_sdio.h.31.8c6dff42ffa718b444c3420717601ff2
                           .group:00000000 wm4.stm32f4xx_spi.h.31.fb1b2c8214b87a47d4457633b7c31c3c
                           .group:00000000 wm4.stm32f4xx_syscfg.h.31.5a680f88d55b7816ae613c20f199cbd9
                           .group:00000000 wm4.stm32f4xx_tim.h.31.b1d608fbde729347e4ccf70799e654d2
                           .group:00000000 wm4.stm32f4xx_usart.h.31.f8d29b14aa4d39de5495adcc92749d3c
                           .group:00000000 wm4.stm32f4xx_wwdg.h.31.b45a80fa1ec64984adf786f7e489f31b
                           .group:00000000 wm4.stm32f4xx.h.6975.cdbdae9d5de06f1ba6b770f59cbe4d6c
                           .group:00000000 wm4.stdbool.h.29.c08aa3eec75cf5b9b5003883f43253f0
                           .group:00000000 wm4.newlib.h.7.59e76574e8950a1900b83fbbda2ff693
                           .group:00000000 wm4.ieeefp.h.77.5ad60f72ea25fc152400b550ac118212
                           .group:00000000 wm4.config.h.224.10ee1ad185d877c6e334e6581faab44d
                           .group:00000000 wm4._ansi.h.31.de524f58584151836e90d8620a16f8e8
                           .group:00000000 wm4.stdio.h.31.7c0e28c411445f3f9c5b11accf882760
                           .group:00000000 wm4.stddef.h.185.cbb642e1ccd385e8aa504b15cb7fb086
                           .group:00000000 wm4.cdefs.h.49.56fd742369e655e7e8a7e365e706e208
                           .group:00000000 wm4.stddef.h.39.6817658cc6bc4c7c8354d2009e4a5777
                           .group:00000000 wm4.stdarg.h.34.3a23a216c0c293b3d2ea2e89281481e6
                           .group:00000000 wm4._types.h.20.dd0d04dca3800a0d2a6129b87f3adbb2
ARM GAS  /tmp/ccnqaCtK.s 			page 4


                           .group:00000000 wm4.stddef.h.158.6f8e08a347b1cff664332fa350bfceb3
                           .group:00000000 wm4._types.h.127.3bdfe3ff8ea2d0985b03d9cbe93480e3
                           .group:00000000 wm4.reent.h.18.25503cdc8b7e55dd0d6ea7b3e5af7a03
                           .group:00000000 wm4.lock.h.2.1461d1fff82dffe8bfddc23307f6484f
                           .group:00000000 wm4.reent.h.78.7f0775353a33c852a1479c008f68cd03
                           .group:00000000 wm4.stdio.h.67.0cf8a9c281ab0b348aef5c02e7e48825
                           .group:00000000 wm4.stdio.h.2.4aa87247282eca6c8f36f9de33d8df1a
                           .group:00000000 wm4.stdio.h.87.a1e20d2651f9bfb66e51bfbe849db00a
                           .group:00000000 wm4.string.h.8.c4b8571ce60dff2817f43fec8b86aecd
                           .group:00000000 wm4.stddef.h.158.eec8bf00b5213f43d095cb984c5f22e3

UNDEFINED SYMBOLS
RCC_AHB1PeriphClockCmd
RCC_APB1PeriphClockCmd
