ARM GAS  /tmp/ccnqaCtK.s 			page 1


   1              		.cpu cortex-m4
   2              		.arch armv7e-m
   3              		.fpu fpv4-sp-d16
   4              		.eabi_attribute 27, 1
   5              		.eabi_attribute 28, 1
   6              		.eabi_attribute 20, 1
   7              		.eabi_attribute 21, 1
   8              		.eabi_attribute 23, 3
   9              		.eabi_attribute 24, 1
  10              		.eabi_attribute 25, 1
  11              		.eabi_attribute 26, 1
  12              		.eabi_attribute 30, 6
  13              		.eabi_attribute 34, 1
  14              		.eabi_attribute 18, 4
  15              		.file	"rcc.c"
  16              		.text
  17              	.Ltext0:
  18              		.cfi_sections	.debug_frame
  19              		.file 1 "../Shared/src/rcc.c"
  20              		.section	.text.RCC_Setup,"ax",%progbits
  21              		.align	1
  22              		.global	RCC_Setup
  23              		.syntax unified
  24              		.thumb
  25              		.thumb_func
  27              	RCC_Setup:
  28              	.LFB113:
   1:../Shared/src/rcc.c **** #include "rcc.h"
   2:../Shared/src/rcc.c **** #include "main.h"
   3:../Shared/src/rcc.c **** 
   4:../Shared/src/rcc.c **** void RCC_Setup(void) {
  29              		.loc 1 4 22
  30              		.cfi_startproc
  31              		@ args = 0, pretend = 0, frame = 0
  32              		@ frame_needed = 1, uses_anonymous_args = 0
  33 0000 80B5     		push	{r7, lr}
  34              	.LCFI0:
  35              		.cfi_def_cfa_offset 8
  36              		.cfi_offset 7, -8
  37              		.cfi_offset 14, -4
  38 0002 00AF     		add	r7, sp, #0
  39              	.LCFI1:
  40              		.cfi_def_cfa_register 7
   5:../Shared/src/rcc.c ****   /*Initialize GPIOB for toggling LEDs*/
   6:../Shared/src/rcc.c ****   /*USART_3 (USART_A_TX: PD8, USART_A_RX: PD9)*/
   7:../Shared/src/rcc.c ****   /* Initiate clock for GPIOB and GPIOD*/
   8:../Shared/src/rcc.c ****   RCC_AHB1PeriphClockCmd(RCC_AHB1Periph_GPIOB | RCC_AHB1Periph_GPIOD, ENABLE);
  41              		.loc 1 8 3
  42 0004 0121     		movs	r1, #1
  43 0006 0A20     		movs	r0, #10
  44 0008 FFF7FEFF 		bl	RCC_AHB1PeriphClockCmd
   9:../Shared/src/rcc.c **** 
  10:../Shared/src/rcc.c ****   /*Initialize USART3 clock*/
  11:../Shared/src/rcc.c ****   RCC_APB1PeriphClockCmd(RCC_APB1Periph_USART3, ENABLE);
  45              		.loc 1 11 3
  46 000c 0121     		movs	r1, #1
  47 000e 4FF48020 		mov	r0, #262144
ARM GAS  /tmp/ccnqaCtK.s 			page 2


  48 0012 FFF7FEFF 		bl	RCC_APB1PeriphClockCmd
  12:../Shared/src/rcc.c **** }
  49              		.loc 1 12 1
  50 0016 00BF     		nop
  51 0018 80BD     		pop	{r7, pc}
  52              		.cfi_endproc
  53              	.LFE113:
  55              		.section	.text.RCC_Teardown,"ax",%progbits
  56              		.align	1
  57              		.global	RCC_Teardown
  58              		.syntax unified
  59              		.thumb
  60              		.thumb_func
  62              	RCC_Teardown:
  63              	.LFB114:
  13:../Shared/src/rcc.c **** 
  14:../Shared/src/rcc.c **** void RCC_Teardown(void) {
  64              		.loc 1 14 25
  65              		.cfi_startproc
  66              		@ args = 0, pretend = 0, frame = 0
  67              		@ frame_needed = 1, uses_anonymous_args = 0
  68 0000 80B5     		push	{r7, lr}
  69              	.LCFI2:
  70              		.cfi_def_cfa_offset 8
  71              		.cfi_offset 7, -8
  72              		.cfi_offset 14, -4
  73 0002 00AF     		add	r7, sp, #0
  74              	.LCFI3:
  75              		.cfi_def_cfa_register 7
  15:../Shared/src/rcc.c ****   RCC_AHB1PeriphClockCmd(RCC_AHB1Periph_GPIOB | RCC_AHB1Periph_GPIOD, DISABLE);
  76              		.loc 1 15 3
  77 0004 0021     		movs	r1, #0
  78 0006 0A20     		movs	r0, #10
  79 0008 FFF7FEFF 		bl	RCC_AHB1PeriphClockCmd
  16:../Shared/src/rcc.c ****   RCC_APB1PeriphClockCmd(RCC_APB1Periph_USART3, DISABLE);
  80              		.loc 1 16 3
  81 000c 0021     		movs	r1, #0
  82 000e 4FF48020 		mov	r0, #262144
  83 0012 FFF7FEFF 		bl	RCC_APB1PeriphClockCmd
  17:../Shared/src/rcc.c **** }...
  84              		.loc 1 17 1
  85 0016 00BF     		nop
  86 0018 80BD     		pop	{r7, pc}
  87              		.cfi_endproc
  88              	.LFE114:
  90              		.text
  91              	.Letext0:
  92              		.file 2 "/usr/arm-none-eabi/include/machine/_default_types.h"
  93              		.file 3 "/usr/arm-none-eabi/include/sys/_stdint.h"
  94              		.file 4 "../Shared/Libraries/CMSIS/Device/ST/STM32F4xx/Include/stm32f4xx.h"
  95              		.file 5 "../Shared/Libraries/STM32F4xx_StdPeriph_Driver/inc/stm32f4xx_rcc.h"
ARM GAS  /tmp/ccnqaCtK.s 			page 3

