ARM GAS  /tmp/cckuyQaW.s 			page 1


   1              		.cpu cortex-m4
   2              		.arch armv7e-m
   3              		.fpu fpv4-sp-d16
   4              		.eabi_attribute 27, 1
   5              		.eabi_attribute 28, 1
   6              		.eabi_attribute 20, 1
   7              		.eabi_attribute 21, 1
   8              		.eabi_attribute 23, 3
   9              		.eabi_attribute 24, 1
  10              		.eabi_attribute 25, 1
  11              		.eabi_attribute 26, 1
  12              		.eabi_attribute 30, 6
  13              		.eabi_attribute 34, 1
  14              		.eabi_attribute 18, 4
  15              		.file	"ring_buffer.c"
  16              		.text
  17              	.Ltext0:
  18              		.cfi_sections	.debug_frame
  19              		.file 1 "../Shared/src/ring_buffer.c"
  20              		.section	.text.Ring_Buffer_Setup,"ax",%progbits
  21              		.align	1
  22              		.global	Ring_Buffer_Setup
  23              		.syntax unified
  24              		.thumb
  25              		.thumb_func
  27              	Ring_Buffer_Setup:
  28              	.LFB113:
   1:../Shared/src/ring_buffer.c **** #include "ring_buffer.h"
   2:../Shared/src/ring_buffer.c **** 
   3:../Shared/src/ring_buffer.c **** void Ring_Buffer_Setup(ringBuffer_t* ringBuffer, uint8_t* buffer, uint32_t size)
   4:../Shared/src/ring_buffer.c **** {
  29              		.loc 1 4 1
  30              		.cfi_startproc
  31              		@ args = 0, pretend = 0, frame = 16
  32              		@ frame_needed = 1, uses_anonymous_args = 0
  33              		@ link register save eliminated.
  34 0000 80B4     		push	{r7}
  35              	.LCFI0:
  36              		.cfi_def_cfa_offset 4
  37              		.cfi_offset 7, -4
  38 0002 85B0     		sub	sp, sp, #20
  39              	.LCFI1:
  40              		.cfi_def_cfa_offset 24
  41 0004 00AF     		add	r7, sp, #0
  42              	.LCFI2:
  43              		.cfi_def_cfa_register 7
  44 0006 F860     		str	r0, [r7, #12]
  45 0008 B960     		str	r1, [r7, #8]
  46 000a 7A60     		str	r2, [r7, #4]
   5:../Shared/src/ring_buffer.c ****     ringBuffer->buffer = buffer;
  47              		.loc 1 5 24
  48 000c FB68     		ldr	r3, [r7, #12]
  49 000e BA68     		ldr	r2, [r7, #8]
  50 0010 1A60     		str	r2, [r3]
   6:../Shared/src/ring_buffer.c ****     ringBuffer->readIndex = 0;
  51              		.loc 1 6 27
  52 0012 FB68     		ldr	r3, [r7, #12]
ARM GAS  /tmp/cckuyQaW.s 			page 2


  53 0014 0022     		movs	r2, #0
  54 0016 9A60     		str	r2, [r3, #8]
   7:../Shared/src/ring_buffer.c ****     ringBuffer->writeIndex = 0;
  55              		.loc 1 7 28
  56 0018 FB68     		ldr	r3, [r7, #12]
  57 001a 0022     		movs	r2, #0
  58 001c DA60     		str	r2, [r3, #12]
   8:../Shared/src/ring_buffer.c ****     ringBuffer->mask = size - 1;
  59              		.loc 1 8 29
  60 001e 7B68     		ldr	r3, [r7, #4]
  61 0020 5A1E     		subs	r2, r3, #1
  62              		.loc 1 8 22
  63 0022 FB68     		ldr	r3, [r7, #12]
  64 0024 5A60     		str	r2, [r3, #4]
   9:../Shared/src/ring_buffer.c **** }
  65              		.loc 1 9 1
  66 0026 00BF     		nop
  67 0028 1437     		adds	r7, r7, #20
  68              	.LCFI3:
  69              		.cfi_def_cfa_offset 4
  70 002a BD46     		mov	sp, r7
  71              	.LCFI4:
  72              		.cfi_def_cfa_register 13
  73              		@ sp needed
  74 002c 5DF8047B 		ldr	r7, [sp], #4
  75              	.LCFI5:
  76              		.cfi_restore 7
  77              		.cfi_def_cfa_offset 0
  78 0030 7047     		bx	lr
  79              		.cfi_endproc
  80              	.LFE113:
  82              		.section	.text.Ring_Buffer_Empty,"ax",%progbits
  83              		.align	1
  84              		.global	Ring_Buffer_Empty
  85              		.syntax unified
  86              		.thumb
  87              		.thumb_func
  89              	Ring_Buffer_Empty:
  90              	.LFB114:
  10:../Shared/src/ring_buffer.c **** 
  11:../Shared/src/ring_buffer.c **** bool Ring_Buffer_Empty(ringBuffer_t* ringBuffer)
  12:../Shared/src/ring_buffer.c **** {
  91              		.loc 1 12 1
  92              		.cfi_startproc
  93              		@ args = 0, pretend = 0, frame = 8
  94              		@ frame_needed = 1, uses_anonymous_args = 0
  95              		@ link register save eliminated.
  96 0000 80B4     		push	{r7}
  97              	.LCFI6:
  98              		.cfi_def_cfa_offset 4
  99              		.cfi_offset 7, -4
 100 0002 83B0     		sub	sp, sp, #12
 101              	.LCFI7:
 102              		.cfi_def_cfa_offset 16
 103 0004 00AF     		add	r7, sp, #0
 104              	.LCFI8:
 105              		.cfi_def_cfa_register 7
ARM GAS  /tmp/cckuyQaW.s 			page 3


 106 0006 7860     		str	r0, [r7, #4]
  13:../Shared/src/ring_buffer.c ****     return ringBuffer->readIndex == ringBuffer->writeIndex;
 107              		.loc 1 13 22
 108 0008 7B68     		ldr	r3, [r7, #4]
 109 000a 9A68     		ldr	r2, [r3, #8]
 110              		.loc 1 13 47
 111 000c 7B68     		ldr	r3, [r7, #4]
 112 000e DB68     		ldr	r3, [r3, #12]
 113              		.loc 1 13 34
 114 0010 9A42     		cmp	r2, r3
 115 0012 0CBF     		ite	eq
 116 0014 0123     		moveq	r3, #1
 117 0016 0023     		movne	r3, #0
 118 0018 DBB2     		uxtb	r3, r3
  14:../Shared/src/ring_buffer.c **** }
 119              		.loc 1 14 1
 120 001a 1846     		mov	r0, r3
 121 001c 0C37     		adds	r7, r7, #12
 122              	.LCFI9:
 123              		.cfi_def_cfa_offset 4
 124 001e BD46     		mov	sp, r7
 125              	.LCFI10:
 126              		.cfi_def_cfa_register 13
 127              		@ sp needed
 128 0020 5DF8047B 		ldr	r7, [sp], #4
 129              	.LCFI11:
 130              		.cfi_restore 7
 131              		.cfi_def_cfa_offset 0
 132 0024 7047     		bx	lr
 133              		.cfi_endproc
 134              	.LFE114:
 136              		.section	.text.Ring_Buffer_Write,"ax",%progbits
 137              		.align	1
 138              		.global	Ring_Buffer_Write
 139              		.syntax unified
 140              		.thumb
 141              		.thumb_func
 143              	Ring_Buffer_Write:
 144              	.LFB115:
  15:../Shared/src/ring_buffer.c **** 
  16:../Shared/src/ring_buffer.c **** bool Ring_Buffer_Write(ringBuffer_t* ringBuffer, uint8_t byte)
  17:../Shared/src/ring_buffer.c **** {
 145              		.loc 1 17 1
 146              		.cfi_startproc
 147              		@ args = 0, pretend = 0, frame = 24
 148              		@ frame_needed = 1, uses_anonymous_args = 0
 149              		@ link register save eliminated.
 150 0000 80B4     		push	{r7}
 151              	.LCFI12:
 152              		.cfi_def_cfa_offset 4
 153              		.cfi_offset 7, -4
 154 0002 87B0     		sub	sp, sp, #28
 155              	.LCFI13:
 156              		.cfi_def_cfa_offset 32
 157 0004 00AF     		add	r7, sp, #0
 158              	.LCFI14:
 159              		.cfi_def_cfa_register 7
ARM GAS  /tmp/cckuyQaW.s 			page 4


 160 0006 7860     		str	r0, [r7, #4]
 161 0008 0B46     		mov	r3, r1
 162 000a FB70     		strb	r3, [r7, #3]
  18:../Shared/src/ring_buffer.c ****     uint32_t localReadIndex = ringBuffer->readIndex;
 163              		.loc 1 18 14
 164 000c 7B68     		ldr	r3, [r7, #4]
 165 000e 9B68     		ldr	r3, [r3, #8]
 166 0010 7B61     		str	r3, [r7, #20]
  19:../Shared/src/ring_buffer.c ****     uint32_t localWriteIndex = ringBuffer->writeIndex;
 167              		.loc 1 19 14
 168 0012 7B68     		ldr	r3, [r7, #4]
 169 0014 DB68     		ldr	r3, [r3, #12]
 170 0016 3B61     		str	r3, [r7, #16]
  20:../Shared/src/ring_buffer.c **** 
  21:../Shared/src/ring_buffer.c ****     uint32_t nextWriteIndex = (localWriteIndex + 1) & ringBuffer->mask;
 171              		.loc 1 21 48
 172 0018 3B69     		ldr	r3, [r7, #16]
 173 001a 5A1C     		adds	r2, r3, #1
 174              		.loc 1 21 65
 175 001c 7B68     		ldr	r3, [r7, #4]
 176 001e 5B68     		ldr	r3, [r3, #4]
 177              		.loc 1 21 14
 178 0020 1340     		ands	r3, r3, r2
 179 0022 FB60     		str	r3, [r7, #12]
  22:../Shared/src/ring_buffer.c **** 
  23:../Shared/src/ring_buffer.c ****     if (nextWriteIndex == localReadIndex)
 180              		.loc 1 23 8
 181 0024 FA68     		ldr	r2, [r7, #12]
 182 0026 7B69     		ldr	r3, [r7, #20]
 183 0028 9A42     		cmp	r2, r3
 184 002a 01D1     		bne	.L5
  24:../Shared/src/ring_buffer.c ****     {
  25:../Shared/src/ring_buffer.c ****         return false;
 185              		.loc 1 25 16
 186 002c 0023     		movs	r3, #0
 187 002e 09E0     		b	.L6
 188              	.L5:
  26:../Shared/src/ring_buffer.c ****     }
  27:../Shared/src/ring_buffer.c **** 
  28:../Shared/src/ring_buffer.c ****     ringBuffer->buffer[localWriteIndex] = byte;
 189              		.loc 1 28 15
 190 0030 7B68     		ldr	r3, [r7, #4]
 191 0032 1A68     		ldr	r2, [r3]
 192              		.loc 1 28 23
 193 0034 3B69     		ldr	r3, [r7, #16]
 194 0036 1344     		add	r3, r3, r2
 195              		.loc 1 28 41
 196 0038 FA78     		ldrb	r2, [r7, #3]
 197 003a 1A70     		strb	r2, [r3]
  29:../Shared/src/ring_buffer.c ****     ringBuffer->writeIndex = nextWriteIndex;
 198              		.loc 1 29 28
 199 003c 7B68     		ldr	r3, [r7, #4]
 200 003e FA68     		ldr	r2, [r7, #12]
 201 0040 DA60     		str	r2, [r3, #12]
  30:../Shared/src/ring_buffer.c **** 
  31:../Shared/src/ring_buffer.c ****     return true;
 202              		.loc 1 31 12
ARM GAS  /tmp/cckuyQaW.s 			page 5


 203 0042 0123     		movs	r3, #1
 204              	.L6:
  32:../Shared/src/ring_buffer.c **** }
 205              		.loc 1 32 1
 206 0044 1846     		mov	r0, r3
 207 0046 1C37     		adds	r7, r7, #28
 208              	.LCFI15:
 209              		.cfi_def_cfa_offset 4
 210 0048 BD46     		mov	sp, r7
 211              	.LCFI16:
 212              		.cfi_def_cfa_register 13
 213              		@ sp needed
 214 004a 5DF8047B 		ldr	r7, [sp], #4
 215              	.LCFI17:
 216              		.cfi_restore 7
 217              		.cfi_def_cfa_offset 0
 218 004e 7047     		bx	lr
 219              		.cfi_endproc
 220              	.LFE115:
 222              		.section	.text.Ring_Buffer_Read,"ax",%progbits
 223              		.align	1
 224              		.global	Ring_Buffer_Read
 225              		.syntax unified
 226              		.thumb
 227              		.thumb_func
 229              	Ring_Buffer_Read:
 230              	.LFB116:
  33:../Shared/src/ring_buffer.c **** 
  34:../Shared/src/ring_buffer.c **** bool Ring_Buffer_Read(ringBuffer_t* ringBuffer, uint8_t* byte)
  35:../Shared/src/ring_buffer.c **** {
 231              		.loc 1 35 1
 232              		.cfi_startproc
 233              		@ args = 0, pretend = 0, frame = 16
 234              		@ frame_needed = 1, uses_anonymous_args = 0
 235              		@ link register save eliminated.
 236 0000 80B4     		push	{r7}
 237              	.LCFI18:
 238              		.cfi_def_cfa_offset 4
 239              		.cfi_offset 7, -4
 240 0002 85B0     		sub	sp, sp, #20
 241              	.LCFI19:
 242              		.cfi_def_cfa_offset 24
 243 0004 00AF     		add	r7, sp, #0
 244              	.LCFI20:
 245              		.cfi_def_cfa_register 7
 246 0006 7860     		str	r0, [r7, #4]
 247 0008 3960     		str	r1, [r7]
  36:../Shared/src/ring_buffer.c ****     uint32_t localReadIndex = ringBuffer->readIndex;
 248              		.loc 1 36 14
 249 000a 7B68     		ldr	r3, [r7, #4]
 250 000c 9B68     		ldr	r3, [r3, #8]
 251 000e FB60     		str	r3, [r7, #12]
  37:../Shared/src/ring_buffer.c ****     uint32_t localWriteIndex = ringBuffer->writeIndex;
 252              		.loc 1 37 14
 253 0010 7B68     		ldr	r3, [r7, #4]
 254 0012 DB68     		ldr	r3, [r3, #12]
 255 0014 BB60     		str	r3, [r7, #8]
ARM GAS  /tmp/cckuyQaW.s 			page 6


  38:../Shared/src/ring_buffer.c **** 
  39:../Shared/src/ring_buffer.c ****     if (localWriteIndex == localReadIndex)
 256              		.loc 1 39 8
 257 0016 BA68     		ldr	r2, [r7, #8]
 258 0018 FB68     		ldr	r3, [r7, #12]
 259 001a 9A42     		cmp	r2, r3
 260 001c 01D1     		bne	.L8
  40:../Shared/src/ring_buffer.c ****     {
  41:../Shared/src/ring_buffer.c ****         return false;
 261              		.loc 1 41 16
 262 001e 0023     		movs	r3, #0
 263 0020 10E0     		b	.L9
 264              	.L8:
  42:../Shared/src/ring_buffer.c ****     }
  43:../Shared/src/ring_buffer.c **** 
  44:../Shared/src/ring_buffer.c ****     *byte = ringBuffer->buffer[localReadIndex];
 265              		.loc 1 44 23
 266 0022 7B68     		ldr	r3, [r7, #4]
 267 0024 1A68     		ldr	r2, [r3]
 268              		.loc 1 44 31
 269 0026 FB68     		ldr	r3, [r7, #12]
 270 0028 1344     		add	r3, r3, r2
 271 002a 1A78     		ldrb	r2, [r3]	@ zero_extendqisi2
 272              		.loc 1 44 11
 273 002c 3B68     		ldr	r3, [r7]
 274 002e 1A70     		strb	r2, [r3]
  45:../Shared/src/ring_buffer.c ****     localReadIndex = (localReadIndex + 1) & ringBuffer->mask;
 275              		.loc 1 45 38
 276 0030 FB68     		ldr	r3, [r7, #12]
 277 0032 5A1C     		adds	r2, r3, #1
 278              		.loc 1 45 55
 279 0034 7B68     		ldr	r3, [r7, #4]
 280 0036 5B68     		ldr	r3, [r3, #4]
 281              		.loc 1 45 20
 282 0038 1340     		ands	r3, r3, r2
 283 003a FB60     		str	r3, [r7, #12]
  46:../Shared/src/ring_buffer.c ****     ringBuffer->readIndex = localReadIndex;
 284              		.loc 1 46 27
 285 003c 7B68     		ldr	r3, [r7, #4]
 286 003e FA68     		ldr	r2, [r7, #12]
 287 0040 9A60     		str	r2, [r3, #8]
  47:../Shared/src/ring_buffer.c **** 
  48:../Shared/src/ring_buffer.c ****     return true;
 288              		.loc 1 48 12
 289 0042 0123     		movs	r3, #1
 290              	.L9:
  49:../Shared/src/ring_buffer.c **** }...
 291              		.loc 1 49 1
 292 0044 1846     		mov	r0, r3
 293 0046 1437     		adds	r7, r7, #20
 294              	.LCFI21:
 295              		.cfi_def_cfa_offset 4
 296 0048 BD46     		mov	sp, r7
 297              	.LCFI22:
 298              		.cfi_def_cfa_register 13
 299              		@ sp needed
 300 004a 5DF8047B 		ldr	r7, [sp], #4
ARM GAS  /tmp/cckuyQaW.s 			page 7


 301              	.LCFI23:
 302              		.cfi_restore 7
 303              		.cfi_def_cfa_offset 0
 304 004e 7047     		bx	lr
 305              		.cfi_endproc
 306              	.LFE116:
 308              		.text
 309              	.Letext0:
 310              		.file 2 "/usr/arm-none-eabi/include/machine/_default_types.h"
 311              		.file 3 "/usr/arm-none-eabi/include/sys/_stdint.h"
 312              		.file 4 "../Shared/inc/ring_buffer.h"
ARM GAS  /tmp/cckuyQaW.s 			page 8

