ARM GAS  /tmp/ccXjhHbZ.s 			page 1


   1              		.cpu cortex-m4
   2              		.arch armv7e-m
   3              		.fpu fpv4-sp-d16
   4              		.eabi_attribute 27, 1
   5              		.eabi_attribute 28, 1
   6              		.eabi_attribute 20, 1
   7              		.eabi_attribute 21, 1
   8              		.eabi_attribute 23, 3
   9              		.eabi_attribute 24, 1
  10              		.eabi_attribute 25, 1
  11              		.eabi_attribute 26, 1
  12              		.eabi_attribute 30, 6
  13              		.eabi_attribute 34, 1
  14              		.eabi_attribute 18, 4
  15              		.file	"stm32f4xx_cryp.c"
  16              		.text
  17              	.Ltext0:
  18              		.cfi_sections	.debug_frame
  19              		.file 1 "../Shared/Libraries/STM32F4xx_StdPeriph_Driver/src/stm32f4xx_cryp.c"
  20              		.section	.text.CRYP_DeInit,"ax",%progbits
  21              		.align	1
  22              		.global	CRYP_DeInit
  23              		.syntax unified
  24              		.thumb
  25              		.thumb_func
  27              	CRYP_DeInit:
  28              	.LFB110:
   1:../Shared/Libraries/STM32F4xx_StdPeriph_Driver/src/stm32f4xx_cryp.c **** /**
   2:../Shared/Libraries/STM32F4xx_StdPeriph_Driver/src/stm32f4xx_cryp.c ****   ******************************************************************************
   3:../Shared/Libraries/STM32F4xx_StdPeriph_Driver/src/stm32f4xx_cryp.c ****   * @file    stm32f4xx_cryp.c
   4:../Shared/Libraries/STM32F4xx_StdPeriph_Driver/src/stm32f4xx_cryp.c ****   * @author  MCD Application Team
   5:../Shared/Libraries/STM32F4xx_StdPeriph_Driver/src/stm32f4xx_cryp.c ****   * @version V1.0.2
   6:../Shared/Libraries/STM32F4xx_StdPeriph_Driver/src/stm32f4xx_cryp.c ****   * @date    05-March-2012
   7:../Shared/Libraries/STM32F4xx_StdPeriph_Driver/src/stm32f4xx_cryp.c ****   * @brief   This file provides firmware functions to manage the following 
   8:../Shared/Libraries/STM32F4xx_StdPeriph_Driver/src/stm32f4xx_cryp.c ****   *          functionalities of the  Cryptographic processor (CRYP) peripheral:           
   9:../Shared/Libraries/STM32F4xx_StdPeriph_Driver/src/stm32f4xx_cryp.c ****   *           - Initialization and Configuration functions
  10:../Shared/Libraries/STM32F4xx_StdPeriph_Driver/src/stm32f4xx_cryp.c ****   *           - Data treatment functions 
  11:../Shared/Libraries/STM32F4xx_StdPeriph_Driver/src/stm32f4xx_cryp.c ****   *           - Context swapping functions     
  12:../Shared/Libraries/STM32F4xx_StdPeriph_Driver/src/stm32f4xx_cryp.c ****   *           - DMA interface function       
  13:../Shared/Libraries/STM32F4xx_StdPeriph_Driver/src/stm32f4xx_cryp.c ****   *           - Interrupts and flags management       
  14:../Shared/Libraries/STM32F4xx_StdPeriph_Driver/src/stm32f4xx_cryp.c ****   *
  15:../Shared/Libraries/STM32F4xx_StdPeriph_Driver/src/stm32f4xx_cryp.c ****   *  @verbatim
  16:../Shared/Libraries/STM32F4xx_StdPeriph_Driver/src/stm32f4xx_cryp.c ****   *                               
  17:../Shared/Libraries/STM32F4xx_StdPeriph_Driver/src/stm32f4xx_cryp.c ****   *          ===================================================================      
  18:../Shared/Libraries/STM32F4xx_StdPeriph_Driver/src/stm32f4xx_cryp.c ****   *                                 How to use this driver
  19:../Shared/Libraries/STM32F4xx_StdPeriph_Driver/src/stm32f4xx_cryp.c ****   *          =================================================================== 
  20:../Shared/Libraries/STM32F4xx_StdPeriph_Driver/src/stm32f4xx_cryp.c ****   *          1. Enable the CRYP controller clock using 
  21:../Shared/Libraries/STM32F4xx_StdPeriph_Driver/src/stm32f4xx_cryp.c ****   *              RCC_AHB2PeriphClockCmd(RCC_AHB2Periph_CRYP, ENABLE); function.
  22:../Shared/Libraries/STM32F4xx_StdPeriph_Driver/src/stm32f4xx_cryp.c ****   *
  23:../Shared/Libraries/STM32F4xx_StdPeriph_Driver/src/stm32f4xx_cryp.c ****   *          2. Initialise the CRYP using CRYP_Init(), CRYP_KeyInit() and if 
  24:../Shared/Libraries/STM32F4xx_StdPeriph_Driver/src/stm32f4xx_cryp.c ****   *             needed CRYP_IVInit(). 
  25:../Shared/Libraries/STM32F4xx_StdPeriph_Driver/src/stm32f4xx_cryp.c ****   *
  26:../Shared/Libraries/STM32F4xx_StdPeriph_Driver/src/stm32f4xx_cryp.c ****   *          3. Flush the IN and OUT FIFOs by using CRYP_FIFOFlush() function.
  27:../Shared/Libraries/STM32F4xx_StdPeriph_Driver/src/stm32f4xx_cryp.c ****   *
  28:../Shared/Libraries/STM32F4xx_StdPeriph_Driver/src/stm32f4xx_cryp.c ****   *          4. Enable the CRYP controller using the CRYP_Cmd() function. 
  29:../Shared/Libraries/STM32F4xx_StdPeriph_Driver/src/stm32f4xx_cryp.c ****   *
  30:../Shared/Libraries/STM32F4xx_StdPeriph_Driver/src/stm32f4xx_cryp.c ****   *          5. If using DMA for Data input and output transfer, 
ARM GAS  /tmp/ccXjhHbZ.s 			page 2


  31:../Shared/Libraries/STM32F4xx_StdPeriph_Driver/src/stm32f4xx_cryp.c ****   *             Activate the needed DMA Requests using CRYP_DMACmd() function 
  32:../Shared/Libraries/STM32F4xx_StdPeriph_Driver/src/stm32f4xx_cryp.c ****   
  33:../Shared/Libraries/STM32F4xx_StdPeriph_Driver/src/stm32f4xx_cryp.c ****   *          6. If DMA is not used for data transfer, use CRYP_DataIn() and 
  34:../Shared/Libraries/STM32F4xx_StdPeriph_Driver/src/stm32f4xx_cryp.c ****   *             CRYP_DataOut() functions to enter data to IN FIFO and get result
  35:../Shared/Libraries/STM32F4xx_StdPeriph_Driver/src/stm32f4xx_cryp.c ****   *             from OUT FIFO.
  36:../Shared/Libraries/STM32F4xx_StdPeriph_Driver/src/stm32f4xx_cryp.c ****   *
  37:../Shared/Libraries/STM32F4xx_StdPeriph_Driver/src/stm32f4xx_cryp.c ****   *          7. To control CRYP events you can use one of the following 
  38:../Shared/Libraries/STM32F4xx_StdPeriph_Driver/src/stm32f4xx_cryp.c ****   *              two methods:
  39:../Shared/Libraries/STM32F4xx_StdPeriph_Driver/src/stm32f4xx_cryp.c ****   *               - Check on CRYP flags using the CRYP_GetFlagStatus() function.  
  40:../Shared/Libraries/STM32F4xx_StdPeriph_Driver/src/stm32f4xx_cryp.c ****   *               - Use CRYP interrupts through the function CRYP_ITConfig() at 
  41:../Shared/Libraries/STM32F4xx_StdPeriph_Driver/src/stm32f4xx_cryp.c ****   *                 initialization phase and CRYP_GetITStatus() function into 
  42:../Shared/Libraries/STM32F4xx_StdPeriph_Driver/src/stm32f4xx_cryp.c ****   *                 interrupt routines in processing phase.
  43:../Shared/Libraries/STM32F4xx_StdPeriph_Driver/src/stm32f4xx_cryp.c ****   *       
  44:../Shared/Libraries/STM32F4xx_StdPeriph_Driver/src/stm32f4xx_cryp.c ****   *          8. Save and restore Cryptographic processor context using  
  45:../Shared/Libraries/STM32F4xx_StdPeriph_Driver/src/stm32f4xx_cryp.c ****   *             CRYP_SaveContext() and CRYP_RestoreContext() functions.     
  46:../Shared/Libraries/STM32F4xx_StdPeriph_Driver/src/stm32f4xx_cryp.c ****   *
  47:../Shared/Libraries/STM32F4xx_StdPeriph_Driver/src/stm32f4xx_cryp.c ****   *
  48:../Shared/Libraries/STM32F4xx_StdPeriph_Driver/src/stm32f4xx_cryp.c ****   *          ===================================================================  
  49:../Shared/Libraries/STM32F4xx_StdPeriph_Driver/src/stm32f4xx_cryp.c ****   *                Procedure to perform an encryption or a decryption
  50:../Shared/Libraries/STM32F4xx_StdPeriph_Driver/src/stm32f4xx_cryp.c ****   *          ===================================================================  
  51:../Shared/Libraries/STM32F4xx_StdPeriph_Driver/src/stm32f4xx_cryp.c ****   *
  52:../Shared/Libraries/STM32F4xx_StdPeriph_Driver/src/stm32f4xx_cryp.c ****   *      Initialization
  53:../Shared/Libraries/STM32F4xx_StdPeriph_Driver/src/stm32f4xx_cryp.c ****   *      ===============  
  54:../Shared/Libraries/STM32F4xx_StdPeriph_Driver/src/stm32f4xx_cryp.c ****   *     1. Initialize the peripheral using CRYP_Init(), CRYP_KeyInit() and 
  55:../Shared/Libraries/STM32F4xx_StdPeriph_Driver/src/stm32f4xx_cryp.c ****   *        CRYP_IVInit functions:
  56:../Shared/Libraries/STM32F4xx_StdPeriph_Driver/src/stm32f4xx_cryp.c ****   *        - Configure the key size (128-, 192- or 256-bit, in the AES only) 
  57:../Shared/Libraries/STM32F4xx_StdPeriph_Driver/src/stm32f4xx_cryp.c ****   *        - Enter the symmetric key 
  58:../Shared/Libraries/STM32F4xx_StdPeriph_Driver/src/stm32f4xx_cryp.c ****   *        - Configure the data type
  59:../Shared/Libraries/STM32F4xx_StdPeriph_Driver/src/stm32f4xx_cryp.c ****   *        - In case of decryption in AES-ECB or AES-CBC, you must prepare 
  60:../Shared/Libraries/STM32F4xx_StdPeriph_Driver/src/stm32f4xx_cryp.c ****   *          the key: configure the key preparation mode. Then Enable the CRYP 
  61:../Shared/Libraries/STM32F4xx_StdPeriph_Driver/src/stm32f4xx_cryp.c ****   *          peripheral using CRYP_Cmd() function: the BUSY flag is set. 
  62:../Shared/Libraries/STM32F4xx_StdPeriph_Driver/src/stm32f4xx_cryp.c ****   *          Wait until BUSY flag is reset : the key is prepared for decryption
  63:../Shared/Libraries/STM32F4xx_StdPeriph_Driver/src/stm32f4xx_cryp.c ****   *       - Configure the algorithm and chaining (the DES/TDES in ECB/CBC, the 
  64:../Shared/Libraries/STM32F4xx_StdPeriph_Driver/src/stm32f4xx_cryp.c ****   *          AES in ECB/CBC/CTR) 
  65:../Shared/Libraries/STM32F4xx_StdPeriph_Driver/src/stm32f4xx_cryp.c ****   *       - Configure the direction (encryption/decryption).
  66:../Shared/Libraries/STM32F4xx_StdPeriph_Driver/src/stm32f4xx_cryp.c ****   *       - Write the initialization vectors (in CBC or CTR modes only)
  67:../Shared/Libraries/STM32F4xx_StdPeriph_Driver/src/stm32f4xx_cryp.c ****   *
  68:../Shared/Libraries/STM32F4xx_StdPeriph_Driver/src/stm32f4xx_cryp.c ****   *    2. Flush the IN and OUT FIFOs using the CRYP_FIFOFlush() function
  69:../Shared/Libraries/STM32F4xx_StdPeriph_Driver/src/stm32f4xx_cryp.c ****   *
  70:../Shared/Libraries/STM32F4xx_StdPeriph_Driver/src/stm32f4xx_cryp.c ****   *
  71:../Shared/Libraries/STM32F4xx_StdPeriph_Driver/src/stm32f4xx_cryp.c ****   *    Basic Processing mode (polling mode) 
  72:../Shared/Libraries/STM32F4xx_StdPeriph_Driver/src/stm32f4xx_cryp.c ****   *    ====================================  
  73:../Shared/Libraries/STM32F4xx_StdPeriph_Driver/src/stm32f4xx_cryp.c ****   *    1. Enable the cryptographic processor using CRYP_Cmd() function.
  74:../Shared/Libraries/STM32F4xx_StdPeriph_Driver/src/stm32f4xx_cryp.c ****   *
  75:../Shared/Libraries/STM32F4xx_StdPeriph_Driver/src/stm32f4xx_cryp.c ****   *    2. Write the first blocks in the input FIFO (2 to 8 words) using 
  76:../Shared/Libraries/STM32F4xx_StdPeriph_Driver/src/stm32f4xx_cryp.c ****   *       CRYP_DataIn() function.
  77:../Shared/Libraries/STM32F4xx_StdPeriph_Driver/src/stm32f4xx_cryp.c ****   *
  78:../Shared/Libraries/STM32F4xx_StdPeriph_Driver/src/stm32f4xx_cryp.c ****   *    3. Repeat the following sequence until the complete message has been 
  79:../Shared/Libraries/STM32F4xx_StdPeriph_Driver/src/stm32f4xx_cryp.c ****   *       processed:
  80:../Shared/Libraries/STM32F4xx_StdPeriph_Driver/src/stm32f4xx_cryp.c ****   *
  81:../Shared/Libraries/STM32F4xx_StdPeriph_Driver/src/stm32f4xx_cryp.c ****   *       a) Wait for flag CRYP_FLAG_OFNE occurs (using CRYP_GetFlagStatus() 
  82:../Shared/Libraries/STM32F4xx_StdPeriph_Driver/src/stm32f4xx_cryp.c ****   *          function), then read the OUT-FIFO using CRYP_DataOut() function
  83:../Shared/Libraries/STM32F4xx_StdPeriph_Driver/src/stm32f4xx_cryp.c ****   *          (1 block or until the FIFO is empty)
  84:../Shared/Libraries/STM32F4xx_StdPeriph_Driver/src/stm32f4xx_cryp.c ****   *
  85:../Shared/Libraries/STM32F4xx_StdPeriph_Driver/src/stm32f4xx_cryp.c ****   *       b) Wait for flag CRYP_FLAG_IFNF occurs, (using CRYP_GetFlagStatus() 
  86:../Shared/Libraries/STM32F4xx_StdPeriph_Driver/src/stm32f4xx_cryp.c ****   *          function then write the IN FIFO using CRYP_DataIn() function 
  87:../Shared/Libraries/STM32F4xx_StdPeriph_Driver/src/stm32f4xx_cryp.c ****   *          (1 block or until the FIFO is full)
ARM GAS  /tmp/ccXjhHbZ.s 			page 3


  88:../Shared/Libraries/STM32F4xx_StdPeriph_Driver/src/stm32f4xx_cryp.c ****   *
  89:../Shared/Libraries/STM32F4xx_StdPeriph_Driver/src/stm32f4xx_cryp.c ****   *    4. At the end of the processing, CRYP_FLAG_BUSY flag will be reset and 
  90:../Shared/Libraries/STM32F4xx_StdPeriph_Driver/src/stm32f4xx_cryp.c ****   *        both FIFOs are empty (CRYP_FLAG_IFEM is set and CRYP_FLAG_OFNE is 
  91:../Shared/Libraries/STM32F4xx_StdPeriph_Driver/src/stm32f4xx_cryp.c ****   *        reset). You can disable the peripheral using CRYP_Cmd() function.
  92:../Shared/Libraries/STM32F4xx_StdPeriph_Driver/src/stm32f4xx_cryp.c ****   *
  93:../Shared/Libraries/STM32F4xx_StdPeriph_Driver/src/stm32f4xx_cryp.c ****   *    Interrupts Processing mode 
  94:../Shared/Libraries/STM32F4xx_StdPeriph_Driver/src/stm32f4xx_cryp.c ****   *    ===========================
  95:../Shared/Libraries/STM32F4xx_StdPeriph_Driver/src/stm32f4xx_cryp.c ****   *    In this mode, Processing is done when the data are transferred by the 
  96:../Shared/Libraries/STM32F4xx_StdPeriph_Driver/src/stm32f4xx_cryp.c ****   *    CPU during interrupts.
  97:../Shared/Libraries/STM32F4xx_StdPeriph_Driver/src/stm32f4xx_cryp.c ****   *
  98:../Shared/Libraries/STM32F4xx_StdPeriph_Driver/src/stm32f4xx_cryp.c ****   *    1. Enable the interrupts CRYP_IT_INI and CRYP_IT_OUTI using 
  99:../Shared/Libraries/STM32F4xx_StdPeriph_Driver/src/stm32f4xx_cryp.c ****   *       CRYP_ITConfig() function.
 100:../Shared/Libraries/STM32F4xx_StdPeriph_Driver/src/stm32f4xx_cryp.c ****   *
 101:../Shared/Libraries/STM32F4xx_StdPeriph_Driver/src/stm32f4xx_cryp.c ****   *    2. Enable the cryptographic processor using CRYP_Cmd() function.
 102:../Shared/Libraries/STM32F4xx_StdPeriph_Driver/src/stm32f4xx_cryp.c ****   *
 103:../Shared/Libraries/STM32F4xx_StdPeriph_Driver/src/stm32f4xx_cryp.c ****   *    3. In the CRYP_IT_INI interrupt handler : load the input message into the 
 104:../Shared/Libraries/STM32F4xx_StdPeriph_Driver/src/stm32f4xx_cryp.c ****   *       IN FIFO using CRYP_DataIn() function . You can load 2 or 4 words at a 
 105:../Shared/Libraries/STM32F4xx_StdPeriph_Driver/src/stm32f4xx_cryp.c ****   *       time, or load data until the IN FIFO is full. When the last word of
 106:../Shared/Libraries/STM32F4xx_StdPeriph_Driver/src/stm32f4xx_cryp.c ****   *       the message has been entered into the IN FIFO, disable the CRYP_IT_INI 
 107:../Shared/Libraries/STM32F4xx_StdPeriph_Driver/src/stm32f4xx_cryp.c ****   *       interrupt (using CRYP_ITConfig() function).
 108:../Shared/Libraries/STM32F4xx_StdPeriph_Driver/src/stm32f4xx_cryp.c ****   *
 109:../Shared/Libraries/STM32F4xx_StdPeriph_Driver/src/stm32f4xx_cryp.c ****   *    4. In the CRYP_IT_OUTI interrupt handler : read the output message from 
 110:../Shared/Libraries/STM32F4xx_StdPeriph_Driver/src/stm32f4xx_cryp.c ****   *       the OUT FIFO using CRYP_DataOut() function. You can read 1 block (2 or 
 111:../Shared/Libraries/STM32F4xx_StdPeriph_Driver/src/stm32f4xx_cryp.c ****   *       4 words) at a time or read data until the FIFO is empty.
 112:../Shared/Libraries/STM32F4xx_StdPeriph_Driver/src/stm32f4xx_cryp.c ****   *       When the last word has been read, INIM=0, BUSY=0 and both FIFOs are 
 113:../Shared/Libraries/STM32F4xx_StdPeriph_Driver/src/stm32f4xx_cryp.c ****   *       empty (CRYP_FLAG_IFEM is set and CRYP_FLAG_OFNE is reset). 
 114:../Shared/Libraries/STM32F4xx_StdPeriph_Driver/src/stm32f4xx_cryp.c ****   *       You can disable the CRYP_IT_OUTI interrupt (using CRYP_ITConfig() 
 115:../Shared/Libraries/STM32F4xx_StdPeriph_Driver/src/stm32f4xx_cryp.c ****   *       function) and you can disable the peripheral using CRYP_Cmd() function.
 116:../Shared/Libraries/STM32F4xx_StdPeriph_Driver/src/stm32f4xx_cryp.c ****   *
 117:../Shared/Libraries/STM32F4xx_StdPeriph_Driver/src/stm32f4xx_cryp.c ****   *    DMA Processing mode 
 118:../Shared/Libraries/STM32F4xx_StdPeriph_Driver/src/stm32f4xx_cryp.c ****   *    ====================
 119:../Shared/Libraries/STM32F4xx_StdPeriph_Driver/src/stm32f4xx_cryp.c ****   *    In this mode, Processing is done when the DMA is used to transfer the 
 120:../Shared/Libraries/STM32F4xx_StdPeriph_Driver/src/stm32f4xx_cryp.c ****   *    data from/to the memory.
 121:../Shared/Libraries/STM32F4xx_StdPeriph_Driver/src/stm32f4xx_cryp.c ****   *
 122:../Shared/Libraries/STM32F4xx_StdPeriph_Driver/src/stm32f4xx_cryp.c ****   *    1. Configure the DMA controller to transfer the input data from the 
 123:../Shared/Libraries/STM32F4xx_StdPeriph_Driver/src/stm32f4xx_cryp.c ****   *       memory using DMA_Init() function. 
 124:../Shared/Libraries/STM32F4xx_StdPeriph_Driver/src/stm32f4xx_cryp.c ****   *       The transfer length is the length of the message. 
 125:../Shared/Libraries/STM32F4xx_StdPeriph_Driver/src/stm32f4xx_cryp.c ****   *       As message padding is not managed by the peripheral, the message 
 126:../Shared/Libraries/STM32F4xx_StdPeriph_Driver/src/stm32f4xx_cryp.c ****   *       length must be an entire number of blocks. The data are transferred 
 127:../Shared/Libraries/STM32F4xx_StdPeriph_Driver/src/stm32f4xx_cryp.c ****   *       in burst mode. The burst length is 4 words in the AES and 2 or 4 
 128:../Shared/Libraries/STM32F4xx_StdPeriph_Driver/src/stm32f4xx_cryp.c ****   *       words in the DES/TDES. The DMA should be configured to set an 
 129:../Shared/Libraries/STM32F4xx_StdPeriph_Driver/src/stm32f4xx_cryp.c ****   *       interrupt on transfer completion of the output data to indicate that 
 130:../Shared/Libraries/STM32F4xx_StdPeriph_Driver/src/stm32f4xx_cryp.c ****   *       the processing is finished. 
 131:../Shared/Libraries/STM32F4xx_StdPeriph_Driver/src/stm32f4xx_cryp.c ****   *       Refer to DMA peripheral driver for more details.  
 132:../Shared/Libraries/STM32F4xx_StdPeriph_Driver/src/stm32f4xx_cryp.c ****   *
 133:../Shared/Libraries/STM32F4xx_StdPeriph_Driver/src/stm32f4xx_cryp.c ****   *    2. Enable the cryptographic processor using CRYP_Cmd() function. 
 134:../Shared/Libraries/STM32F4xx_StdPeriph_Driver/src/stm32f4xx_cryp.c ****   *       Enable the DMA requests CRYP_DMAReq_DataIN and CRYP_DMAReq_DataOUT 
 135:../Shared/Libraries/STM32F4xx_StdPeriph_Driver/src/stm32f4xx_cryp.c ****   *       using CRYP_DMACmd() function.
 136:../Shared/Libraries/STM32F4xx_StdPeriph_Driver/src/stm32f4xx_cryp.c ****   *
 137:../Shared/Libraries/STM32F4xx_StdPeriph_Driver/src/stm32f4xx_cryp.c ****   *    3. All the transfers and processing are managed by the DMA and the 
 138:../Shared/Libraries/STM32F4xx_StdPeriph_Driver/src/stm32f4xx_cryp.c ****   *       cryptographic processor. The DMA transfer complete interrupt indicates 
 139:../Shared/Libraries/STM32F4xx_StdPeriph_Driver/src/stm32f4xx_cryp.c ****   *       that the processing is complete. Both FIFOs are normally empty and 
 140:../Shared/Libraries/STM32F4xx_StdPeriph_Driver/src/stm32f4xx_cryp.c ****   *       CRYP_FLAG_BUSY flag is reset.
 141:../Shared/Libraries/STM32F4xx_StdPeriph_Driver/src/stm32f4xx_cryp.c ****   *
 142:../Shared/Libraries/STM32F4xx_StdPeriph_Driver/src/stm32f4xx_cryp.c ****   *  @endverbatim
 143:../Shared/Libraries/STM32F4xx_StdPeriph_Driver/src/stm32f4xx_cryp.c ****   *
 144:../Shared/Libraries/STM32F4xx_StdPeriph_Driver/src/stm32f4xx_cryp.c ****   ******************************************************************************
ARM GAS  /tmp/ccXjhHbZ.s 			page 4


 145:../Shared/Libraries/STM32F4xx_StdPeriph_Driver/src/stm32f4xx_cryp.c ****   * @attention
 146:../Shared/Libraries/STM32F4xx_StdPeriph_Driver/src/stm32f4xx_cryp.c ****   *
 147:../Shared/Libraries/STM32F4xx_StdPeriph_Driver/src/stm32f4xx_cryp.c ****   * <h2><center>&copy; COPYRIGHT 2012 STMicroelectronics</center></h2>
 148:../Shared/Libraries/STM32F4xx_StdPeriph_Driver/src/stm32f4xx_cryp.c ****   *
 149:../Shared/Libraries/STM32F4xx_StdPeriph_Driver/src/stm32f4xx_cryp.c ****   * Licensed under MCD-ST Liberty SW License Agreement V2, (the "License");
 150:../Shared/Libraries/STM32F4xx_StdPeriph_Driver/src/stm32f4xx_cryp.c ****   * You may not use this file except in compliance with the License.
 151:../Shared/Libraries/STM32F4xx_StdPeriph_Driver/src/stm32f4xx_cryp.c ****   * You may obtain a copy of the License at:
 152:../Shared/Libraries/STM32F4xx_StdPeriph_Driver/src/stm32f4xx_cryp.c ****   *
 153:../Shared/Libraries/STM32F4xx_StdPeriph_Driver/src/stm32f4xx_cryp.c ****   *        http://www.st.com/software_license_agreement_liberty_v2
 154:../Shared/Libraries/STM32F4xx_StdPeriph_Driver/src/stm32f4xx_cryp.c ****   *
 155:../Shared/Libraries/STM32F4xx_StdPeriph_Driver/src/stm32f4xx_cryp.c ****   * Unless required by applicable law or agreed to in writing, software 
 156:../Shared/Libraries/STM32F4xx_StdPeriph_Driver/src/stm32f4xx_cryp.c ****   * distributed under the License is distributed on an "AS IS" BASIS, 
 157:../Shared/Libraries/STM32F4xx_StdPeriph_Driver/src/stm32f4xx_cryp.c ****   * WITHOUT WARRANTIES OR CONDITIONS OF ANY KIND, either express or implied.
 158:../Shared/Libraries/STM32F4xx_StdPeriph_Driver/src/stm32f4xx_cryp.c ****   * See the License for the specific language governing permissions and
 159:../Shared/Libraries/STM32F4xx_StdPeriph_Driver/src/stm32f4xx_cryp.c ****   * limitations under the License.
 160:../Shared/Libraries/STM32F4xx_StdPeriph_Driver/src/stm32f4xx_cryp.c ****   *
 161:../Shared/Libraries/STM32F4xx_StdPeriph_Driver/src/stm32f4xx_cryp.c ****   ******************************************************************************
 162:../Shared/Libraries/STM32F4xx_StdPeriph_Driver/src/stm32f4xx_cryp.c ****   */
 163:../Shared/Libraries/STM32F4xx_StdPeriph_Driver/src/stm32f4xx_cryp.c **** 
 164:../Shared/Libraries/STM32F4xx_StdPeriph_Driver/src/stm32f4xx_cryp.c **** /* Includes ------------------------------------------------------------------*/
 165:../Shared/Libraries/STM32F4xx_StdPeriph_Driver/src/stm32f4xx_cryp.c **** #include "stm32f4xx_cryp.h"
 166:../Shared/Libraries/STM32F4xx_StdPeriph_Driver/src/stm32f4xx_cryp.c **** #include "stm32f4xx_rcc.h"
 167:../Shared/Libraries/STM32F4xx_StdPeriph_Driver/src/stm32f4xx_cryp.c **** 
 168:../Shared/Libraries/STM32F4xx_StdPeriph_Driver/src/stm32f4xx_cryp.c **** /** @addtogroup STM32F4xx_StdPeriph_Driver
 169:../Shared/Libraries/STM32F4xx_StdPeriph_Driver/src/stm32f4xx_cryp.c ****   * @{
 170:../Shared/Libraries/STM32F4xx_StdPeriph_Driver/src/stm32f4xx_cryp.c ****   */
 171:../Shared/Libraries/STM32F4xx_StdPeriph_Driver/src/stm32f4xx_cryp.c **** 
 172:../Shared/Libraries/STM32F4xx_StdPeriph_Driver/src/stm32f4xx_cryp.c **** /** @defgroup CRYP 
 173:../Shared/Libraries/STM32F4xx_StdPeriph_Driver/src/stm32f4xx_cryp.c ****   * @brief CRYP driver modules
 174:../Shared/Libraries/STM32F4xx_StdPeriph_Driver/src/stm32f4xx_cryp.c ****   * @{
 175:../Shared/Libraries/STM32F4xx_StdPeriph_Driver/src/stm32f4xx_cryp.c ****   */ 
 176:../Shared/Libraries/STM32F4xx_StdPeriph_Driver/src/stm32f4xx_cryp.c **** 
 177:../Shared/Libraries/STM32F4xx_StdPeriph_Driver/src/stm32f4xx_cryp.c **** /* Private typedef -----------------------------------------------------------*/
 178:../Shared/Libraries/STM32F4xx_StdPeriph_Driver/src/stm32f4xx_cryp.c **** /* Private define ------------------------------------------------------------*/
 179:../Shared/Libraries/STM32F4xx_StdPeriph_Driver/src/stm32f4xx_cryp.c **** #define FLAG_MASK     ((uint8_t)0x20)
 180:../Shared/Libraries/STM32F4xx_StdPeriph_Driver/src/stm32f4xx_cryp.c **** #define MAX_TIMEOUT   ((uint16_t)0xFFFF)
 181:../Shared/Libraries/STM32F4xx_StdPeriph_Driver/src/stm32f4xx_cryp.c **** 
 182:../Shared/Libraries/STM32F4xx_StdPeriph_Driver/src/stm32f4xx_cryp.c **** /* Private macro -------------------------------------------------------------*/
 183:../Shared/Libraries/STM32F4xx_StdPeriph_Driver/src/stm32f4xx_cryp.c **** /* Private variables ---------------------------------------------------------*/
 184:../Shared/Libraries/STM32F4xx_StdPeriph_Driver/src/stm32f4xx_cryp.c **** /* Private function prototypes -----------------------------------------------*/
 185:../Shared/Libraries/STM32F4xx_StdPeriph_Driver/src/stm32f4xx_cryp.c **** /* Private functions ---------------------------------------------------------*/
 186:../Shared/Libraries/STM32F4xx_StdPeriph_Driver/src/stm32f4xx_cryp.c **** 
 187:../Shared/Libraries/STM32F4xx_StdPeriph_Driver/src/stm32f4xx_cryp.c **** /** @defgroup CRYP_Private_Functions
 188:../Shared/Libraries/STM32F4xx_StdPeriph_Driver/src/stm32f4xx_cryp.c ****   * @{
 189:../Shared/Libraries/STM32F4xx_StdPeriph_Driver/src/stm32f4xx_cryp.c ****   */ 
 190:../Shared/Libraries/STM32F4xx_StdPeriph_Driver/src/stm32f4xx_cryp.c **** 
 191:../Shared/Libraries/STM32F4xx_StdPeriph_Driver/src/stm32f4xx_cryp.c **** /** @defgroup CRYP_Group1 Initialization and Configuration functions
 192:../Shared/Libraries/STM32F4xx_StdPeriph_Driver/src/stm32f4xx_cryp.c ****  *  @brief    Initialization and Configuration functions 
 193:../Shared/Libraries/STM32F4xx_StdPeriph_Driver/src/stm32f4xx_cryp.c ****  *
 194:../Shared/Libraries/STM32F4xx_StdPeriph_Driver/src/stm32f4xx_cryp.c **** @verbatim    
 195:../Shared/Libraries/STM32F4xx_StdPeriph_Driver/src/stm32f4xx_cryp.c ****  ===============================================================================
 196:../Shared/Libraries/STM32F4xx_StdPeriph_Driver/src/stm32f4xx_cryp.c ****                       Initialization and Configuration functions
 197:../Shared/Libraries/STM32F4xx_StdPeriph_Driver/src/stm32f4xx_cryp.c ****  ===============================================================================  
 198:../Shared/Libraries/STM32F4xx_StdPeriph_Driver/src/stm32f4xx_cryp.c ****   This section provides functions allowing to 
 199:../Shared/Libraries/STM32F4xx_StdPeriph_Driver/src/stm32f4xx_cryp.c ****    - Initialize the cryptographic Processor using CRYP_Init() function 
 200:../Shared/Libraries/STM32F4xx_StdPeriph_Driver/src/stm32f4xx_cryp.c ****       -  Encrypt or Decrypt 
 201:../Shared/Libraries/STM32F4xx_StdPeriph_Driver/src/stm32f4xx_cryp.c ****       -  mode : TDES-ECB, TDES-CBC, 
ARM GAS  /tmp/ccXjhHbZ.s 			page 5


 202:../Shared/Libraries/STM32F4xx_StdPeriph_Driver/src/stm32f4xx_cryp.c ****                 DES-ECB, DES-CBC, 
 203:../Shared/Libraries/STM32F4xx_StdPeriph_Driver/src/stm32f4xx_cryp.c ****                 AES-ECB, AES-CBC, AES-CTR, AES-Key 
 204:../Shared/Libraries/STM32F4xx_StdPeriph_Driver/src/stm32f4xx_cryp.c ****       - DataType :  32-bit data, 16-bit data, bit data or bit-string
 205:../Shared/Libraries/STM32F4xx_StdPeriph_Driver/src/stm32f4xx_cryp.c ****       - Key Size (only in AES modes)
 206:../Shared/Libraries/STM32F4xx_StdPeriph_Driver/src/stm32f4xx_cryp.c ****    - Configure the Encrypt or Decrypt Key using CRYP_KeyInit() function 
 207:../Shared/Libraries/STM32F4xx_StdPeriph_Driver/src/stm32f4xx_cryp.c ****    - Configure the Initialization Vectors(IV) for CBC and CTR modes using 
 208:../Shared/Libraries/STM32F4xx_StdPeriph_Driver/src/stm32f4xx_cryp.c ****      CRYP_IVInit() function.  
 209:../Shared/Libraries/STM32F4xx_StdPeriph_Driver/src/stm32f4xx_cryp.c ****    - Flushes the IN and OUT FIFOs : using CRYP_FIFOFlush() function.                         
 210:../Shared/Libraries/STM32F4xx_StdPeriph_Driver/src/stm32f4xx_cryp.c ****    - Enable or disable the CRYP Processor using CRYP_Cmd() function 
 211:../Shared/Libraries/STM32F4xx_StdPeriph_Driver/src/stm32f4xx_cryp.c ****     
 212:../Shared/Libraries/STM32F4xx_StdPeriph_Driver/src/stm32f4xx_cryp.c ****    
 213:../Shared/Libraries/STM32F4xx_StdPeriph_Driver/src/stm32f4xx_cryp.c **** @endverbatim
 214:../Shared/Libraries/STM32F4xx_StdPeriph_Driver/src/stm32f4xx_cryp.c ****   * @{
 215:../Shared/Libraries/STM32F4xx_StdPeriph_Driver/src/stm32f4xx_cryp.c ****   */
 216:../Shared/Libraries/STM32F4xx_StdPeriph_Driver/src/stm32f4xx_cryp.c **** /**
 217:../Shared/Libraries/STM32F4xx_StdPeriph_Driver/src/stm32f4xx_cryp.c ****   * @brief  Deinitializes the CRYP peripheral registers to their default reset values
 218:../Shared/Libraries/STM32F4xx_StdPeriph_Driver/src/stm32f4xx_cryp.c ****   * @param  None
 219:../Shared/Libraries/STM32F4xx_StdPeriph_Driver/src/stm32f4xx_cryp.c ****   * @retval None
 220:../Shared/Libraries/STM32F4xx_StdPeriph_Driver/src/stm32f4xx_cryp.c ****   */
 221:../Shared/Libraries/STM32F4xx_StdPeriph_Driver/src/stm32f4xx_cryp.c **** void CRYP_DeInit(void)
 222:../Shared/Libraries/STM32F4xx_StdPeriph_Driver/src/stm32f4xx_cryp.c **** {
  29              		.loc 1 222 1
  30              		.cfi_startproc
  31              		@ args = 0, pretend = 0, frame = 0
  32              		@ frame_needed = 1, uses_anonymous_args = 0
  33 0000 80B5     		push	{r7, lr}
  34              	.LCFI0:
  35              		.cfi_def_cfa_offset 8
  36              		.cfi_offset 7, -8
  37              		.cfi_offset 14, -4
  38 0002 00AF     		add	r7, sp, #0
  39              	.LCFI1:
  40              		.cfi_def_cfa_register 7
 223:../Shared/Libraries/STM32F4xx_StdPeriph_Driver/src/stm32f4xx_cryp.c ****   /* Enable CRYP reset state */
 224:../Shared/Libraries/STM32F4xx_StdPeriph_Driver/src/stm32f4xx_cryp.c ****   RCC_AHB2PeriphResetCmd(RCC_AHB2Periph_CRYP, ENABLE);
  41              		.loc 1 224 3
  42 0004 0121     		movs	r1, #1
  43 0006 1020     		movs	r0, #16
  44 0008 FFF7FEFF 		bl	RCC_AHB2PeriphResetCmd
 225:../Shared/Libraries/STM32F4xx_StdPeriph_Driver/src/stm32f4xx_cryp.c **** 
 226:../Shared/Libraries/STM32F4xx_StdPeriph_Driver/src/stm32f4xx_cryp.c ****   /* Release CRYP from reset state */
 227:../Shared/Libraries/STM32F4xx_StdPeriph_Driver/src/stm32f4xx_cryp.c ****   RCC_AHB2PeriphResetCmd(RCC_AHB2Periph_CRYP, DISABLE);
  45              		.loc 1 227 3
  46 000c 0021     		movs	r1, #0
  47 000e 1020     		movs	r0, #16
  48 0010 FFF7FEFF 		bl	RCC_AHB2PeriphResetCmd
 228:../Shared/Libraries/STM32F4xx_StdPeriph_Driver/src/stm32f4xx_cryp.c **** }
  49              		.loc 1 228 1
  50 0014 00BF     		nop
  51 0016 80BD     		pop	{r7, pc}
  52              		.cfi_endproc
  53              	.LFE110:
  55              		.section	.text.CRYP_Init,"ax",%progbits
  56              		.align	1
  57              		.global	CRYP_Init
  58              		.syntax unified
  59              		.thumb
ARM GAS  /tmp/ccXjhHbZ.s 			page 6


  60              		.thumb_func
  62              	CRYP_Init:
  63              	.LFB111:
 229:../Shared/Libraries/STM32F4xx_StdPeriph_Driver/src/stm32f4xx_cryp.c **** 
 230:../Shared/Libraries/STM32F4xx_StdPeriph_Driver/src/stm32f4xx_cryp.c **** /**
 231:../Shared/Libraries/STM32F4xx_StdPeriph_Driver/src/stm32f4xx_cryp.c ****   * @brief  Initializes the CRYP peripheral according to the specified parameters
 232:../Shared/Libraries/STM32F4xx_StdPeriph_Driver/src/stm32f4xx_cryp.c ****   *         in the CRYP_InitStruct.
 233:../Shared/Libraries/STM32F4xx_StdPeriph_Driver/src/stm32f4xx_cryp.c ****   * @param  CRYP_InitStruct: pointer to a CRYP_InitTypeDef structure that contains
 234:../Shared/Libraries/STM32F4xx_StdPeriph_Driver/src/stm32f4xx_cryp.c ****   *         the configuration information for the CRYP peripheral.
 235:../Shared/Libraries/STM32F4xx_StdPeriph_Driver/src/stm32f4xx_cryp.c ****   * @retval None
 236:../Shared/Libraries/STM32F4xx_StdPeriph_Driver/src/stm32f4xx_cryp.c ****   */
 237:../Shared/Libraries/STM32F4xx_StdPeriph_Driver/src/stm32f4xx_cryp.c **** void CRYP_Init(CRYP_InitTypeDef* CRYP_InitStruct)
 238:../Shared/Libraries/STM32F4xx_StdPeriph_Driver/src/stm32f4xx_cryp.c **** {
  64              		.loc 1 238 1
  65              		.cfi_startproc
  66              		@ args = 0, pretend = 0, frame = 8
  67              		@ frame_needed = 1, uses_anonymous_args = 0
  68              		@ link register save eliminated.
  69 0000 80B4     		push	{r7}
  70              	.LCFI2:
  71              		.cfi_def_cfa_offset 4
  72              		.cfi_offset 7, -4
  73 0002 83B0     		sub	sp, sp, #12
  74              	.LCFI3:
  75              		.cfi_def_cfa_offset 16
  76 0004 00AF     		add	r7, sp, #0
  77              	.LCFI4:
  78              		.cfi_def_cfa_register 7
  79 0006 7860     		str	r0, [r7, #4]
 239:../Shared/Libraries/STM32F4xx_StdPeriph_Driver/src/stm32f4xx_cryp.c ****   /* Check the parameters */
 240:../Shared/Libraries/STM32F4xx_StdPeriph_Driver/src/stm32f4xx_cryp.c ****   assert_param(IS_CRYP_ALGOMODE(CRYP_InitStruct->CRYP_AlgoMode));
 241:../Shared/Libraries/STM32F4xx_StdPeriph_Driver/src/stm32f4xx_cryp.c ****   assert_param(IS_CRYP_DATATYPE(CRYP_InitStruct->CRYP_DataType));
 242:../Shared/Libraries/STM32F4xx_StdPeriph_Driver/src/stm32f4xx_cryp.c ****   assert_param(IS_CRYP_ALGODIR(CRYP_InitStruct->CRYP_AlgoDir));
 243:../Shared/Libraries/STM32F4xx_StdPeriph_Driver/src/stm32f4xx_cryp.c **** 
 244:../Shared/Libraries/STM32F4xx_StdPeriph_Driver/src/stm32f4xx_cryp.c ****   /* Select Algorithm mode*/  
 245:../Shared/Libraries/STM32F4xx_StdPeriph_Driver/src/stm32f4xx_cryp.c ****   CRYP->CR &= ~CRYP_CR_ALGOMODE;
  80              		.loc 1 245 7
  81 0008 264B     		ldr	r3, .L5
  82 000a 1B68     		ldr	r3, [r3]
  83 000c 254A     		ldr	r2, .L5
  84              		.loc 1 245 12
  85 000e 23F03803 		bic	r3, r3, #56
  86 0012 1360     		str	r3, [r2]
 246:../Shared/Libraries/STM32F4xx_StdPeriph_Driver/src/stm32f4xx_cryp.c ****   CRYP->CR |= CRYP_InitStruct->CRYP_AlgoMode;
  87              		.loc 1 246 7
  88 0014 234B     		ldr	r3, .L5
  89 0016 1B68     		ldr	r3, [r3]
  90              		.loc 1 246 30
  91 0018 7A68     		ldr	r2, [r7, #4]
  92 001a 5288     		ldrh	r2, [r2, #2]
  93 001c 1146     		mov	r1, r2
  94              		.loc 1 246 7
  95 001e 214A     		ldr	r2, .L5
  96              		.loc 1 246 12
  97 0020 0B43     		orrs	r3, r3, r1
  98 0022 1360     		str	r3, [r2]
 247:../Shared/Libraries/STM32F4xx_StdPeriph_Driver/src/stm32f4xx_cryp.c **** 
ARM GAS  /tmp/ccXjhHbZ.s 			page 7


 248:../Shared/Libraries/STM32F4xx_StdPeriph_Driver/src/stm32f4xx_cryp.c ****   /* Select dataType */ 
 249:../Shared/Libraries/STM32F4xx_StdPeriph_Driver/src/stm32f4xx_cryp.c ****   CRYP->CR &= ~CRYP_CR_DATATYPE;
  99              		.loc 1 249 7
 100 0024 1F4B     		ldr	r3, .L5
 101 0026 1B68     		ldr	r3, [r3]
 102 0028 1E4A     		ldr	r2, .L5
 103              		.loc 1 249 12
 104 002a 23F0C003 		bic	r3, r3, #192
 105 002e 1360     		str	r3, [r2]
 250:../Shared/Libraries/STM32F4xx_StdPeriph_Driver/src/stm32f4xx_cryp.c ****   CRYP->CR |= CRYP_InitStruct->CRYP_DataType;
 106              		.loc 1 250 7
 107 0030 1C4B     		ldr	r3, .L5
 108 0032 1B68     		ldr	r3, [r3]
 109              		.loc 1 250 30
 110 0034 7A68     		ldr	r2, [r7, #4]
 111 0036 9288     		ldrh	r2, [r2, #4]
 112 0038 1146     		mov	r1, r2
 113              		.loc 1 250 7
 114 003a 1A4A     		ldr	r2, .L5
 115              		.loc 1 250 12
 116 003c 0B43     		orrs	r3, r3, r1
 117 003e 1360     		str	r3, [r2]
 251:../Shared/Libraries/STM32F4xx_StdPeriph_Driver/src/stm32f4xx_cryp.c **** 
 252:../Shared/Libraries/STM32F4xx_StdPeriph_Driver/src/stm32f4xx_cryp.c ****   /* select Key size (used only with AES algorithm) */
 253:../Shared/Libraries/STM32F4xx_StdPeriph_Driver/src/stm32f4xx_cryp.c ****   if ((CRYP_InitStruct->CRYP_AlgoMode == CRYP_AlgoMode_AES_ECB) ||
 118              		.loc 1 253 23
 119 0040 7B68     		ldr	r3, [r7, #4]
 120 0042 5B88     		ldrh	r3, [r3, #2]
 121              		.loc 1 253 6
 122 0044 202B     		cmp	r3, #32
 123 0046 0BD0     		beq	.L3
 254:../Shared/Libraries/STM32F4xx_StdPeriph_Driver/src/stm32f4xx_cryp.c ****       (CRYP_InitStruct->CRYP_AlgoMode == CRYP_AlgoMode_AES_CBC) ||
 124              		.loc 1 254 23
 125 0048 7B68     		ldr	r3, [r7, #4]
 126 004a 5B88     		ldrh	r3, [r3, #2]
 253:../Shared/Libraries/STM32F4xx_StdPeriph_Driver/src/stm32f4xx_cryp.c ****       (CRYP_InitStruct->CRYP_AlgoMode == CRYP_AlgoMode_AES_CBC) ||
 127              		.loc 1 253 65 discriminator 1
 128 004c 282B     		cmp	r3, #40
 129 004e 07D0     		beq	.L3
 255:../Shared/Libraries/STM32F4xx_StdPeriph_Driver/src/stm32f4xx_cryp.c ****       (CRYP_InitStruct->CRYP_AlgoMode == CRYP_AlgoMode_AES_CTR) ||
 130              		.loc 1 255 23
 131 0050 7B68     		ldr	r3, [r7, #4]
 132 0052 5B88     		ldrh	r3, [r3, #2]
 254:../Shared/Libraries/STM32F4xx_StdPeriph_Driver/src/stm32f4xx_cryp.c ****       (CRYP_InitStruct->CRYP_AlgoMode == CRYP_AlgoMode_AES_CBC) ||
 133              		.loc 1 254 65
 134 0054 302B     		cmp	r3, #48
 135 0056 03D0     		beq	.L3
 256:../Shared/Libraries/STM32F4xx_StdPeriph_Driver/src/stm32f4xx_cryp.c ****       (CRYP_InitStruct->CRYP_AlgoMode == CRYP_AlgoMode_AES_Key))
 136              		.loc 1 256 23
 137 0058 7B68     		ldr	r3, [r7, #4]
 138 005a 5B88     		ldrh	r3, [r3, #2]
 255:../Shared/Libraries/STM32F4xx_StdPeriph_Driver/src/stm32f4xx_cryp.c ****       (CRYP_InitStruct->CRYP_AlgoMode == CRYP_AlgoMode_AES_CTR) ||
 139              		.loc 1 255 65
 140 005c 382B     		cmp	r3, #56
 141 005e 0DD1     		bne	.L4
 142              	.L3:
 257:../Shared/Libraries/STM32F4xx_StdPeriph_Driver/src/stm32f4xx_cryp.c ****   {
ARM GAS  /tmp/ccXjhHbZ.s 			page 8


 258:../Shared/Libraries/STM32F4xx_StdPeriph_Driver/src/stm32f4xx_cryp.c ****     assert_param(IS_CRYP_KEYSIZE(CRYP_InitStruct->CRYP_KeySize));
 259:../Shared/Libraries/STM32F4xx_StdPeriph_Driver/src/stm32f4xx_cryp.c ****     CRYP->CR &= ~CRYP_CR_KEYSIZE;
 143              		.loc 1 259 9
 144 0060 104B     		ldr	r3, .L5
 145 0062 1B68     		ldr	r3, [r3]
 146 0064 0F4A     		ldr	r2, .L5
 147              		.loc 1 259 14
 148 0066 23F44073 		bic	r3, r3, #768
 149 006a 1360     		str	r3, [r2]
 260:../Shared/Libraries/STM32F4xx_StdPeriph_Driver/src/stm32f4xx_cryp.c ****     CRYP->CR |= CRYP_InitStruct->CRYP_KeySize; /* Key size and value must be 
 150              		.loc 1 260 9
 151 006c 0D4B     		ldr	r3, .L5
 152 006e 1B68     		ldr	r3, [r3]
 153              		.loc 1 260 32
 154 0070 7A68     		ldr	r2, [r7, #4]
 155 0072 D288     		ldrh	r2, [r2, #6]
 156 0074 1146     		mov	r1, r2
 157              		.loc 1 260 9
 158 0076 0B4A     		ldr	r2, .L5
 159              		.loc 1 260 14
 160 0078 0B43     		orrs	r3, r3, r1
 161 007a 1360     		str	r3, [r2]
 162              	.L4:
 261:../Shared/Libraries/STM32F4xx_StdPeriph_Driver/src/stm32f4xx_cryp.c ****                                                   configured once the key has 
 262:../Shared/Libraries/STM32F4xx_StdPeriph_Driver/src/stm32f4xx_cryp.c ****                                                   been prepared */
 263:../Shared/Libraries/STM32F4xx_StdPeriph_Driver/src/stm32f4xx_cryp.c ****   }
 264:../Shared/Libraries/STM32F4xx_StdPeriph_Driver/src/stm32f4xx_cryp.c **** 
 265:../Shared/Libraries/STM32F4xx_StdPeriph_Driver/src/stm32f4xx_cryp.c ****   /* Select data Direction */ 
 266:../Shared/Libraries/STM32F4xx_StdPeriph_Driver/src/stm32f4xx_cryp.c ****   CRYP->CR &= ~CRYP_CR_ALGODIR;
 163              		.loc 1 266 7
 164 007c 094B     		ldr	r3, .L5
 165 007e 1B68     		ldr	r3, [r3]
 166 0080 084A     		ldr	r2, .L5
 167              		.loc 1 266 12
 168 0082 23F00403 		bic	r3, r3, #4
 169 0086 1360     		str	r3, [r2]
 267:../Shared/Libraries/STM32F4xx_StdPeriph_Driver/src/stm32f4xx_cryp.c ****   CRYP->CR |= CRYP_InitStruct->CRYP_AlgoDir;
 170              		.loc 1 267 7
 171 0088 064B     		ldr	r3, .L5
 172 008a 1B68     		ldr	r3, [r3]
 173              		.loc 1 267 30
 174 008c 7A68     		ldr	r2, [r7, #4]
 175 008e 1288     		ldrh	r2, [r2]
 176 0090 1146     		mov	r1, r2
 177              		.loc 1 267 7
 178 0092 044A     		ldr	r2, .L5
 179              		.loc 1 267 12
 180 0094 0B43     		orrs	r3, r3, r1
 181 0096 1360     		str	r3, [r2]
 268:../Shared/Libraries/STM32F4xx_StdPeriph_Driver/src/stm32f4xx_cryp.c **** }
 182              		.loc 1 268 1
 183 0098 00BF     		nop
 184 009a 0C37     		adds	r7, r7, #12
 185              	.LCFI5:
 186              		.cfi_def_cfa_offset 4
 187 009c BD46     		mov	sp, r7
 188              	.LCFI6:
ARM GAS  /tmp/ccXjhHbZ.s 			page 9


 189              		.cfi_def_cfa_register 13
 190              		@ sp needed
 191 009e 5DF8047B 		ldr	r7, [sp], #4
 192              	.LCFI7:
 193              		.cfi_restore 7
 194              		.cfi_def_cfa_offset 0
 195 00a2 7047     		bx	lr
 196              	.L6:
 197              		.align	2
 198              	.L5:
 199 00a4 00000650 		.word	1342570496
 200              		.cfi_endproc
 201              	.LFE111:
 203              		.section	.text.CRYP_StructInit,"ax",%progbits
 204              		.align	1
 205              		.global	CRYP_StructInit
 206              		.syntax unified
 207              		.thumb
 208              		.thumb_func
 210              	CRYP_StructInit:
 211              	.LFB112:
 269:../Shared/Libraries/STM32F4xx_StdPeriph_Driver/src/stm32f4xx_cryp.c **** 
 270:../Shared/Libraries/STM32F4xx_StdPeriph_Driver/src/stm32f4xx_cryp.c **** /**
 271:../Shared/Libraries/STM32F4xx_StdPeriph_Driver/src/stm32f4xx_cryp.c ****   * @brief  Fills each CRYP_InitStruct member with its default value.
 272:../Shared/Libraries/STM32F4xx_StdPeriph_Driver/src/stm32f4xx_cryp.c ****   * @param  CRYP_InitStruct: pointer to a CRYP_InitTypeDef structure which will
 273:../Shared/Libraries/STM32F4xx_StdPeriph_Driver/src/stm32f4xx_cryp.c ****   *         be initialized.
 274:../Shared/Libraries/STM32F4xx_StdPeriph_Driver/src/stm32f4xx_cryp.c ****   * @retval None
 275:../Shared/Libraries/STM32F4xx_StdPeriph_Driver/src/stm32f4xx_cryp.c ****   */
 276:../Shared/Libraries/STM32F4xx_StdPeriph_Driver/src/stm32f4xx_cryp.c **** void CRYP_StructInit(CRYP_InitTypeDef* CRYP_InitStruct)
 277:../Shared/Libraries/STM32F4xx_StdPeriph_Driver/src/stm32f4xx_cryp.c **** {
 212              		.loc 1 277 1
 213              		.cfi_startproc
 214              		@ args = 0, pretend = 0, frame = 8
 215              		@ frame_needed = 1, uses_anonymous_args = 0
 216              		@ link register save eliminated.
 217 0000 80B4     		push	{r7}
 218              	.LCFI8:
 219              		.cfi_def_cfa_offset 4
 220              		.cfi_offset 7, -4
 221 0002 83B0     		sub	sp, sp, #12
 222              	.LCFI9:
 223              		.cfi_def_cfa_offset 16
 224 0004 00AF     		add	r7, sp, #0
 225              	.LCFI10:
 226              		.cfi_def_cfa_register 7
 227 0006 7860     		str	r0, [r7, #4]
 278:../Shared/Libraries/STM32F4xx_StdPeriph_Driver/src/stm32f4xx_cryp.c ****   /* Initialize the CRYP_AlgoDir member */
 279:../Shared/Libraries/STM32F4xx_StdPeriph_Driver/src/stm32f4xx_cryp.c ****   CRYP_InitStruct->CRYP_AlgoDir = CRYP_AlgoDir_Encrypt;
 228              		.loc 1 279 33
 229 0008 7B68     		ldr	r3, [r7, #4]
 230 000a 0022     		movs	r2, #0
 231 000c 1A80     		strh	r2, [r3]	@ movhi
 280:../Shared/Libraries/STM32F4xx_StdPeriph_Driver/src/stm32f4xx_cryp.c **** 
 281:../Shared/Libraries/STM32F4xx_StdPeriph_Driver/src/stm32f4xx_cryp.c ****   /* initialize the CRYP_AlgoMode member */
 282:../Shared/Libraries/STM32F4xx_StdPeriph_Driver/src/stm32f4xx_cryp.c ****   CRYP_InitStruct->CRYP_AlgoMode = CRYP_AlgoMode_TDES_ECB;
 232              		.loc 1 282 34
 233 000e 7B68     		ldr	r3, [r7, #4]
ARM GAS  /tmp/ccXjhHbZ.s 			page 10


 234 0010 0022     		movs	r2, #0
 235 0012 5A80     		strh	r2, [r3, #2]	@ movhi
 283:../Shared/Libraries/STM32F4xx_StdPeriph_Driver/src/stm32f4xx_cryp.c **** 
 284:../Shared/Libraries/STM32F4xx_StdPeriph_Driver/src/stm32f4xx_cryp.c ****   /* initialize the CRYP_DataType member */
 285:../Shared/Libraries/STM32F4xx_StdPeriph_Driver/src/stm32f4xx_cryp.c ****   CRYP_InitStruct->CRYP_DataType = CRYP_DataType_32b;
 236              		.loc 1 285 34
 237 0014 7B68     		ldr	r3, [r7, #4]
 238 0016 0022     		movs	r2, #0
 239 0018 9A80     		strh	r2, [r3, #4]	@ movhi
 286:../Shared/Libraries/STM32F4xx_StdPeriph_Driver/src/stm32f4xx_cryp.c ****   
 287:../Shared/Libraries/STM32F4xx_StdPeriph_Driver/src/stm32f4xx_cryp.c ****   /* Initialize the CRYP_KeySize member */
 288:../Shared/Libraries/STM32F4xx_StdPeriph_Driver/src/stm32f4xx_cryp.c ****   CRYP_InitStruct->CRYP_KeySize = CRYP_KeySize_128b;
 240              		.loc 1 288 33
 241 001a 7B68     		ldr	r3, [r7, #4]
 242 001c 0022     		movs	r2, #0
 243 001e DA80     		strh	r2, [r3, #6]	@ movhi
 289:../Shared/Libraries/STM32F4xx_StdPeriph_Driver/src/stm32f4xx_cryp.c **** }
 244              		.loc 1 289 1
 245 0020 00BF     		nop
 246 0022 0C37     		adds	r7, r7, #12
 247              	.LCFI11:
 248              		.cfi_def_cfa_offset 4
 249 0024 BD46     		mov	sp, r7
 250              	.LCFI12:
 251              		.cfi_def_cfa_register 13
 252              		@ sp needed
 253 0026 5DF8047B 		ldr	r7, [sp], #4
 254              	.LCFI13:
 255              		.cfi_restore 7
 256              		.cfi_def_cfa_offset 0
 257 002a 7047     		bx	lr
 258              		.cfi_endproc
 259              	.LFE112:
 261              		.section	.text.CRYP_KeyInit,"ax",%progbits
 262              		.align	1
 263              		.global	CRYP_KeyInit
 264              		.syntax unified
 265              		.thumb
 266              		.thumb_func
 268              	CRYP_KeyInit:
 269              	.LFB113:
 290:../Shared/Libraries/STM32F4xx_StdPeriph_Driver/src/stm32f4xx_cryp.c **** 
 291:../Shared/Libraries/STM32F4xx_StdPeriph_Driver/src/stm32f4xx_cryp.c **** /**
 292:../Shared/Libraries/STM32F4xx_StdPeriph_Driver/src/stm32f4xx_cryp.c ****   * @brief  Initializes the CRYP Keys according to the specified parameters in
 293:../Shared/Libraries/STM32F4xx_StdPeriph_Driver/src/stm32f4xx_cryp.c ****   *         the CRYP_KeyInitStruct.
 294:../Shared/Libraries/STM32F4xx_StdPeriph_Driver/src/stm32f4xx_cryp.c ****   * @param  CRYP_KeyInitStruct: pointer to a CRYP_KeyInitTypeDef structure that
 295:../Shared/Libraries/STM32F4xx_StdPeriph_Driver/src/stm32f4xx_cryp.c ****   *         contains the configuration information for the CRYP Keys.
 296:../Shared/Libraries/STM32F4xx_StdPeriph_Driver/src/stm32f4xx_cryp.c ****   * @retval None
 297:../Shared/Libraries/STM32F4xx_StdPeriph_Driver/src/stm32f4xx_cryp.c ****   */
 298:../Shared/Libraries/STM32F4xx_StdPeriph_Driver/src/stm32f4xx_cryp.c **** void CRYP_KeyInit(CRYP_KeyInitTypeDef* CRYP_KeyInitStruct)
 299:../Shared/Libraries/STM32F4xx_StdPeriph_Driver/src/stm32f4xx_cryp.c **** {
 270              		.loc 1 299 1
 271              		.cfi_startproc
 272              		@ args = 0, pretend = 0, frame = 8
 273              		@ frame_needed = 1, uses_anonymous_args = 0
 274              		@ link register save eliminated.
 275 0000 80B4     		push	{r7}
ARM GAS  /tmp/ccXjhHbZ.s 			page 11


 276              	.LCFI14:
 277              		.cfi_def_cfa_offset 4
 278              		.cfi_offset 7, -4
 279 0002 83B0     		sub	sp, sp, #12
 280              	.LCFI15:
 281              		.cfi_def_cfa_offset 16
 282 0004 00AF     		add	r7, sp, #0
 283              	.LCFI16:
 284              		.cfi_def_cfa_register 7
 285 0006 7860     		str	r0, [r7, #4]
 300:../Shared/Libraries/STM32F4xx_StdPeriph_Driver/src/stm32f4xx_cryp.c ****   /* Key Initialisation */
 301:../Shared/Libraries/STM32F4xx_StdPeriph_Driver/src/stm32f4xx_cryp.c ****   CRYP->K0LR = CRYP_KeyInitStruct->CRYP_Key0Left;
 286              		.loc 1 301 7
 287 0008 124A     		ldr	r2, .L9
 288              		.loc 1 301 34
 289 000a 7B68     		ldr	r3, [r7, #4]
 290 000c 1B68     		ldr	r3, [r3]
 291              		.loc 1 301 14
 292 000e 1362     		str	r3, [r2, #32]
 302:../Shared/Libraries/STM32F4xx_StdPeriph_Driver/src/stm32f4xx_cryp.c ****   CRYP->K0RR = CRYP_KeyInitStruct->CRYP_Key0Right;
 293              		.loc 1 302 7
 294 0010 104A     		ldr	r2, .L9
 295              		.loc 1 302 34
 296 0012 7B68     		ldr	r3, [r7, #4]
 297 0014 5B68     		ldr	r3, [r3, #4]
 298              		.loc 1 302 14
 299 0016 5362     		str	r3, [r2, #36]
 303:../Shared/Libraries/STM32F4xx_StdPeriph_Driver/src/stm32f4xx_cryp.c ****   CRYP->K1LR = CRYP_KeyInitStruct->CRYP_Key1Left;
 300              		.loc 1 303 7
 301 0018 0E4A     		ldr	r2, .L9
 302              		.loc 1 303 34
 303 001a 7B68     		ldr	r3, [r7, #4]
 304 001c 9B68     		ldr	r3, [r3, #8]
 305              		.loc 1 303 14
 306 001e 9362     		str	r3, [r2, #40]
 304:../Shared/Libraries/STM32F4xx_StdPeriph_Driver/src/stm32f4xx_cryp.c ****   CRYP->K1RR = CRYP_KeyInitStruct->CRYP_Key1Right;
 307              		.loc 1 304 7
 308 0020 0C4A     		ldr	r2, .L9
 309              		.loc 1 304 34
 310 0022 7B68     		ldr	r3, [r7, #4]
 311 0024 DB68     		ldr	r3, [r3, #12]
 312              		.loc 1 304 14
 313 0026 D362     		str	r3, [r2, #44]
 305:../Shared/Libraries/STM32F4xx_StdPeriph_Driver/src/stm32f4xx_cryp.c ****   CRYP->K2LR = CRYP_KeyInitStruct->CRYP_Key2Left;
 314              		.loc 1 305 7
 315 0028 0A4A     		ldr	r2, .L9
 316              		.loc 1 305 34
 317 002a 7B68     		ldr	r3, [r7, #4]
 318 002c 1B69     		ldr	r3, [r3, #16]
 319              		.loc 1 305 14
 320 002e 1363     		str	r3, [r2, #48]
 306:../Shared/Libraries/STM32F4xx_StdPeriph_Driver/src/stm32f4xx_cryp.c ****   CRYP->K2RR = CRYP_KeyInitStruct->CRYP_Key2Right;
 321              		.loc 1 306 7
 322 0030 084A     		ldr	r2, .L9
 323              		.loc 1 306 34
 324 0032 7B68     		ldr	r3, [r7, #4]
 325 0034 5B69     		ldr	r3, [r3, #20]
ARM GAS  /tmp/ccXjhHbZ.s 			page 12


 326              		.loc 1 306 14
 327 0036 5363     		str	r3, [r2, #52]
 307:../Shared/Libraries/STM32F4xx_StdPeriph_Driver/src/stm32f4xx_cryp.c ****   CRYP->K3LR = CRYP_KeyInitStruct->CRYP_Key3Left;
 328              		.loc 1 307 7
 329 0038 064A     		ldr	r2, .L9
 330              		.loc 1 307 34
 331 003a 7B68     		ldr	r3, [r7, #4]
 332 003c 9B69     		ldr	r3, [r3, #24]
 333              		.loc 1 307 14
 334 003e 9363     		str	r3, [r2, #56]
 308:../Shared/Libraries/STM32F4xx_StdPeriph_Driver/src/stm32f4xx_cryp.c ****   CRYP->K3RR = CRYP_KeyInitStruct->CRYP_Key3Right;
 335              		.loc 1 308 7
 336 0040 044A     		ldr	r2, .L9
 337              		.loc 1 308 34
 338 0042 7B68     		ldr	r3, [r7, #4]
 339 0044 DB69     		ldr	r3, [r3, #28]
 340              		.loc 1 308 14
 341 0046 D363     		str	r3, [r2, #60]
 309:../Shared/Libraries/STM32F4xx_StdPeriph_Driver/src/stm32f4xx_cryp.c **** }
 342              		.loc 1 309 1
 343 0048 00BF     		nop
 344 004a 0C37     		adds	r7, r7, #12
 345              	.LCFI17:
 346              		.cfi_def_cfa_offset 4
 347 004c BD46     		mov	sp, r7
 348              	.LCFI18:
 349              		.cfi_def_cfa_register 13
 350              		@ sp needed
 351 004e 5DF8047B 		ldr	r7, [sp], #4
 352              	.LCFI19:
 353              		.cfi_restore 7
 354              		.cfi_def_cfa_offset 0
 355 0052 7047     		bx	lr
 356              	.L10:
 357              		.align	2
 358              	.L9:
 359 0054 00000650 		.word	1342570496
 360              		.cfi_endproc
 361              	.LFE113:
 363              		.section	.text.CRYP_KeyStructInit,"ax",%progbits
 364              		.align	1
 365              		.global	CRYP_KeyStructInit
 366              		.syntax unified
 367              		.thumb
 368              		.thumb_func
 370              	CRYP_KeyStructInit:
 371              	.LFB114:
 310:../Shared/Libraries/STM32F4xx_StdPeriph_Driver/src/stm32f4xx_cryp.c **** 
 311:../Shared/Libraries/STM32F4xx_StdPeriph_Driver/src/stm32f4xx_cryp.c **** /**
 312:../Shared/Libraries/STM32F4xx_StdPeriph_Driver/src/stm32f4xx_cryp.c ****   * @brief  Fills each CRYP_KeyInitStruct member with its default value.
 313:../Shared/Libraries/STM32F4xx_StdPeriph_Driver/src/stm32f4xx_cryp.c ****   * @param  CRYP_KeyInitStruct: pointer to a CRYP_KeyInitTypeDef structure 
 314:../Shared/Libraries/STM32F4xx_StdPeriph_Driver/src/stm32f4xx_cryp.c ****   *         which will be initialized.
 315:../Shared/Libraries/STM32F4xx_StdPeriph_Driver/src/stm32f4xx_cryp.c ****   * @retval None
 316:../Shared/Libraries/STM32F4xx_StdPeriph_Driver/src/stm32f4xx_cryp.c ****   */
 317:../Shared/Libraries/STM32F4xx_StdPeriph_Driver/src/stm32f4xx_cryp.c **** void CRYP_KeyStructInit(CRYP_KeyInitTypeDef* CRYP_KeyInitStruct)
 318:../Shared/Libraries/STM32F4xx_StdPeriph_Driver/src/stm32f4xx_cryp.c **** {
 372              		.loc 1 318 1
ARM GAS  /tmp/ccXjhHbZ.s 			page 13


 373              		.cfi_startproc
 374              		@ args = 0, pretend = 0, frame = 8
 375              		@ frame_needed = 1, uses_anonymous_args = 0
 376              		@ link register save eliminated.
 377 0000 80B4     		push	{r7}
 378              	.LCFI20:
 379              		.cfi_def_cfa_offset 4
 380              		.cfi_offset 7, -4
 381 0002 83B0     		sub	sp, sp, #12
 382              	.LCFI21:
 383              		.cfi_def_cfa_offset 16
 384 0004 00AF     		add	r7, sp, #0
 385              	.LCFI22:
 386              		.cfi_def_cfa_register 7
 387 0006 7860     		str	r0, [r7, #4]
 319:../Shared/Libraries/STM32F4xx_StdPeriph_Driver/src/stm32f4xx_cryp.c ****   CRYP_KeyInitStruct->CRYP_Key0Left  = 0;
 388              		.loc 1 319 38
 389 0008 7B68     		ldr	r3, [r7, #4]
 390 000a 0022     		movs	r2, #0
 391 000c 1A60     		str	r2, [r3]
 320:../Shared/Libraries/STM32F4xx_StdPeriph_Driver/src/stm32f4xx_cryp.c ****   CRYP_KeyInitStruct->CRYP_Key0Right = 0;
 392              		.loc 1 320 38
 393 000e 7B68     		ldr	r3, [r7, #4]
 394 0010 0022     		movs	r2, #0
 395 0012 5A60     		str	r2, [r3, #4]
 321:../Shared/Libraries/STM32F4xx_StdPeriph_Driver/src/stm32f4xx_cryp.c ****   CRYP_KeyInitStruct->CRYP_Key1Left  = 0;
 396              		.loc 1 321 38
 397 0014 7B68     		ldr	r3, [r7, #4]
 398 0016 0022     		movs	r2, #0
 399 0018 9A60     		str	r2, [r3, #8]
 322:../Shared/Libraries/STM32F4xx_StdPeriph_Driver/src/stm32f4xx_cryp.c ****   CRYP_KeyInitStruct->CRYP_Key1Right = 0;
 400              		.loc 1 322 38
 401 001a 7B68     		ldr	r3, [r7, #4]
 402 001c 0022     		movs	r2, #0
 403 001e DA60     		str	r2, [r3, #12]
 323:../Shared/Libraries/STM32F4xx_StdPeriph_Driver/src/stm32f4xx_cryp.c ****   CRYP_KeyInitStruct->CRYP_Key2Left  = 0;
 404              		.loc 1 323 38
 405 0020 7B68     		ldr	r3, [r7, #4]
 406 0022 0022     		movs	r2, #0
 407 0024 1A61     		str	r2, [r3, #16]
 324:../Shared/Libraries/STM32F4xx_StdPeriph_Driver/src/stm32f4xx_cryp.c ****   CRYP_KeyInitStruct->CRYP_Key2Right = 0;
 408              		.loc 1 324 38
 409 0026 7B68     		ldr	r3, [r7, #4]
 410 0028 0022     		movs	r2, #0
 411 002a 5A61     		str	r2, [r3, #20]
 325:../Shared/Libraries/STM32F4xx_StdPeriph_Driver/src/stm32f4xx_cryp.c ****   CRYP_KeyInitStruct->CRYP_Key3Left  = 0;
 412              		.loc 1 325 38
 413 002c 7B68     		ldr	r3, [r7, #4]
 414 002e 0022     		movs	r2, #0
 415 0030 9A61     		str	r2, [r3, #24]
 326:../Shared/Libraries/STM32F4xx_StdPeriph_Driver/src/stm32f4xx_cryp.c ****   CRYP_KeyInitStruct->CRYP_Key3Right = 0;
 416              		.loc 1 326 38
 417 0032 7B68     		ldr	r3, [r7, #4]
 418 0034 0022     		movs	r2, #0
 419 0036 DA61     		str	r2, [r3, #28]
 327:../Shared/Libraries/STM32F4xx_StdPeriph_Driver/src/stm32f4xx_cryp.c **** }
 420              		.loc 1 327 1
ARM GAS  /tmp/ccXjhHbZ.s 			page 14


 421 0038 00BF     		nop
 422 003a 0C37     		adds	r7, r7, #12
 423              	.LCFI23:
 424              		.cfi_def_cfa_offset 4
 425 003c BD46     		mov	sp, r7
 426              	.LCFI24:
 427              		.cfi_def_cfa_register 13
 428              		@ sp needed
 429 003e 5DF8047B 		ldr	r7, [sp], #4
 430              	.LCFI25:
 431              		.cfi_restore 7
 432              		.cfi_def_cfa_offset 0
 433 0042 7047     		bx	lr
 434              		.cfi_endproc
 435              	.LFE114:
 437              		.section	.text.CRYP_IVInit,"ax",%progbits
 438              		.align	1
 439              		.global	CRYP_IVInit
 440              		.syntax unified
 441              		.thumb
 442              		.thumb_func
 444              	CRYP_IVInit:
 445              	.LFB115:
 328:../Shared/Libraries/STM32F4xx_StdPeriph_Driver/src/stm32f4xx_cryp.c **** /**
 329:../Shared/Libraries/STM32F4xx_StdPeriph_Driver/src/stm32f4xx_cryp.c ****   * @brief  Initializes the CRYP Initialization Vectors(IV) according to the
 330:../Shared/Libraries/STM32F4xx_StdPeriph_Driver/src/stm32f4xx_cryp.c ****   *         specified parameters in the CRYP_IVInitStruct.
 331:../Shared/Libraries/STM32F4xx_StdPeriph_Driver/src/stm32f4xx_cryp.c ****   * @param  CRYP_IVInitStruct: pointer to a CRYP_IVInitTypeDef structure that contains
 332:../Shared/Libraries/STM32F4xx_StdPeriph_Driver/src/stm32f4xx_cryp.c ****   *         the configuration information for the CRYP Initialization Vectors(IV).
 333:../Shared/Libraries/STM32F4xx_StdPeriph_Driver/src/stm32f4xx_cryp.c ****   * @retval None
 334:../Shared/Libraries/STM32F4xx_StdPeriph_Driver/src/stm32f4xx_cryp.c ****   */
 335:../Shared/Libraries/STM32F4xx_StdPeriph_Driver/src/stm32f4xx_cryp.c **** void CRYP_IVInit(CRYP_IVInitTypeDef* CRYP_IVInitStruct)
 336:../Shared/Libraries/STM32F4xx_StdPeriph_Driver/src/stm32f4xx_cryp.c **** {
 446              		.loc 1 336 1
 447              		.cfi_startproc
 448              		@ args = 0, pretend = 0, frame = 8
 449              		@ frame_needed = 1, uses_anonymous_args = 0
 450              		@ link register save eliminated.
 451 0000 80B4     		push	{r7}
 452              	.LCFI26:
 453              		.cfi_def_cfa_offset 4
 454              		.cfi_offset 7, -4
 455 0002 83B0     		sub	sp, sp, #12
 456              	.LCFI27:
 457              		.cfi_def_cfa_offset 16
 458 0004 00AF     		add	r7, sp, #0
 459              	.LCFI28:
 460              		.cfi_def_cfa_register 7
 461 0006 7860     		str	r0, [r7, #4]
 337:../Shared/Libraries/STM32F4xx_StdPeriph_Driver/src/stm32f4xx_cryp.c ****   CRYP->IV0LR = CRYP_IVInitStruct->CRYP_IV0Left;
 462              		.loc 1 337 7
 463 0008 0A4A     		ldr	r2, .L13
 464              		.loc 1 337 34
 465 000a 7B68     		ldr	r3, [r7, #4]
 466 000c 1B68     		ldr	r3, [r3]
 467              		.loc 1 337 15
 468 000e 1364     		str	r3, [r2, #64]
 338:../Shared/Libraries/STM32F4xx_StdPeriph_Driver/src/stm32f4xx_cryp.c ****   CRYP->IV0RR = CRYP_IVInitStruct->CRYP_IV0Right;
ARM GAS  /tmp/ccXjhHbZ.s 			page 15


 469              		.loc 1 338 7
 470 0010 084A     		ldr	r2, .L13
 471              		.loc 1 338 34
 472 0012 7B68     		ldr	r3, [r7, #4]
 473 0014 5B68     		ldr	r3, [r3, #4]
 474              		.loc 1 338 15
 475 0016 5364     		str	r3, [r2, #68]
 339:../Shared/Libraries/STM32F4xx_StdPeriph_Driver/src/stm32f4xx_cryp.c ****   CRYP->IV1LR = CRYP_IVInitStruct->CRYP_IV1Left;
 476              		.loc 1 339 7
 477 0018 064A     		ldr	r2, .L13
 478              		.loc 1 339 34
 479 001a 7B68     		ldr	r3, [r7, #4]
 480 001c 9B68     		ldr	r3, [r3, #8]
 481              		.loc 1 339 15
 482 001e 9364     		str	r3, [r2, #72]
 340:../Shared/Libraries/STM32F4xx_StdPeriph_Driver/src/stm32f4xx_cryp.c ****   CRYP->IV1RR = CRYP_IVInitStruct->CRYP_IV1Right;
 483              		.loc 1 340 7
 484 0020 044A     		ldr	r2, .L13
 485              		.loc 1 340 34
 486 0022 7B68     		ldr	r3, [r7, #4]
 487 0024 DB68     		ldr	r3, [r3, #12]
 488              		.loc 1 340 15
 489 0026 D364     		str	r3, [r2, #76]
 341:../Shared/Libraries/STM32F4xx_StdPeriph_Driver/src/stm32f4xx_cryp.c **** }
 490              		.loc 1 341 1
 491 0028 00BF     		nop
 492 002a 0C37     		adds	r7, r7, #12
 493              	.LCFI29:
 494              		.cfi_def_cfa_offset 4
 495 002c BD46     		mov	sp, r7
 496              	.LCFI30:
 497              		.cfi_def_cfa_register 13
 498              		@ sp needed
 499 002e 5DF8047B 		ldr	r7, [sp], #4
 500              	.LCFI31:
 501              		.cfi_restore 7
 502              		.cfi_def_cfa_offset 0
 503 0032 7047     		bx	lr
 504              	.L14:
 505              		.align	2
 506              	.L13:
 507 0034 00000650 		.word	1342570496
 508              		.cfi_endproc
 509              	.LFE115:
 511              		.section	.text.CRYP_IVStructInit,"ax",%progbits
 512              		.align	1
 513              		.global	CRYP_IVStructInit
 514              		.syntax unified
 515              		.thumb
 516              		.thumb_func
 518              	CRYP_IVStructInit:
 519              	.LFB116:
 342:../Shared/Libraries/STM32F4xx_StdPeriph_Driver/src/stm32f4xx_cryp.c **** 
 343:../Shared/Libraries/STM32F4xx_StdPeriph_Driver/src/stm32f4xx_cryp.c **** /**
 344:../Shared/Libraries/STM32F4xx_StdPeriph_Driver/src/stm32f4xx_cryp.c ****   * @brief  Fills each CRYP_IVInitStruct member with its default value.
 345:../Shared/Libraries/STM32F4xx_StdPeriph_Driver/src/stm32f4xx_cryp.c ****   * @param  CRYP_IVInitStruct: pointer to a CRYP_IVInitTypeDef Initialization 
 346:../Shared/Libraries/STM32F4xx_StdPeriph_Driver/src/stm32f4xx_cryp.c ****   *         Vectors(IV) structure which will be initialized.
ARM GAS  /tmp/ccXjhHbZ.s 			page 16


 347:../Shared/Libraries/STM32F4xx_StdPeriph_Driver/src/stm32f4xx_cryp.c ****   * @retval None
 348:../Shared/Libraries/STM32F4xx_StdPeriph_Driver/src/stm32f4xx_cryp.c ****   */
 349:../Shared/Libraries/STM32F4xx_StdPeriph_Driver/src/stm32f4xx_cryp.c **** void CRYP_IVStructInit(CRYP_IVInitTypeDef* CRYP_IVInitStruct)
 350:../Shared/Libraries/STM32F4xx_StdPeriph_Driver/src/stm32f4xx_cryp.c **** {
 520              		.loc 1 350 1
 521              		.cfi_startproc
 522              		@ args = 0, pretend = 0, frame = 8
 523              		@ frame_needed = 1, uses_anonymous_args = 0
 524              		@ link register save eliminated.
 525 0000 80B4     		push	{r7}
 526              	.LCFI32:
 527              		.cfi_def_cfa_offset 4
 528              		.cfi_offset 7, -4
 529 0002 83B0     		sub	sp, sp, #12
 530              	.LCFI33:
 531              		.cfi_def_cfa_offset 16
 532 0004 00AF     		add	r7, sp, #0
 533              	.LCFI34:
 534              		.cfi_def_cfa_register 7
 535 0006 7860     		str	r0, [r7, #4]
 351:../Shared/Libraries/STM32F4xx_StdPeriph_Driver/src/stm32f4xx_cryp.c ****   CRYP_IVInitStruct->CRYP_IV0Left  = 0;
 536              		.loc 1 351 36
 537 0008 7B68     		ldr	r3, [r7, #4]
 538 000a 0022     		movs	r2, #0
 539 000c 1A60     		str	r2, [r3]
 352:../Shared/Libraries/STM32F4xx_StdPeriph_Driver/src/stm32f4xx_cryp.c ****   CRYP_IVInitStruct->CRYP_IV0Right = 0;
 540              		.loc 1 352 36
 541 000e 7B68     		ldr	r3, [r7, #4]
 542 0010 0022     		movs	r2, #0
 543 0012 5A60     		str	r2, [r3, #4]
 353:../Shared/Libraries/STM32F4xx_StdPeriph_Driver/src/stm32f4xx_cryp.c ****   CRYP_IVInitStruct->CRYP_IV1Left  = 0;
 544              		.loc 1 353 36
 545 0014 7B68     		ldr	r3, [r7, #4]
 546 0016 0022     		movs	r2, #0
 547 0018 9A60     		str	r2, [r3, #8]
 354:../Shared/Libraries/STM32F4xx_StdPeriph_Driver/src/stm32f4xx_cryp.c ****   CRYP_IVInitStruct->CRYP_IV1Right = 0;
 548              		.loc 1 354 36
 549 001a 7B68     		ldr	r3, [r7, #4]
 550 001c 0022     		movs	r2, #0
 551 001e DA60     		str	r2, [r3, #12]
 355:../Shared/Libraries/STM32F4xx_StdPeriph_Driver/src/stm32f4xx_cryp.c **** }
 552              		.loc 1 355 1
 553 0020 00BF     		nop
 554 0022 0C37     		adds	r7, r7, #12
 555              	.LCFI35:
 556              		.cfi_def_cfa_offset 4
 557 0024 BD46     		mov	sp, r7
 558              	.LCFI36:
 559              		.cfi_def_cfa_register 13
 560              		@ sp needed
 561 0026 5DF8047B 		ldr	r7, [sp], #4
 562              	.LCFI37:
 563              		.cfi_restore 7
 564              		.cfi_def_cfa_offset 0
 565 002a 7047     		bx	lr
 566              		.cfi_endproc
 567              	.LFE116:
ARM GAS  /tmp/ccXjhHbZ.s 			page 17


 569              		.section	.text.CRYP_FIFOFlush,"ax",%progbits
 570              		.align	1
 571              		.global	CRYP_FIFOFlush
 572              		.syntax unified
 573              		.thumb
 574              		.thumb_func
 576              	CRYP_FIFOFlush:
 577              	.LFB117:
 356:../Shared/Libraries/STM32F4xx_StdPeriph_Driver/src/stm32f4xx_cryp.c **** 
 357:../Shared/Libraries/STM32F4xx_StdPeriph_Driver/src/stm32f4xx_cryp.c **** /**
 358:../Shared/Libraries/STM32F4xx_StdPeriph_Driver/src/stm32f4xx_cryp.c ****   * @brief  Flushes the IN and OUT FIFOs (that is read and write pointers of the 
 359:../Shared/Libraries/STM32F4xx_StdPeriph_Driver/src/stm32f4xx_cryp.c ****   *         FIFOs are reset)
 360:../Shared/Libraries/STM32F4xx_StdPeriph_Driver/src/stm32f4xx_cryp.c ****   * @note   The FIFOs must be flushed only when BUSY flag is reset.  
 361:../Shared/Libraries/STM32F4xx_StdPeriph_Driver/src/stm32f4xx_cryp.c ****   * @param  None
 362:../Shared/Libraries/STM32F4xx_StdPeriph_Driver/src/stm32f4xx_cryp.c ****   * @retval None
 363:../Shared/Libraries/STM32F4xx_StdPeriph_Driver/src/stm32f4xx_cryp.c ****   */
 364:../Shared/Libraries/STM32F4xx_StdPeriph_Driver/src/stm32f4xx_cryp.c **** void CRYP_FIFOFlush(void)
 365:../Shared/Libraries/STM32F4xx_StdPeriph_Driver/src/stm32f4xx_cryp.c **** {
 578              		.loc 1 365 1
 579              		.cfi_startproc
 580              		@ args = 0, pretend = 0, frame = 0
 581              		@ frame_needed = 1, uses_anonymous_args = 0
 582              		@ link register save eliminated.
 583 0000 80B4     		push	{r7}
 584              	.LCFI38:
 585              		.cfi_def_cfa_offset 4
 586              		.cfi_offset 7, -4
 587 0002 00AF     		add	r7, sp, #0
 588              	.LCFI39:
 589              		.cfi_def_cfa_register 7
 366:../Shared/Libraries/STM32F4xx_StdPeriph_Driver/src/stm32f4xx_cryp.c ****   /* Reset the read and write pointers of the FIFOs */
 367:../Shared/Libraries/STM32F4xx_StdPeriph_Driver/src/stm32f4xx_cryp.c ****   CRYP->CR |= CRYP_CR_FFLUSH;
 590              		.loc 1 367 7
 591 0004 054B     		ldr	r3, .L17
 592 0006 1B68     		ldr	r3, [r3]
 593 0008 044A     		ldr	r2, .L17
 594              		.loc 1 367 12
 595 000a 43F48043 		orr	r3, r3, #16384
 596 000e 1360     		str	r3, [r2]
 368:../Shared/Libraries/STM32F4xx_StdPeriph_Driver/src/stm32f4xx_cryp.c **** }
 597              		.loc 1 368 1
 598 0010 00BF     		nop
 599 0012 BD46     		mov	sp, r7
 600              	.LCFI40:
 601              		.cfi_def_cfa_register 13
 602              		@ sp needed
 603 0014 5DF8047B 		ldr	r7, [sp], #4
 604              	.LCFI41:
 605              		.cfi_restore 7
 606              		.cfi_def_cfa_offset 0
 607 0018 7047     		bx	lr
 608              	.L18:
 609 001a 00BF     		.align	2
 610              	.L17:
 611 001c 00000650 		.word	1342570496
 612              		.cfi_endproc
 613              	.LFE117:
ARM GAS  /tmp/ccXjhHbZ.s 			page 18


 615              		.section	.text.CRYP_Cmd,"ax",%progbits
 616              		.align	1
 617              		.global	CRYP_Cmd
 618              		.syntax unified
 619              		.thumb
 620              		.thumb_func
 622              	CRYP_Cmd:
 623              	.LFB118:
 369:../Shared/Libraries/STM32F4xx_StdPeriph_Driver/src/stm32f4xx_cryp.c **** 
 370:../Shared/Libraries/STM32F4xx_StdPeriph_Driver/src/stm32f4xx_cryp.c **** /**
 371:../Shared/Libraries/STM32F4xx_StdPeriph_Driver/src/stm32f4xx_cryp.c ****   * @brief  Enables or disables the CRYP peripheral.
 372:../Shared/Libraries/STM32F4xx_StdPeriph_Driver/src/stm32f4xx_cryp.c ****   * @param  NewState: new state of the CRYP peripheral.
 373:../Shared/Libraries/STM32F4xx_StdPeriph_Driver/src/stm32f4xx_cryp.c ****   *          This parameter can be: ENABLE or DISABLE.
 374:../Shared/Libraries/STM32F4xx_StdPeriph_Driver/src/stm32f4xx_cryp.c ****   * @retval None
 375:../Shared/Libraries/STM32F4xx_StdPeriph_Driver/src/stm32f4xx_cryp.c ****   */
 376:../Shared/Libraries/STM32F4xx_StdPeriph_Driver/src/stm32f4xx_cryp.c **** void CRYP_Cmd(FunctionalState NewState)
 377:../Shared/Libraries/STM32F4xx_StdPeriph_Driver/src/stm32f4xx_cryp.c **** {
 624              		.loc 1 377 1
 625              		.cfi_startproc
 626              		@ args = 0, pretend = 0, frame = 8
 627              		@ frame_needed = 1, uses_anonymous_args = 0
 628              		@ link register save eliminated.
 629 0000 80B4     		push	{r7}
 630              	.LCFI42:
 631              		.cfi_def_cfa_offset 4
 632              		.cfi_offset 7, -4
 633 0002 83B0     		sub	sp, sp, #12
 634              	.LCFI43:
 635              		.cfi_def_cfa_offset 16
 636 0004 00AF     		add	r7, sp, #0
 637              	.LCFI44:
 638              		.cfi_def_cfa_register 7
 639 0006 0346     		mov	r3, r0
 640 0008 FB71     		strb	r3, [r7, #7]
 378:../Shared/Libraries/STM32F4xx_StdPeriph_Driver/src/stm32f4xx_cryp.c ****   /* Check the parameters */
 379:../Shared/Libraries/STM32F4xx_StdPeriph_Driver/src/stm32f4xx_cryp.c ****   assert_param(IS_FUNCTIONAL_STATE(NewState));
 380:../Shared/Libraries/STM32F4xx_StdPeriph_Driver/src/stm32f4xx_cryp.c **** 
 381:../Shared/Libraries/STM32F4xx_StdPeriph_Driver/src/stm32f4xx_cryp.c ****   if (NewState != DISABLE)
 641              		.loc 1 381 6
 642 000a FB79     		ldrb	r3, [r7, #7]	@ zero_extendqisi2
 643 000c 002B     		cmp	r3, #0
 644 000e 06D0     		beq	.L20
 382:../Shared/Libraries/STM32F4xx_StdPeriph_Driver/src/stm32f4xx_cryp.c ****   {
 383:../Shared/Libraries/STM32F4xx_StdPeriph_Driver/src/stm32f4xx_cryp.c ****     /* Enable the Cryptographic processor */
 384:../Shared/Libraries/STM32F4xx_StdPeriph_Driver/src/stm32f4xx_cryp.c ****     CRYP->CR |= CRYP_CR_CRYPEN;
 645              		.loc 1 384 9
 646 0010 094B     		ldr	r3, .L23
 647 0012 1B68     		ldr	r3, [r3]
 648 0014 084A     		ldr	r2, .L23
 649              		.loc 1 384 14
 650 0016 43F40043 		orr	r3, r3, #32768
 651 001a 1360     		str	r3, [r2]
 385:../Shared/Libraries/STM32F4xx_StdPeriph_Driver/src/stm32f4xx_cryp.c ****   }
 386:../Shared/Libraries/STM32F4xx_StdPeriph_Driver/src/stm32f4xx_cryp.c ****   else
 387:../Shared/Libraries/STM32F4xx_StdPeriph_Driver/src/stm32f4xx_cryp.c ****   {
 388:../Shared/Libraries/STM32F4xx_StdPeriph_Driver/src/stm32f4xx_cryp.c ****     /* Disable the Cryptographic processor */
 389:../Shared/Libraries/STM32F4xx_StdPeriph_Driver/src/stm32f4xx_cryp.c ****     CRYP->CR &= ~CRYP_CR_CRYPEN;
ARM GAS  /tmp/ccXjhHbZ.s 			page 19


 390:../Shared/Libraries/STM32F4xx_StdPeriph_Driver/src/stm32f4xx_cryp.c ****   }
 391:../Shared/Libraries/STM32F4xx_StdPeriph_Driver/src/stm32f4xx_cryp.c **** }
 652              		.loc 1 391 1
 653 001c 05E0     		b	.L22
 654              	.L20:
 389:../Shared/Libraries/STM32F4xx_StdPeriph_Driver/src/stm32f4xx_cryp.c ****   }
 655              		.loc 1 389 9
 656 001e 064B     		ldr	r3, .L23
 657 0020 1B68     		ldr	r3, [r3]
 658 0022 054A     		ldr	r2, .L23
 389:../Shared/Libraries/STM32F4xx_StdPeriph_Driver/src/stm32f4xx_cryp.c ****   }
 659              		.loc 1 389 14
 660 0024 23F40043 		bic	r3, r3, #32768
 661 0028 1360     		str	r3, [r2]
 662              	.L22:
 663              		.loc 1 391 1
 664 002a 00BF     		nop
 665 002c 0C37     		adds	r7, r7, #12
 666              	.LCFI45:
 667              		.cfi_def_cfa_offset 4
 668 002e BD46     		mov	sp, r7
 669              	.LCFI46:
 670              		.cfi_def_cfa_register 13
 671              		@ sp needed
 672 0030 5DF8047B 		ldr	r7, [sp], #4
 673              	.LCFI47:
 674              		.cfi_restore 7
 675              		.cfi_def_cfa_offset 0
 676 0034 7047     		bx	lr
 677              	.L24:
 678 0036 00BF     		.align	2
 679              	.L23:
 680 0038 00000650 		.word	1342570496
 681              		.cfi_endproc
 682              	.LFE118:
 684              		.section	.text.CRYP_DataIn,"ax",%progbits
 685              		.align	1
 686              		.global	CRYP_DataIn
 687              		.syntax unified
 688              		.thumb
 689              		.thumb_func
 691              	CRYP_DataIn:
 692              	.LFB119:
 392:../Shared/Libraries/STM32F4xx_StdPeriph_Driver/src/stm32f4xx_cryp.c **** /**
 393:../Shared/Libraries/STM32F4xx_StdPeriph_Driver/src/stm32f4xx_cryp.c ****   * @}
 394:../Shared/Libraries/STM32F4xx_StdPeriph_Driver/src/stm32f4xx_cryp.c ****   */
 395:../Shared/Libraries/STM32F4xx_StdPeriph_Driver/src/stm32f4xx_cryp.c ****   
 396:../Shared/Libraries/STM32F4xx_StdPeriph_Driver/src/stm32f4xx_cryp.c **** /** @defgroup CRYP_Group2 CRYP Data processing functions
 397:../Shared/Libraries/STM32F4xx_StdPeriph_Driver/src/stm32f4xx_cryp.c ****  *  @brief    CRYP Data processing functions
 398:../Shared/Libraries/STM32F4xx_StdPeriph_Driver/src/stm32f4xx_cryp.c ****  *
 399:../Shared/Libraries/STM32F4xx_StdPeriph_Driver/src/stm32f4xx_cryp.c **** @verbatim    
 400:../Shared/Libraries/STM32F4xx_StdPeriph_Driver/src/stm32f4xx_cryp.c ****  ===============================================================================
 401:../Shared/Libraries/STM32F4xx_StdPeriph_Driver/src/stm32f4xx_cryp.c ****                       CRYP Data processing functions
 402:../Shared/Libraries/STM32F4xx_StdPeriph_Driver/src/stm32f4xx_cryp.c ****  ===============================================================================  
 403:../Shared/Libraries/STM32F4xx_StdPeriph_Driver/src/stm32f4xx_cryp.c ****   This section provides functions allowing the encryption and decryption 
 404:../Shared/Libraries/STM32F4xx_StdPeriph_Driver/src/stm32f4xx_cryp.c ****   operations: 
 405:../Shared/Libraries/STM32F4xx_StdPeriph_Driver/src/stm32f4xx_cryp.c ****   - Enter data to be treated in the IN FIFO : using CRYP_DataIn() function.
ARM GAS  /tmp/ccXjhHbZ.s 			page 20


 406:../Shared/Libraries/STM32F4xx_StdPeriph_Driver/src/stm32f4xx_cryp.c ****   - Get the data result from the OUT FIFO : using CRYP_DataOut() function.
 407:../Shared/Libraries/STM32F4xx_StdPeriph_Driver/src/stm32f4xx_cryp.c **** 
 408:../Shared/Libraries/STM32F4xx_StdPeriph_Driver/src/stm32f4xx_cryp.c **** @endverbatim
 409:../Shared/Libraries/STM32F4xx_StdPeriph_Driver/src/stm32f4xx_cryp.c ****   * @{
 410:../Shared/Libraries/STM32F4xx_StdPeriph_Driver/src/stm32f4xx_cryp.c ****   */
 411:../Shared/Libraries/STM32F4xx_StdPeriph_Driver/src/stm32f4xx_cryp.c **** 
 412:../Shared/Libraries/STM32F4xx_StdPeriph_Driver/src/stm32f4xx_cryp.c **** /**
 413:../Shared/Libraries/STM32F4xx_StdPeriph_Driver/src/stm32f4xx_cryp.c ****   * @brief  Writes data in the Data Input register (DIN).
 414:../Shared/Libraries/STM32F4xx_StdPeriph_Driver/src/stm32f4xx_cryp.c ****   * @note   After the DIN register has been read once or several times, 
 415:../Shared/Libraries/STM32F4xx_StdPeriph_Driver/src/stm32f4xx_cryp.c ****   *         the FIFO must be flushed (using CRYP_FIFOFlush() function).  
 416:../Shared/Libraries/STM32F4xx_StdPeriph_Driver/src/stm32f4xx_cryp.c ****   * @param  Data: data to write in Data Input register
 417:../Shared/Libraries/STM32F4xx_StdPeriph_Driver/src/stm32f4xx_cryp.c ****   * @retval None
 418:../Shared/Libraries/STM32F4xx_StdPeriph_Driver/src/stm32f4xx_cryp.c ****   */
 419:../Shared/Libraries/STM32F4xx_StdPeriph_Driver/src/stm32f4xx_cryp.c **** void CRYP_DataIn(uint32_t Data)
 420:../Shared/Libraries/STM32F4xx_StdPeriph_Driver/src/stm32f4xx_cryp.c **** {
 693              		.loc 1 420 1
 694              		.cfi_startproc
 695              		@ args = 0, pretend = 0, frame = 8
 696              		@ frame_needed = 1, uses_anonymous_args = 0
 697              		@ link register save eliminated.
 698 0000 80B4     		push	{r7}
 699              	.LCFI48:
 700              		.cfi_def_cfa_offset 4
 701              		.cfi_offset 7, -4
 702 0002 83B0     		sub	sp, sp, #12
 703              	.LCFI49:
 704              		.cfi_def_cfa_offset 16
 705 0004 00AF     		add	r7, sp, #0
 706              	.LCFI50:
 707              		.cfi_def_cfa_register 7
 708 0006 7860     		str	r0, [r7, #4]
 421:../Shared/Libraries/STM32F4xx_StdPeriph_Driver/src/stm32f4xx_cryp.c ****   CRYP->DR = Data;
 709              		.loc 1 421 7
 710 0008 044A     		ldr	r2, .L26
 711              		.loc 1 421 12
 712 000a 7B68     		ldr	r3, [r7, #4]
 713 000c 9360     		str	r3, [r2, #8]
 422:../Shared/Libraries/STM32F4xx_StdPeriph_Driver/src/stm32f4xx_cryp.c **** }
 714              		.loc 1 422 1
 715 000e 00BF     		nop
 716 0010 0C37     		adds	r7, r7, #12
 717              	.LCFI51:
 718              		.cfi_def_cfa_offset 4
 719 0012 BD46     		mov	sp, r7
 720              	.LCFI52:
 721              		.cfi_def_cfa_register 13
 722              		@ sp needed
 723 0014 5DF8047B 		ldr	r7, [sp], #4
 724              	.LCFI53:
 725              		.cfi_restore 7
 726              		.cfi_def_cfa_offset 0
 727 0018 7047     		bx	lr
 728              	.L27:
 729 001a 00BF     		.align	2
 730              	.L26:
 731 001c 00000650 		.word	1342570496
 732              		.cfi_endproc
ARM GAS  /tmp/ccXjhHbZ.s 			page 21


 733              	.LFE119:
 735              		.section	.text.CRYP_DataOut,"ax",%progbits
 736              		.align	1
 737              		.global	CRYP_DataOut
 738              		.syntax unified
 739              		.thumb
 740              		.thumb_func
 742              	CRYP_DataOut:
 743              	.LFB120:
 423:../Shared/Libraries/STM32F4xx_StdPeriph_Driver/src/stm32f4xx_cryp.c **** 
 424:../Shared/Libraries/STM32F4xx_StdPeriph_Driver/src/stm32f4xx_cryp.c **** /**
 425:../Shared/Libraries/STM32F4xx_StdPeriph_Driver/src/stm32f4xx_cryp.c ****   * @brief  Returns the last data entered into the output FIFO.
 426:../Shared/Libraries/STM32F4xx_StdPeriph_Driver/src/stm32f4xx_cryp.c ****   * @param  None
 427:../Shared/Libraries/STM32F4xx_StdPeriph_Driver/src/stm32f4xx_cryp.c ****   * @retval Last data entered into the output FIFO.
 428:../Shared/Libraries/STM32F4xx_StdPeriph_Driver/src/stm32f4xx_cryp.c ****   */
 429:../Shared/Libraries/STM32F4xx_StdPeriph_Driver/src/stm32f4xx_cryp.c **** uint32_t CRYP_DataOut(void)
 430:../Shared/Libraries/STM32F4xx_StdPeriph_Driver/src/stm32f4xx_cryp.c **** {
 744              		.loc 1 430 1
 745              		.cfi_startproc
 746              		@ args = 0, pretend = 0, frame = 0
 747              		@ frame_needed = 1, uses_anonymous_args = 0
 748              		@ link register save eliminated.
 749 0000 80B4     		push	{r7}
 750              	.LCFI54:
 751              		.cfi_def_cfa_offset 4
 752              		.cfi_offset 7, -4
 753 0002 00AF     		add	r7, sp, #0
 754              	.LCFI55:
 755              		.cfi_def_cfa_register 7
 431:../Shared/Libraries/STM32F4xx_StdPeriph_Driver/src/stm32f4xx_cryp.c ****   return CRYP->DOUT;
 756              		.loc 1 431 14
 757 0004 034B     		ldr	r3, .L30
 758 0006 DB68     		ldr	r3, [r3, #12]
 432:../Shared/Libraries/STM32F4xx_StdPeriph_Driver/src/stm32f4xx_cryp.c **** }
 759              		.loc 1 432 1
 760 0008 1846     		mov	r0, r3
 761 000a BD46     		mov	sp, r7
 762              	.LCFI56:
 763              		.cfi_def_cfa_register 13
 764              		@ sp needed
 765 000c 5DF8047B 		ldr	r7, [sp], #4
 766              	.LCFI57:
 767              		.cfi_restore 7
 768              		.cfi_def_cfa_offset 0
 769 0010 7047     		bx	lr
 770              	.L31:
 771 0012 00BF     		.align	2
 772              	.L30:
 773 0014 00000650 		.word	1342570496
 774              		.cfi_endproc
 775              	.LFE120:
 777              		.section	.text.CRYP_SaveContext,"ax",%progbits
 778              		.align	1
 779              		.global	CRYP_SaveContext
 780              		.syntax unified
 781              		.thumb
 782              		.thumb_func
ARM GAS  /tmp/ccXjhHbZ.s 			page 22


 784              	CRYP_SaveContext:
 785              	.LFB121:
 433:../Shared/Libraries/STM32F4xx_StdPeriph_Driver/src/stm32f4xx_cryp.c **** /**
 434:../Shared/Libraries/STM32F4xx_StdPeriph_Driver/src/stm32f4xx_cryp.c ****   * @}
 435:../Shared/Libraries/STM32F4xx_StdPeriph_Driver/src/stm32f4xx_cryp.c ****   */
 436:../Shared/Libraries/STM32F4xx_StdPeriph_Driver/src/stm32f4xx_cryp.c ****   
 437:../Shared/Libraries/STM32F4xx_StdPeriph_Driver/src/stm32f4xx_cryp.c **** /** @defgroup CRYP_Group3 Context swapping functions
 438:../Shared/Libraries/STM32F4xx_StdPeriph_Driver/src/stm32f4xx_cryp.c ****  *  @brief   Context swapping functions
 439:../Shared/Libraries/STM32F4xx_StdPeriph_Driver/src/stm32f4xx_cryp.c ****  *
 440:../Shared/Libraries/STM32F4xx_StdPeriph_Driver/src/stm32f4xx_cryp.c **** @verbatim   
 441:../Shared/Libraries/STM32F4xx_StdPeriph_Driver/src/stm32f4xx_cryp.c ****  ===============================================================================
 442:../Shared/Libraries/STM32F4xx_StdPeriph_Driver/src/stm32f4xx_cryp.c ****                              Context swapping functions
 443:../Shared/Libraries/STM32F4xx_StdPeriph_Driver/src/stm32f4xx_cryp.c ****  ===============================================================================  
 444:../Shared/Libraries/STM32F4xx_StdPeriph_Driver/src/stm32f4xx_cryp.c **** 
 445:../Shared/Libraries/STM32F4xx_StdPeriph_Driver/src/stm32f4xx_cryp.c ****   This section provides functions allowing to save and store CRYP Context
 446:../Shared/Libraries/STM32F4xx_StdPeriph_Driver/src/stm32f4xx_cryp.c **** 
 447:../Shared/Libraries/STM32F4xx_StdPeriph_Driver/src/stm32f4xx_cryp.c ****   It is possible to interrupt an encryption/ decryption/ key generation process 
 448:../Shared/Libraries/STM32F4xx_StdPeriph_Driver/src/stm32f4xx_cryp.c ****   to perform another processing with a higher priority, and to complete the 
 449:../Shared/Libraries/STM32F4xx_StdPeriph_Driver/src/stm32f4xx_cryp.c ****   interrupted process later on, when the higher-priority task is complete. To do 
 450:../Shared/Libraries/STM32F4xx_StdPeriph_Driver/src/stm32f4xx_cryp.c ****   so, the context of the interrupted task must be saved from the CRYP registers 
 451:../Shared/Libraries/STM32F4xx_StdPeriph_Driver/src/stm32f4xx_cryp.c ****   to memory, and then be restored from memory to the CRYP registers.
 452:../Shared/Libraries/STM32F4xx_StdPeriph_Driver/src/stm32f4xx_cryp.c ****    
 453:../Shared/Libraries/STM32F4xx_StdPeriph_Driver/src/stm32f4xx_cryp.c ****   1. To save the current context, use CRYP_SaveContext() function
 454:../Shared/Libraries/STM32F4xx_StdPeriph_Driver/src/stm32f4xx_cryp.c ****   2. To restore the saved context, use CRYP_RestoreContext() function 
 455:../Shared/Libraries/STM32F4xx_StdPeriph_Driver/src/stm32f4xx_cryp.c **** 
 456:../Shared/Libraries/STM32F4xx_StdPeriph_Driver/src/stm32f4xx_cryp.c **** 
 457:../Shared/Libraries/STM32F4xx_StdPeriph_Driver/src/stm32f4xx_cryp.c **** @endverbatim
 458:../Shared/Libraries/STM32F4xx_StdPeriph_Driver/src/stm32f4xx_cryp.c ****   * @{
 459:../Shared/Libraries/STM32F4xx_StdPeriph_Driver/src/stm32f4xx_cryp.c ****   */
 460:../Shared/Libraries/STM32F4xx_StdPeriph_Driver/src/stm32f4xx_cryp.c ****   
 461:../Shared/Libraries/STM32F4xx_StdPeriph_Driver/src/stm32f4xx_cryp.c **** /**
 462:../Shared/Libraries/STM32F4xx_StdPeriph_Driver/src/stm32f4xx_cryp.c ****   * @brief  Saves the CRYP peripheral Context. 
 463:../Shared/Libraries/STM32F4xx_StdPeriph_Driver/src/stm32f4xx_cryp.c ****   * @note   This function stops DMA transfer before to save the context. After 
 464:../Shared/Libraries/STM32F4xx_StdPeriph_Driver/src/stm32f4xx_cryp.c ****   *         restoring the context, you have to enable the DMA again (if the DMA
 465:../Shared/Libraries/STM32F4xx_StdPeriph_Driver/src/stm32f4xx_cryp.c ****   *         was previously used).
 466:../Shared/Libraries/STM32F4xx_StdPeriph_Driver/src/stm32f4xx_cryp.c ****   * @param  CRYP_ContextSave: pointer to a CRYP_Context structure that contains
 467:../Shared/Libraries/STM32F4xx_StdPeriph_Driver/src/stm32f4xx_cryp.c ****   *         the repository for current context.
 468:../Shared/Libraries/STM32F4xx_StdPeriph_Driver/src/stm32f4xx_cryp.c ****   * @param  CRYP_KeyInitStruct: pointer to a CRYP_KeyInitTypeDef structure that 
 469:../Shared/Libraries/STM32F4xx_StdPeriph_Driver/src/stm32f4xx_cryp.c ****   *         contains the configuration information for the CRYP Keys.  
 470:../Shared/Libraries/STM32F4xx_StdPeriph_Driver/src/stm32f4xx_cryp.c ****   * @retval None
 471:../Shared/Libraries/STM32F4xx_StdPeriph_Driver/src/stm32f4xx_cryp.c ****   */
 472:../Shared/Libraries/STM32F4xx_StdPeriph_Driver/src/stm32f4xx_cryp.c **** ErrorStatus CRYP_SaveContext(CRYP_Context* CRYP_ContextSave,
 473:../Shared/Libraries/STM32F4xx_StdPeriph_Driver/src/stm32f4xx_cryp.c ****                              CRYP_KeyInitTypeDef* CRYP_KeyInitStruct)
 474:../Shared/Libraries/STM32F4xx_StdPeriph_Driver/src/stm32f4xx_cryp.c **** {
 786              		.loc 1 474 1
 787              		.cfi_startproc
 788              		@ args = 0, pretend = 0, frame = 24
 789              		@ frame_needed = 1, uses_anonymous_args = 0
 790              		@ link register save eliminated.
 791 0000 80B4     		push	{r7}
 792              	.LCFI58:
 793              		.cfi_def_cfa_offset 4
 794              		.cfi_offset 7, -4
 795 0002 87B0     		sub	sp, sp, #28
 796              	.LCFI59:
 797              		.cfi_def_cfa_offset 32
 798 0004 00AF     		add	r7, sp, #0
ARM GAS  /tmp/ccXjhHbZ.s 			page 23


 799              	.LCFI60:
 800              		.cfi_def_cfa_register 7
 801 0006 7860     		str	r0, [r7, #4]
 802 0008 3960     		str	r1, [r7]
 475:../Shared/Libraries/STM32F4xx_StdPeriph_Driver/src/stm32f4xx_cryp.c ****   __IO uint32_t timeout = 0;
 803              		.loc 1 475 17
 804 000a 0023     		movs	r3, #0
 805 000c BB60     		str	r3, [r7, #8]
 476:../Shared/Libraries/STM32F4xx_StdPeriph_Driver/src/stm32f4xx_cryp.c ****   uint32_t ckeckmask = 0, bitstatus;    
 806              		.loc 1 476 12
 807 000e 0023     		movs	r3, #0
 808 0010 7B61     		str	r3, [r7, #20]
 477:../Shared/Libraries/STM32F4xx_StdPeriph_Driver/src/stm32f4xx_cryp.c ****   ErrorStatus status = ERROR;
 809              		.loc 1 477 15
 810 0012 0023     		movs	r3, #0
 811 0014 FB74     		strb	r3, [r7, #19]
 478:../Shared/Libraries/STM32F4xx_StdPeriph_Driver/src/stm32f4xx_cryp.c **** 
 479:../Shared/Libraries/STM32F4xx_StdPeriph_Driver/src/stm32f4xx_cryp.c ****   /* Stop DMA transfers on the IN FIFO by clearing the DIEN bit in the CRYP_DMACR */
 480:../Shared/Libraries/STM32F4xx_StdPeriph_Driver/src/stm32f4xx_cryp.c ****   CRYP->DMACR &= ~(uint32_t)CRYP_DMACR_DIEN;
 812              		.loc 1 480 7
 813 0016 3A4B     		ldr	r3, .L40
 814 0018 1B69     		ldr	r3, [r3, #16]
 815 001a 394A     		ldr	r2, .L40
 816              		.loc 1 480 15
 817 001c 23F00103 		bic	r3, r3, #1
 818 0020 1361     		str	r3, [r2, #16]
 481:../Shared/Libraries/STM32F4xx_StdPeriph_Driver/src/stm32f4xx_cryp.c ****     
 482:../Shared/Libraries/STM32F4xx_StdPeriph_Driver/src/stm32f4xx_cryp.c ****   /* Wait until both the IN and OUT FIFOs are empty  
 483:../Shared/Libraries/STM32F4xx_StdPeriph_Driver/src/stm32f4xx_cryp.c ****     (IFEM=1 and OFNE=0 in the CRYP_SR register) and the 
 484:../Shared/Libraries/STM32F4xx_StdPeriph_Driver/src/stm32f4xx_cryp.c ****      BUSY bit is cleared. */
 485:../Shared/Libraries/STM32F4xx_StdPeriph_Driver/src/stm32f4xx_cryp.c **** 
 486:../Shared/Libraries/STM32F4xx_StdPeriph_Driver/src/stm32f4xx_cryp.c ****   if ((CRYP->CR & (uint32_t)(CRYP_CR_ALGOMODE_TDES_ECB | CRYP_CR_ALGOMODE_TDES_CBC)) != (uint32_t)0
 819              		.loc 1 486 12
 820 0022 374B     		ldr	r3, .L40
 821 0024 1B68     		ldr	r3, [r3]
 822              		.loc 1 486 17
 823 0026 03F00803 		and	r3, r3, #8
 824              		.loc 1 486 6
 825 002a 002B     		cmp	r3, #0
 826 002c 02D0     		beq	.L33
 487:../Shared/Libraries/STM32F4xx_StdPeriph_Driver/src/stm32f4xx_cryp.c ****   { 
 488:../Shared/Libraries/STM32F4xx_StdPeriph_Driver/src/stm32f4xx_cryp.c ****     ckeckmask =  CRYP_SR_IFEM | CRYP_SR_BUSY ;
 827              		.loc 1 488 15
 828 002e 1123     		movs	r3, #17
 829 0030 7B61     		str	r3, [r7, #20]
 830 0032 01E0     		b	.L36
 831              	.L33:
 489:../Shared/Libraries/STM32F4xx_StdPeriph_Driver/src/stm32f4xx_cryp.c ****   }
 490:../Shared/Libraries/STM32F4xx_StdPeriph_Driver/src/stm32f4xx_cryp.c ****   else /* AES or DES */
 491:../Shared/Libraries/STM32F4xx_StdPeriph_Driver/src/stm32f4xx_cryp.c ****   {
 492:../Shared/Libraries/STM32F4xx_StdPeriph_Driver/src/stm32f4xx_cryp.c ****     ckeckmask =  CRYP_SR_IFEM | CRYP_SR_BUSY | CRYP_SR_OFNE;
 832              		.loc 1 492 15
 833 0034 1523     		movs	r3, #21
 834 0036 7B61     		str	r3, [r7, #20]
 835              	.L36:
 493:../Shared/Libraries/STM32F4xx_StdPeriph_Driver/src/stm32f4xx_cryp.c ****   }           
 494:../Shared/Libraries/STM32F4xx_StdPeriph_Driver/src/stm32f4xx_cryp.c ****    
ARM GAS  /tmp/ccXjhHbZ.s 			page 24


 495:../Shared/Libraries/STM32F4xx_StdPeriph_Driver/src/stm32f4xx_cryp.c ****   do 
 496:../Shared/Libraries/STM32F4xx_StdPeriph_Driver/src/stm32f4xx_cryp.c ****   {
 497:../Shared/Libraries/STM32F4xx_StdPeriph_Driver/src/stm32f4xx_cryp.c ****     bitstatus = CRYP->SR & ckeckmask;
 836              		.loc 1 497 21
 837 0038 314B     		ldr	r3, .L40
 838 003a 5B68     		ldr	r3, [r3, #4]
 839              		.loc 1 497 15
 840 003c 7A69     		ldr	r2, [r7, #20]
 841 003e 1340     		ands	r3, r3, r2
 842 0040 FB60     		str	r3, [r7, #12]
 498:../Shared/Libraries/STM32F4xx_StdPeriph_Driver/src/stm32f4xx_cryp.c ****     timeout++;
 843              		.loc 1 498 12
 844 0042 BB68     		ldr	r3, [r7, #8]
 845 0044 0133     		adds	r3, r3, #1
 846 0046 BB60     		str	r3, [r7, #8]
 499:../Shared/Libraries/STM32F4xx_StdPeriph_Driver/src/stm32f4xx_cryp.c ****   }
 500:../Shared/Libraries/STM32F4xx_StdPeriph_Driver/src/stm32f4xx_cryp.c ****   while ((timeout != MAX_TIMEOUT) && (bitstatus != CRYP_SR_IFEM));
 847              		.loc 1 500 19 discriminator 2
 848 0048 BB68     		ldr	r3, [r7, #8]
 849              		.loc 1 500 35 discriminator 2
 850 004a 4FF6FF72 		movw	r2, #65535
 851 004e 9342     		cmp	r3, r2
 852 0050 02D0     		beq	.L35
 853              		.loc 1 500 35 is_stmt 0 discriminator 1
 854 0052 FB68     		ldr	r3, [r7, #12]
 855 0054 012B     		cmp	r3, #1
 856 0056 EFD1     		bne	.L36
 857              	.L35:
 501:../Shared/Libraries/STM32F4xx_StdPeriph_Driver/src/stm32f4xx_cryp.c ****      
 502:../Shared/Libraries/STM32F4xx_StdPeriph_Driver/src/stm32f4xx_cryp.c ****   if ((CRYP->SR & ckeckmask) != CRYP_SR_IFEM)
 858              		.loc 1 502 12 is_stmt 1
 859 0058 294B     		ldr	r3, .L40
 860 005a 5A68     		ldr	r2, [r3, #4]
 861              		.loc 1 502 17
 862 005c 7B69     		ldr	r3, [r7, #20]
 863 005e 1340     		ands	r3, r3, r2
 864              		.loc 1 502 6
 865 0060 012B     		cmp	r3, #1
 866 0062 02D0     		beq	.L37
 503:../Shared/Libraries/STM32F4xx_StdPeriph_Driver/src/stm32f4xx_cryp.c ****   {
 504:../Shared/Libraries/STM32F4xx_StdPeriph_Driver/src/stm32f4xx_cryp.c ****     status = ERROR;
 867              		.loc 1 504 12
 868 0064 0023     		movs	r3, #0
 869 0066 FB74     		strb	r3, [r7, #19]
 870 0068 43E0     		b	.L38
 871              	.L37:
 505:../Shared/Libraries/STM32F4xx_StdPeriph_Driver/src/stm32f4xx_cryp.c ****   }
 506:../Shared/Libraries/STM32F4xx_StdPeriph_Driver/src/stm32f4xx_cryp.c ****   else
 507:../Shared/Libraries/STM32F4xx_StdPeriph_Driver/src/stm32f4xx_cryp.c ****   {      
 508:../Shared/Libraries/STM32F4xx_StdPeriph_Driver/src/stm32f4xx_cryp.c ****     /* Stop DMA transfers on the OUT FIFO by 
 509:../Shared/Libraries/STM32F4xx_StdPeriph_Driver/src/stm32f4xx_cryp.c ****        - writing the DOEN bit to 0 in the CRYP_DMACR register 
 510:../Shared/Libraries/STM32F4xx_StdPeriph_Driver/src/stm32f4xx_cryp.c ****        - and clear the CRYPEN bit. */
 511:../Shared/Libraries/STM32F4xx_StdPeriph_Driver/src/stm32f4xx_cryp.c **** 
 512:../Shared/Libraries/STM32F4xx_StdPeriph_Driver/src/stm32f4xx_cryp.c ****     CRYP->DMACR &= ~(uint32_t)CRYP_DMACR_DOEN;
 872              		.loc 1 512 9
 873 006a 254B     		ldr	r3, .L40
 874 006c 1B69     		ldr	r3, [r3, #16]
ARM GAS  /tmp/ccXjhHbZ.s 			page 25


 875 006e 244A     		ldr	r2, .L40
 876              		.loc 1 512 17
 877 0070 23F00203 		bic	r3, r3, #2
 878 0074 1361     		str	r3, [r2, #16]
 513:../Shared/Libraries/STM32F4xx_StdPeriph_Driver/src/stm32f4xx_cryp.c ****     CRYP->CR &= ~(uint32_t)CRYP_CR_CRYPEN;
 879              		.loc 1 513 9
 880 0076 224B     		ldr	r3, .L40
 881 0078 1B68     		ldr	r3, [r3]
 882 007a 214A     		ldr	r2, .L40
 883              		.loc 1 513 14
 884 007c 23F40043 		bic	r3, r3, #32768
 885 0080 1360     		str	r3, [r2]
 514:../Shared/Libraries/STM32F4xx_StdPeriph_Driver/src/stm32f4xx_cryp.c **** 
 515:../Shared/Libraries/STM32F4xx_StdPeriph_Driver/src/stm32f4xx_cryp.c ****     /* Save the current configuration (bits [9:2] in the CRYP_CR register) */
 516:../Shared/Libraries/STM32F4xx_StdPeriph_Driver/src/stm32f4xx_cryp.c ****     CRYP_ContextSave->CR_bits9to2  = CRYP->CR & (CRYP_CR_KEYSIZE  | 
 886              		.loc 1 516 42
 887 0082 1F4B     		ldr	r3, .L40
 888 0084 1B68     		ldr	r3, [r3]
 889              		.loc 1 516 47
 890 0086 03F47F72 		and	r2, r3, #1020
 891              		.loc 1 516 36
 892 008a 7B68     		ldr	r3, [r7, #4]
 893 008c 1A60     		str	r2, [r3]
 517:../Shared/Libraries/STM32F4xx_StdPeriph_Driver/src/stm32f4xx_cryp.c ****                                                  CRYP_CR_DATATYPE | 
 518:../Shared/Libraries/STM32F4xx_StdPeriph_Driver/src/stm32f4xx_cryp.c ****                                                  CRYP_CR_ALGOMODE |
 519:../Shared/Libraries/STM32F4xx_StdPeriph_Driver/src/stm32f4xx_cryp.c ****                                                  CRYP_CR_ALGODIR); 
 520:../Shared/Libraries/STM32F4xx_StdPeriph_Driver/src/stm32f4xx_cryp.c **** 
 521:../Shared/Libraries/STM32F4xx_StdPeriph_Driver/src/stm32f4xx_cryp.c ****     /* and, if not in ECB mode, the initialization vectors. */
 522:../Shared/Libraries/STM32F4xx_StdPeriph_Driver/src/stm32f4xx_cryp.c ****     CRYP_ContextSave->CRYP_IV0LR = CRYP->IV0LR;
 894              		.loc 1 522 40
 895 008e 1C4B     		ldr	r3, .L40
 896 0090 1A6C     		ldr	r2, [r3, #64]
 897              		.loc 1 522 34
 898 0092 7B68     		ldr	r3, [r7, #4]
 899 0094 5A60     		str	r2, [r3, #4]
 523:../Shared/Libraries/STM32F4xx_StdPeriph_Driver/src/stm32f4xx_cryp.c ****     CRYP_ContextSave->CRYP_IV0RR = CRYP->IV0RR;
 900              		.loc 1 523 40
 901 0096 1A4B     		ldr	r3, .L40
 902 0098 5A6C     		ldr	r2, [r3, #68]
 903              		.loc 1 523 34
 904 009a 7B68     		ldr	r3, [r7, #4]
 905 009c 9A60     		str	r2, [r3, #8]
 524:../Shared/Libraries/STM32F4xx_StdPeriph_Driver/src/stm32f4xx_cryp.c ****     CRYP_ContextSave->CRYP_IV1LR = CRYP->IV1LR;
 906              		.loc 1 524 40
 907 009e 184B     		ldr	r3, .L40
 908 00a0 9A6C     		ldr	r2, [r3, #72]
 909              		.loc 1 524 34
 910 00a2 7B68     		ldr	r3, [r7, #4]
 911 00a4 DA60     		str	r2, [r3, #12]
 525:../Shared/Libraries/STM32F4xx_StdPeriph_Driver/src/stm32f4xx_cryp.c ****     CRYP_ContextSave->CRYP_IV1RR = CRYP->IV1RR;
 912              		.loc 1 525 40
 913 00a6 164B     		ldr	r3, .L40
 914 00a8 DA6C     		ldr	r2, [r3, #76]
 915              		.loc 1 525 34
 916 00aa 7B68     		ldr	r3, [r7, #4]
 917 00ac 1A61     		str	r2, [r3, #16]
 526:../Shared/Libraries/STM32F4xx_StdPeriph_Driver/src/stm32f4xx_cryp.c **** 
ARM GAS  /tmp/ccXjhHbZ.s 			page 26


 527:../Shared/Libraries/STM32F4xx_StdPeriph_Driver/src/stm32f4xx_cryp.c ****     /* save The key value */
 528:../Shared/Libraries/STM32F4xx_StdPeriph_Driver/src/stm32f4xx_cryp.c ****     CRYP_ContextSave->CRYP_K0LR = CRYP_KeyInitStruct->CRYP_Key0Left; 
 918              		.loc 1 528 53
 919 00ae 3B68     		ldr	r3, [r7]
 920 00b0 1A68     		ldr	r2, [r3]
 921              		.loc 1 528 33
 922 00b2 7B68     		ldr	r3, [r7, #4]
 923 00b4 5A61     		str	r2, [r3, #20]
 529:../Shared/Libraries/STM32F4xx_StdPeriph_Driver/src/stm32f4xx_cryp.c ****     CRYP_ContextSave->CRYP_K0RR = CRYP_KeyInitStruct->CRYP_Key0Right; 
 924              		.loc 1 529 53
 925 00b6 3B68     		ldr	r3, [r7]
 926 00b8 5A68     		ldr	r2, [r3, #4]
 927              		.loc 1 529 33
 928 00ba 7B68     		ldr	r3, [r7, #4]
 929 00bc 9A61     		str	r2, [r3, #24]
 530:../Shared/Libraries/STM32F4xx_StdPeriph_Driver/src/stm32f4xx_cryp.c ****     CRYP_ContextSave->CRYP_K1LR = CRYP_KeyInitStruct->CRYP_Key1Left; 
 930              		.loc 1 530 53
 931 00be 3B68     		ldr	r3, [r7]
 932 00c0 9A68     		ldr	r2, [r3, #8]
 933              		.loc 1 530 33
 934 00c2 7B68     		ldr	r3, [r7, #4]
 935 00c4 DA61     		str	r2, [r3, #28]
 531:../Shared/Libraries/STM32F4xx_StdPeriph_Driver/src/stm32f4xx_cryp.c ****     CRYP_ContextSave->CRYP_K1RR = CRYP_KeyInitStruct->CRYP_Key1Right; 
 936              		.loc 1 531 53
 937 00c6 3B68     		ldr	r3, [r7]
 938 00c8 DA68     		ldr	r2, [r3, #12]
 939              		.loc 1 531 33
 940 00ca 7B68     		ldr	r3, [r7, #4]
 941 00cc 1A62     		str	r2, [r3, #32]
 532:../Shared/Libraries/STM32F4xx_StdPeriph_Driver/src/stm32f4xx_cryp.c ****     CRYP_ContextSave->CRYP_K2LR = CRYP_KeyInitStruct->CRYP_Key2Left; 
 942              		.loc 1 532 53
 943 00ce 3B68     		ldr	r3, [r7]
 944 00d0 1A69     		ldr	r2, [r3, #16]
 945              		.loc 1 532 33
 946 00d2 7B68     		ldr	r3, [r7, #4]
 947 00d4 5A62     		str	r2, [r3, #36]
 533:../Shared/Libraries/STM32F4xx_StdPeriph_Driver/src/stm32f4xx_cryp.c ****     CRYP_ContextSave->CRYP_K2RR = CRYP_KeyInitStruct->CRYP_Key2Right; 
 948              		.loc 1 533 53
 949 00d6 3B68     		ldr	r3, [r7]
 950 00d8 5A69     		ldr	r2, [r3, #20]
 951              		.loc 1 533 33
 952 00da 7B68     		ldr	r3, [r7, #4]
 953 00dc 9A62     		str	r2, [r3, #40]
 534:../Shared/Libraries/STM32F4xx_StdPeriph_Driver/src/stm32f4xx_cryp.c ****     CRYP_ContextSave->CRYP_K3LR = CRYP_KeyInitStruct->CRYP_Key3Left; 
 954              		.loc 1 534 53
 955 00de 3B68     		ldr	r3, [r7]
 956 00e0 9A69     		ldr	r2, [r3, #24]
 957              		.loc 1 534 33
 958 00e2 7B68     		ldr	r3, [r7, #4]
 959 00e4 DA62     		str	r2, [r3, #44]
 535:../Shared/Libraries/STM32F4xx_StdPeriph_Driver/src/stm32f4xx_cryp.c ****     CRYP_ContextSave->CRYP_K3RR = CRYP_KeyInitStruct->CRYP_Key3Right; 
 960              		.loc 1 535 53
 961 00e6 3B68     		ldr	r3, [r7]
 962 00e8 DA69     		ldr	r2, [r3, #28]
 963              		.loc 1 535 33
 964 00ea 7B68     		ldr	r3, [r7, #4]
 965 00ec 1A63     		str	r2, [r3, #48]
ARM GAS  /tmp/ccXjhHbZ.s 			page 27


 536:../Shared/Libraries/STM32F4xx_StdPeriph_Driver/src/stm32f4xx_cryp.c **** 
 537:../Shared/Libraries/STM32F4xx_StdPeriph_Driver/src/stm32f4xx_cryp.c ****    /* When needed, save the DMA status (pointers for IN and OUT messages, 
 538:../Shared/Libraries/STM32F4xx_StdPeriph_Driver/src/stm32f4xx_cryp.c ****       number of remaining bytes, etc.) */
 539:../Shared/Libraries/STM32F4xx_StdPeriph_Driver/src/stm32f4xx_cryp.c ****      
 540:../Shared/Libraries/STM32F4xx_StdPeriph_Driver/src/stm32f4xx_cryp.c ****     status = SUCCESS;
 966              		.loc 1 540 12
 967 00ee 0123     		movs	r3, #1
 968 00f0 FB74     		strb	r3, [r7, #19]
 969              	.L38:
 541:../Shared/Libraries/STM32F4xx_StdPeriph_Driver/src/stm32f4xx_cryp.c ****   }
 542:../Shared/Libraries/STM32F4xx_StdPeriph_Driver/src/stm32f4xx_cryp.c **** 
 543:../Shared/Libraries/STM32F4xx_StdPeriph_Driver/src/stm32f4xx_cryp.c ****    return status;
 970              		.loc 1 543 11
 971 00f2 FB7C     		ldrb	r3, [r7, #19]	@ zero_extendqisi2
 544:../Shared/Libraries/STM32F4xx_StdPeriph_Driver/src/stm32f4xx_cryp.c **** }
 972              		.loc 1 544 1
 973 00f4 1846     		mov	r0, r3
 974 00f6 1C37     		adds	r7, r7, #28
 975              	.LCFI61:
 976              		.cfi_def_cfa_offset 4
 977 00f8 BD46     		mov	sp, r7
 978              	.LCFI62:
 979              		.cfi_def_cfa_register 13
 980              		@ sp needed
 981 00fa 5DF8047B 		ldr	r7, [sp], #4
 982              	.LCFI63:
 983              		.cfi_restore 7
 984              		.cfi_def_cfa_offset 0
 985 00fe 7047     		bx	lr
 986              	.L41:
 987              		.align	2
 988              	.L40:
 989 0100 00000650 		.word	1342570496
 990              		.cfi_endproc
 991              	.LFE121:
 993              		.section	.text.CRYP_RestoreContext,"ax",%progbits
 994              		.align	1
 995              		.global	CRYP_RestoreContext
 996              		.syntax unified
 997              		.thumb
 998              		.thumb_func
 1000              	CRYP_RestoreContext:
 1001              	.LFB122:
 545:../Shared/Libraries/STM32F4xx_StdPeriph_Driver/src/stm32f4xx_cryp.c **** 
 546:../Shared/Libraries/STM32F4xx_StdPeriph_Driver/src/stm32f4xx_cryp.c **** /**
 547:../Shared/Libraries/STM32F4xx_StdPeriph_Driver/src/stm32f4xx_cryp.c ****   * @brief  Restores the CRYP peripheral Context.
 548:../Shared/Libraries/STM32F4xx_StdPeriph_Driver/src/stm32f4xx_cryp.c ****   * @note   Since teh DMA transfer is stopped in CRYP_SaveContext() function,
 549:../Shared/Libraries/STM32F4xx_StdPeriph_Driver/src/stm32f4xx_cryp.c ****   *         after restoring the context, you have to enable the DMA again (if the
 550:../Shared/Libraries/STM32F4xx_StdPeriph_Driver/src/stm32f4xx_cryp.c ****   *         DMA was previously used).  
 551:../Shared/Libraries/STM32F4xx_StdPeriph_Driver/src/stm32f4xx_cryp.c ****   * @param  CRYP_ContextRestore: pointer to a CRYP_Context structure that contains
 552:../Shared/Libraries/STM32F4xx_StdPeriph_Driver/src/stm32f4xx_cryp.c ****   *         the repository for saved context.
 553:../Shared/Libraries/STM32F4xx_StdPeriph_Driver/src/stm32f4xx_cryp.c ****   * @note   The data that were saved during context saving must be rewrited into
 554:../Shared/Libraries/STM32F4xx_StdPeriph_Driver/src/stm32f4xx_cryp.c ****   *         the IN FIFO.
 555:../Shared/Libraries/STM32F4xx_StdPeriph_Driver/src/stm32f4xx_cryp.c ****   * @retval None
 556:../Shared/Libraries/STM32F4xx_StdPeriph_Driver/src/stm32f4xx_cryp.c ****   */
 557:../Shared/Libraries/STM32F4xx_StdPeriph_Driver/src/stm32f4xx_cryp.c **** void CRYP_RestoreContext(CRYP_Context* CRYP_ContextRestore)  
 558:../Shared/Libraries/STM32F4xx_StdPeriph_Driver/src/stm32f4xx_cryp.c **** {
ARM GAS  /tmp/ccXjhHbZ.s 			page 28


 1002              		.loc 1 558 1
 1003              		.cfi_startproc
 1004              		@ args = 0, pretend = 0, frame = 8
 1005              		@ frame_needed = 1, uses_anonymous_args = 0
 1006              		@ link register save eliminated.
 1007 0000 80B4     		push	{r7}
 1008              	.LCFI64:
 1009              		.cfi_def_cfa_offset 4
 1010              		.cfi_offset 7, -4
 1011 0002 83B0     		sub	sp, sp, #12
 1012              	.LCFI65:
 1013              		.cfi_def_cfa_offset 16
 1014 0004 00AF     		add	r7, sp, #0
 1015              	.LCFI66:
 1016              		.cfi_def_cfa_register 7
 1017 0006 7860     		str	r0, [r7, #4]
 559:../Shared/Libraries/STM32F4xx_StdPeriph_Driver/src/stm32f4xx_cryp.c **** 
 560:../Shared/Libraries/STM32F4xx_StdPeriph_Driver/src/stm32f4xx_cryp.c ****   /* Configure the processor with the saved configuration */
 561:../Shared/Libraries/STM32F4xx_StdPeriph_Driver/src/stm32f4xx_cryp.c ****   CRYP->CR = CRYP_ContextRestore->CR_bits9to2;
 1018              		.loc 1 561 7
 1019 0008 1F4A     		ldr	r2, .L43
 1020              		.loc 1 561 33
 1021 000a 7B68     		ldr	r3, [r7, #4]
 1022 000c 1B68     		ldr	r3, [r3]
 1023              		.loc 1 561 12
 1024 000e 1360     		str	r3, [r2]
 562:../Shared/Libraries/STM32F4xx_StdPeriph_Driver/src/stm32f4xx_cryp.c **** 
 563:../Shared/Libraries/STM32F4xx_StdPeriph_Driver/src/stm32f4xx_cryp.c ****   /* restore The key value */
 564:../Shared/Libraries/STM32F4xx_StdPeriph_Driver/src/stm32f4xx_cryp.c ****   CRYP->K0LR = CRYP_ContextRestore->CRYP_K0LR; 
 1025              		.loc 1 564 7
 1026 0010 1D4A     		ldr	r2, .L43
 1027              		.loc 1 564 35
 1028 0012 7B68     		ldr	r3, [r7, #4]
 1029 0014 5B69     		ldr	r3, [r3, #20]
 1030              		.loc 1 564 14
 1031 0016 1362     		str	r3, [r2, #32]
 565:../Shared/Libraries/STM32F4xx_StdPeriph_Driver/src/stm32f4xx_cryp.c ****   CRYP->K0RR = CRYP_ContextRestore->CRYP_K0RR;
 1032              		.loc 1 565 7
 1033 0018 1B4A     		ldr	r2, .L43
 1034              		.loc 1 565 35
 1035 001a 7B68     		ldr	r3, [r7, #4]
 1036 001c 9B69     		ldr	r3, [r3, #24]
 1037              		.loc 1 565 14
 1038 001e 5362     		str	r3, [r2, #36]
 566:../Shared/Libraries/STM32F4xx_StdPeriph_Driver/src/stm32f4xx_cryp.c ****   CRYP->K1LR = CRYP_ContextRestore->CRYP_K1LR;
 1039              		.loc 1 566 7
 1040 0020 194A     		ldr	r2, .L43
 1041              		.loc 1 566 35
 1042 0022 7B68     		ldr	r3, [r7, #4]
 1043 0024 DB69     		ldr	r3, [r3, #28]
 1044              		.loc 1 566 14
 1045 0026 9362     		str	r3, [r2, #40]
 567:../Shared/Libraries/STM32F4xx_StdPeriph_Driver/src/stm32f4xx_cryp.c ****   CRYP->K1RR = CRYP_ContextRestore->CRYP_K1RR;
 1046              		.loc 1 567 7
 1047 0028 174A     		ldr	r2, .L43
 1048              		.loc 1 567 35
 1049 002a 7B68     		ldr	r3, [r7, #4]
ARM GAS  /tmp/ccXjhHbZ.s 			page 29


 1050 002c 1B6A     		ldr	r3, [r3, #32]
 1051              		.loc 1 567 14
 1052 002e D362     		str	r3, [r2, #44]
 568:../Shared/Libraries/STM32F4xx_StdPeriph_Driver/src/stm32f4xx_cryp.c ****   CRYP->K2LR = CRYP_ContextRestore->CRYP_K2LR;
 1053              		.loc 1 568 7
 1054 0030 154A     		ldr	r2, .L43
 1055              		.loc 1 568 35
 1056 0032 7B68     		ldr	r3, [r7, #4]
 1057 0034 5B6A     		ldr	r3, [r3, #36]
 1058              		.loc 1 568 14
 1059 0036 1363     		str	r3, [r2, #48]
 569:../Shared/Libraries/STM32F4xx_StdPeriph_Driver/src/stm32f4xx_cryp.c ****   CRYP->K2RR = CRYP_ContextRestore->CRYP_K2RR;
 1060              		.loc 1 569 7
 1061 0038 134A     		ldr	r2, .L43
 1062              		.loc 1 569 35
 1063 003a 7B68     		ldr	r3, [r7, #4]
 1064 003c 9B6A     		ldr	r3, [r3, #40]
 1065              		.loc 1 569 14
 1066 003e 5363     		str	r3, [r2, #52]
 570:../Shared/Libraries/STM32F4xx_StdPeriph_Driver/src/stm32f4xx_cryp.c ****   CRYP->K3LR = CRYP_ContextRestore->CRYP_K3LR;
 1067              		.loc 1 570 7
 1068 0040 114A     		ldr	r2, .L43
 1069              		.loc 1 570 35
 1070 0042 7B68     		ldr	r3, [r7, #4]
 1071 0044 DB6A     		ldr	r3, [r3, #44]
 1072              		.loc 1 570 14
 1073 0046 9363     		str	r3, [r2, #56]
 571:../Shared/Libraries/STM32F4xx_StdPeriph_Driver/src/stm32f4xx_cryp.c ****   CRYP->K3RR = CRYP_ContextRestore->CRYP_K3RR;
 1074              		.loc 1 571 7
 1075 0048 0F4A     		ldr	r2, .L43
 1076              		.loc 1 571 35
 1077 004a 7B68     		ldr	r3, [r7, #4]
 1078 004c 1B6B     		ldr	r3, [r3, #48]
 1079              		.loc 1 571 14
 1080 004e D363     		str	r3, [r2, #60]
 572:../Shared/Libraries/STM32F4xx_StdPeriph_Driver/src/stm32f4xx_cryp.c **** 
 573:../Shared/Libraries/STM32F4xx_StdPeriph_Driver/src/stm32f4xx_cryp.c ****   /* and the initialization vectors. */
 574:../Shared/Libraries/STM32F4xx_StdPeriph_Driver/src/stm32f4xx_cryp.c ****   CRYP->IV0LR = CRYP_ContextRestore->CRYP_IV0LR;
 1081              		.loc 1 574 7
 1082 0050 0D4A     		ldr	r2, .L43
 1083              		.loc 1 574 36
 1084 0052 7B68     		ldr	r3, [r7, #4]
 1085 0054 5B68     		ldr	r3, [r3, #4]
 1086              		.loc 1 574 15
 1087 0056 1364     		str	r3, [r2, #64]
 575:../Shared/Libraries/STM32F4xx_StdPeriph_Driver/src/stm32f4xx_cryp.c ****   CRYP->IV0RR = CRYP_ContextRestore->CRYP_IV0RR;
 1088              		.loc 1 575 7
 1089 0058 0B4A     		ldr	r2, .L43
 1090              		.loc 1 575 36
 1091 005a 7B68     		ldr	r3, [r7, #4]
 1092 005c 9B68     		ldr	r3, [r3, #8]
 1093              		.loc 1 575 15
 1094 005e 5364     		str	r3, [r2, #68]
 576:../Shared/Libraries/STM32F4xx_StdPeriph_Driver/src/stm32f4xx_cryp.c ****   CRYP->IV1LR = CRYP_ContextRestore->CRYP_IV1LR;
 1095              		.loc 1 576 7
 1096 0060 094A     		ldr	r2, .L43
 1097              		.loc 1 576 36
ARM GAS  /tmp/ccXjhHbZ.s 			page 30


 1098 0062 7B68     		ldr	r3, [r7, #4]
 1099 0064 DB68     		ldr	r3, [r3, #12]
 1100              		.loc 1 576 15
 1101 0066 9364     		str	r3, [r2, #72]
 577:../Shared/Libraries/STM32F4xx_StdPeriph_Driver/src/stm32f4xx_cryp.c ****   CRYP->IV1RR = CRYP_ContextRestore->CRYP_IV1RR;
 1102              		.loc 1 577 7
 1103 0068 074A     		ldr	r2, .L43
 1104              		.loc 1 577 36
 1105 006a 7B68     		ldr	r3, [r7, #4]
 1106 006c 1B69     		ldr	r3, [r3, #16]
 1107              		.loc 1 577 15
 1108 006e D364     		str	r3, [r2, #76]
 578:../Shared/Libraries/STM32F4xx_StdPeriph_Driver/src/stm32f4xx_cryp.c **** 
 579:../Shared/Libraries/STM32F4xx_StdPeriph_Driver/src/stm32f4xx_cryp.c ****   /* Enable the cryptographic processor */
 580:../Shared/Libraries/STM32F4xx_StdPeriph_Driver/src/stm32f4xx_cryp.c ****   CRYP->CR |= CRYP_CR_CRYPEN;
 1109              		.loc 1 580 7
 1110 0070 054B     		ldr	r3, .L43
 1111 0072 1B68     		ldr	r3, [r3]
 1112 0074 044A     		ldr	r2, .L43
 1113              		.loc 1 580 12
 1114 0076 43F40043 		orr	r3, r3, #32768
 1115 007a 1360     		str	r3, [r2]
 581:../Shared/Libraries/STM32F4xx_StdPeriph_Driver/src/stm32f4xx_cryp.c **** }
 1116              		.loc 1 581 1
 1117 007c 00BF     		nop
 1118 007e 0C37     		adds	r7, r7, #12
 1119              	.LCFI67:
 1120              		.cfi_def_cfa_offset 4
 1121 0080 BD46     		mov	sp, r7
 1122              	.LCFI68:
 1123              		.cfi_def_cfa_register 13
 1124              		@ sp needed
 1125 0082 5DF8047B 		ldr	r7, [sp], #4
 1126              	.LCFI69:
 1127              		.cfi_restore 7
 1128              		.cfi_def_cfa_offset 0
 1129 0086 7047     		bx	lr
 1130              	.L44:
 1131              		.align	2
 1132              	.L43:
 1133 0088 00000650 		.word	1342570496
 1134              		.cfi_endproc
 1135              	.LFE122:
 1137              		.section	.text.CRYP_DMACmd,"ax",%progbits
 1138              		.align	1
 1139              		.global	CRYP_DMACmd
 1140              		.syntax unified
 1141              		.thumb
 1142              		.thumb_func
 1144              	CRYP_DMACmd:
 1145              	.LFB123:
 582:../Shared/Libraries/STM32F4xx_StdPeriph_Driver/src/stm32f4xx_cryp.c **** /**
 583:../Shared/Libraries/STM32F4xx_StdPeriph_Driver/src/stm32f4xx_cryp.c ****   * @}
 584:../Shared/Libraries/STM32F4xx_StdPeriph_Driver/src/stm32f4xx_cryp.c ****   */
 585:../Shared/Libraries/STM32F4xx_StdPeriph_Driver/src/stm32f4xx_cryp.c **** 
 586:../Shared/Libraries/STM32F4xx_StdPeriph_Driver/src/stm32f4xx_cryp.c **** /** @defgroup CRYP_Group4 CRYP's DMA interface Configuration function
 587:../Shared/Libraries/STM32F4xx_StdPeriph_Driver/src/stm32f4xx_cryp.c ****  *  @brief   CRYP's DMA interface Configuration function 
ARM GAS  /tmp/ccXjhHbZ.s 			page 31


 588:../Shared/Libraries/STM32F4xx_StdPeriph_Driver/src/stm32f4xx_cryp.c ****  *
 589:../Shared/Libraries/STM32F4xx_StdPeriph_Driver/src/stm32f4xx_cryp.c **** @verbatim   
 590:../Shared/Libraries/STM32F4xx_StdPeriph_Driver/src/stm32f4xx_cryp.c ****  ===============================================================================
 591:../Shared/Libraries/STM32F4xx_StdPeriph_Driver/src/stm32f4xx_cryp.c ****                    CRYP's DMA interface Configuration function
 592:../Shared/Libraries/STM32F4xx_StdPeriph_Driver/src/stm32f4xx_cryp.c ****  ===============================================================================  
 593:../Shared/Libraries/STM32F4xx_StdPeriph_Driver/src/stm32f4xx_cryp.c **** 
 594:../Shared/Libraries/STM32F4xx_StdPeriph_Driver/src/stm32f4xx_cryp.c ****   This section provides functions allowing to configure the DMA interface for 
 595:../Shared/Libraries/STM32F4xx_StdPeriph_Driver/src/stm32f4xx_cryp.c ****   CRYP data input and output transfer.
 596:../Shared/Libraries/STM32F4xx_StdPeriph_Driver/src/stm32f4xx_cryp.c ****    
 597:../Shared/Libraries/STM32F4xx_StdPeriph_Driver/src/stm32f4xx_cryp.c ****   When the DMA mode is enabled (using the CRYP_DMACmd() function), data can be 
 598:../Shared/Libraries/STM32F4xx_StdPeriph_Driver/src/stm32f4xx_cryp.c ****   transferred:
 599:../Shared/Libraries/STM32F4xx_StdPeriph_Driver/src/stm32f4xx_cryp.c ****   - From memory to the CRYP IN FIFO using the DMA peripheral by enabling 
 600:../Shared/Libraries/STM32F4xx_StdPeriph_Driver/src/stm32f4xx_cryp.c ****     the CRYP_DMAReq_DataIN request.
 601:../Shared/Libraries/STM32F4xx_StdPeriph_Driver/src/stm32f4xx_cryp.c ****   - From the CRYP OUT FIFO to the memory using the DMA peripheral by enabling 
 602:../Shared/Libraries/STM32F4xx_StdPeriph_Driver/src/stm32f4xx_cryp.c ****     the CRYP_DMAReq_DataOUT request.
 603:../Shared/Libraries/STM32F4xx_StdPeriph_Driver/src/stm32f4xx_cryp.c **** 
 604:../Shared/Libraries/STM32F4xx_StdPeriph_Driver/src/stm32f4xx_cryp.c **** @endverbatim
 605:../Shared/Libraries/STM32F4xx_StdPeriph_Driver/src/stm32f4xx_cryp.c ****   * @{
 606:../Shared/Libraries/STM32F4xx_StdPeriph_Driver/src/stm32f4xx_cryp.c ****   */
 607:../Shared/Libraries/STM32F4xx_StdPeriph_Driver/src/stm32f4xx_cryp.c **** 
 608:../Shared/Libraries/STM32F4xx_StdPeriph_Driver/src/stm32f4xx_cryp.c **** /**
 609:../Shared/Libraries/STM32F4xx_StdPeriph_Driver/src/stm32f4xx_cryp.c ****   * @brief  Enables or disables the CRYP DMA interface.
 610:../Shared/Libraries/STM32F4xx_StdPeriph_Driver/src/stm32f4xx_cryp.c ****   * @param  CRYP_DMAReq: specifies the CRYP DMA transfer request to be enabled or disabled.
 611:../Shared/Libraries/STM32F4xx_StdPeriph_Driver/src/stm32f4xx_cryp.c ****   *           This parameter can be any combination of the following values:
 612:../Shared/Libraries/STM32F4xx_StdPeriph_Driver/src/stm32f4xx_cryp.c ****   *            @arg CRYP_DMAReq_DataOUT: DMA for outgoing(Tx) data transfer
 613:../Shared/Libraries/STM32F4xx_StdPeriph_Driver/src/stm32f4xx_cryp.c ****   *            @arg CRYP_DMAReq_DataIN: DMA for incoming(Rx) data transfer
 614:../Shared/Libraries/STM32F4xx_StdPeriph_Driver/src/stm32f4xx_cryp.c ****   * @param  NewState: new state of the selected CRYP DMA transfer request.
 615:../Shared/Libraries/STM32F4xx_StdPeriph_Driver/src/stm32f4xx_cryp.c ****   *          This parameter can be: ENABLE or DISABLE.
 616:../Shared/Libraries/STM32F4xx_StdPeriph_Driver/src/stm32f4xx_cryp.c ****   * @retval None
 617:../Shared/Libraries/STM32F4xx_StdPeriph_Driver/src/stm32f4xx_cryp.c ****   */
 618:../Shared/Libraries/STM32F4xx_StdPeriph_Driver/src/stm32f4xx_cryp.c **** void CRYP_DMACmd(uint8_t CRYP_DMAReq, FunctionalState NewState)
 619:../Shared/Libraries/STM32F4xx_StdPeriph_Driver/src/stm32f4xx_cryp.c **** {
 1146              		.loc 1 619 1
 1147              		.cfi_startproc
 1148              		@ args = 0, pretend = 0, frame = 8
 1149              		@ frame_needed = 1, uses_anonymous_args = 0
 1150              		@ link register save eliminated.
 1151 0000 80B4     		push	{r7}
 1152              	.LCFI70:
 1153              		.cfi_def_cfa_offset 4
 1154              		.cfi_offset 7, -4
 1155 0002 83B0     		sub	sp, sp, #12
 1156              	.LCFI71:
 1157              		.cfi_def_cfa_offset 16
 1158 0004 00AF     		add	r7, sp, #0
 1159              	.LCFI72:
 1160              		.cfi_def_cfa_register 7
 1161 0006 0346     		mov	r3, r0
 1162 0008 0A46     		mov	r2, r1
 1163 000a FB71     		strb	r3, [r7, #7]
 1164 000c 1346     		mov	r3, r2
 1165 000e BB71     		strb	r3, [r7, #6]
 620:../Shared/Libraries/STM32F4xx_StdPeriph_Driver/src/stm32f4xx_cryp.c ****   /* Check the parameters */
 621:../Shared/Libraries/STM32F4xx_StdPeriph_Driver/src/stm32f4xx_cryp.c ****   assert_param(IS_CRYP_DMAREQ(CRYP_DMAReq));
 622:../Shared/Libraries/STM32F4xx_StdPeriph_Driver/src/stm32f4xx_cryp.c ****   assert_param(IS_FUNCTIONAL_STATE(NewState));
 623:../Shared/Libraries/STM32F4xx_StdPeriph_Driver/src/stm32f4xx_cryp.c **** 
 624:../Shared/Libraries/STM32F4xx_StdPeriph_Driver/src/stm32f4xx_cryp.c ****   if (NewState != DISABLE)
ARM GAS  /tmp/ccXjhHbZ.s 			page 32


 1166              		.loc 1 624 6
 1167 0010 BB79     		ldrb	r3, [r7, #6]	@ zero_extendqisi2
 1168 0012 002B     		cmp	r3, #0
 1169 0014 06D0     		beq	.L46
 625:../Shared/Libraries/STM32F4xx_StdPeriph_Driver/src/stm32f4xx_cryp.c ****   {
 626:../Shared/Libraries/STM32F4xx_StdPeriph_Driver/src/stm32f4xx_cryp.c ****     /* Enable the selected CRYP DMA request */
 627:../Shared/Libraries/STM32F4xx_StdPeriph_Driver/src/stm32f4xx_cryp.c ****     CRYP->DMACR |= CRYP_DMAReq;
 1170              		.loc 1 627 9
 1171 0016 0B4B     		ldr	r3, .L49
 1172 0018 1A69     		ldr	r2, [r3, #16]
 1173              		.loc 1 627 17
 1174 001a FB79     		ldrb	r3, [r7, #7]	@ zero_extendqisi2
 1175              		.loc 1 627 9
 1176 001c 0949     		ldr	r1, .L49
 1177              		.loc 1 627 17
 1178 001e 1343     		orrs	r3, r3, r2
 1179 0020 0B61     		str	r3, [r1, #16]
 628:../Shared/Libraries/STM32F4xx_StdPeriph_Driver/src/stm32f4xx_cryp.c ****   }
 629:../Shared/Libraries/STM32F4xx_StdPeriph_Driver/src/stm32f4xx_cryp.c ****   else
 630:../Shared/Libraries/STM32F4xx_StdPeriph_Driver/src/stm32f4xx_cryp.c ****   {
 631:../Shared/Libraries/STM32F4xx_StdPeriph_Driver/src/stm32f4xx_cryp.c ****     /* Disable the selected CRYP DMA request */
 632:../Shared/Libraries/STM32F4xx_StdPeriph_Driver/src/stm32f4xx_cryp.c ****     CRYP->DMACR &= (uint8_t)~CRYP_DMAReq;
 633:../Shared/Libraries/STM32F4xx_StdPeriph_Driver/src/stm32f4xx_cryp.c ****   }
 634:../Shared/Libraries/STM32F4xx_StdPeriph_Driver/src/stm32f4xx_cryp.c **** }
 1180              		.loc 1 634 1
 1181 0022 08E0     		b	.L48
 1182              	.L46:
 632:../Shared/Libraries/STM32F4xx_StdPeriph_Driver/src/stm32f4xx_cryp.c ****   }
 1183              		.loc 1 632 9
 1184 0024 074B     		ldr	r3, .L49
 1185 0026 1B69     		ldr	r3, [r3, #16]
 632:../Shared/Libraries/STM32F4xx_StdPeriph_Driver/src/stm32f4xx_cryp.c ****   }
 1186              		.loc 1 632 20
 1187 0028 FA79     		ldrb	r2, [r7, #7]
 1188 002a D243     		mvns	r2, r2
 1189 002c D2B2     		uxtb	r2, r2
 1190 002e 1146     		mov	r1, r2
 632:../Shared/Libraries/STM32F4xx_StdPeriph_Driver/src/stm32f4xx_cryp.c ****   }
 1191              		.loc 1 632 9
 1192 0030 044A     		ldr	r2, .L49
 632:../Shared/Libraries/STM32F4xx_StdPeriph_Driver/src/stm32f4xx_cryp.c ****   }
 1193              		.loc 1 632 17
 1194 0032 0B40     		ands	r3, r3, r1
 1195 0034 1361     		str	r3, [r2, #16]
 1196              	.L48:
 1197              		.loc 1 634 1
 1198 0036 00BF     		nop
 1199 0038 0C37     		adds	r7, r7, #12
 1200              	.LCFI73:
 1201              		.cfi_def_cfa_offset 4
 1202 003a BD46     		mov	sp, r7
 1203              	.LCFI74:
 1204              		.cfi_def_cfa_register 13
 1205              		@ sp needed
 1206 003c 5DF8047B 		ldr	r7, [sp], #4
 1207              	.LCFI75:
 1208              		.cfi_restore 7
ARM GAS  /tmp/ccXjhHbZ.s 			page 33


 1209              		.cfi_def_cfa_offset 0
 1210 0040 7047     		bx	lr
 1211              	.L50:
 1212 0042 00BF     		.align	2
 1213              	.L49:
 1214 0044 00000650 		.word	1342570496
 1215              		.cfi_endproc
 1216              	.LFE123:
 1218              		.section	.text.CRYP_ITConfig,"ax",%progbits
 1219              		.align	1
 1220              		.global	CRYP_ITConfig
 1221              		.syntax unified
 1222              		.thumb
 1223              		.thumb_func
 1225              	CRYP_ITConfig:
 1226              	.LFB124:
 635:../Shared/Libraries/STM32F4xx_StdPeriph_Driver/src/stm32f4xx_cryp.c **** /**
 636:../Shared/Libraries/STM32F4xx_StdPeriph_Driver/src/stm32f4xx_cryp.c ****   * @}
 637:../Shared/Libraries/STM32F4xx_StdPeriph_Driver/src/stm32f4xx_cryp.c ****   */
 638:../Shared/Libraries/STM32F4xx_StdPeriph_Driver/src/stm32f4xx_cryp.c **** 
 639:../Shared/Libraries/STM32F4xx_StdPeriph_Driver/src/stm32f4xx_cryp.c **** /** @defgroup CRYP_Group5 Interrupts and flags management functions
 640:../Shared/Libraries/STM32F4xx_StdPeriph_Driver/src/stm32f4xx_cryp.c ****  *  @brief   Interrupts and flags management functions
 641:../Shared/Libraries/STM32F4xx_StdPeriph_Driver/src/stm32f4xx_cryp.c ****  *
 642:../Shared/Libraries/STM32F4xx_StdPeriph_Driver/src/stm32f4xx_cryp.c **** @verbatim   
 643:../Shared/Libraries/STM32F4xx_StdPeriph_Driver/src/stm32f4xx_cryp.c ****  ===============================================================================
 644:../Shared/Libraries/STM32F4xx_StdPeriph_Driver/src/stm32f4xx_cryp.c ****                    Interrupts and flags management functions
 645:../Shared/Libraries/STM32F4xx_StdPeriph_Driver/src/stm32f4xx_cryp.c ****  ===============================================================================  
 646:../Shared/Libraries/STM32F4xx_StdPeriph_Driver/src/stm32f4xx_cryp.c **** 
 647:../Shared/Libraries/STM32F4xx_StdPeriph_Driver/src/stm32f4xx_cryp.c ****   This section provides functions allowing to configure the CRYP Interrupts and 
 648:../Shared/Libraries/STM32F4xx_StdPeriph_Driver/src/stm32f4xx_cryp.c ****   to get the status and Interrupts pending bits.
 649:../Shared/Libraries/STM32F4xx_StdPeriph_Driver/src/stm32f4xx_cryp.c **** 
 650:../Shared/Libraries/STM32F4xx_StdPeriph_Driver/src/stm32f4xx_cryp.c ****   The CRYP provides 2 Interrupts sources and 7 Flags:
 651:../Shared/Libraries/STM32F4xx_StdPeriph_Driver/src/stm32f4xx_cryp.c **** 
 652:../Shared/Libraries/STM32F4xx_StdPeriph_Driver/src/stm32f4xx_cryp.c ****   Flags :
 653:../Shared/Libraries/STM32F4xx_StdPeriph_Driver/src/stm32f4xx_cryp.c ****   ------- 
 654:../Shared/Libraries/STM32F4xx_StdPeriph_Driver/src/stm32f4xx_cryp.c ****                           
 655:../Shared/Libraries/STM32F4xx_StdPeriph_Driver/src/stm32f4xx_cryp.c ****      1. CRYP_FLAG_IFEM :  Set when Input FIFO is empty.
 656:../Shared/Libraries/STM32F4xx_StdPeriph_Driver/src/stm32f4xx_cryp.c ****                           This Flag is cleared only by hardware.
 657:../Shared/Libraries/STM32F4xx_StdPeriph_Driver/src/stm32f4xx_cryp.c ****       
 658:../Shared/Libraries/STM32F4xx_StdPeriph_Driver/src/stm32f4xx_cryp.c ****      2. CRYP_FLAG_IFNF :  Set when Input FIFO is not full.
 659:../Shared/Libraries/STM32F4xx_StdPeriph_Driver/src/stm32f4xx_cryp.c ****                           This Flag is cleared only by hardware.
 660:../Shared/Libraries/STM32F4xx_StdPeriph_Driver/src/stm32f4xx_cryp.c **** 
 661:../Shared/Libraries/STM32F4xx_StdPeriph_Driver/src/stm32f4xx_cryp.c **** 
 662:../Shared/Libraries/STM32F4xx_StdPeriph_Driver/src/stm32f4xx_cryp.c ****      3. CRYP_FLAG_INRIS  : Set when Input FIFO Raw interrupt is pending 
 663:../Shared/Libraries/STM32F4xx_StdPeriph_Driver/src/stm32f4xx_cryp.c ****                            it gives the raw interrupt state prior to masking 
 664:../Shared/Libraries/STM32F4xx_StdPeriph_Driver/src/stm32f4xx_cryp.c ****                            of the input FIFO service interrupt.
 665:../Shared/Libraries/STM32F4xx_StdPeriph_Driver/src/stm32f4xx_cryp.c ****                            This Flag is cleared only by hardware.
 666:../Shared/Libraries/STM32F4xx_StdPeriph_Driver/src/stm32f4xx_cryp.c ****      
 667:../Shared/Libraries/STM32F4xx_StdPeriph_Driver/src/stm32f4xx_cryp.c ****      4. CRYP_FLAG_OFNE   : Set when Output FIFO not empty.
 668:../Shared/Libraries/STM32F4xx_StdPeriph_Driver/src/stm32f4xx_cryp.c ****                            This Flag is cleared only by hardware.
 669:../Shared/Libraries/STM32F4xx_StdPeriph_Driver/src/stm32f4xx_cryp.c ****         
 670:../Shared/Libraries/STM32F4xx_StdPeriph_Driver/src/stm32f4xx_cryp.c ****      5. CRYP_FLAG_OFFU   : Set when Output FIFO is full.
 671:../Shared/Libraries/STM32F4xx_StdPeriph_Driver/src/stm32f4xx_cryp.c ****                            This Flag is cleared only by hardware.
 672:../Shared/Libraries/STM32F4xx_StdPeriph_Driver/src/stm32f4xx_cryp.c ****                            
 673:../Shared/Libraries/STM32F4xx_StdPeriph_Driver/src/stm32f4xx_cryp.c ****      6. CRYP_FLAG_OUTRIS : Set when Output FIFO Raw interrupt is pending 
 674:../Shared/Libraries/STM32F4xx_StdPeriph_Driver/src/stm32f4xx_cryp.c ****                            it gives the raw interrupt state prior to masking 
 675:../Shared/Libraries/STM32F4xx_StdPeriph_Driver/src/stm32f4xx_cryp.c ****                            of the output FIFO service interrupt.
ARM GAS  /tmp/ccXjhHbZ.s 			page 34


 676:../Shared/Libraries/STM32F4xx_StdPeriph_Driver/src/stm32f4xx_cryp.c ****                            This Flag is cleared only by hardware.
 677:../Shared/Libraries/STM32F4xx_StdPeriph_Driver/src/stm32f4xx_cryp.c ****                                
 678:../Shared/Libraries/STM32F4xx_StdPeriph_Driver/src/stm32f4xx_cryp.c ****      7. CRYP_FLAG_BUSY   : Set when the CRYP core is currently processing a 
 679:../Shared/Libraries/STM32F4xx_StdPeriph_Driver/src/stm32f4xx_cryp.c ****                            block of data or a key preparation (for AES 
 680:../Shared/Libraries/STM32F4xx_StdPeriph_Driver/src/stm32f4xx_cryp.c ****                            decryption).
 681:../Shared/Libraries/STM32F4xx_StdPeriph_Driver/src/stm32f4xx_cryp.c ****                            This Flag is cleared only by hardware.
 682:../Shared/Libraries/STM32F4xx_StdPeriph_Driver/src/stm32f4xx_cryp.c ****                            To clear it, the CRYP core must be disabled and the 
 683:../Shared/Libraries/STM32F4xx_StdPeriph_Driver/src/stm32f4xx_cryp.c ****                            last processing has completed. 
 684:../Shared/Libraries/STM32F4xx_StdPeriph_Driver/src/stm32f4xx_cryp.c **** 
 685:../Shared/Libraries/STM32F4xx_StdPeriph_Driver/src/stm32f4xx_cryp.c ****   Interrupts :
 686:../Shared/Libraries/STM32F4xx_StdPeriph_Driver/src/stm32f4xx_cryp.c ****   ------------
 687:../Shared/Libraries/STM32F4xx_StdPeriph_Driver/src/stm32f4xx_cryp.c **** 
 688:../Shared/Libraries/STM32F4xx_StdPeriph_Driver/src/stm32f4xx_cryp.c ****    1. CRYP_IT_INI   : The input FIFO service interrupt is asserted when there 
 689:../Shared/Libraries/STM32F4xx_StdPeriph_Driver/src/stm32f4xx_cryp.c ****                       are less than 4 words in the input FIFO.
 690:../Shared/Libraries/STM32F4xx_StdPeriph_Driver/src/stm32f4xx_cryp.c ****                       This interrupt is associated to CRYP_FLAG_INRIS flag.
 691:../Shared/Libraries/STM32F4xx_StdPeriph_Driver/src/stm32f4xx_cryp.c **** 
 692:../Shared/Libraries/STM32F4xx_StdPeriph_Driver/src/stm32f4xx_cryp.c ****                 @note This interrupt is cleared by performing write operations 
 693:../Shared/Libraries/STM32F4xx_StdPeriph_Driver/src/stm32f4xx_cryp.c ****                       to the input FIFO until it holds 4 or more words. The 
 694:../Shared/Libraries/STM32F4xx_StdPeriph_Driver/src/stm32f4xx_cryp.c ****                       input FIFO service interrupt INMIS is enabled with the 
 695:../Shared/Libraries/STM32F4xx_StdPeriph_Driver/src/stm32f4xx_cryp.c ****                       CRYP enable bit. Consequently, when CRYP is disabled, the 
 696:../Shared/Libraries/STM32F4xx_StdPeriph_Driver/src/stm32f4xx_cryp.c ****                       INMIS signal is low even if the input FIFO is empty.
 697:../Shared/Libraries/STM32F4xx_StdPeriph_Driver/src/stm32f4xx_cryp.c **** 
 698:../Shared/Libraries/STM32F4xx_StdPeriph_Driver/src/stm32f4xx_cryp.c **** 
 699:../Shared/Libraries/STM32F4xx_StdPeriph_Driver/src/stm32f4xx_cryp.c **** 
 700:../Shared/Libraries/STM32F4xx_StdPeriph_Driver/src/stm32f4xx_cryp.c ****    2. CRYP_IT_OUTI  : The output FIFO service interrupt is asserted when there 
 701:../Shared/Libraries/STM32F4xx_StdPeriph_Driver/src/stm32f4xx_cryp.c ****                       is one or more (32-bit word) data items in the output FIFO.
 702:../Shared/Libraries/STM32F4xx_StdPeriph_Driver/src/stm32f4xx_cryp.c ****                       This interrupt is associated to CRYP_FLAG_OUTRIS flag.
 703:../Shared/Libraries/STM32F4xx_StdPeriph_Driver/src/stm32f4xx_cryp.c **** 
 704:../Shared/Libraries/STM32F4xx_StdPeriph_Driver/src/stm32f4xx_cryp.c ****                 @note This interrupt is cleared by reading data from the output 
 705:../Shared/Libraries/STM32F4xx_StdPeriph_Driver/src/stm32f4xx_cryp.c ****                       FIFO until there is no valid (32-bit) word left (that is, 
 706:../Shared/Libraries/STM32F4xx_StdPeriph_Driver/src/stm32f4xx_cryp.c ****                       the interrupt follows the state of the OFNE (output FIFO 
 707:../Shared/Libraries/STM32F4xx_StdPeriph_Driver/src/stm32f4xx_cryp.c ****                       not empty) flag).
 708:../Shared/Libraries/STM32F4xx_StdPeriph_Driver/src/stm32f4xx_cryp.c **** 
 709:../Shared/Libraries/STM32F4xx_StdPeriph_Driver/src/stm32f4xx_cryp.c **** 
 710:../Shared/Libraries/STM32F4xx_StdPeriph_Driver/src/stm32f4xx_cryp.c ****   Managing the CRYP controller events :
 711:../Shared/Libraries/STM32F4xx_StdPeriph_Driver/src/stm32f4xx_cryp.c ****   ------------------------------------ 
 712:../Shared/Libraries/STM32F4xx_StdPeriph_Driver/src/stm32f4xx_cryp.c ****   The user should identify which mode will be used in his application to manage 
 713:../Shared/Libraries/STM32F4xx_StdPeriph_Driver/src/stm32f4xx_cryp.c ****   the CRYP controller events: Polling mode or Interrupt mode.
 714:../Shared/Libraries/STM32F4xx_StdPeriph_Driver/src/stm32f4xx_cryp.c **** 
 715:../Shared/Libraries/STM32F4xx_StdPeriph_Driver/src/stm32f4xx_cryp.c ****   1.  In the Polling Mode it is advised to use the following functions:
 716:../Shared/Libraries/STM32F4xx_StdPeriph_Driver/src/stm32f4xx_cryp.c ****       - CRYP_GetFlagStatus() : to check if flags events occur. 
 717:../Shared/Libraries/STM32F4xx_StdPeriph_Driver/src/stm32f4xx_cryp.c **** 
 718:../Shared/Libraries/STM32F4xx_StdPeriph_Driver/src/stm32f4xx_cryp.c ****   @note  The CRYPT flags do not need to be cleared since they are cleared as 
 719:../Shared/Libraries/STM32F4xx_StdPeriph_Driver/src/stm32f4xx_cryp.c ****          soon as the associated event are reset.   
 720:../Shared/Libraries/STM32F4xx_StdPeriph_Driver/src/stm32f4xx_cryp.c **** 
 721:../Shared/Libraries/STM32F4xx_StdPeriph_Driver/src/stm32f4xx_cryp.c **** 
 722:../Shared/Libraries/STM32F4xx_StdPeriph_Driver/src/stm32f4xx_cryp.c ****   2.  In the Interrupt Mode it is advised to use the following functions:
 723:../Shared/Libraries/STM32F4xx_StdPeriph_Driver/src/stm32f4xx_cryp.c ****       - CRYP_ITConfig()       : to enable or disable the interrupt source.
 724:../Shared/Libraries/STM32F4xx_StdPeriph_Driver/src/stm32f4xx_cryp.c ****       - CRYP_GetITStatus()    : to check if Interrupt occurs.
 725:../Shared/Libraries/STM32F4xx_StdPeriph_Driver/src/stm32f4xx_cryp.c **** 
 726:../Shared/Libraries/STM32F4xx_StdPeriph_Driver/src/stm32f4xx_cryp.c ****   @note  The CRYPT interrupts have no pending bits, the interrupt is cleared as 
 727:../Shared/Libraries/STM32F4xx_StdPeriph_Driver/src/stm32f4xx_cryp.c ****          soon as the associated event is reset. 
 728:../Shared/Libraries/STM32F4xx_StdPeriph_Driver/src/stm32f4xx_cryp.c **** 
 729:../Shared/Libraries/STM32F4xx_StdPeriph_Driver/src/stm32f4xx_cryp.c **** @endverbatim
 730:../Shared/Libraries/STM32F4xx_StdPeriph_Driver/src/stm32f4xx_cryp.c ****   * @{
 731:../Shared/Libraries/STM32F4xx_StdPeriph_Driver/src/stm32f4xx_cryp.c ****   */ 
 732:../Shared/Libraries/STM32F4xx_StdPeriph_Driver/src/stm32f4xx_cryp.c **** 
ARM GAS  /tmp/ccXjhHbZ.s 			page 35


 733:../Shared/Libraries/STM32F4xx_StdPeriph_Driver/src/stm32f4xx_cryp.c **** /**
 734:../Shared/Libraries/STM32F4xx_StdPeriph_Driver/src/stm32f4xx_cryp.c ****   * @brief  Enables or disables the specified CRYP interrupts.
 735:../Shared/Libraries/STM32F4xx_StdPeriph_Driver/src/stm32f4xx_cryp.c ****   * @param  CRYP_IT: specifies the CRYP interrupt source to be enabled or disabled.
 736:../Shared/Libraries/STM32F4xx_StdPeriph_Driver/src/stm32f4xx_cryp.c ****   *          This parameter can be any combination of the following values:
 737:../Shared/Libraries/STM32F4xx_StdPeriph_Driver/src/stm32f4xx_cryp.c ****   *            @arg CRYP_IT_INI: Input FIFO interrupt
 738:../Shared/Libraries/STM32F4xx_StdPeriph_Driver/src/stm32f4xx_cryp.c ****   *            @arg CRYP_IT_OUTI: Output FIFO interrupt
 739:../Shared/Libraries/STM32F4xx_StdPeriph_Driver/src/stm32f4xx_cryp.c ****   * @param  NewState: new state of the specified CRYP interrupt.
 740:../Shared/Libraries/STM32F4xx_StdPeriph_Driver/src/stm32f4xx_cryp.c ****   *           This parameter can be: ENABLE or DISABLE.
 741:../Shared/Libraries/STM32F4xx_StdPeriph_Driver/src/stm32f4xx_cryp.c ****   * @retval None
 742:../Shared/Libraries/STM32F4xx_StdPeriph_Driver/src/stm32f4xx_cryp.c ****   */
 743:../Shared/Libraries/STM32F4xx_StdPeriph_Driver/src/stm32f4xx_cryp.c **** void CRYP_ITConfig(uint8_t CRYP_IT, FunctionalState NewState)
 744:../Shared/Libraries/STM32F4xx_StdPeriph_Driver/src/stm32f4xx_cryp.c **** {
 1227              		.loc 1 744 1
 1228              		.cfi_startproc
 1229              		@ args = 0, pretend = 0, frame = 8
 1230              		@ frame_needed = 1, uses_anonymous_args = 0
 1231              		@ link register save eliminated.
 1232 0000 80B4     		push	{r7}
 1233              	.LCFI76:
 1234              		.cfi_def_cfa_offset 4
 1235              		.cfi_offset 7, -4
 1236 0002 83B0     		sub	sp, sp, #12
 1237              	.LCFI77:
 1238              		.cfi_def_cfa_offset 16
 1239 0004 00AF     		add	r7, sp, #0
 1240              	.LCFI78:
 1241              		.cfi_def_cfa_register 7
 1242 0006 0346     		mov	r3, r0
 1243 0008 0A46     		mov	r2, r1
 1244 000a FB71     		strb	r3, [r7, #7]
 1245 000c 1346     		mov	r3, r2
 1246 000e BB71     		strb	r3, [r7, #6]
 745:../Shared/Libraries/STM32F4xx_StdPeriph_Driver/src/stm32f4xx_cryp.c ****   /* Check the parameters */
 746:../Shared/Libraries/STM32F4xx_StdPeriph_Driver/src/stm32f4xx_cryp.c ****   assert_param(IS_CRYP_CONFIG_IT(CRYP_IT));
 747:../Shared/Libraries/STM32F4xx_StdPeriph_Driver/src/stm32f4xx_cryp.c ****   assert_param(IS_FUNCTIONAL_STATE(NewState));
 748:../Shared/Libraries/STM32F4xx_StdPeriph_Driver/src/stm32f4xx_cryp.c **** 
 749:../Shared/Libraries/STM32F4xx_StdPeriph_Driver/src/stm32f4xx_cryp.c ****   if (NewState != DISABLE)
 1247              		.loc 1 749 6
 1248 0010 BB79     		ldrb	r3, [r7, #6]	@ zero_extendqisi2
 1249 0012 002B     		cmp	r3, #0
 1250 0014 06D0     		beq	.L52
 750:../Shared/Libraries/STM32F4xx_StdPeriph_Driver/src/stm32f4xx_cryp.c ****   {
 751:../Shared/Libraries/STM32F4xx_StdPeriph_Driver/src/stm32f4xx_cryp.c ****     /* Enable the selected CRYP interrupt */
 752:../Shared/Libraries/STM32F4xx_StdPeriph_Driver/src/stm32f4xx_cryp.c ****     CRYP->IMSCR |= CRYP_IT;
 1251              		.loc 1 752 9
 1252 0016 0B4B     		ldr	r3, .L55
 1253 0018 5A69     		ldr	r2, [r3, #20]
 1254              		.loc 1 752 17
 1255 001a FB79     		ldrb	r3, [r7, #7]	@ zero_extendqisi2
 1256              		.loc 1 752 9
 1257 001c 0949     		ldr	r1, .L55
 1258              		.loc 1 752 17
 1259 001e 1343     		orrs	r3, r3, r2
 1260 0020 4B61     		str	r3, [r1, #20]
 753:../Shared/Libraries/STM32F4xx_StdPeriph_Driver/src/stm32f4xx_cryp.c ****   }
 754:../Shared/Libraries/STM32F4xx_StdPeriph_Driver/src/stm32f4xx_cryp.c ****   else
 755:../Shared/Libraries/STM32F4xx_StdPeriph_Driver/src/stm32f4xx_cryp.c ****   {
ARM GAS  /tmp/ccXjhHbZ.s 			page 36


 756:../Shared/Libraries/STM32F4xx_StdPeriph_Driver/src/stm32f4xx_cryp.c ****     /* Disable the selected CRYP interrupt */
 757:../Shared/Libraries/STM32F4xx_StdPeriph_Driver/src/stm32f4xx_cryp.c ****     CRYP->IMSCR &= (uint8_t)~CRYP_IT;
 758:../Shared/Libraries/STM32F4xx_StdPeriph_Driver/src/stm32f4xx_cryp.c ****   }
 759:../Shared/Libraries/STM32F4xx_StdPeriph_Driver/src/stm32f4xx_cryp.c **** }
 1261              		.loc 1 759 1
 1262 0022 08E0     		b	.L54
 1263              	.L52:
 757:../Shared/Libraries/STM32F4xx_StdPeriph_Driver/src/stm32f4xx_cryp.c ****   }
 1264              		.loc 1 757 9
 1265 0024 074B     		ldr	r3, .L55
 1266 0026 5B69     		ldr	r3, [r3, #20]
 757:../Shared/Libraries/STM32F4xx_StdPeriph_Driver/src/stm32f4xx_cryp.c ****   }
 1267              		.loc 1 757 20
 1268 0028 FA79     		ldrb	r2, [r7, #7]
 1269 002a D243     		mvns	r2, r2
 1270 002c D2B2     		uxtb	r2, r2
 1271 002e 1146     		mov	r1, r2
 757:../Shared/Libraries/STM32F4xx_StdPeriph_Driver/src/stm32f4xx_cryp.c ****   }
 1272              		.loc 1 757 9
 1273 0030 044A     		ldr	r2, .L55
 757:../Shared/Libraries/STM32F4xx_StdPeriph_Driver/src/stm32f4xx_cryp.c ****   }
 1274              		.loc 1 757 17
 1275 0032 0B40     		ands	r3, r3, r1
 1276 0034 5361     		str	r3, [r2, #20]
 1277              	.L54:
 1278              		.loc 1 759 1
 1279 0036 00BF     		nop
 1280 0038 0C37     		adds	r7, r7, #12
 1281              	.LCFI79:
 1282              		.cfi_def_cfa_offset 4
 1283 003a BD46     		mov	sp, r7
 1284              	.LCFI80:
 1285              		.cfi_def_cfa_register 13
 1286              		@ sp needed
 1287 003c 5DF8047B 		ldr	r7, [sp], #4
 1288              	.LCFI81:
 1289              		.cfi_restore 7
 1290              		.cfi_def_cfa_offset 0
 1291 0040 7047     		bx	lr
 1292              	.L56:
 1293 0042 00BF     		.align	2
 1294              	.L55:
 1295 0044 00000650 		.word	1342570496
 1296              		.cfi_endproc
 1297              	.LFE124:
 1299              		.section	.text.CRYP_GetITStatus,"ax",%progbits
 1300              		.align	1
 1301              		.global	CRYP_GetITStatus
 1302              		.syntax unified
 1303              		.thumb
 1304              		.thumb_func
 1306              	CRYP_GetITStatus:
 1307              	.LFB125:
 760:../Shared/Libraries/STM32F4xx_StdPeriph_Driver/src/stm32f4xx_cryp.c **** 
 761:../Shared/Libraries/STM32F4xx_StdPeriph_Driver/src/stm32f4xx_cryp.c **** /**
 762:../Shared/Libraries/STM32F4xx_StdPeriph_Driver/src/stm32f4xx_cryp.c ****   * @brief  Checks whether the specified CRYP interrupt has occurred or not.
 763:../Shared/Libraries/STM32F4xx_StdPeriph_Driver/src/stm32f4xx_cryp.c ****   * @note   This function checks the status of the masked interrupt (i.e the 
ARM GAS  /tmp/ccXjhHbZ.s 			page 37


 764:../Shared/Libraries/STM32F4xx_StdPeriph_Driver/src/stm32f4xx_cryp.c ****   *         interrupt should be previously enabled).     
 765:../Shared/Libraries/STM32F4xx_StdPeriph_Driver/src/stm32f4xx_cryp.c ****   * @param  CRYP_IT: specifies the CRYP (masked) interrupt source to check.
 766:../Shared/Libraries/STM32F4xx_StdPeriph_Driver/src/stm32f4xx_cryp.c ****   *           This parameter can be one of the following values:
 767:../Shared/Libraries/STM32F4xx_StdPeriph_Driver/src/stm32f4xx_cryp.c ****   *            @arg CRYP_IT_INI: Input FIFO interrupt
 768:../Shared/Libraries/STM32F4xx_StdPeriph_Driver/src/stm32f4xx_cryp.c ****   *            @arg CRYP_IT_OUTI: Output FIFO interrupt
 769:../Shared/Libraries/STM32F4xx_StdPeriph_Driver/src/stm32f4xx_cryp.c ****   * @retval The new state of CRYP_IT (SET or RESET).
 770:../Shared/Libraries/STM32F4xx_StdPeriph_Driver/src/stm32f4xx_cryp.c ****   */
 771:../Shared/Libraries/STM32F4xx_StdPeriph_Driver/src/stm32f4xx_cryp.c **** ITStatus CRYP_GetITStatus(uint8_t CRYP_IT)
 772:../Shared/Libraries/STM32F4xx_StdPeriph_Driver/src/stm32f4xx_cryp.c **** {
 1308              		.loc 1 772 1
 1309              		.cfi_startproc
 1310              		@ args = 0, pretend = 0, frame = 16
 1311              		@ frame_needed = 1, uses_anonymous_args = 0
 1312              		@ link register save eliminated.
 1313 0000 80B4     		push	{r7}
 1314              	.LCFI82:
 1315              		.cfi_def_cfa_offset 4
 1316              		.cfi_offset 7, -4
 1317 0002 85B0     		sub	sp, sp, #20
 1318              	.LCFI83:
 1319              		.cfi_def_cfa_offset 24
 1320 0004 00AF     		add	r7, sp, #0
 1321              	.LCFI84:
 1322              		.cfi_def_cfa_register 7
 1323 0006 0346     		mov	r3, r0
 1324 0008 FB71     		strb	r3, [r7, #7]
 773:../Shared/Libraries/STM32F4xx_StdPeriph_Driver/src/stm32f4xx_cryp.c ****   ITStatus bitstatus = RESET;
 1325              		.loc 1 773 12
 1326 000a 0023     		movs	r3, #0
 1327 000c FB73     		strb	r3, [r7, #15]
 774:../Shared/Libraries/STM32F4xx_StdPeriph_Driver/src/stm32f4xx_cryp.c ****   /* Check the parameters */
 775:../Shared/Libraries/STM32F4xx_StdPeriph_Driver/src/stm32f4xx_cryp.c ****   assert_param(IS_CRYP_GET_IT(CRYP_IT));
 776:../Shared/Libraries/STM32F4xx_StdPeriph_Driver/src/stm32f4xx_cryp.c **** 
 777:../Shared/Libraries/STM32F4xx_StdPeriph_Driver/src/stm32f4xx_cryp.c ****   /* Check the status of the specified CRYP interrupt */
 778:../Shared/Libraries/STM32F4xx_StdPeriph_Driver/src/stm32f4xx_cryp.c ****   if ((CRYP->MISR &  CRYP_IT) != (uint8_t)RESET)
 1328              		.loc 1 778 12
 1329 000e 094B     		ldr	r3, .L61
 1330 0010 DA69     		ldr	r2, [r3, #28]
 1331              		.loc 1 778 19
 1332 0012 FB79     		ldrb	r3, [r7, #7]	@ zero_extendqisi2
 1333 0014 1340     		ands	r3, r3, r2
 1334              		.loc 1 778 6
 1335 0016 002B     		cmp	r3, #0
 1336 0018 02D0     		beq	.L58
 779:../Shared/Libraries/STM32F4xx_StdPeriph_Driver/src/stm32f4xx_cryp.c ****   {
 780:../Shared/Libraries/STM32F4xx_StdPeriph_Driver/src/stm32f4xx_cryp.c ****     /* CRYP_IT is set */
 781:../Shared/Libraries/STM32F4xx_StdPeriph_Driver/src/stm32f4xx_cryp.c ****     bitstatus = SET;
 1337              		.loc 1 781 15
 1338 001a 0123     		movs	r3, #1
 1339 001c FB73     		strb	r3, [r7, #15]
 1340 001e 01E0     		b	.L59
 1341              	.L58:
 782:../Shared/Libraries/STM32F4xx_StdPeriph_Driver/src/stm32f4xx_cryp.c ****   }
 783:../Shared/Libraries/STM32F4xx_StdPeriph_Driver/src/stm32f4xx_cryp.c ****   else
 784:../Shared/Libraries/STM32F4xx_StdPeriph_Driver/src/stm32f4xx_cryp.c ****   {
 785:../Shared/Libraries/STM32F4xx_StdPeriph_Driver/src/stm32f4xx_cryp.c ****     /* CRYP_IT is reset */
 786:../Shared/Libraries/STM32F4xx_StdPeriph_Driver/src/stm32f4xx_cryp.c ****     bitstatus = RESET;
ARM GAS  /tmp/ccXjhHbZ.s 			page 38


 1342              		.loc 1 786 15
 1343 0020 0023     		movs	r3, #0
 1344 0022 FB73     		strb	r3, [r7, #15]
 1345              	.L59:
 787:../Shared/Libraries/STM32F4xx_StdPeriph_Driver/src/stm32f4xx_cryp.c ****   }
 788:../Shared/Libraries/STM32F4xx_StdPeriph_Driver/src/stm32f4xx_cryp.c ****   /* Return the CRYP_IT status */
 789:../Shared/Libraries/STM32F4xx_StdPeriph_Driver/src/stm32f4xx_cryp.c ****   return bitstatus;
 1346              		.loc 1 789 10
 1347 0024 FB7B     		ldrb	r3, [r7, #15]	@ zero_extendqisi2
 790:../Shared/Libraries/STM32F4xx_StdPeriph_Driver/src/stm32f4xx_cryp.c **** }
 1348              		.loc 1 790 1
 1349 0026 1846     		mov	r0, r3
 1350 0028 1437     		adds	r7, r7, #20
 1351              	.LCFI85:
 1352              		.cfi_def_cfa_offset 4
 1353 002a BD46     		mov	sp, r7
 1354              	.LCFI86:
 1355              		.cfi_def_cfa_register 13
 1356              		@ sp needed
 1357 002c 5DF8047B 		ldr	r7, [sp], #4
 1358              	.LCFI87:
 1359              		.cfi_restore 7
 1360              		.cfi_def_cfa_offset 0
 1361 0030 7047     		bx	lr
 1362              	.L62:
 1363 0032 00BF     		.align	2
 1364              	.L61:
 1365 0034 00000650 		.word	1342570496
 1366              		.cfi_endproc
 1367              	.LFE125:
 1369              		.section	.text.CRYP_GetFlagStatus,"ax",%progbits
 1370              		.align	1
 1371              		.global	CRYP_GetFlagStatus
 1372              		.syntax unified
 1373              		.thumb
 1374              		.thumb_func
 1376              	CRYP_GetFlagStatus:
 1377              	.LFB126:
 791:../Shared/Libraries/STM32F4xx_StdPeriph_Driver/src/stm32f4xx_cryp.c **** 
 792:../Shared/Libraries/STM32F4xx_StdPeriph_Driver/src/stm32f4xx_cryp.c **** /**
 793:../Shared/Libraries/STM32F4xx_StdPeriph_Driver/src/stm32f4xx_cryp.c ****   * @brief  Checks whether the specified CRYP flag is set or not.
 794:../Shared/Libraries/STM32F4xx_StdPeriph_Driver/src/stm32f4xx_cryp.c ****   * @param  CRYP_FLAG: specifies the CRYP flag to check.
 795:../Shared/Libraries/STM32F4xx_StdPeriph_Driver/src/stm32f4xx_cryp.c ****   *          This parameter can be one of the following values:
 796:../Shared/Libraries/STM32F4xx_StdPeriph_Driver/src/stm32f4xx_cryp.c ****   *            @arg CRYP_FLAG_IFEM: Input FIFO Empty flag.
 797:../Shared/Libraries/STM32F4xx_StdPeriph_Driver/src/stm32f4xx_cryp.c ****   *            @arg CRYP_FLAG_IFNF: Input FIFO Not Full flag.
 798:../Shared/Libraries/STM32F4xx_StdPeriph_Driver/src/stm32f4xx_cryp.c ****   *            @arg CRYP_FLAG_OFNE: Output FIFO Not Empty flag.
 799:../Shared/Libraries/STM32F4xx_StdPeriph_Driver/src/stm32f4xx_cryp.c ****   *            @arg CRYP_FLAG_OFFU: Output FIFO Full flag.
 800:../Shared/Libraries/STM32F4xx_StdPeriph_Driver/src/stm32f4xx_cryp.c ****   *            @arg CRYP_FLAG_BUSY: Busy flag.
 801:../Shared/Libraries/STM32F4xx_StdPeriph_Driver/src/stm32f4xx_cryp.c ****   *            @arg CRYP_FLAG_OUTRIS: Output FIFO raw interrupt flag.
 802:../Shared/Libraries/STM32F4xx_StdPeriph_Driver/src/stm32f4xx_cryp.c ****   *            @arg CRYP_FLAG_INRIS: Input FIFO raw interrupt flag.
 803:../Shared/Libraries/STM32F4xx_StdPeriph_Driver/src/stm32f4xx_cryp.c ****   * @retval The new state of CRYP_FLAG (SET or RESET).
 804:../Shared/Libraries/STM32F4xx_StdPeriph_Driver/src/stm32f4xx_cryp.c ****   */
 805:../Shared/Libraries/STM32F4xx_StdPeriph_Driver/src/stm32f4xx_cryp.c **** FlagStatus CRYP_GetFlagStatus(uint8_t CRYP_FLAG)
 806:../Shared/Libraries/STM32F4xx_StdPeriph_Driver/src/stm32f4xx_cryp.c **** {
 1378              		.loc 1 806 1
 1379              		.cfi_startproc
 1380              		@ args = 0, pretend = 0, frame = 16
ARM GAS  /tmp/ccXjhHbZ.s 			page 39


 1381              		@ frame_needed = 1, uses_anonymous_args = 0
 1382              		@ link register save eliminated.
 1383 0000 80B4     		push	{r7}
 1384              	.LCFI88:
 1385              		.cfi_def_cfa_offset 4
 1386              		.cfi_offset 7, -4
 1387 0002 85B0     		sub	sp, sp, #20
 1388              	.LCFI89:
 1389              		.cfi_def_cfa_offset 24
 1390 0004 00AF     		add	r7, sp, #0
 1391              	.LCFI90:
 1392              		.cfi_def_cfa_register 7
 1393 0006 0346     		mov	r3, r0
 1394 0008 FB71     		strb	r3, [r7, #7]
 807:../Shared/Libraries/STM32F4xx_StdPeriph_Driver/src/stm32f4xx_cryp.c ****   FlagStatus bitstatus = RESET;
 1395              		.loc 1 807 14
 1396 000a 0023     		movs	r3, #0
 1397 000c FB73     		strb	r3, [r7, #15]
 808:../Shared/Libraries/STM32F4xx_StdPeriph_Driver/src/stm32f4xx_cryp.c ****   uint32_t tempreg = 0;
 1398              		.loc 1 808 12
 1399 000e 0023     		movs	r3, #0
 1400 0010 BB60     		str	r3, [r7, #8]
 809:../Shared/Libraries/STM32F4xx_StdPeriph_Driver/src/stm32f4xx_cryp.c **** 
 810:../Shared/Libraries/STM32F4xx_StdPeriph_Driver/src/stm32f4xx_cryp.c ****   /* Check the parameters */
 811:../Shared/Libraries/STM32F4xx_StdPeriph_Driver/src/stm32f4xx_cryp.c ****   assert_param(IS_CRYP_GET_FLAG(CRYP_FLAG));
 812:../Shared/Libraries/STM32F4xx_StdPeriph_Driver/src/stm32f4xx_cryp.c **** 
 813:../Shared/Libraries/STM32F4xx_StdPeriph_Driver/src/stm32f4xx_cryp.c ****   /* check if the FLAG is in RISR register */
 814:../Shared/Libraries/STM32F4xx_StdPeriph_Driver/src/stm32f4xx_cryp.c ****   if ((CRYP_FLAG & FLAG_MASK) != 0x00) 
 1401              		.loc 1 814 18
 1402 0012 FB79     		ldrb	r3, [r7, #7]	@ zero_extendqisi2
 1403 0014 03F02003 		and	r3, r3, #32
 1404              		.loc 1 814 6
 1405 0018 002B     		cmp	r3, #0
 1406 001a 03D0     		beq	.L64
 815:../Shared/Libraries/STM32F4xx_StdPeriph_Driver/src/stm32f4xx_cryp.c ****   {
 816:../Shared/Libraries/STM32F4xx_StdPeriph_Driver/src/stm32f4xx_cryp.c ****     tempreg = CRYP->RISR;
 1407              		.loc 1 816 19
 1408 001c 0B4B     		ldr	r3, .L69
 1409              		.loc 1 816 13
 1410 001e 9B69     		ldr	r3, [r3, #24]
 1411 0020 BB60     		str	r3, [r7, #8]
 1412 0022 02E0     		b	.L65
 1413              	.L64:
 817:../Shared/Libraries/STM32F4xx_StdPeriph_Driver/src/stm32f4xx_cryp.c ****   }
 818:../Shared/Libraries/STM32F4xx_StdPeriph_Driver/src/stm32f4xx_cryp.c ****   else  /* The FLAG is in SR register */
 819:../Shared/Libraries/STM32F4xx_StdPeriph_Driver/src/stm32f4xx_cryp.c ****   {
 820:../Shared/Libraries/STM32F4xx_StdPeriph_Driver/src/stm32f4xx_cryp.c ****     tempreg = CRYP->SR;
 1414              		.loc 1 820 19
 1415 0024 094B     		ldr	r3, .L69
 1416              		.loc 1 820 13
 1417 0026 5B68     		ldr	r3, [r3, #4]
 1418 0028 BB60     		str	r3, [r7, #8]
 1419              	.L65:
 821:../Shared/Libraries/STM32F4xx_StdPeriph_Driver/src/stm32f4xx_cryp.c ****   }
 822:../Shared/Libraries/STM32F4xx_StdPeriph_Driver/src/stm32f4xx_cryp.c **** 
 823:../Shared/Libraries/STM32F4xx_StdPeriph_Driver/src/stm32f4xx_cryp.c **** 
 824:../Shared/Libraries/STM32F4xx_StdPeriph_Driver/src/stm32f4xx_cryp.c ****   /* Check the status of the specified CRYP flag */
ARM GAS  /tmp/ccXjhHbZ.s 			page 40


 825:../Shared/Libraries/STM32F4xx_StdPeriph_Driver/src/stm32f4xx_cryp.c ****   if ((tempreg & CRYP_FLAG ) != (uint8_t)RESET)
 1420              		.loc 1 825 16
 1421 002a FA79     		ldrb	r2, [r7, #7]	@ zero_extendqisi2
 1422 002c BB68     		ldr	r3, [r7, #8]
 1423 002e 1340     		ands	r3, r3, r2
 1424              		.loc 1 825 6
 1425 0030 002B     		cmp	r3, #0
 1426 0032 02D0     		beq	.L66
 826:../Shared/Libraries/STM32F4xx_StdPeriph_Driver/src/stm32f4xx_cryp.c ****   {
 827:../Shared/Libraries/STM32F4xx_StdPeriph_Driver/src/stm32f4xx_cryp.c ****     /* CRYP_FLAG is set */
 828:../Shared/Libraries/STM32F4xx_StdPeriph_Driver/src/stm32f4xx_cryp.c ****     bitstatus = SET;
 1427              		.loc 1 828 15
 1428 0034 0123     		movs	r3, #1
 1429 0036 FB73     		strb	r3, [r7, #15]
 1430 0038 01E0     		b	.L67
 1431              	.L66:
 829:../Shared/Libraries/STM32F4xx_StdPeriph_Driver/src/stm32f4xx_cryp.c ****   }
 830:../Shared/Libraries/STM32F4xx_StdPeriph_Driver/src/stm32f4xx_cryp.c ****   else
 831:../Shared/Libraries/STM32F4xx_StdPeriph_Driver/src/stm32f4xx_cryp.c ****   {
 832:../Shared/Libraries/STM32F4xx_StdPeriph_Driver/src/stm32f4xx_cryp.c ****     /* CRYP_FLAG is reset */
 833:../Shared/Libraries/STM32F4xx_StdPeriph_Driver/src/stm32f4xx_cryp.c ****     bitstatus = RESET;
 1432              		.loc 1 833 15
 1433 003a 0023     		movs	r3, #0
 1434 003c FB73     		strb	r3, [r7, #15]
 1435              	.L67:
 834:../Shared/Libraries/STM32F4xx_StdPeriph_Driver/src/stm32f4xx_cryp.c ****   }
 835:../Shared/Libraries/STM32F4xx_StdPeriph_Driver/src/stm32f4xx_cryp.c **** 
 836:../Shared/Libraries/STM32F4xx_StdPeriph_Driver/src/stm32f4xx_cryp.c ****   /* Return the CRYP_FLAG status */
 837:../Shared/Libraries/STM32F4xx_StdPeriph_Driver/src/stm32f4xx_cryp.c ****   return  bitstatus;
 1436              		.loc 1 837 11
 1437 003e FB7B     		ldrb	r3, [r7, #15]	@ zero_extendqisi2
 838:../Shared/Libraries/STM32F4xx_StdPeriph_Driver/src/stm32f4xx_cryp.c **** }
 1438              		.loc 1 838 1
 1439 0040 1846     		mov	r0, r3
 1440 0042 1437     		adds	r7, r7, #20
 1441              	.LCFI91:
 1442              		.cfi_def_cfa_offset 4
 1443 0044 BD46     		mov	sp, r7
 1444              	.LCFI92:
 1445              		.cfi_def_cfa_register 13
 1446              		@ sp needed
 1447 0046 5DF8047B 		ldr	r7, [sp], #4
 1448              	.LCFI93:
 1449              		.cfi_restore 7
 1450              		.cfi_def_cfa_offset 0
 1451 004a 7047     		bx	lr
 1452              	.L70:
 1453              		.align	2
 1454              	.L69:
 1455 004c 00000650 		.word	1342570496
 1456              		.cfi_endproc
 1457              	.LFE126:
 1459              		.text
 1460              	.Letext0:
 1461              		.file 2 "/usr/arm-none-eabi/include/machine/_default_types.h"
 1462              		.file 3 "/usr/arm-none-eabi/include/sys/_stdint.h"
 1463              		.file 4 "../Shared/Libraries/CMSIS/Device/ST/STM32F4xx/Include/stm32f4xx.h"
ARM GAS  /tmp/ccXjhHbZ.s 			page 41


 1464              		.file 5 "../Shared/Libraries/STM32F4xx_StdPeriph_Driver/inc/stm32f4xx_cryp.h"
 1465              		.file 6 "../Shared/Libraries/STM32F4xx_StdPeriph_Driver/inc/stm32f4xx_rcc.h"
ARM GAS  /tmp/ccXjhHbZ.s 			page 42

