ARM GAS  /tmp/cctIRrNQ.s 			page 1


   1              		.cpu cortex-m4
   2              		.arch armv7e-m
   3              		.fpu fpv4-sp-d16
   4              		.eabi_attribute 27, 1
   5              		.eabi_attribute 28, 1
   6              		.eabi_attribute 20, 1
   7              		.eabi_attribute 21, 1
   8              		.eabi_attribute 23, 3
   9              		.eabi_attribute 24, 1
  10              		.eabi_attribute 25, 1
  11              		.eabi_attribute 26, 1
  12              		.eabi_attribute 30, 6
  13              		.eabi_attribute 34, 1
  14              		.eabi_attribute 18, 4
  15              		.file	"stm32f4xx_rtc.c"
  16              		.text
  17              	.Ltext0:
  18              		.cfi_sections	.debug_frame
  19              		.file 1 "../Shared/Libraries/STM32F4xx_StdPeriph_Driver/src/stm32f4xx_rtc.c"
  20              		.section	.text.RTC_DeInit,"ax",%progbits
  21              		.align	1
  22              		.global	RTC_DeInit
  23              		.syntax unified
  24              		.thumb
  25              		.thumb_func
  27              	RTC_DeInit:
  28              	.LFB110:
   1:../Shared/Libraries/STM32F4xx_StdPeriph_Driver/src/stm32f4xx_rtc.c **** /**
   2:../Shared/Libraries/STM32F4xx_StdPeriph_Driver/src/stm32f4xx_rtc.c ****   ******************************************************************************
   3:../Shared/Libraries/STM32F4xx_StdPeriph_Driver/src/stm32f4xx_rtc.c ****   * @file    stm32f4xx_rtc.c
   4:../Shared/Libraries/STM32F4xx_StdPeriph_Driver/src/stm32f4xx_rtc.c ****   * @author  MCD Application Team
   5:../Shared/Libraries/STM32F4xx_StdPeriph_Driver/src/stm32f4xx_rtc.c ****   * @version V1.0.2
   6:../Shared/Libraries/STM32F4xx_StdPeriph_Driver/src/stm32f4xx_rtc.c ****   * @date    05-March-2012
   7:../Shared/Libraries/STM32F4xx_StdPeriph_Driver/src/stm32f4xx_rtc.c ****   * @brief   This file provides firmware functions to manage the following 
   8:../Shared/Libraries/STM32F4xx_StdPeriph_Driver/src/stm32f4xx_rtc.c ****   *          functionalities of the Real-Time Clock (RTC) peripheral:
   9:../Shared/Libraries/STM32F4xx_StdPeriph_Driver/src/stm32f4xx_rtc.c ****   *           - Initialization
  10:../Shared/Libraries/STM32F4xx_StdPeriph_Driver/src/stm32f4xx_rtc.c ****   *           - Calendar (Time and Date) configuration
  11:../Shared/Libraries/STM32F4xx_StdPeriph_Driver/src/stm32f4xx_rtc.c ****   *           - Alarms (Alarm A and Alarm B) configuration
  12:../Shared/Libraries/STM32F4xx_StdPeriph_Driver/src/stm32f4xx_rtc.c ****   *           - WakeUp Timer configuration
  13:../Shared/Libraries/STM32F4xx_StdPeriph_Driver/src/stm32f4xx_rtc.c ****   *           - Daylight Saving configuration
  14:../Shared/Libraries/STM32F4xx_StdPeriph_Driver/src/stm32f4xx_rtc.c ****   *           - Output pin Configuration
  15:../Shared/Libraries/STM32F4xx_StdPeriph_Driver/src/stm32f4xx_rtc.c ****   *           - Coarse digital Calibration configuration
  16:../Shared/Libraries/STM32F4xx_StdPeriph_Driver/src/stm32f4xx_rtc.c ****   *           - Smooth digital Calibration configuration
  17:../Shared/Libraries/STM32F4xx_StdPeriph_Driver/src/stm32f4xx_rtc.c ****   *           - TimeStamp configuration
  18:../Shared/Libraries/STM32F4xx_StdPeriph_Driver/src/stm32f4xx_rtc.c ****   *           - Tampers configuration
  19:../Shared/Libraries/STM32F4xx_StdPeriph_Driver/src/stm32f4xx_rtc.c ****   *           - Backup Data Registers configuration
  20:../Shared/Libraries/STM32F4xx_StdPeriph_Driver/src/stm32f4xx_rtc.c ****   *           - Shift control synchronisation    
  21:../Shared/Libraries/STM32F4xx_StdPeriph_Driver/src/stm32f4xx_rtc.c ****   *           - RTC Tamper and TimeStamp Pins Selection and Output Type Config configuration
  22:../Shared/Libraries/STM32F4xx_StdPeriph_Driver/src/stm32f4xx_rtc.c ****   *           - Interrupts and flags management
  23:../Shared/Libraries/STM32F4xx_StdPeriph_Driver/src/stm32f4xx_rtc.c ****   *
  24:../Shared/Libraries/STM32F4xx_StdPeriph_Driver/src/stm32f4xx_rtc.c ****   *  @verbatim
  25:../Shared/Libraries/STM32F4xx_StdPeriph_Driver/src/stm32f4xx_rtc.c ****   *
  26:../Shared/Libraries/STM32F4xx_StdPeriph_Driver/src/stm32f4xx_rtc.c ****   *          ===================================================================
  27:../Shared/Libraries/STM32F4xx_StdPeriph_Driver/src/stm32f4xx_rtc.c ****   *                               Backup Domain Operating Condition
  28:../Shared/Libraries/STM32F4xx_StdPeriph_Driver/src/stm32f4xx_rtc.c ****   *          ===================================================================
  29:../Shared/Libraries/STM32F4xx_StdPeriph_Driver/src/stm32f4xx_rtc.c ****   *          The real-time clock (RTC), the RTC backup registers, and the backup 
  30:../Shared/Libraries/STM32F4xx_StdPeriph_Driver/src/stm32f4xx_rtc.c ****   *          SRAM (BKP SRAM) can be powered from the VBAT voltage when the main 
ARM GAS  /tmp/cctIRrNQ.s 			page 2


  31:../Shared/Libraries/STM32F4xx_StdPeriph_Driver/src/stm32f4xx_rtc.c ****   *          VDD supply is powered off.
  32:../Shared/Libraries/STM32F4xx_StdPeriph_Driver/src/stm32f4xx_rtc.c ****   *          To retain the content of the RTC backup registers, backup SRAM, 
  33:../Shared/Libraries/STM32F4xx_StdPeriph_Driver/src/stm32f4xx_rtc.c ****   *          and supply the RTC when VDD is turned off, VBAT pin can be connected 
  34:../Shared/Libraries/STM32F4xx_StdPeriph_Driver/src/stm32f4xx_rtc.c ****   *          to an optional standby voltage supplied by a battery or by another 
  35:../Shared/Libraries/STM32F4xx_StdPeriph_Driver/src/stm32f4xx_rtc.c ****   *          source.
  36:../Shared/Libraries/STM32F4xx_StdPeriph_Driver/src/stm32f4xx_rtc.c ****   *
  37:../Shared/Libraries/STM32F4xx_StdPeriph_Driver/src/stm32f4xx_rtc.c ****   *          To allow the RTC to operate even when the main digital supply (VDD) 
  38:../Shared/Libraries/STM32F4xx_StdPeriph_Driver/src/stm32f4xx_rtc.c ****   *          is turned off, the VBAT pin powers the following blocks:
  39:../Shared/Libraries/STM32F4xx_StdPeriph_Driver/src/stm32f4xx_rtc.c ****   *            1 - The RTC
  40:../Shared/Libraries/STM32F4xx_StdPeriph_Driver/src/stm32f4xx_rtc.c ****   *            2 - The LSE oscillator
  41:../Shared/Libraries/STM32F4xx_StdPeriph_Driver/src/stm32f4xx_rtc.c ****   *            3 - The backup SRAM when the low power backup regulator is enabled
  42:../Shared/Libraries/STM32F4xx_StdPeriph_Driver/src/stm32f4xx_rtc.c ****   *            4 - PC13 to PC15 I/Os, plus PI8 I/O (when available)
  43:../Shared/Libraries/STM32F4xx_StdPeriph_Driver/src/stm32f4xx_rtc.c ****   *
  44:../Shared/Libraries/STM32F4xx_StdPeriph_Driver/src/stm32f4xx_rtc.c ****   *          When the backup domain is supplied by VDD (analog switch connected 
  45:../Shared/Libraries/STM32F4xx_StdPeriph_Driver/src/stm32f4xx_rtc.c ****   *          to VDD), the following functions are available:
  46:../Shared/Libraries/STM32F4xx_StdPeriph_Driver/src/stm32f4xx_rtc.c ****   *            1 - PC14 and PC15 can be used as either GPIO or LSE pins
  47:../Shared/Libraries/STM32F4xx_StdPeriph_Driver/src/stm32f4xx_rtc.c ****   *            2 - PC13 can be used as a GPIO or as the RTC_AF1 pin
  48:../Shared/Libraries/STM32F4xx_StdPeriph_Driver/src/stm32f4xx_rtc.c ****   *            3 - PI8 can be used as a GPIO or as the RTC_AF2 pin
  49:../Shared/Libraries/STM32F4xx_StdPeriph_Driver/src/stm32f4xx_rtc.c ****   *
  50:../Shared/Libraries/STM32F4xx_StdPeriph_Driver/src/stm32f4xx_rtc.c ****   *          When the backup domain is supplied by VBAT (analog switch connected 
  51:../Shared/Libraries/STM32F4xx_StdPeriph_Driver/src/stm32f4xx_rtc.c ****   *          to VBAT because VDD is not present), the following functions are available:
  52:../Shared/Libraries/STM32F4xx_StdPeriph_Driver/src/stm32f4xx_rtc.c ****   *            1 - PC14 and PC15 can be used as LSE pins only
  53:../Shared/Libraries/STM32F4xx_StdPeriph_Driver/src/stm32f4xx_rtc.c ****   *            2 - PC13 can be used as the RTC_AF1 pin 
  54:../Shared/Libraries/STM32F4xx_StdPeriph_Driver/src/stm32f4xx_rtc.c ****   *            3 - PI8 can be used as the RTC_AF2 pin
  55:../Shared/Libraries/STM32F4xx_StdPeriph_Driver/src/stm32f4xx_rtc.c ****   *
  56:../Shared/Libraries/STM32F4xx_StdPeriph_Driver/src/stm32f4xx_rtc.c ****   *          ===================================================================
  57:../Shared/Libraries/STM32F4xx_StdPeriph_Driver/src/stm32f4xx_rtc.c ****   *                                    Backup Domain Reset
  58:../Shared/Libraries/STM32F4xx_StdPeriph_Driver/src/stm32f4xx_rtc.c ****   *          ===================================================================
  59:../Shared/Libraries/STM32F4xx_StdPeriph_Driver/src/stm32f4xx_rtc.c ****   *          The backup domain reset sets all RTC registers and the RCC_BDCR 
  60:../Shared/Libraries/STM32F4xx_StdPeriph_Driver/src/stm32f4xx_rtc.c ****   *          register to their reset values. The BKPSRAM is not affected by this
  61:../Shared/Libraries/STM32F4xx_StdPeriph_Driver/src/stm32f4xx_rtc.c ****   *          reset. The only way of resetting the BKPSRAM is through the Flash 
  62:../Shared/Libraries/STM32F4xx_StdPeriph_Driver/src/stm32f4xx_rtc.c ****   *          interface by requesting a protection level change from 1 to 0.
  63:../Shared/Libraries/STM32F4xx_StdPeriph_Driver/src/stm32f4xx_rtc.c ****   *          A backup domain reset is generated when one of the following events
  64:../Shared/Libraries/STM32F4xx_StdPeriph_Driver/src/stm32f4xx_rtc.c ****   *          occurs:
  65:../Shared/Libraries/STM32F4xx_StdPeriph_Driver/src/stm32f4xx_rtc.c ****   *            1 - Software reset, triggered by setting the BDRST bit in the 
  66:../Shared/Libraries/STM32F4xx_StdPeriph_Driver/src/stm32f4xx_rtc.c ****   *                RCC Backup domain control register (RCC_BDCR). You can use the
  67:../Shared/Libraries/STM32F4xx_StdPeriph_Driver/src/stm32f4xx_rtc.c ****   *                RCC_BackupResetCmd().
  68:../Shared/Libraries/STM32F4xx_StdPeriph_Driver/src/stm32f4xx_rtc.c ****   *            2 - VDD or VBAT power on, if both supplies have previously been
  69:../Shared/Libraries/STM32F4xx_StdPeriph_Driver/src/stm32f4xx_rtc.c ****   *                powered off.
  70:../Shared/Libraries/STM32F4xx_StdPeriph_Driver/src/stm32f4xx_rtc.c ****   *
  71:../Shared/Libraries/STM32F4xx_StdPeriph_Driver/src/stm32f4xx_rtc.c ****   *          ===================================================================
  72:../Shared/Libraries/STM32F4xx_StdPeriph_Driver/src/stm32f4xx_rtc.c ****   *                                   Backup Domain Access
  73:../Shared/Libraries/STM32F4xx_StdPeriph_Driver/src/stm32f4xx_rtc.c ****   *          ===================================================================
  74:../Shared/Libraries/STM32F4xx_StdPeriph_Driver/src/stm32f4xx_rtc.c ****   *          After reset, the backup domain (RTC registers, RTC backup data 
  75:../Shared/Libraries/STM32F4xx_StdPeriph_Driver/src/stm32f4xx_rtc.c ****   *          registers and backup SRAM) is protected against possible unwanted 
  76:../Shared/Libraries/STM32F4xx_StdPeriph_Driver/src/stm32f4xx_rtc.c ****   *          write accesses. 
  77:../Shared/Libraries/STM32F4xx_StdPeriph_Driver/src/stm32f4xx_rtc.c ****   *          To enable access to the RTC Domain and RTC registers, proceed as follows:
  78:../Shared/Libraries/STM32F4xx_StdPeriph_Driver/src/stm32f4xx_rtc.c ****   *            - Enable the Power Controller (PWR) APB1 interface clock using the
  79:../Shared/Libraries/STM32F4xx_StdPeriph_Driver/src/stm32f4xx_rtc.c ****   *              RCC_APB1PeriphClockCmd() function.
  80:../Shared/Libraries/STM32F4xx_StdPeriph_Driver/src/stm32f4xx_rtc.c ****   *            - Enable access to RTC domain using the PWR_BackupAccessCmd() function.
  81:../Shared/Libraries/STM32F4xx_StdPeriph_Driver/src/stm32f4xx_rtc.c ****   *            - Select the RTC clock source using the RCC_RTCCLKConfig() function.
  82:../Shared/Libraries/STM32F4xx_StdPeriph_Driver/src/stm32f4xx_rtc.c ****   *            - Enable RTC Clock using the RCC_RTCCLKCmd() function.
  83:../Shared/Libraries/STM32F4xx_StdPeriph_Driver/src/stm32f4xx_rtc.c ****   *
  84:../Shared/Libraries/STM32F4xx_StdPeriph_Driver/src/stm32f4xx_rtc.c ****   *          ===================================================================
  85:../Shared/Libraries/STM32F4xx_StdPeriph_Driver/src/stm32f4xx_rtc.c ****   *                                   RTC Driver: how to use it
  86:../Shared/Libraries/STM32F4xx_StdPeriph_Driver/src/stm32f4xx_rtc.c ****   *          ===================================================================
  87:../Shared/Libraries/STM32F4xx_StdPeriph_Driver/src/stm32f4xx_rtc.c ****   *            - Enable the RTC domain access (see description in the section above)
ARM GAS  /tmp/cctIRrNQ.s 			page 3


  88:../Shared/Libraries/STM32F4xx_StdPeriph_Driver/src/stm32f4xx_rtc.c ****   *            - Configure the RTC Prescaler (Asynchronous and Synchronous) and
  89:../Shared/Libraries/STM32F4xx_StdPeriph_Driver/src/stm32f4xx_rtc.c ****   *              RTC hour format using the RTC_Init() function.
  90:../Shared/Libraries/STM32F4xx_StdPeriph_Driver/src/stm32f4xx_rtc.c ****   *
  91:../Shared/Libraries/STM32F4xx_StdPeriph_Driver/src/stm32f4xx_rtc.c ****   *          Time and Date configuration
  92:../Shared/Libraries/STM32F4xx_StdPeriph_Driver/src/stm32f4xx_rtc.c ****   *          ===========================
  93:../Shared/Libraries/STM32F4xx_StdPeriph_Driver/src/stm32f4xx_rtc.c ****   *            - To configure the RTC Calendar (Time and Date) use the RTC_SetTime()
  94:../Shared/Libraries/STM32F4xx_StdPeriph_Driver/src/stm32f4xx_rtc.c ****   *              and RTC_SetDate() functions.
  95:../Shared/Libraries/STM32F4xx_StdPeriph_Driver/src/stm32f4xx_rtc.c ****   *            - To read the RTC Calendar, use the RTC_GetTime() and RTC_GetDate()
  96:../Shared/Libraries/STM32F4xx_StdPeriph_Driver/src/stm32f4xx_rtc.c ****   *              functions.
  97:../Shared/Libraries/STM32F4xx_StdPeriph_Driver/src/stm32f4xx_rtc.c ****   *            - Use the RTC_DayLightSavingConfig() function to add or sub one
  98:../Shared/Libraries/STM32F4xx_StdPeriph_Driver/src/stm32f4xx_rtc.c ****   *              hour to the RTC Calendar.    
  99:../Shared/Libraries/STM32F4xx_StdPeriph_Driver/src/stm32f4xx_rtc.c ****   *
 100:../Shared/Libraries/STM32F4xx_StdPeriph_Driver/src/stm32f4xx_rtc.c ****   *          Alarm configuration
 101:../Shared/Libraries/STM32F4xx_StdPeriph_Driver/src/stm32f4xx_rtc.c ****   *          ===================
 102:../Shared/Libraries/STM32F4xx_StdPeriph_Driver/src/stm32f4xx_rtc.c ****   *            - To configure the RTC Alarm use the RTC_SetAlarm() function.
 103:../Shared/Libraries/STM32F4xx_StdPeriph_Driver/src/stm32f4xx_rtc.c ****   *            - Enable the selected RTC Alarm using the RTC_AlarmCmd() function
 104:../Shared/Libraries/STM32F4xx_StdPeriph_Driver/src/stm32f4xx_rtc.c ****   *            - To read the RTC Alarm, use the RTC_GetAlarm() function.
 105:../Shared/Libraries/STM32F4xx_StdPeriph_Driver/src/stm32f4xx_rtc.c ****   *            - To read the RTC alarm SubSecond, use the RTC_GetAlarmSubSecond() function.
 106:../Shared/Libraries/STM32F4xx_StdPeriph_Driver/src/stm32f4xx_rtc.c ****   *
 107:../Shared/Libraries/STM32F4xx_StdPeriph_Driver/src/stm32f4xx_rtc.c ****   *          RTC Wakeup configuration
 108:../Shared/Libraries/STM32F4xx_StdPeriph_Driver/src/stm32f4xx_rtc.c ****   *          ========================
 109:../Shared/Libraries/STM32F4xx_StdPeriph_Driver/src/stm32f4xx_rtc.c ****   *            - Configure the RTC Wakeup Clock source use the RTC_WakeUpClockConfig()
 110:../Shared/Libraries/STM32F4xx_StdPeriph_Driver/src/stm32f4xx_rtc.c ****   *              function.
 111:../Shared/Libraries/STM32F4xx_StdPeriph_Driver/src/stm32f4xx_rtc.c ****   *            - Configure the RTC WakeUp Counter using the RTC_SetWakeUpCounter() 
 112:../Shared/Libraries/STM32F4xx_StdPeriph_Driver/src/stm32f4xx_rtc.c ****   *              function  
 113:../Shared/Libraries/STM32F4xx_StdPeriph_Driver/src/stm32f4xx_rtc.c ****   *            - Enable the RTC WakeUp using the RTC_WakeUpCmd() function  
 114:../Shared/Libraries/STM32F4xx_StdPeriph_Driver/src/stm32f4xx_rtc.c ****   *            - To read the RTC WakeUp Counter register, use the RTC_GetWakeUpCounter() 
 115:../Shared/Libraries/STM32F4xx_StdPeriph_Driver/src/stm32f4xx_rtc.c ****   *              function.
 116:../Shared/Libraries/STM32F4xx_StdPeriph_Driver/src/stm32f4xx_rtc.c ****   *
 117:../Shared/Libraries/STM32F4xx_StdPeriph_Driver/src/stm32f4xx_rtc.c ****   *          Outputs configuration
 118:../Shared/Libraries/STM32F4xx_StdPeriph_Driver/src/stm32f4xx_rtc.c ****   *          =====================
 119:../Shared/Libraries/STM32F4xx_StdPeriph_Driver/src/stm32f4xx_rtc.c ****   *          The RTC has 2 different outputs:
 120:../Shared/Libraries/STM32F4xx_StdPeriph_Driver/src/stm32f4xx_rtc.c ****   *            - AFO_ALARM: this output is used to manage the RTC Alarm A, Alarm B
 121:../Shared/Libraries/STM32F4xx_StdPeriph_Driver/src/stm32f4xx_rtc.c ****   *              and WaKeUp signals.          
 122:../Shared/Libraries/STM32F4xx_StdPeriph_Driver/src/stm32f4xx_rtc.c ****   *              To output the selected RTC signal on RTC_AF1 pin, use the 
 123:../Shared/Libraries/STM32F4xx_StdPeriph_Driver/src/stm32f4xx_rtc.c ****   *              RTC_OutputConfig() function.                
 124:../Shared/Libraries/STM32F4xx_StdPeriph_Driver/src/stm32f4xx_rtc.c ****   *            - AFO_CALIB: this output is 512Hz signal or 1Hz .  
 125:../Shared/Libraries/STM32F4xx_StdPeriph_Driver/src/stm32f4xx_rtc.c ****   *              To output the RTC Clock on RTC_AF1 pin, use the RTC_CalibOutputCmd()
 126:../Shared/Libraries/STM32F4xx_StdPeriph_Driver/src/stm32f4xx_rtc.c ****   *              function.
 127:../Shared/Libraries/STM32F4xx_StdPeriph_Driver/src/stm32f4xx_rtc.c ****   *
 128:../Shared/Libraries/STM32F4xx_StdPeriph_Driver/src/stm32f4xx_rtc.c ****   *          Smooth digital Calibration configuration
 129:../Shared/Libraries/STM32F4xx_StdPeriph_Driver/src/stm32f4xx_rtc.c ****   *          =================================    
 130:../Shared/Libraries/STM32F4xx_StdPeriph_Driver/src/stm32f4xx_rtc.c ****   *            - Configure the RTC Original Digital Calibration Value and the corresponding
 131:../Shared/Libraries/STM32F4xx_StdPeriph_Driver/src/stm32f4xx_rtc.c ****   *              calibration cycle period (32s,16s and 8s) using the RTC_SmoothCalibConfig() 
 132:../Shared/Libraries/STM32F4xx_StdPeriph_Driver/src/stm32f4xx_rtc.c ****   *              function.
 133:../Shared/Libraries/STM32F4xx_StdPeriph_Driver/src/stm32f4xx_rtc.c ****   *
 134:../Shared/Libraries/STM32F4xx_StdPeriph_Driver/src/stm32f4xx_rtc.c ****   *          Coarse digital Calibration configuration
 135:../Shared/Libraries/STM32F4xx_StdPeriph_Driver/src/stm32f4xx_rtc.c ****   *          =================================
 136:../Shared/Libraries/STM32F4xx_StdPeriph_Driver/src/stm32f4xx_rtc.c ****   *            - Configure the RTC Coarse Calibration Value and the corresponding
 137:../Shared/Libraries/STM32F4xx_StdPeriph_Driver/src/stm32f4xx_rtc.c ****   *              sign using the RTC_CoarseCalibConfig() function.
 138:../Shared/Libraries/STM32F4xx_StdPeriph_Driver/src/stm32f4xx_rtc.c ****   *            - Enable the RTC Coarse Calibration using the RTC_CoarseCalibCmd() 
 139:../Shared/Libraries/STM32F4xx_StdPeriph_Driver/src/stm32f4xx_rtc.c ****   *              function  
 140:../Shared/Libraries/STM32F4xx_StdPeriph_Driver/src/stm32f4xx_rtc.c ****   *
 141:../Shared/Libraries/STM32F4xx_StdPeriph_Driver/src/stm32f4xx_rtc.c ****   *          TimeStamp configuration
 142:../Shared/Libraries/STM32F4xx_StdPeriph_Driver/src/stm32f4xx_rtc.c ****   *          =======================
 143:../Shared/Libraries/STM32F4xx_StdPeriph_Driver/src/stm32f4xx_rtc.c ****   *            - Configure the RTC_AF1 trigger and enables the RTC TimeStamp 
 144:../Shared/Libraries/STM32F4xx_StdPeriph_Driver/src/stm32f4xx_rtc.c ****   *              using the RTC_TimeStampCmd() function.
ARM GAS  /tmp/cctIRrNQ.s 			page 4


 145:../Shared/Libraries/STM32F4xx_StdPeriph_Driver/src/stm32f4xx_rtc.c ****   *            - To read the RTC TimeStamp Time and Date register, use the 
 146:../Shared/Libraries/STM32F4xx_StdPeriph_Driver/src/stm32f4xx_rtc.c ****   *              RTC_GetTimeStamp() function.
 147:../Shared/Libraries/STM32F4xx_StdPeriph_Driver/src/stm32f4xx_rtc.c ****   *            - To read the RTC TimeStamp SubSecond register, use the 
 148:../Shared/Libraries/STM32F4xx_StdPeriph_Driver/src/stm32f4xx_rtc.c ****   *              RTC_GetTimeStampSubSecond() function.
 149:../Shared/Libraries/STM32F4xx_StdPeriph_Driver/src/stm32f4xx_rtc.c ****   *            - The TAMPER1 alternate function can be mapped either to RTC_AF1(PC13)
 150:../Shared/Libraries/STM32F4xx_StdPeriph_Driver/src/stm32f4xx_rtc.c ****   *              or RTC_AF2 (PI8) depending on the value of TAMP1INSEL bit in 
 151:../Shared/Libraries/STM32F4xx_StdPeriph_Driver/src/stm32f4xx_rtc.c ****   *              RTC_TAFCR register. You can use the  RTC_TamperPinSelection()
 152:../Shared/Libraries/STM32F4xx_StdPeriph_Driver/src/stm32f4xx_rtc.c ****   *              function to select the corresponding pin.     
 153:../Shared/Libraries/STM32F4xx_StdPeriph_Driver/src/stm32f4xx_rtc.c ****   *
 154:../Shared/Libraries/STM32F4xx_StdPeriph_Driver/src/stm32f4xx_rtc.c ****   *          Tamper configuration
 155:../Shared/Libraries/STM32F4xx_StdPeriph_Driver/src/stm32f4xx_rtc.c ****   *          ====================
 156:../Shared/Libraries/STM32F4xx_StdPeriph_Driver/src/stm32f4xx_rtc.c ****   *            - Enable the RTC Tamper using the RTC_TamperCmd() function.
 157:../Shared/Libraries/STM32F4xx_StdPeriph_Driver/src/stm32f4xx_rtc.c ****   *             - Configure the Tamper filter count using RTC_TamperFilterConfig()
 158:../Shared/Libraries/STM32F4xx_StdPeriph_Driver/src/stm32f4xx_rtc.c ****   *              function. 
 159:../Shared/Libraries/STM32F4xx_StdPeriph_Driver/src/stm32f4xx_rtc.c ****   *            - Configure the RTC Tamper trigger Edge or Level according to the Tamper 
 160:../Shared/Libraries/STM32F4xx_StdPeriph_Driver/src/stm32f4xx_rtc.c ****   *              filter (if equal to 0 Edge else Level) value using the RTC_TamperConfig() function
 161:../Shared/Libraries/STM32F4xx_StdPeriph_Driver/src/stm32f4xx_rtc.c ****   *            - Configure the Tamper sampling frequency using RTC_TamperSamplingFreqConfig()
 162:../Shared/Libraries/STM32F4xx_StdPeriph_Driver/src/stm32f4xx_rtc.c ****   *              function.
 163:../Shared/Libraries/STM32F4xx_StdPeriph_Driver/src/stm32f4xx_rtc.c ****   *            - Configure the Tamper precharge or discharge duration using 
 164:../Shared/Libraries/STM32F4xx_StdPeriph_Driver/src/stm32f4xx_rtc.c ****   *              RTC_TamperPinsPrechargeDuration() function.
 165:../Shared/Libraries/STM32F4xx_StdPeriph_Driver/src/stm32f4xx_rtc.c ****   *            - Enable the Tamper Pull-UP using RTC_TamperPullUpDisableCmd() function.
 166:../Shared/Libraries/STM32F4xx_StdPeriph_Driver/src/stm32f4xx_rtc.c ****   *            - Enable the Time stamp on Tamper detection event using  
 167:../Shared/Libraries/STM32F4xx_StdPeriph_Driver/src/stm32f4xx_rtc.c ****   *              RTC_TSOnTamperDetecCmd() function.
 168:../Shared/Libraries/STM32F4xx_StdPeriph_Driver/src/stm32f4xx_rtc.c ****   *            - The TIMESTAMP alternate function can be mapped to either RTC_AF1 
 169:../Shared/Libraries/STM32F4xx_StdPeriph_Driver/src/stm32f4xx_rtc.c ****   *              or RTC_AF2 depending on the value of the TSINSEL bit in the 
 170:../Shared/Libraries/STM32F4xx_StdPeriph_Driver/src/stm32f4xx_rtc.c ****   *              RTC_TAFCR register. You can use the  RTC_TimeStampPinSelection()
 171:../Shared/Libraries/STM32F4xx_StdPeriph_Driver/src/stm32f4xx_rtc.c ****   *              function to select the corresponding pin. 
 172:../Shared/Libraries/STM32F4xx_StdPeriph_Driver/src/stm32f4xx_rtc.c ****   *
 173:../Shared/Libraries/STM32F4xx_StdPeriph_Driver/src/stm32f4xx_rtc.c ****   *          Backup Data Registers configuration
 174:../Shared/Libraries/STM32F4xx_StdPeriph_Driver/src/stm32f4xx_rtc.c ****   *          ===================================
 175:../Shared/Libraries/STM32F4xx_StdPeriph_Driver/src/stm32f4xx_rtc.c ****   *            - To write to the RTC Backup Data registers, use the RTC_WriteBackupRegister()
 176:../Shared/Libraries/STM32F4xx_StdPeriph_Driver/src/stm32f4xx_rtc.c ****   *              function.  
 177:../Shared/Libraries/STM32F4xx_StdPeriph_Driver/src/stm32f4xx_rtc.c ****   *            - To read the RTC Backup Data registers, use the RTC_ReadBackupRegister()
 178:../Shared/Libraries/STM32F4xx_StdPeriph_Driver/src/stm32f4xx_rtc.c ****   *              function.
 179:../Shared/Libraries/STM32F4xx_StdPeriph_Driver/src/stm32f4xx_rtc.c ****   * 
 180:../Shared/Libraries/STM32F4xx_StdPeriph_Driver/src/stm32f4xx_rtc.c ****   *          ===================================================================
 181:../Shared/Libraries/STM32F4xx_StdPeriph_Driver/src/stm32f4xx_rtc.c ****   *                                  RTC and low power modes
 182:../Shared/Libraries/STM32F4xx_StdPeriph_Driver/src/stm32f4xx_rtc.c ****   *          ===================================================================
 183:../Shared/Libraries/STM32F4xx_StdPeriph_Driver/src/stm32f4xx_rtc.c ****   *           The MCU can be woken up from a low power mode by an RTC alternate 
 184:../Shared/Libraries/STM32F4xx_StdPeriph_Driver/src/stm32f4xx_rtc.c ****   *           function.
 185:../Shared/Libraries/STM32F4xx_StdPeriph_Driver/src/stm32f4xx_rtc.c ****   *           The RTC alternate functions are the RTC alarms (Alarm A and Alarm B), 
 186:../Shared/Libraries/STM32F4xx_StdPeriph_Driver/src/stm32f4xx_rtc.c ****   *           RTC wakeup, RTC tamper event detection and RTC time stamp event detection.
 187:../Shared/Libraries/STM32F4xx_StdPeriph_Driver/src/stm32f4xx_rtc.c ****   *           These RTC alternate functions can wake up the system from the Stop 
 188:../Shared/Libraries/STM32F4xx_StdPeriph_Driver/src/stm32f4xx_rtc.c ****   *           and Standby lowpower modes.
 189:../Shared/Libraries/STM32F4xx_StdPeriph_Driver/src/stm32f4xx_rtc.c ****   *           The system can also wake up from low power modes without depending 
 190:../Shared/Libraries/STM32F4xx_StdPeriph_Driver/src/stm32f4xx_rtc.c ****   *           on an external interrupt (Auto-wakeup mode), by using the RTC alarm 
 191:../Shared/Libraries/STM32F4xx_StdPeriph_Driver/src/stm32f4xx_rtc.c ****   *           or the RTC wakeup events.
 192:../Shared/Libraries/STM32F4xx_StdPeriph_Driver/src/stm32f4xx_rtc.c ****   *           The RTC provides a programmable time base for waking up from the 
 193:../Shared/Libraries/STM32F4xx_StdPeriph_Driver/src/stm32f4xx_rtc.c ****   *           Stop or Standby mode at regular intervals.
 194:../Shared/Libraries/STM32F4xx_StdPeriph_Driver/src/stm32f4xx_rtc.c ****   *           Wakeup from STOP and Standby modes is possible only when the RTC 
 195:../Shared/Libraries/STM32F4xx_StdPeriph_Driver/src/stm32f4xx_rtc.c ****   *           clock source is LSE or LSI.
 196:../Shared/Libraries/STM32F4xx_StdPeriph_Driver/src/stm32f4xx_rtc.c ****   *
 197:../Shared/Libraries/STM32F4xx_StdPeriph_Driver/src/stm32f4xx_rtc.c ****   *          ===================================================================
 198:../Shared/Libraries/STM32F4xx_StdPeriph_Driver/src/stm32f4xx_rtc.c ****   *                            Selection of RTC_AF1 alternate functions
 199:../Shared/Libraries/STM32F4xx_StdPeriph_Driver/src/stm32f4xx_rtc.c ****   *          ===================================================================
 200:../Shared/Libraries/STM32F4xx_StdPeriph_Driver/src/stm32f4xx_rtc.c ****   *          The RTC_AF1 pin (PC13) can be used for the following purposes:
 201:../Shared/Libraries/STM32F4xx_StdPeriph_Driver/src/stm32f4xx_rtc.c ****   *            - AFO_ALARM output
ARM GAS  /tmp/cctIRrNQ.s 			page 5


 202:../Shared/Libraries/STM32F4xx_StdPeriph_Driver/src/stm32f4xx_rtc.c ****   *            - AFO_CALIB output
 203:../Shared/Libraries/STM32F4xx_StdPeriph_Driver/src/stm32f4xx_rtc.c ****   *            - AFI_TAMPER
 204:../Shared/Libraries/STM32F4xx_StdPeriph_Driver/src/stm32f4xx_rtc.c ****   *            - AFI_TIMESTAMP
 205:../Shared/Libraries/STM32F4xx_StdPeriph_Driver/src/stm32f4xx_rtc.c ****   *
 206:../Shared/Libraries/STM32F4xx_StdPeriph_Driver/src/stm32f4xx_rtc.c ****   * +----------------------------------------------------------------------------------------------
 207:../Shared/Libraries/STM32F4xx_StdPeriph_Driver/src/stm32f4xx_rtc.c ****   * |     Pin         |AFO_ALARM |AFO_CALIB |AFI_TAMPER |AFI_TIMESTAMP | TAMP1INSEL |   TSINSEL    
 208:../Shared/Libraries/STM32F4xx_StdPeriph_Driver/src/stm32f4xx_rtc.c ****   * |  configuration  | ENABLED  | ENABLED  |  ENABLED  |   ENABLED    |TAMPER1 pin |TIMESTAMP pin 
 209:../Shared/Libraries/STM32F4xx_StdPeriph_Driver/src/stm32f4xx_rtc.c ****   * |  and function   |          |          |           |              | selection  |  selection   
 210:../Shared/Libraries/STM32F4xx_StdPeriph_Driver/src/stm32f4xx_rtc.c ****   * |-----------------|----------|----------|-----------|--------------|------------|--------------
 211:../Shared/Libraries/STM32F4xx_StdPeriph_Driver/src/stm32f4xx_rtc.c ****   * |   Alarm out     |          |          |           |              |    Don't   |     Don't    
 212:../Shared/Libraries/STM32F4xx_StdPeriph_Driver/src/stm32f4xx_rtc.c ****   * |   output OD     |     1    |Don't care|Don't care | Don't care   |    care    |     care     
 213:../Shared/Libraries/STM32F4xx_StdPeriph_Driver/src/stm32f4xx_rtc.c ****   * |-----------------|----------|----------|-----------|--------------|------------|--------------
 214:../Shared/Libraries/STM32F4xx_StdPeriph_Driver/src/stm32f4xx_rtc.c ****   * |   Alarm out     |          |          |           |              |    Don't   |     Don't    
 215:../Shared/Libraries/STM32F4xx_StdPeriph_Driver/src/stm32f4xx_rtc.c ****   * |   output PP     |     1    |Don't care|Don't care | Don't care   |    care    |     care     
 216:../Shared/Libraries/STM32F4xx_StdPeriph_Driver/src/stm32f4xx_rtc.c ****   * |-----------------|----------|----------|-----------|--------------|------------|--------------
 217:../Shared/Libraries/STM32F4xx_StdPeriph_Driver/src/stm32f4xx_rtc.c ****   * | Calibration out |          |          |           |              |    Don't   |     Don't    
 218:../Shared/Libraries/STM32F4xx_StdPeriph_Driver/src/stm32f4xx_rtc.c ****   * |   output PP     |     0    |    1     |Don't care | Don't care   |    care    |     care     
 219:../Shared/Libraries/STM32F4xx_StdPeriph_Driver/src/stm32f4xx_rtc.c ****   * |-----------------|----------|----------|-----------|--------------|------------|--------------
 220:../Shared/Libraries/STM32F4xx_StdPeriph_Driver/src/stm32f4xx_rtc.c ****   * |  TAMPER input   |          |          |           |              |            |     Don't    
 221:../Shared/Libraries/STM32F4xx_StdPeriph_Driver/src/stm32f4xx_rtc.c ****   * |   floating      |     0    |    0     |     1     |      0       |      0     |     care     
 222:../Shared/Libraries/STM32F4xx_StdPeriph_Driver/src/stm32f4xx_rtc.c ****   * |-----------------|----------|----------|-----------|--------------|------------|--------------
 223:../Shared/Libraries/STM32F4xx_StdPeriph_Driver/src/stm32f4xx_rtc.c ****   * |  TIMESTAMP and  |          |          |           |              |            |              
 224:../Shared/Libraries/STM32F4xx_StdPeriph_Driver/src/stm32f4xx_rtc.c ****   * |  TAMPER input   |     0    |    0     |     1     |      1       |      0     |      0       
 225:../Shared/Libraries/STM32F4xx_StdPeriph_Driver/src/stm32f4xx_rtc.c ****   * |   floating      |          |          |           |              |            |              
 226:../Shared/Libraries/STM32F4xx_StdPeriph_Driver/src/stm32f4xx_rtc.c ****   * |-----------------|----------|----------|-----------|--------------|------------|--------------
 227:../Shared/Libraries/STM32F4xx_StdPeriph_Driver/src/stm32f4xx_rtc.c ****   * | TIMESTAMP input |          |          |           |              |    Don't   |              
 228:../Shared/Libraries/STM32F4xx_StdPeriph_Driver/src/stm32f4xx_rtc.c ****   * |    floating     |     0    |    0     |     0     |      1       |    care    |      0       
 229:../Shared/Libraries/STM32F4xx_StdPeriph_Driver/src/stm32f4xx_rtc.c ****   * |-----------------|----------|----------|-----------|--------------|------------|--------------
 230:../Shared/Libraries/STM32F4xx_StdPeriph_Driver/src/stm32f4xx_rtc.c ****   * |  Standard GPIO  |     0    |    0     |     0     |      0       | Don't care |  Don't care  
 231:../Shared/Libraries/STM32F4xx_StdPeriph_Driver/src/stm32f4xx_rtc.c ****   * +----------------------------------------------------------------------------------------------
 232:../Shared/Libraries/STM32F4xx_StdPeriph_Driver/src/stm32f4xx_rtc.c ****   *
 233:../Shared/Libraries/STM32F4xx_StdPeriph_Driver/src/stm32f4xx_rtc.c ****   *
 234:../Shared/Libraries/STM32F4xx_StdPeriph_Driver/src/stm32f4xx_rtc.c ****   *          ===================================================================
 235:../Shared/Libraries/STM32F4xx_StdPeriph_Driver/src/stm32f4xx_rtc.c ****   *                            Selection of RTC_AF2 alternate functions
 236:../Shared/Libraries/STM32F4xx_StdPeriph_Driver/src/stm32f4xx_rtc.c ****   *          ===================================================================
 237:../Shared/Libraries/STM32F4xx_StdPeriph_Driver/src/stm32f4xx_rtc.c ****   *          The RTC_AF2 pin (PI8) can be used for the following purposes:
 238:../Shared/Libraries/STM32F4xx_StdPeriph_Driver/src/stm32f4xx_rtc.c ****   *            - AFI_TAMPER
 239:../Shared/Libraries/STM32F4xx_StdPeriph_Driver/src/stm32f4xx_rtc.c ****   *            - AFI_TIMESTAMP
 240:../Shared/Libraries/STM32F4xx_StdPeriph_Driver/src/stm32f4xx_rtc.c ****   *
 241:../Shared/Libraries/STM32F4xx_StdPeriph_Driver/src/stm32f4xx_rtc.c ****   * +---------------------------------------------------------------------------------------+
 242:../Shared/Libraries/STM32F4xx_StdPeriph_Driver/src/stm32f4xx_rtc.c ****   * |     Pin         |AFI_TAMPER |AFI_TIMESTAMP | TAMP1INSEL |   TSINSEL    |ALARMOUTTYPE  |
 243:../Shared/Libraries/STM32F4xx_StdPeriph_Driver/src/stm32f4xx_rtc.c ****   * |  configuration  |  ENABLED  |   ENABLED    |TAMPER1 pin |TIMESTAMP pin |  AFO_ALARM   |
 244:../Shared/Libraries/STM32F4xx_StdPeriph_Driver/src/stm32f4xx_rtc.c ****   * |  and function   |           |              | selection  |  selection   |Configuration |
 245:../Shared/Libraries/STM32F4xx_StdPeriph_Driver/src/stm32f4xx_rtc.c ****   * |-----------------|-----------|--------------|------------|--------------|--------------|
 246:../Shared/Libraries/STM32F4xx_StdPeriph_Driver/src/stm32f4xx_rtc.c ****   * |  TAMPER input   |           |              |            |     Don't    |              |
 247:../Shared/Libraries/STM32F4xx_StdPeriph_Driver/src/stm32f4xx_rtc.c ****   * |   floating      |     1     |      0       |      1     |     care     |  Don't care  |
 248:../Shared/Libraries/STM32F4xx_StdPeriph_Driver/src/stm32f4xx_rtc.c ****   * |-----------------|-----------|--------------|------------|--------------|--------------|
 249:../Shared/Libraries/STM32F4xx_StdPeriph_Driver/src/stm32f4xx_rtc.c ****   * |  TIMESTAMP and  |           |              |            |              |              |
 250:../Shared/Libraries/STM32F4xx_StdPeriph_Driver/src/stm32f4xx_rtc.c ****   * |  TAMPER input   |     1     |      1       |      1     |      1       |  Don't care  |
 251:../Shared/Libraries/STM32F4xx_StdPeriph_Driver/src/stm32f4xx_rtc.c ****   * |   floating      |           |              |            |              |              |
 252:../Shared/Libraries/STM32F4xx_StdPeriph_Driver/src/stm32f4xx_rtc.c ****   * |-----------------|-----------|--------------|------------|--------------|--------------|
 253:../Shared/Libraries/STM32F4xx_StdPeriph_Driver/src/stm32f4xx_rtc.c ****   * | TIMESTAMP input |           |              |    Don't   |              |              |
 254:../Shared/Libraries/STM32F4xx_StdPeriph_Driver/src/stm32f4xx_rtc.c ****   * |    floating     |     0     |      1       |    care    |      1       |  Don't care  |
 255:../Shared/Libraries/STM32F4xx_StdPeriph_Driver/src/stm32f4xx_rtc.c ****   * |-----------------|-----------|--------------|------------|--------------|--------------|
 256:../Shared/Libraries/STM32F4xx_StdPeriph_Driver/src/stm32f4xx_rtc.c ****   * |  Standard GPIO  |     0     |      0       | Don't care |  Don't care  |  Don't care  |
 257:../Shared/Libraries/STM32F4xx_StdPeriph_Driver/src/stm32f4xx_rtc.c ****   * +---------------------------------------------------------------------------------------+
 258:../Shared/Libraries/STM32F4xx_StdPeriph_Driver/src/stm32f4xx_rtc.c ****   * 
ARM GAS  /tmp/cctIRrNQ.s 			page 6


 259:../Shared/Libraries/STM32F4xx_StdPeriph_Driver/src/stm32f4xx_rtc.c ****   *
 260:../Shared/Libraries/STM32F4xx_StdPeriph_Driver/src/stm32f4xx_rtc.c ****   *  @endverbatim
 261:../Shared/Libraries/STM32F4xx_StdPeriph_Driver/src/stm32f4xx_rtc.c ****   *
 262:../Shared/Libraries/STM32F4xx_StdPeriph_Driver/src/stm32f4xx_rtc.c ****   ******************************************************************************
 263:../Shared/Libraries/STM32F4xx_StdPeriph_Driver/src/stm32f4xx_rtc.c ****   * @attention
 264:../Shared/Libraries/STM32F4xx_StdPeriph_Driver/src/stm32f4xx_rtc.c ****   *
 265:../Shared/Libraries/STM32F4xx_StdPeriph_Driver/src/stm32f4xx_rtc.c ****   * <h2><center>&copy; COPYRIGHT 2012 STMicroelectronics</center></h2>
 266:../Shared/Libraries/STM32F4xx_StdPeriph_Driver/src/stm32f4xx_rtc.c ****   *
 267:../Shared/Libraries/STM32F4xx_StdPeriph_Driver/src/stm32f4xx_rtc.c ****   * Licensed under MCD-ST Liberty SW License Agreement V2, (the "License");
 268:../Shared/Libraries/STM32F4xx_StdPeriph_Driver/src/stm32f4xx_rtc.c ****   * You may not use this file except in compliance with the License.
 269:../Shared/Libraries/STM32F4xx_StdPeriph_Driver/src/stm32f4xx_rtc.c ****   * You may obtain a copy of the License at:
 270:../Shared/Libraries/STM32F4xx_StdPeriph_Driver/src/stm32f4xx_rtc.c ****   *
 271:../Shared/Libraries/STM32F4xx_StdPeriph_Driver/src/stm32f4xx_rtc.c ****   *        http://www.st.com/software_license_agreement_liberty_v2
 272:../Shared/Libraries/STM32F4xx_StdPeriph_Driver/src/stm32f4xx_rtc.c ****   *
 273:../Shared/Libraries/STM32F4xx_StdPeriph_Driver/src/stm32f4xx_rtc.c ****   * Unless required by applicable law or agreed to in writing, software 
 274:../Shared/Libraries/STM32F4xx_StdPeriph_Driver/src/stm32f4xx_rtc.c ****   * distributed under the License is distributed on an "AS IS" BASIS, 
 275:../Shared/Libraries/STM32F4xx_StdPeriph_Driver/src/stm32f4xx_rtc.c ****   * WITHOUT WARRANTIES OR CONDITIONS OF ANY KIND, either express or implied.
 276:../Shared/Libraries/STM32F4xx_StdPeriph_Driver/src/stm32f4xx_rtc.c ****   * See the License for the specific language governing permissions and
 277:../Shared/Libraries/STM32F4xx_StdPeriph_Driver/src/stm32f4xx_rtc.c ****   * limitations under the License.
 278:../Shared/Libraries/STM32F4xx_StdPeriph_Driver/src/stm32f4xx_rtc.c ****   *
 279:../Shared/Libraries/STM32F4xx_StdPeriph_Driver/src/stm32f4xx_rtc.c ****   ******************************************************************************
 280:../Shared/Libraries/STM32F4xx_StdPeriph_Driver/src/stm32f4xx_rtc.c ****   */ 
 281:../Shared/Libraries/STM32F4xx_StdPeriph_Driver/src/stm32f4xx_rtc.c **** 
 282:../Shared/Libraries/STM32F4xx_StdPeriph_Driver/src/stm32f4xx_rtc.c **** /* Includes ------------------------------------------------------------------*/
 283:../Shared/Libraries/STM32F4xx_StdPeriph_Driver/src/stm32f4xx_rtc.c **** #include "stm32f4xx_rtc.h"
 284:../Shared/Libraries/STM32F4xx_StdPeriph_Driver/src/stm32f4xx_rtc.c **** 
 285:../Shared/Libraries/STM32F4xx_StdPeriph_Driver/src/stm32f4xx_rtc.c **** /** @addtogroup STM32F4xx_StdPeriph_Driver
 286:../Shared/Libraries/STM32F4xx_StdPeriph_Driver/src/stm32f4xx_rtc.c ****   * @{
 287:../Shared/Libraries/STM32F4xx_StdPeriph_Driver/src/stm32f4xx_rtc.c ****   */
 288:../Shared/Libraries/STM32F4xx_StdPeriph_Driver/src/stm32f4xx_rtc.c **** 
 289:../Shared/Libraries/STM32F4xx_StdPeriph_Driver/src/stm32f4xx_rtc.c **** /** @defgroup RTC 
 290:../Shared/Libraries/STM32F4xx_StdPeriph_Driver/src/stm32f4xx_rtc.c ****   * @brief RTC driver modules
 291:../Shared/Libraries/STM32F4xx_StdPeriph_Driver/src/stm32f4xx_rtc.c ****   * @{
 292:../Shared/Libraries/STM32F4xx_StdPeriph_Driver/src/stm32f4xx_rtc.c ****   */
 293:../Shared/Libraries/STM32F4xx_StdPeriph_Driver/src/stm32f4xx_rtc.c **** 
 294:../Shared/Libraries/STM32F4xx_StdPeriph_Driver/src/stm32f4xx_rtc.c **** /* Private typedef -----------------------------------------------------------*/
 295:../Shared/Libraries/STM32F4xx_StdPeriph_Driver/src/stm32f4xx_rtc.c **** /* Private define ------------------------------------------------------------*/
 296:../Shared/Libraries/STM32F4xx_StdPeriph_Driver/src/stm32f4xx_rtc.c **** 
 297:../Shared/Libraries/STM32F4xx_StdPeriph_Driver/src/stm32f4xx_rtc.c **** /* Masks Definition */
 298:../Shared/Libraries/STM32F4xx_StdPeriph_Driver/src/stm32f4xx_rtc.c **** #define RTC_TR_RESERVED_MASK    ((uint32_t)0x007F7F7F)
 299:../Shared/Libraries/STM32F4xx_StdPeriph_Driver/src/stm32f4xx_rtc.c **** #define RTC_DR_RESERVED_MASK    ((uint32_t)0x00FFFF3F) 
 300:../Shared/Libraries/STM32F4xx_StdPeriph_Driver/src/stm32f4xx_rtc.c **** #define RTC_INIT_MASK           ((uint32_t)0xFFFFFFFF)  
 301:../Shared/Libraries/STM32F4xx_StdPeriph_Driver/src/stm32f4xx_rtc.c **** #define RTC_RSF_MASK            ((uint32_t)0xFFFFFF5F)
 302:../Shared/Libraries/STM32F4xx_StdPeriph_Driver/src/stm32f4xx_rtc.c **** #define RTC_FLAGS_MASK          ((uint32_t)(RTC_FLAG_TSOVF | RTC_FLAG_TSF | RTC_FLAG_WUTF | \
 303:../Shared/Libraries/STM32F4xx_StdPeriph_Driver/src/stm32f4xx_rtc.c ****                                             RTC_FLAG_ALRBF | RTC_FLAG_ALRAF | RTC_FLAG_INITF | \
 304:../Shared/Libraries/STM32F4xx_StdPeriph_Driver/src/stm32f4xx_rtc.c ****                                             RTC_FLAG_RSF | RTC_FLAG_INITS | RTC_FLAG_WUTWF | \
 305:../Shared/Libraries/STM32F4xx_StdPeriph_Driver/src/stm32f4xx_rtc.c ****                                             RTC_FLAG_ALRBWF | RTC_FLAG_ALRAWF | RTC_FLAG_TAMP1F | \
 306:../Shared/Libraries/STM32F4xx_StdPeriph_Driver/src/stm32f4xx_rtc.c ****                                             RTC_FLAG_RECALPF | RTC_FLAG_SHPF))
 307:../Shared/Libraries/STM32F4xx_StdPeriph_Driver/src/stm32f4xx_rtc.c **** 
 308:../Shared/Libraries/STM32F4xx_StdPeriph_Driver/src/stm32f4xx_rtc.c **** #define INITMODE_TIMEOUT         ((uint32_t) 0x00010000)
 309:../Shared/Libraries/STM32F4xx_StdPeriph_Driver/src/stm32f4xx_rtc.c **** #define SYNCHRO_TIMEOUT          ((uint32_t) 0x00020000)
 310:../Shared/Libraries/STM32F4xx_StdPeriph_Driver/src/stm32f4xx_rtc.c **** #define RECALPF_TIMEOUT          ((uint32_t) 0x00020000)
 311:../Shared/Libraries/STM32F4xx_StdPeriph_Driver/src/stm32f4xx_rtc.c **** #define SHPF_TIMEOUT             ((uint32_t) 0x00001000)
 312:../Shared/Libraries/STM32F4xx_StdPeriph_Driver/src/stm32f4xx_rtc.c **** 
 313:../Shared/Libraries/STM32F4xx_StdPeriph_Driver/src/stm32f4xx_rtc.c **** /* Private macro -------------------------------------------------------------*/
 314:../Shared/Libraries/STM32F4xx_StdPeriph_Driver/src/stm32f4xx_rtc.c **** /* Private variables ---------------------------------------------------------*/
 315:../Shared/Libraries/STM32F4xx_StdPeriph_Driver/src/stm32f4xx_rtc.c **** /* Private function prototypes -----------------------------------------------*/
ARM GAS  /tmp/cctIRrNQ.s 			page 7


 316:../Shared/Libraries/STM32F4xx_StdPeriph_Driver/src/stm32f4xx_rtc.c **** static uint8_t RTC_ByteToBcd2(uint8_t Value);
 317:../Shared/Libraries/STM32F4xx_StdPeriph_Driver/src/stm32f4xx_rtc.c **** static uint8_t RTC_Bcd2ToByte(uint8_t Value);
 318:../Shared/Libraries/STM32F4xx_StdPeriph_Driver/src/stm32f4xx_rtc.c **** 
 319:../Shared/Libraries/STM32F4xx_StdPeriph_Driver/src/stm32f4xx_rtc.c **** /* Private functions ---------------------------------------------------------*/
 320:../Shared/Libraries/STM32F4xx_StdPeriph_Driver/src/stm32f4xx_rtc.c **** 
 321:../Shared/Libraries/STM32F4xx_StdPeriph_Driver/src/stm32f4xx_rtc.c **** /** @defgroup RTC_Private_Functions
 322:../Shared/Libraries/STM32F4xx_StdPeriph_Driver/src/stm32f4xx_rtc.c ****   * @{
 323:../Shared/Libraries/STM32F4xx_StdPeriph_Driver/src/stm32f4xx_rtc.c ****   */ 
 324:../Shared/Libraries/STM32F4xx_StdPeriph_Driver/src/stm32f4xx_rtc.c **** 
 325:../Shared/Libraries/STM32F4xx_StdPeriph_Driver/src/stm32f4xx_rtc.c **** /** @defgroup RTC_Group1 Initialization and Configuration functions
 326:../Shared/Libraries/STM32F4xx_StdPeriph_Driver/src/stm32f4xx_rtc.c ****  *  @brief   Initialization and Configuration functions 
 327:../Shared/Libraries/STM32F4xx_StdPeriph_Driver/src/stm32f4xx_rtc.c ****  *
 328:../Shared/Libraries/STM32F4xx_StdPeriph_Driver/src/stm32f4xx_rtc.c **** @verbatim   
 329:../Shared/Libraries/STM32F4xx_StdPeriph_Driver/src/stm32f4xx_rtc.c ****  ===============================================================================
 330:../Shared/Libraries/STM32F4xx_StdPeriph_Driver/src/stm32f4xx_rtc.c ****                  Initialization and Configuration functions
 331:../Shared/Libraries/STM32F4xx_StdPeriph_Driver/src/stm32f4xx_rtc.c ****  ===============================================================================
 332:../Shared/Libraries/STM32F4xx_StdPeriph_Driver/src/stm32f4xx_rtc.c **** 
 333:../Shared/Libraries/STM32F4xx_StdPeriph_Driver/src/stm32f4xx_rtc.c ****   This section provide functions allowing to initialize and configure the RTC
 334:../Shared/Libraries/STM32F4xx_StdPeriph_Driver/src/stm32f4xx_rtc.c ****   Prescaler (Synchronous and Asynchronous), RTC Hour format, disable RTC registers
 335:../Shared/Libraries/STM32F4xx_StdPeriph_Driver/src/stm32f4xx_rtc.c ****   Write protection, enter and exit the RTC initialization mode, RTC registers
 336:../Shared/Libraries/STM32F4xx_StdPeriph_Driver/src/stm32f4xx_rtc.c ****   synchronization check and reference clock detection enable.
 337:../Shared/Libraries/STM32F4xx_StdPeriph_Driver/src/stm32f4xx_rtc.c ****   
 338:../Shared/Libraries/STM32F4xx_StdPeriph_Driver/src/stm32f4xx_rtc.c ****   1. The RTC Prescaler is programmed to generate the RTC 1Hz time base. It is
 339:../Shared/Libraries/STM32F4xx_StdPeriph_Driver/src/stm32f4xx_rtc.c ****      split into 2 programmable prescalers to minimize power consumption.
 340:../Shared/Libraries/STM32F4xx_StdPeriph_Driver/src/stm32f4xx_rtc.c ****      - A 7-bit asynchronous prescaler and A 13-bit synchronous prescaler.
 341:../Shared/Libraries/STM32F4xx_StdPeriph_Driver/src/stm32f4xx_rtc.c ****      - When both prescalers are used, it is recommended to configure the asynchronous
 342:../Shared/Libraries/STM32F4xx_StdPeriph_Driver/src/stm32f4xx_rtc.c ****        prescaler to a high value to minimize consumption.
 343:../Shared/Libraries/STM32F4xx_StdPeriph_Driver/src/stm32f4xx_rtc.c **** 
 344:../Shared/Libraries/STM32F4xx_StdPeriph_Driver/src/stm32f4xx_rtc.c ****   2. All RTC registers are Write protected. Writing to the RTC registers
 345:../Shared/Libraries/STM32F4xx_StdPeriph_Driver/src/stm32f4xx_rtc.c ****      is enabled by writing a key into the Write Protection register, RTC_WPR.
 346:../Shared/Libraries/STM32F4xx_StdPeriph_Driver/src/stm32f4xx_rtc.c **** 
 347:../Shared/Libraries/STM32F4xx_StdPeriph_Driver/src/stm32f4xx_rtc.c ****   3. To Configure the RTC Calendar, user application should enter initialization
 348:../Shared/Libraries/STM32F4xx_StdPeriph_Driver/src/stm32f4xx_rtc.c ****      mode. In this mode, the calendar counter is stopped and its value can be 
 349:../Shared/Libraries/STM32F4xx_StdPeriph_Driver/src/stm32f4xx_rtc.c ****      updated. When the initialization sequence is complete, the calendar restarts 
 350:../Shared/Libraries/STM32F4xx_StdPeriph_Driver/src/stm32f4xx_rtc.c ****      counting after 4 RTCCLK cycles.
 351:../Shared/Libraries/STM32F4xx_StdPeriph_Driver/src/stm32f4xx_rtc.c **** 
 352:../Shared/Libraries/STM32F4xx_StdPeriph_Driver/src/stm32f4xx_rtc.c ****   4. To read the calendar through the shadow registers after Calendar initialization,
 353:../Shared/Libraries/STM32F4xx_StdPeriph_Driver/src/stm32f4xx_rtc.c ****      calendar update or after wakeup from low power modes the software must first 
 354:../Shared/Libraries/STM32F4xx_StdPeriph_Driver/src/stm32f4xx_rtc.c ****      clear the RSF flag. The software must then wait until it is set again before 
 355:../Shared/Libraries/STM32F4xx_StdPeriph_Driver/src/stm32f4xx_rtc.c ****      reading the calendar, which means that the calendar registers have been 
 356:../Shared/Libraries/STM32F4xx_StdPeriph_Driver/src/stm32f4xx_rtc.c ****      correctly copied into the RTC_TR and RTC_DR shadow registers.
 357:../Shared/Libraries/STM32F4xx_StdPeriph_Driver/src/stm32f4xx_rtc.c ****      The RTC_WaitForSynchro() function implements the above software sequence 
 358:../Shared/Libraries/STM32F4xx_StdPeriph_Driver/src/stm32f4xx_rtc.c ****      (RSF clear and RSF check).
 359:../Shared/Libraries/STM32F4xx_StdPeriph_Driver/src/stm32f4xx_rtc.c **** 
 360:../Shared/Libraries/STM32F4xx_StdPeriph_Driver/src/stm32f4xx_rtc.c **** @endverbatim
 361:../Shared/Libraries/STM32F4xx_StdPeriph_Driver/src/stm32f4xx_rtc.c ****   * @{
 362:../Shared/Libraries/STM32F4xx_StdPeriph_Driver/src/stm32f4xx_rtc.c ****   */
 363:../Shared/Libraries/STM32F4xx_StdPeriph_Driver/src/stm32f4xx_rtc.c **** 
 364:../Shared/Libraries/STM32F4xx_StdPeriph_Driver/src/stm32f4xx_rtc.c **** /**
 365:../Shared/Libraries/STM32F4xx_StdPeriph_Driver/src/stm32f4xx_rtc.c ****   * @brief  Deinitializes the RTC registers to their default reset values.
 366:../Shared/Libraries/STM32F4xx_StdPeriph_Driver/src/stm32f4xx_rtc.c ****   * @note   This function doesn't reset the RTC Clock source and RTC Backup Data
 367:../Shared/Libraries/STM32F4xx_StdPeriph_Driver/src/stm32f4xx_rtc.c ****   *         registers.       
 368:../Shared/Libraries/STM32F4xx_StdPeriph_Driver/src/stm32f4xx_rtc.c ****   * @param  None
 369:../Shared/Libraries/STM32F4xx_StdPeriph_Driver/src/stm32f4xx_rtc.c ****   * @retval An ErrorStatus enumeration value:
 370:../Shared/Libraries/STM32F4xx_StdPeriph_Driver/src/stm32f4xx_rtc.c ****   *          - SUCCESS: RTC registers are deinitialized
 371:../Shared/Libraries/STM32F4xx_StdPeriph_Driver/src/stm32f4xx_rtc.c ****   *          - ERROR: RTC registers are not deinitialized
 372:../Shared/Libraries/STM32F4xx_StdPeriph_Driver/src/stm32f4xx_rtc.c ****   */
ARM GAS  /tmp/cctIRrNQ.s 			page 8


 373:../Shared/Libraries/STM32F4xx_StdPeriph_Driver/src/stm32f4xx_rtc.c **** ErrorStatus RTC_DeInit(void)
 374:../Shared/Libraries/STM32F4xx_StdPeriph_Driver/src/stm32f4xx_rtc.c **** {
  29              		.loc 1 374 1
  30              		.cfi_startproc
  31              		@ args = 0, pretend = 0, frame = 16
  32              		@ frame_needed = 1, uses_anonymous_args = 0
  33 0000 80B5     		push	{r7, lr}
  34              	.LCFI0:
  35              		.cfi_def_cfa_offset 8
  36              		.cfi_offset 7, -8
  37              		.cfi_offset 14, -4
  38 0002 84B0     		sub	sp, sp, #16
  39              	.LCFI1:
  40              		.cfi_def_cfa_offset 24
  41 0004 00AF     		add	r7, sp, #0
  42              	.LCFI2:
  43              		.cfi_def_cfa_register 7
 375:../Shared/Libraries/STM32F4xx_StdPeriph_Driver/src/stm32f4xx_rtc.c ****   __IO uint32_t wutcounter = 0x00;
  44              		.loc 1 375 17
  45 0006 0023     		movs	r3, #0
  46 0008 7B60     		str	r3, [r7, #4]
 376:../Shared/Libraries/STM32F4xx_StdPeriph_Driver/src/stm32f4xx_rtc.c ****   uint32_t wutwfstatus = 0x00;
  47              		.loc 1 376 12
  48 000a 0023     		movs	r3, #0
  49 000c BB60     		str	r3, [r7, #8]
 377:../Shared/Libraries/STM32F4xx_StdPeriph_Driver/src/stm32f4xx_rtc.c ****   ErrorStatus status = ERROR;
  50              		.loc 1 377 15
  51 000e 0023     		movs	r3, #0
  52 0010 FB73     		strb	r3, [r7, #15]
 378:../Shared/Libraries/STM32F4xx_StdPeriph_Driver/src/stm32f4xx_rtc.c ****   
 379:../Shared/Libraries/STM32F4xx_StdPeriph_Driver/src/stm32f4xx_rtc.c ****   /* Disable the write protection for RTC registers */
 380:../Shared/Libraries/STM32F4xx_StdPeriph_Driver/src/stm32f4xx_rtc.c ****   RTC->WPR = 0xCA;
  53              		.loc 1 380 6
  54 0012 364B     		ldr	r3, .L9
  55              		.loc 1 380 12
  56 0014 CA22     		movs	r2, #202
  57 0016 5A62     		str	r2, [r3, #36]
 381:../Shared/Libraries/STM32F4xx_StdPeriph_Driver/src/stm32f4xx_rtc.c ****   RTC->WPR = 0x53;
  58              		.loc 1 381 6
  59 0018 344B     		ldr	r3, .L9
  60              		.loc 1 381 12
  61 001a 5322     		movs	r2, #83
  62 001c 5A62     		str	r2, [r3, #36]
 382:../Shared/Libraries/STM32F4xx_StdPeriph_Driver/src/stm32f4xx_rtc.c **** 
 383:../Shared/Libraries/STM32F4xx_StdPeriph_Driver/src/stm32f4xx_rtc.c ****   /* Set Initialization mode */
 384:../Shared/Libraries/STM32F4xx_StdPeriph_Driver/src/stm32f4xx_rtc.c ****   if (RTC_EnterInitMode() == ERROR)
  63              		.loc 1 384 7
  64 001e FFF7FEFF 		bl	RTC_EnterInitMode
  65 0022 0346     		mov	r3, r0
  66              		.loc 1 384 6 discriminator 1
  67 0024 002B     		cmp	r3, #0
  68 0026 02D1     		bne	.L2
 385:../Shared/Libraries/STM32F4xx_StdPeriph_Driver/src/stm32f4xx_rtc.c ****   {
 386:../Shared/Libraries/STM32F4xx_StdPeriph_Driver/src/stm32f4xx_rtc.c ****     status = ERROR;
  69              		.loc 1 386 12
  70 0028 0023     		movs	r3, #0
  71 002a FB73     		strb	r3, [r7, #15]
ARM GAS  /tmp/cctIRrNQ.s 			page 9


  72 002c 55E0     		b	.L3
  73              	.L2:
 387:../Shared/Libraries/STM32F4xx_StdPeriph_Driver/src/stm32f4xx_rtc.c ****   }  
 388:../Shared/Libraries/STM32F4xx_StdPeriph_Driver/src/stm32f4xx_rtc.c ****   else
 389:../Shared/Libraries/STM32F4xx_StdPeriph_Driver/src/stm32f4xx_rtc.c ****   {
 390:../Shared/Libraries/STM32F4xx_StdPeriph_Driver/src/stm32f4xx_rtc.c ****     /* Reset TR, DR and CR registers */
 391:../Shared/Libraries/STM32F4xx_StdPeriph_Driver/src/stm32f4xx_rtc.c ****     RTC->TR = (uint32_t)0x00000000;
  74              		.loc 1 391 8
  75 002e 2F4B     		ldr	r3, .L9
  76              		.loc 1 391 13
  77 0030 0022     		movs	r2, #0
  78 0032 1A60     		str	r2, [r3]
 392:../Shared/Libraries/STM32F4xx_StdPeriph_Driver/src/stm32f4xx_rtc.c ****     RTC->DR = (uint32_t)0x00002101;
  79              		.loc 1 392 8
  80 0034 2D4B     		ldr	r3, .L9
  81              		.loc 1 392 13
  82 0036 42F20112 		movw	r2, #8449
  83 003a 5A60     		str	r2, [r3, #4]
 393:../Shared/Libraries/STM32F4xx_StdPeriph_Driver/src/stm32f4xx_rtc.c ****     /* Reset All CR bits except CR[2:0] */
 394:../Shared/Libraries/STM32F4xx_StdPeriph_Driver/src/stm32f4xx_rtc.c ****     RTC->CR &= (uint32_t)0x00000007;
  84              		.loc 1 394 8
  85 003c 2B4B     		ldr	r3, .L9
  86 003e 9B68     		ldr	r3, [r3, #8]
  87 0040 2A4A     		ldr	r2, .L9
  88              		.loc 1 394 13
  89 0042 03F00703 		and	r3, r3, #7
  90 0046 9360     		str	r3, [r2, #8]
  91              	.L5:
 395:../Shared/Libraries/STM32F4xx_StdPeriph_Driver/src/stm32f4xx_rtc.c ****   
 396:../Shared/Libraries/STM32F4xx_StdPeriph_Driver/src/stm32f4xx_rtc.c ****     /* Wait till RTC WUTWF flag is set and if Time out is reached exit */
 397:../Shared/Libraries/STM32F4xx_StdPeriph_Driver/src/stm32f4xx_rtc.c ****     do
 398:../Shared/Libraries/STM32F4xx_StdPeriph_Driver/src/stm32f4xx_rtc.c ****     {
 399:../Shared/Libraries/STM32F4xx_StdPeriph_Driver/src/stm32f4xx_rtc.c ****       wutwfstatus = RTC->ISR & RTC_ISR_WUTWF;
  92              		.loc 1 399 24
  93 0048 284B     		ldr	r3, .L9
  94 004a DB68     		ldr	r3, [r3, #12]
  95              		.loc 1 399 19
  96 004c 03F00403 		and	r3, r3, #4
  97 0050 BB60     		str	r3, [r7, #8]
 400:../Shared/Libraries/STM32F4xx_StdPeriph_Driver/src/stm32f4xx_rtc.c ****       wutcounter++;  
  98              		.loc 1 400 17
  99 0052 7B68     		ldr	r3, [r7, #4]
 100 0054 0133     		adds	r3, r3, #1
 101 0056 7B60     		str	r3, [r7, #4]
 401:../Shared/Libraries/STM32F4xx_StdPeriph_Driver/src/stm32f4xx_rtc.c ****     } while((wutcounter != INITMODE_TIMEOUT) && (wutwfstatus == 0x00));
 102              		.loc 1 401 25 discriminator 2
 103 0058 7B68     		ldr	r3, [r7, #4]
 104              		.loc 1 401 46 discriminator 2
 105 005a B3F5803F 		cmp	r3, #65536
 106 005e 02D0     		beq	.L4
 107              		.loc 1 401 46 is_stmt 0 discriminator 1
 108 0060 BB68     		ldr	r3, [r7, #8]
 109 0062 002B     		cmp	r3, #0
 110 0064 F0D0     		beq	.L5
 111              	.L4:
 402:../Shared/Libraries/STM32F4xx_StdPeriph_Driver/src/stm32f4xx_rtc.c ****     
 403:../Shared/Libraries/STM32F4xx_StdPeriph_Driver/src/stm32f4xx_rtc.c ****     if ((RTC->ISR & RTC_ISR_WUTWF) == RESET)
ARM GAS  /tmp/cctIRrNQ.s 			page 10


 112              		.loc 1 403 13 is_stmt 1
 113 0066 214B     		ldr	r3, .L9
 114 0068 DB68     		ldr	r3, [r3, #12]
 115              		.loc 1 403 19
 116 006a 03F00403 		and	r3, r3, #4
 117              		.loc 1 403 8
 118 006e 002B     		cmp	r3, #0
 119 0070 02D1     		bne	.L6
 404:../Shared/Libraries/STM32F4xx_StdPeriph_Driver/src/stm32f4xx_rtc.c ****     {
 405:../Shared/Libraries/STM32F4xx_StdPeriph_Driver/src/stm32f4xx_rtc.c ****       status = ERROR;
 120              		.loc 1 405 14
 121 0072 0023     		movs	r3, #0
 122 0074 FB73     		strb	r3, [r7, #15]
 123 0076 30E0     		b	.L3
 124              	.L6:
 406:../Shared/Libraries/STM32F4xx_StdPeriph_Driver/src/stm32f4xx_rtc.c ****     }
 407:../Shared/Libraries/STM32F4xx_StdPeriph_Driver/src/stm32f4xx_rtc.c ****     else
 408:../Shared/Libraries/STM32F4xx_StdPeriph_Driver/src/stm32f4xx_rtc.c ****     {
 409:../Shared/Libraries/STM32F4xx_StdPeriph_Driver/src/stm32f4xx_rtc.c ****       /* Reset all RTC CR register bits */
 410:../Shared/Libraries/STM32F4xx_StdPeriph_Driver/src/stm32f4xx_rtc.c ****       RTC->CR &= (uint32_t)0x00000000;
 125              		.loc 1 410 10
 126 0078 1C4B     		ldr	r3, .L9
 127 007a 9B68     		ldr	r3, [r3, #8]
 128 007c 1B4B     		ldr	r3, .L9
 129              		.loc 1 410 15
 130 007e 0022     		movs	r2, #0
 131 0080 9A60     		str	r2, [r3, #8]
 411:../Shared/Libraries/STM32F4xx_StdPeriph_Driver/src/stm32f4xx_rtc.c ****       RTC->WUTR = (uint32_t)0x0000FFFF;
 132              		.loc 1 411 10
 133 0082 1A4B     		ldr	r3, .L9
 134              		.loc 1 411 17
 135 0084 4FF6FF72 		movw	r2, #65535
 136 0088 5A61     		str	r2, [r3, #20]
 412:../Shared/Libraries/STM32F4xx_StdPeriph_Driver/src/stm32f4xx_rtc.c ****       RTC->PRER = (uint32_t)0x007F00FF;
 137              		.loc 1 412 10
 138 008a 184B     		ldr	r3, .L9
 139              		.loc 1 412 17
 140 008c 184A     		ldr	r2, .L9+4
 141 008e 1A61     		str	r2, [r3, #16]
 413:../Shared/Libraries/STM32F4xx_StdPeriph_Driver/src/stm32f4xx_rtc.c ****       RTC->CALIBR = (uint32_t)0x00000000;
 142              		.loc 1 413 10
 143 0090 164B     		ldr	r3, .L9
 144              		.loc 1 413 19
 145 0092 0022     		movs	r2, #0
 146 0094 9A61     		str	r2, [r3, #24]
 414:../Shared/Libraries/STM32F4xx_StdPeriph_Driver/src/stm32f4xx_rtc.c ****       RTC->ALRMAR = (uint32_t)0x00000000;        
 147              		.loc 1 414 10
 148 0096 154B     		ldr	r3, .L9
 149              		.loc 1 414 19
 150 0098 0022     		movs	r2, #0
 151 009a DA61     		str	r2, [r3, #28]
 415:../Shared/Libraries/STM32F4xx_StdPeriph_Driver/src/stm32f4xx_rtc.c ****       RTC->ALRMBR = (uint32_t)0x00000000;
 152              		.loc 1 415 10
 153 009c 134B     		ldr	r3, .L9
 154              		.loc 1 415 19
 155 009e 0022     		movs	r2, #0
 156 00a0 1A62     		str	r2, [r3, #32]
ARM GAS  /tmp/cctIRrNQ.s 			page 11


 416:../Shared/Libraries/STM32F4xx_StdPeriph_Driver/src/stm32f4xx_rtc.c ****       RTC->SHIFTR = (uint32_t)0x00000000;
 157              		.loc 1 416 10
 158 00a2 124B     		ldr	r3, .L9
 159              		.loc 1 416 19
 160 00a4 0022     		movs	r2, #0
 161 00a6 DA62     		str	r2, [r3, #44]
 417:../Shared/Libraries/STM32F4xx_StdPeriph_Driver/src/stm32f4xx_rtc.c ****       RTC->CALR = (uint32_t)0x00000000;
 162              		.loc 1 417 10
 163 00a8 104B     		ldr	r3, .L9
 164              		.loc 1 417 17
 165 00aa 0022     		movs	r2, #0
 166 00ac DA63     		str	r2, [r3, #60]
 418:../Shared/Libraries/STM32F4xx_StdPeriph_Driver/src/stm32f4xx_rtc.c ****       RTC->ALRMASSR = (uint32_t)0x00000000;
 167              		.loc 1 418 10
 168 00ae 0F4B     		ldr	r3, .L9
 169              		.loc 1 418 21
 170 00b0 0022     		movs	r2, #0
 171 00b2 5A64     		str	r2, [r3, #68]
 419:../Shared/Libraries/STM32F4xx_StdPeriph_Driver/src/stm32f4xx_rtc.c ****       RTC->ALRMBSSR = (uint32_t)0x00000000;
 172              		.loc 1 419 10
 173 00b4 0D4B     		ldr	r3, .L9
 174              		.loc 1 419 21
 175 00b6 0022     		movs	r2, #0
 176 00b8 9A64     		str	r2, [r3, #72]
 420:../Shared/Libraries/STM32F4xx_StdPeriph_Driver/src/stm32f4xx_rtc.c ****       
 421:../Shared/Libraries/STM32F4xx_StdPeriph_Driver/src/stm32f4xx_rtc.c ****       /* Reset ISR register and exit initialization mode */
 422:../Shared/Libraries/STM32F4xx_StdPeriph_Driver/src/stm32f4xx_rtc.c ****       RTC->ISR = (uint32_t)0x00000000;
 177              		.loc 1 422 10
 178 00ba 0C4B     		ldr	r3, .L9
 179              		.loc 1 422 16
 180 00bc 0022     		movs	r2, #0
 181 00be DA60     		str	r2, [r3, #12]
 423:../Shared/Libraries/STM32F4xx_StdPeriph_Driver/src/stm32f4xx_rtc.c ****       
 424:../Shared/Libraries/STM32F4xx_StdPeriph_Driver/src/stm32f4xx_rtc.c ****       /* Reset Tamper and alternate functions configuration register */
 425:../Shared/Libraries/STM32F4xx_StdPeriph_Driver/src/stm32f4xx_rtc.c ****       RTC->TAFCR = 0x00000000;
 182              		.loc 1 425 10
 183 00c0 0A4B     		ldr	r3, .L9
 184              		.loc 1 425 18
 185 00c2 0022     		movs	r2, #0
 186 00c4 1A64     		str	r2, [r3, #64]
 426:../Shared/Libraries/STM32F4xx_StdPeriph_Driver/src/stm32f4xx_rtc.c ****   
 427:../Shared/Libraries/STM32F4xx_StdPeriph_Driver/src/stm32f4xx_rtc.c ****       if(RTC_WaitForSynchro() == ERROR)
 187              		.loc 1 427 10
 188 00c6 FFF7FEFF 		bl	RTC_WaitForSynchro
 189 00ca 0346     		mov	r3, r0
 190              		.loc 1 427 9 discriminator 1
 191 00cc 002B     		cmp	r3, #0
 192 00ce 02D1     		bne	.L7
 428:../Shared/Libraries/STM32F4xx_StdPeriph_Driver/src/stm32f4xx_rtc.c ****       {
 429:../Shared/Libraries/STM32F4xx_StdPeriph_Driver/src/stm32f4xx_rtc.c ****         status = ERROR;
 193              		.loc 1 429 16
 194 00d0 0023     		movs	r3, #0
 195 00d2 FB73     		strb	r3, [r7, #15]
 196 00d4 01E0     		b	.L3
 197              	.L7:
 430:../Shared/Libraries/STM32F4xx_StdPeriph_Driver/src/stm32f4xx_rtc.c ****       }
 431:../Shared/Libraries/STM32F4xx_StdPeriph_Driver/src/stm32f4xx_rtc.c ****       else
ARM GAS  /tmp/cctIRrNQ.s 			page 12


 432:../Shared/Libraries/STM32F4xx_StdPeriph_Driver/src/stm32f4xx_rtc.c ****       {
 433:../Shared/Libraries/STM32F4xx_StdPeriph_Driver/src/stm32f4xx_rtc.c ****         status = SUCCESS;      
 198              		.loc 1 433 16
 199 00d6 0123     		movs	r3, #1
 200 00d8 FB73     		strb	r3, [r7, #15]
 201              	.L3:
 434:../Shared/Libraries/STM32F4xx_StdPeriph_Driver/src/stm32f4xx_rtc.c ****       }
 435:../Shared/Libraries/STM32F4xx_StdPeriph_Driver/src/stm32f4xx_rtc.c ****     }
 436:../Shared/Libraries/STM32F4xx_StdPeriph_Driver/src/stm32f4xx_rtc.c ****   }
 437:../Shared/Libraries/STM32F4xx_StdPeriph_Driver/src/stm32f4xx_rtc.c ****   
 438:../Shared/Libraries/STM32F4xx_StdPeriph_Driver/src/stm32f4xx_rtc.c ****   /* Enable the write protection for RTC registers */
 439:../Shared/Libraries/STM32F4xx_StdPeriph_Driver/src/stm32f4xx_rtc.c ****   RTC->WPR = 0xFF;  
 202              		.loc 1 439 6
 203 00da 044B     		ldr	r3, .L9
 204              		.loc 1 439 12
 205 00dc FF22     		movs	r2, #255
 206 00de 5A62     		str	r2, [r3, #36]
 440:../Shared/Libraries/STM32F4xx_StdPeriph_Driver/src/stm32f4xx_rtc.c ****   
 441:../Shared/Libraries/STM32F4xx_StdPeriph_Driver/src/stm32f4xx_rtc.c ****   return status;
 207              		.loc 1 441 10
 208 00e0 FB7B     		ldrb	r3, [r7, #15]	@ zero_extendqisi2
 442:../Shared/Libraries/STM32F4xx_StdPeriph_Driver/src/stm32f4xx_rtc.c **** }
 209              		.loc 1 442 1
 210 00e2 1846     		mov	r0, r3
 211 00e4 1037     		adds	r7, r7, #16
 212              	.LCFI3:
 213              		.cfi_def_cfa_offset 8
 214 00e6 BD46     		mov	sp, r7
 215              	.LCFI4:
 216              		.cfi_def_cfa_register 13
 217              		@ sp needed
 218 00e8 80BD     		pop	{r7, pc}
 219              	.L10:
 220 00ea 00BF     		.align	2
 221              	.L9:
 222 00ec 00280040 		.word	1073752064
 223 00f0 FF007F00 		.word	8323327
 224              		.cfi_endproc
 225              	.LFE110:
 227              		.section	.text.RTC_Init,"ax",%progbits
 228              		.align	1
 229              		.global	RTC_Init
 230              		.syntax unified
 231              		.thumb
 232              		.thumb_func
 234              	RTC_Init:
 235              	.LFB111:
 443:../Shared/Libraries/STM32F4xx_StdPeriph_Driver/src/stm32f4xx_rtc.c **** 
 444:../Shared/Libraries/STM32F4xx_StdPeriph_Driver/src/stm32f4xx_rtc.c **** /**
 445:../Shared/Libraries/STM32F4xx_StdPeriph_Driver/src/stm32f4xx_rtc.c ****   * @brief  Initializes the RTC registers according to the specified parameters 
 446:../Shared/Libraries/STM32F4xx_StdPeriph_Driver/src/stm32f4xx_rtc.c ****   *         in RTC_InitStruct.
 447:../Shared/Libraries/STM32F4xx_StdPeriph_Driver/src/stm32f4xx_rtc.c ****   * @param  RTC_InitStruct: pointer to a RTC_InitTypeDef structure that contains 
 448:../Shared/Libraries/STM32F4xx_StdPeriph_Driver/src/stm32f4xx_rtc.c ****   *         the configuration information for the RTC peripheral.
 449:../Shared/Libraries/STM32F4xx_StdPeriph_Driver/src/stm32f4xx_rtc.c ****   * @note   The RTC Prescaler register is write protected and can be written in 
 450:../Shared/Libraries/STM32F4xx_StdPeriph_Driver/src/stm32f4xx_rtc.c ****   *         initialization mode only.  
 451:../Shared/Libraries/STM32F4xx_StdPeriph_Driver/src/stm32f4xx_rtc.c ****   * @retval An ErrorStatus enumeration value:
 452:../Shared/Libraries/STM32F4xx_StdPeriph_Driver/src/stm32f4xx_rtc.c ****   *          - SUCCESS: RTC registers are initialized
ARM GAS  /tmp/cctIRrNQ.s 			page 13


 453:../Shared/Libraries/STM32F4xx_StdPeriph_Driver/src/stm32f4xx_rtc.c ****   *          - ERROR: RTC registers are not initialized  
 454:../Shared/Libraries/STM32F4xx_StdPeriph_Driver/src/stm32f4xx_rtc.c ****   */
 455:../Shared/Libraries/STM32F4xx_StdPeriph_Driver/src/stm32f4xx_rtc.c **** ErrorStatus RTC_Init(RTC_InitTypeDef* RTC_InitStruct)
 456:../Shared/Libraries/STM32F4xx_StdPeriph_Driver/src/stm32f4xx_rtc.c **** {
 236              		.loc 1 456 1
 237              		.cfi_startproc
 238              		@ args = 0, pretend = 0, frame = 16
 239              		@ frame_needed = 1, uses_anonymous_args = 0
 240 0000 80B5     		push	{r7, lr}
 241              	.LCFI5:
 242              		.cfi_def_cfa_offset 8
 243              		.cfi_offset 7, -8
 244              		.cfi_offset 14, -4
 245 0002 84B0     		sub	sp, sp, #16
 246              	.LCFI6:
 247              		.cfi_def_cfa_offset 24
 248 0004 00AF     		add	r7, sp, #0
 249              	.LCFI7:
 250              		.cfi_def_cfa_register 7
 251 0006 7860     		str	r0, [r7, #4]
 457:../Shared/Libraries/STM32F4xx_StdPeriph_Driver/src/stm32f4xx_rtc.c ****   ErrorStatus status = ERROR;
 252              		.loc 1 457 15
 253 0008 0023     		movs	r3, #0
 254 000a FB73     		strb	r3, [r7, #15]
 458:../Shared/Libraries/STM32F4xx_StdPeriph_Driver/src/stm32f4xx_rtc.c ****   
 459:../Shared/Libraries/STM32F4xx_StdPeriph_Driver/src/stm32f4xx_rtc.c ****   /* Check the parameters */
 460:../Shared/Libraries/STM32F4xx_StdPeriph_Driver/src/stm32f4xx_rtc.c ****   assert_param(IS_RTC_HOUR_FORMAT(RTC_InitStruct->RTC_HourFormat));
 461:../Shared/Libraries/STM32F4xx_StdPeriph_Driver/src/stm32f4xx_rtc.c ****   assert_param(IS_RTC_ASYNCH_PREDIV(RTC_InitStruct->RTC_AsynchPrediv));
 462:../Shared/Libraries/STM32F4xx_StdPeriph_Driver/src/stm32f4xx_rtc.c ****   assert_param(IS_RTC_SYNCH_PREDIV(RTC_InitStruct->RTC_SynchPrediv));
 463:../Shared/Libraries/STM32F4xx_StdPeriph_Driver/src/stm32f4xx_rtc.c **** 
 464:../Shared/Libraries/STM32F4xx_StdPeriph_Driver/src/stm32f4xx_rtc.c ****   /* Disable the write protection for RTC registers */
 465:../Shared/Libraries/STM32F4xx_StdPeriph_Driver/src/stm32f4xx_rtc.c ****   RTC->WPR = 0xCA;
 255              		.loc 1 465 6
 256 000c 194B     		ldr	r3, .L15
 257              		.loc 1 465 12
 258 000e CA22     		movs	r2, #202
 259 0010 5A62     		str	r2, [r3, #36]
 466:../Shared/Libraries/STM32F4xx_StdPeriph_Driver/src/stm32f4xx_rtc.c ****   RTC->WPR = 0x53;
 260              		.loc 1 466 6
 261 0012 184B     		ldr	r3, .L15
 262              		.loc 1 466 12
 263 0014 5322     		movs	r2, #83
 264 0016 5A62     		str	r2, [r3, #36]
 467:../Shared/Libraries/STM32F4xx_StdPeriph_Driver/src/stm32f4xx_rtc.c **** 
 468:../Shared/Libraries/STM32F4xx_StdPeriph_Driver/src/stm32f4xx_rtc.c ****   /* Set Initialization mode */
 469:../Shared/Libraries/STM32F4xx_StdPeriph_Driver/src/stm32f4xx_rtc.c ****   if (RTC_EnterInitMode() == ERROR)
 265              		.loc 1 469 7
 266 0018 FFF7FEFF 		bl	RTC_EnterInitMode
 267 001c 0346     		mov	r3, r0
 268              		.loc 1 469 6 discriminator 1
 269 001e 002B     		cmp	r3, #0
 270 0020 02D1     		bne	.L12
 470:../Shared/Libraries/STM32F4xx_StdPeriph_Driver/src/stm32f4xx_rtc.c ****   {
 471:../Shared/Libraries/STM32F4xx_StdPeriph_Driver/src/stm32f4xx_rtc.c ****     status = ERROR;
 271              		.loc 1 471 12
 272 0022 0023     		movs	r3, #0
 273 0024 FB73     		strb	r3, [r7, #15]
ARM GAS  /tmp/cctIRrNQ.s 			page 14


 274 0026 1CE0     		b	.L13
 275              	.L12:
 472:../Shared/Libraries/STM32F4xx_StdPeriph_Driver/src/stm32f4xx_rtc.c ****   } 
 473:../Shared/Libraries/STM32F4xx_StdPeriph_Driver/src/stm32f4xx_rtc.c ****   else
 474:../Shared/Libraries/STM32F4xx_StdPeriph_Driver/src/stm32f4xx_rtc.c ****   {
 475:../Shared/Libraries/STM32F4xx_StdPeriph_Driver/src/stm32f4xx_rtc.c ****     /* Clear RTC CR FMT Bit */
 476:../Shared/Libraries/STM32F4xx_StdPeriph_Driver/src/stm32f4xx_rtc.c ****     RTC->CR &= ((uint32_t)~(RTC_CR_FMT));
 276              		.loc 1 476 8
 277 0028 124B     		ldr	r3, .L15
 278 002a 9B68     		ldr	r3, [r3, #8]
 279 002c 114A     		ldr	r2, .L15
 280              		.loc 1 476 13
 281 002e 23F04003 		bic	r3, r3, #64
 282 0032 9360     		str	r3, [r2, #8]
 477:../Shared/Libraries/STM32F4xx_StdPeriph_Driver/src/stm32f4xx_rtc.c ****     /* Set RTC_CR register */
 478:../Shared/Libraries/STM32F4xx_StdPeriph_Driver/src/stm32f4xx_rtc.c ****     RTC->CR |=  ((uint32_t)(RTC_InitStruct->RTC_HourFormat));
 283              		.loc 1 478 8
 284 0034 0F4B     		ldr	r3, .L15
 285 0036 9A68     		ldr	r2, [r3, #8]
 286              		.loc 1 478 43
 287 0038 7B68     		ldr	r3, [r7, #4]
 288 003a 1B68     		ldr	r3, [r3]
 289              		.loc 1 478 8
 290 003c 0D49     		ldr	r1, .L15
 291              		.loc 1 478 13
 292 003e 1343     		orrs	r3, r3, r2
 293 0040 8B60     		str	r3, [r1, #8]
 479:../Shared/Libraries/STM32F4xx_StdPeriph_Driver/src/stm32f4xx_rtc.c ****   
 480:../Shared/Libraries/STM32F4xx_StdPeriph_Driver/src/stm32f4xx_rtc.c ****     /* Configure the RTC PRER */
 481:../Shared/Libraries/STM32F4xx_StdPeriph_Driver/src/stm32f4xx_rtc.c ****     RTC->PRER = (uint32_t)(RTC_InitStruct->RTC_SynchPrediv);
 294              		.loc 1 481 8
 295 0042 0C4A     		ldr	r2, .L15
 296              		.loc 1 481 42
 297 0044 7B68     		ldr	r3, [r7, #4]
 298 0046 9B68     		ldr	r3, [r3, #8]
 299              		.loc 1 481 15
 300 0048 1361     		str	r3, [r2, #16]
 482:../Shared/Libraries/STM32F4xx_StdPeriph_Driver/src/stm32f4xx_rtc.c ****     RTC->PRER |= (uint32_t)(RTC_InitStruct->RTC_AsynchPrediv << 16);
 301              		.loc 1 482 8
 302 004a 0A4B     		ldr	r3, .L15
 303 004c 1A69     		ldr	r2, [r3, #16]
 304              		.loc 1 482 43
 305 004e 7B68     		ldr	r3, [r7, #4]
 306 0050 5B68     		ldr	r3, [r3, #4]
 307              		.loc 1 482 18
 308 0052 1B04     		lsls	r3, r3, #16
 309              		.loc 1 482 8
 310 0054 0749     		ldr	r1, .L15
 311              		.loc 1 482 15
 312 0056 1343     		orrs	r3, r3, r2
 313 0058 0B61     		str	r3, [r1, #16]
 483:../Shared/Libraries/STM32F4xx_StdPeriph_Driver/src/stm32f4xx_rtc.c **** 
 484:../Shared/Libraries/STM32F4xx_StdPeriph_Driver/src/stm32f4xx_rtc.c ****     /* Exit Initialization mode */
 485:../Shared/Libraries/STM32F4xx_StdPeriph_Driver/src/stm32f4xx_rtc.c ****     RTC_ExitInitMode();
 314              		.loc 1 485 5
 315 005a FFF7FEFF 		bl	RTC_ExitInitMode
 486:../Shared/Libraries/STM32F4xx_StdPeriph_Driver/src/stm32f4xx_rtc.c **** 
ARM GAS  /tmp/cctIRrNQ.s 			page 15


 487:../Shared/Libraries/STM32F4xx_StdPeriph_Driver/src/stm32f4xx_rtc.c ****     status = SUCCESS;    
 316              		.loc 1 487 12
 317 005e 0123     		movs	r3, #1
 318 0060 FB73     		strb	r3, [r7, #15]
 319              	.L13:
 488:../Shared/Libraries/STM32F4xx_StdPeriph_Driver/src/stm32f4xx_rtc.c ****   }
 489:../Shared/Libraries/STM32F4xx_StdPeriph_Driver/src/stm32f4xx_rtc.c ****   /* Enable the write protection for RTC registers */
 490:../Shared/Libraries/STM32F4xx_StdPeriph_Driver/src/stm32f4xx_rtc.c ****   RTC->WPR = 0xFF; 
 320              		.loc 1 490 6
 321 0062 044B     		ldr	r3, .L15
 322              		.loc 1 490 12
 323 0064 FF22     		movs	r2, #255
 324 0066 5A62     		str	r2, [r3, #36]
 491:../Shared/Libraries/STM32F4xx_StdPeriph_Driver/src/stm32f4xx_rtc.c ****   
 492:../Shared/Libraries/STM32F4xx_StdPeriph_Driver/src/stm32f4xx_rtc.c ****   return status;
 325              		.loc 1 492 10
 326 0068 FB7B     		ldrb	r3, [r7, #15]	@ zero_extendqisi2
 493:../Shared/Libraries/STM32F4xx_StdPeriph_Driver/src/stm32f4xx_rtc.c **** }
 327              		.loc 1 493 1
 328 006a 1846     		mov	r0, r3
 329 006c 1037     		adds	r7, r7, #16
 330              	.LCFI8:
 331              		.cfi_def_cfa_offset 8
 332 006e BD46     		mov	sp, r7
 333              	.LCFI9:
 334              		.cfi_def_cfa_register 13
 335              		@ sp needed
 336 0070 80BD     		pop	{r7, pc}
 337              	.L16:
 338 0072 00BF     		.align	2
 339              	.L15:
 340 0074 00280040 		.word	1073752064
 341              		.cfi_endproc
 342              	.LFE111:
 344              		.section	.text.RTC_StructInit,"ax",%progbits
 345              		.align	1
 346              		.global	RTC_StructInit
 347              		.syntax unified
 348              		.thumb
 349              		.thumb_func
 351              	RTC_StructInit:
 352              	.LFB112:
 494:../Shared/Libraries/STM32F4xx_StdPeriph_Driver/src/stm32f4xx_rtc.c **** 
 495:../Shared/Libraries/STM32F4xx_StdPeriph_Driver/src/stm32f4xx_rtc.c **** /**
 496:../Shared/Libraries/STM32F4xx_StdPeriph_Driver/src/stm32f4xx_rtc.c ****   * @brief  Fills each RTC_InitStruct member with its default value.
 497:../Shared/Libraries/STM32F4xx_StdPeriph_Driver/src/stm32f4xx_rtc.c ****   * @param  RTC_InitStruct: pointer to a RTC_InitTypeDef structure which will be 
 498:../Shared/Libraries/STM32F4xx_StdPeriph_Driver/src/stm32f4xx_rtc.c ****   *         initialized.
 499:../Shared/Libraries/STM32F4xx_StdPeriph_Driver/src/stm32f4xx_rtc.c ****   * @retval None
 500:../Shared/Libraries/STM32F4xx_StdPeriph_Driver/src/stm32f4xx_rtc.c ****   */
 501:../Shared/Libraries/STM32F4xx_StdPeriph_Driver/src/stm32f4xx_rtc.c **** void RTC_StructInit(RTC_InitTypeDef* RTC_InitStruct)
 502:../Shared/Libraries/STM32F4xx_StdPeriph_Driver/src/stm32f4xx_rtc.c **** {
 353              		.loc 1 502 1
 354              		.cfi_startproc
 355              		@ args = 0, pretend = 0, frame = 8
 356              		@ frame_needed = 1, uses_anonymous_args = 0
 357              		@ link register save eliminated.
 358 0000 80B4     		push	{r7}
ARM GAS  /tmp/cctIRrNQ.s 			page 16


 359              	.LCFI10:
 360              		.cfi_def_cfa_offset 4
 361              		.cfi_offset 7, -4
 362 0002 83B0     		sub	sp, sp, #12
 363              	.LCFI11:
 364              		.cfi_def_cfa_offset 16
 365 0004 00AF     		add	r7, sp, #0
 366              	.LCFI12:
 367              		.cfi_def_cfa_register 7
 368 0006 7860     		str	r0, [r7, #4]
 503:../Shared/Libraries/STM32F4xx_StdPeriph_Driver/src/stm32f4xx_rtc.c ****   /* Initialize the RTC_HourFormat member */
 504:../Shared/Libraries/STM32F4xx_StdPeriph_Driver/src/stm32f4xx_rtc.c ****   RTC_InitStruct->RTC_HourFormat = RTC_HourFormat_24;
 369              		.loc 1 504 34
 370 0008 7B68     		ldr	r3, [r7, #4]
 371 000a 0022     		movs	r2, #0
 372 000c 1A60     		str	r2, [r3]
 505:../Shared/Libraries/STM32F4xx_StdPeriph_Driver/src/stm32f4xx_rtc.c ****     
 506:../Shared/Libraries/STM32F4xx_StdPeriph_Driver/src/stm32f4xx_rtc.c ****   /* Initialize the RTC_AsynchPrediv member */
 507:../Shared/Libraries/STM32F4xx_StdPeriph_Driver/src/stm32f4xx_rtc.c ****   RTC_InitStruct->RTC_AsynchPrediv = (uint32_t)0x7F;
 373              		.loc 1 507 36
 374 000e 7B68     		ldr	r3, [r7, #4]
 375 0010 7F22     		movs	r2, #127
 376 0012 5A60     		str	r2, [r3, #4]
 508:../Shared/Libraries/STM32F4xx_StdPeriph_Driver/src/stm32f4xx_rtc.c **** 
 509:../Shared/Libraries/STM32F4xx_StdPeriph_Driver/src/stm32f4xx_rtc.c ****   /* Initialize the RTC_SynchPrediv member */
 510:../Shared/Libraries/STM32F4xx_StdPeriph_Driver/src/stm32f4xx_rtc.c ****   RTC_InitStruct->RTC_SynchPrediv = (uint32_t)0xFF; 
 377              		.loc 1 510 35
 378 0014 7B68     		ldr	r3, [r7, #4]
 379 0016 FF22     		movs	r2, #255
 380 0018 9A60     		str	r2, [r3, #8]
 511:../Shared/Libraries/STM32F4xx_StdPeriph_Driver/src/stm32f4xx_rtc.c **** }
 381              		.loc 1 511 1
 382 001a 00BF     		nop
 383 001c 0C37     		adds	r7, r7, #12
 384              	.LCFI13:
 385              		.cfi_def_cfa_offset 4
 386 001e BD46     		mov	sp, r7
 387              	.LCFI14:
 388              		.cfi_def_cfa_register 13
 389              		@ sp needed
 390 0020 5DF8047B 		ldr	r7, [sp], #4
 391              	.LCFI15:
 392              		.cfi_restore 7
 393              		.cfi_def_cfa_offset 0
 394 0024 7047     		bx	lr
 395              		.cfi_endproc
 396              	.LFE112:
 398              		.section	.text.RTC_WriteProtectionCmd,"ax",%progbits
 399              		.align	1
 400              		.global	RTC_WriteProtectionCmd
 401              		.syntax unified
 402              		.thumb
 403              		.thumb_func
 405              	RTC_WriteProtectionCmd:
 406              	.LFB113:
 512:../Shared/Libraries/STM32F4xx_StdPeriph_Driver/src/stm32f4xx_rtc.c **** 
 513:../Shared/Libraries/STM32F4xx_StdPeriph_Driver/src/stm32f4xx_rtc.c **** /**
ARM GAS  /tmp/cctIRrNQ.s 			page 17


 514:../Shared/Libraries/STM32F4xx_StdPeriph_Driver/src/stm32f4xx_rtc.c ****   * @brief  Enables or disables the RTC registers write protection.
 515:../Shared/Libraries/STM32F4xx_StdPeriph_Driver/src/stm32f4xx_rtc.c ****   * @note   All the RTC registers are write protected except for RTC_ISR[13:8], 
 516:../Shared/Libraries/STM32F4xx_StdPeriph_Driver/src/stm32f4xx_rtc.c ****   *         RTC_TAFCR and RTC_BKPxR.
 517:../Shared/Libraries/STM32F4xx_StdPeriph_Driver/src/stm32f4xx_rtc.c ****   * @note   Writing a wrong key reactivates the write protection.
 518:../Shared/Libraries/STM32F4xx_StdPeriph_Driver/src/stm32f4xx_rtc.c ****   * @note   The protection mechanism is not affected by system reset.  
 519:../Shared/Libraries/STM32F4xx_StdPeriph_Driver/src/stm32f4xx_rtc.c ****   * @param  NewState: new state of the write protection.
 520:../Shared/Libraries/STM32F4xx_StdPeriph_Driver/src/stm32f4xx_rtc.c ****   *          This parameter can be: ENABLE or DISABLE.
 521:../Shared/Libraries/STM32F4xx_StdPeriph_Driver/src/stm32f4xx_rtc.c ****   * @retval None
 522:../Shared/Libraries/STM32F4xx_StdPeriph_Driver/src/stm32f4xx_rtc.c ****   */
 523:../Shared/Libraries/STM32F4xx_StdPeriph_Driver/src/stm32f4xx_rtc.c **** void RTC_WriteProtectionCmd(FunctionalState NewState)
 524:../Shared/Libraries/STM32F4xx_StdPeriph_Driver/src/stm32f4xx_rtc.c **** {
 407              		.loc 1 524 1
 408              		.cfi_startproc
 409              		@ args = 0, pretend = 0, frame = 8
 410              		@ frame_needed = 1, uses_anonymous_args = 0
 411              		@ link register save eliminated.
 412 0000 80B4     		push	{r7}
 413              	.LCFI16:
 414              		.cfi_def_cfa_offset 4
 415              		.cfi_offset 7, -4
 416 0002 83B0     		sub	sp, sp, #12
 417              	.LCFI17:
 418              		.cfi_def_cfa_offset 16
 419 0004 00AF     		add	r7, sp, #0
 420              	.LCFI18:
 421              		.cfi_def_cfa_register 7
 422 0006 0346     		mov	r3, r0
 423 0008 FB71     		strb	r3, [r7, #7]
 525:../Shared/Libraries/STM32F4xx_StdPeriph_Driver/src/stm32f4xx_rtc.c ****   /* Check the parameters */
 526:../Shared/Libraries/STM32F4xx_StdPeriph_Driver/src/stm32f4xx_rtc.c ****   assert_param(IS_FUNCTIONAL_STATE(NewState));
 527:../Shared/Libraries/STM32F4xx_StdPeriph_Driver/src/stm32f4xx_rtc.c ****     
 528:../Shared/Libraries/STM32F4xx_StdPeriph_Driver/src/stm32f4xx_rtc.c ****   if (NewState != DISABLE)
 424              		.loc 1 528 6
 425 000a FB79     		ldrb	r3, [r7, #7]	@ zero_extendqisi2
 426 000c 002B     		cmp	r3, #0
 427 000e 03D0     		beq	.L19
 529:../Shared/Libraries/STM32F4xx_StdPeriph_Driver/src/stm32f4xx_rtc.c ****   {
 530:../Shared/Libraries/STM32F4xx_StdPeriph_Driver/src/stm32f4xx_rtc.c ****     /* Enable the write protection for RTC registers */
 531:../Shared/Libraries/STM32F4xx_StdPeriph_Driver/src/stm32f4xx_rtc.c ****     RTC->WPR = 0xFF;   
 428              		.loc 1 531 8
 429 0010 074B     		ldr	r3, .L22
 430              		.loc 1 531 14
 431 0012 FF22     		movs	r2, #255
 432 0014 5A62     		str	r2, [r3, #36]
 532:../Shared/Libraries/STM32F4xx_StdPeriph_Driver/src/stm32f4xx_rtc.c ****   }
 533:../Shared/Libraries/STM32F4xx_StdPeriph_Driver/src/stm32f4xx_rtc.c ****   else
 534:../Shared/Libraries/STM32F4xx_StdPeriph_Driver/src/stm32f4xx_rtc.c ****   {
 535:../Shared/Libraries/STM32F4xx_StdPeriph_Driver/src/stm32f4xx_rtc.c ****     /* Disable the write protection for RTC registers */
 536:../Shared/Libraries/STM32F4xx_StdPeriph_Driver/src/stm32f4xx_rtc.c ****     RTC->WPR = 0xCA;
 537:../Shared/Libraries/STM32F4xx_StdPeriph_Driver/src/stm32f4xx_rtc.c ****     RTC->WPR = 0x53;    
 538:../Shared/Libraries/STM32F4xx_StdPeriph_Driver/src/stm32f4xx_rtc.c ****   }
 539:../Shared/Libraries/STM32F4xx_StdPeriph_Driver/src/stm32f4xx_rtc.c **** }
 433              		.loc 1 539 1
 434 0016 05E0     		b	.L21
 435              	.L19:
 536:../Shared/Libraries/STM32F4xx_StdPeriph_Driver/src/stm32f4xx_rtc.c ****     RTC->WPR = 0x53;    
 436              		.loc 1 536 8
ARM GAS  /tmp/cctIRrNQ.s 			page 18


 437 0018 054B     		ldr	r3, .L22
 536:../Shared/Libraries/STM32F4xx_StdPeriph_Driver/src/stm32f4xx_rtc.c ****     RTC->WPR = 0x53;    
 438              		.loc 1 536 14
 439 001a CA22     		movs	r2, #202
 440 001c 5A62     		str	r2, [r3, #36]
 537:../Shared/Libraries/STM32F4xx_StdPeriph_Driver/src/stm32f4xx_rtc.c ****   }
 441              		.loc 1 537 8
 442 001e 044B     		ldr	r3, .L22
 537:../Shared/Libraries/STM32F4xx_StdPeriph_Driver/src/stm32f4xx_rtc.c ****   }
 443              		.loc 1 537 14
 444 0020 5322     		movs	r2, #83
 445 0022 5A62     		str	r2, [r3, #36]
 446              	.L21:
 447              		.loc 1 539 1
 448 0024 00BF     		nop
 449 0026 0C37     		adds	r7, r7, #12
 450              	.LCFI19:
 451              		.cfi_def_cfa_offset 4
 452 0028 BD46     		mov	sp, r7
 453              	.LCFI20:
 454              		.cfi_def_cfa_register 13
 455              		@ sp needed
 456 002a 5DF8047B 		ldr	r7, [sp], #4
 457              	.LCFI21:
 458              		.cfi_restore 7
 459              		.cfi_def_cfa_offset 0
 460 002e 7047     		bx	lr
 461              	.L23:
 462              		.align	2
 463              	.L22:
 464 0030 00280040 		.word	1073752064
 465              		.cfi_endproc
 466              	.LFE113:
 468              		.section	.text.RTC_EnterInitMode,"ax",%progbits
 469              		.align	1
 470              		.global	RTC_EnterInitMode
 471              		.syntax unified
 472              		.thumb
 473              		.thumb_func
 475              	RTC_EnterInitMode:
 476              	.LFB114:
 540:../Shared/Libraries/STM32F4xx_StdPeriph_Driver/src/stm32f4xx_rtc.c **** 
 541:../Shared/Libraries/STM32F4xx_StdPeriph_Driver/src/stm32f4xx_rtc.c **** /**
 542:../Shared/Libraries/STM32F4xx_StdPeriph_Driver/src/stm32f4xx_rtc.c ****   * @brief  Enters the RTC Initialization mode.
 543:../Shared/Libraries/STM32F4xx_StdPeriph_Driver/src/stm32f4xx_rtc.c ****   * @note   The RTC Initialization mode is write protected, use the 
 544:../Shared/Libraries/STM32F4xx_StdPeriph_Driver/src/stm32f4xx_rtc.c ****   *         RTC_WriteProtectionCmd(DISABLE) before calling this function.    
 545:../Shared/Libraries/STM32F4xx_StdPeriph_Driver/src/stm32f4xx_rtc.c ****   * @param  None
 546:../Shared/Libraries/STM32F4xx_StdPeriph_Driver/src/stm32f4xx_rtc.c ****   * @retval An ErrorStatus enumeration value:
 547:../Shared/Libraries/STM32F4xx_StdPeriph_Driver/src/stm32f4xx_rtc.c ****   *          - SUCCESS: RTC is in Init mode
 548:../Shared/Libraries/STM32F4xx_StdPeriph_Driver/src/stm32f4xx_rtc.c ****   *          - ERROR: RTC is not in Init mode  
 549:../Shared/Libraries/STM32F4xx_StdPeriph_Driver/src/stm32f4xx_rtc.c ****   */
 550:../Shared/Libraries/STM32F4xx_StdPeriph_Driver/src/stm32f4xx_rtc.c **** ErrorStatus RTC_EnterInitMode(void)
 551:../Shared/Libraries/STM32F4xx_StdPeriph_Driver/src/stm32f4xx_rtc.c **** {
 477              		.loc 1 551 1
 478              		.cfi_startproc
 479              		@ args = 0, pretend = 0, frame = 16
 480              		@ frame_needed = 1, uses_anonymous_args = 0
ARM GAS  /tmp/cctIRrNQ.s 			page 19


 481              		@ link register save eliminated.
 482 0000 80B4     		push	{r7}
 483              	.LCFI22:
 484              		.cfi_def_cfa_offset 4
 485              		.cfi_offset 7, -4
 486 0002 85B0     		sub	sp, sp, #20
 487              	.LCFI23:
 488              		.cfi_def_cfa_offset 24
 489 0004 00AF     		add	r7, sp, #0
 490              	.LCFI24:
 491              		.cfi_def_cfa_register 7
 552:../Shared/Libraries/STM32F4xx_StdPeriph_Driver/src/stm32f4xx_rtc.c ****   __IO uint32_t initcounter = 0x00;
 492              		.loc 1 552 17
 493 0006 0023     		movs	r3, #0
 494 0008 7B60     		str	r3, [r7, #4]
 553:../Shared/Libraries/STM32F4xx_StdPeriph_Driver/src/stm32f4xx_rtc.c ****   ErrorStatus status = ERROR;
 495              		.loc 1 553 15
 496 000a 0023     		movs	r3, #0
 497 000c FB73     		strb	r3, [r7, #15]
 554:../Shared/Libraries/STM32F4xx_StdPeriph_Driver/src/stm32f4xx_rtc.c ****   uint32_t initstatus = 0x00;
 498              		.loc 1 554 12
 499 000e 0023     		movs	r3, #0
 500 0010 BB60     		str	r3, [r7, #8]
 555:../Shared/Libraries/STM32F4xx_StdPeriph_Driver/src/stm32f4xx_rtc.c ****      
 556:../Shared/Libraries/STM32F4xx_StdPeriph_Driver/src/stm32f4xx_rtc.c ****   /* Check if the Initialization mode is set */
 557:../Shared/Libraries/STM32F4xx_StdPeriph_Driver/src/stm32f4xx_rtc.c ****   if ((RTC->ISR & RTC_ISR_INITF) == (uint32_t)RESET)
 501              		.loc 1 557 11
 502 0012 174B     		ldr	r3, .L31
 503 0014 DB68     		ldr	r3, [r3, #12]
 504              		.loc 1 557 17
 505 0016 03F04003 		and	r3, r3, #64
 506              		.loc 1 557 6
 507 001a 002B     		cmp	r3, #0
 508 001c 1ED1     		bne	.L25
 558:../Shared/Libraries/STM32F4xx_StdPeriph_Driver/src/stm32f4xx_rtc.c ****   {
 559:../Shared/Libraries/STM32F4xx_StdPeriph_Driver/src/stm32f4xx_rtc.c ****     /* Set the Initialization mode */
 560:../Shared/Libraries/STM32F4xx_StdPeriph_Driver/src/stm32f4xx_rtc.c ****     RTC->ISR = (uint32_t)RTC_INIT_MASK;
 509              		.loc 1 560 8
 510 001e 144B     		ldr	r3, .L31
 511              		.loc 1 560 14
 512 0020 4FF0FF32 		mov	r2, #-1
 513 0024 DA60     		str	r2, [r3, #12]
 514              	.L27:
 561:../Shared/Libraries/STM32F4xx_StdPeriph_Driver/src/stm32f4xx_rtc.c ****     
 562:../Shared/Libraries/STM32F4xx_StdPeriph_Driver/src/stm32f4xx_rtc.c ****     /* Wait till RTC is in INIT state and if Time out is reached exit */
 563:../Shared/Libraries/STM32F4xx_StdPeriph_Driver/src/stm32f4xx_rtc.c ****     do
 564:../Shared/Libraries/STM32F4xx_StdPeriph_Driver/src/stm32f4xx_rtc.c ****     {
 565:../Shared/Libraries/STM32F4xx_StdPeriph_Driver/src/stm32f4xx_rtc.c ****       initstatus = RTC->ISR & RTC_ISR_INITF;
 515              		.loc 1 565 23
 516 0026 124B     		ldr	r3, .L31
 517 0028 DB68     		ldr	r3, [r3, #12]
 518              		.loc 1 565 18
 519 002a 03F04003 		and	r3, r3, #64
 520 002e BB60     		str	r3, [r7, #8]
 566:../Shared/Libraries/STM32F4xx_StdPeriph_Driver/src/stm32f4xx_rtc.c ****       initcounter++;  
 521              		.loc 1 566 18
 522 0030 7B68     		ldr	r3, [r7, #4]
ARM GAS  /tmp/cctIRrNQ.s 			page 20


 523 0032 0133     		adds	r3, r3, #1
 524 0034 7B60     		str	r3, [r7, #4]
 567:../Shared/Libraries/STM32F4xx_StdPeriph_Driver/src/stm32f4xx_rtc.c ****     } while((initcounter != INITMODE_TIMEOUT) && (initstatus == 0x00));
 525              		.loc 1 567 26 discriminator 2
 526 0036 7B68     		ldr	r3, [r7, #4]
 527              		.loc 1 567 47 discriminator 2
 528 0038 B3F5803F 		cmp	r3, #65536
 529 003c 02D0     		beq	.L26
 530              		.loc 1 567 47 is_stmt 0 discriminator 1
 531 003e BB68     		ldr	r3, [r7, #8]
 532 0040 002B     		cmp	r3, #0
 533 0042 F0D0     		beq	.L27
 534              	.L26:
 568:../Shared/Libraries/STM32F4xx_StdPeriph_Driver/src/stm32f4xx_rtc.c ****     
 569:../Shared/Libraries/STM32F4xx_StdPeriph_Driver/src/stm32f4xx_rtc.c ****     if ((RTC->ISR & RTC_ISR_INITF) != RESET)
 535              		.loc 1 569 13 is_stmt 1
 536 0044 0A4B     		ldr	r3, .L31
 537 0046 DB68     		ldr	r3, [r3, #12]
 538              		.loc 1 569 19
 539 0048 03F04003 		and	r3, r3, #64
 540              		.loc 1 569 8
 541 004c 002B     		cmp	r3, #0
 542 004e 02D0     		beq	.L28
 570:../Shared/Libraries/STM32F4xx_StdPeriph_Driver/src/stm32f4xx_rtc.c ****     {
 571:../Shared/Libraries/STM32F4xx_StdPeriph_Driver/src/stm32f4xx_rtc.c ****       status = SUCCESS;
 543              		.loc 1 571 14
 544 0050 0123     		movs	r3, #1
 545 0052 FB73     		strb	r3, [r7, #15]
 546 0054 04E0     		b	.L29
 547              	.L28:
 572:../Shared/Libraries/STM32F4xx_StdPeriph_Driver/src/stm32f4xx_rtc.c ****     }
 573:../Shared/Libraries/STM32F4xx_StdPeriph_Driver/src/stm32f4xx_rtc.c ****     else
 574:../Shared/Libraries/STM32F4xx_StdPeriph_Driver/src/stm32f4xx_rtc.c ****     {
 575:../Shared/Libraries/STM32F4xx_StdPeriph_Driver/src/stm32f4xx_rtc.c ****       status = ERROR;
 548              		.loc 1 575 14
 549 0056 0023     		movs	r3, #0
 550 0058 FB73     		strb	r3, [r7, #15]
 551 005a 01E0     		b	.L29
 552              	.L25:
 576:../Shared/Libraries/STM32F4xx_StdPeriph_Driver/src/stm32f4xx_rtc.c ****     }        
 577:../Shared/Libraries/STM32F4xx_StdPeriph_Driver/src/stm32f4xx_rtc.c ****   }
 578:../Shared/Libraries/STM32F4xx_StdPeriph_Driver/src/stm32f4xx_rtc.c ****   else
 579:../Shared/Libraries/STM32F4xx_StdPeriph_Driver/src/stm32f4xx_rtc.c ****   {
 580:../Shared/Libraries/STM32F4xx_StdPeriph_Driver/src/stm32f4xx_rtc.c ****     status = SUCCESS;  
 553              		.loc 1 580 12
 554 005c 0123     		movs	r3, #1
 555 005e FB73     		strb	r3, [r7, #15]
 556              	.L29:
 581:../Shared/Libraries/STM32F4xx_StdPeriph_Driver/src/stm32f4xx_rtc.c ****   } 
 582:../Shared/Libraries/STM32F4xx_StdPeriph_Driver/src/stm32f4xx_rtc.c ****     
 583:../Shared/Libraries/STM32F4xx_StdPeriph_Driver/src/stm32f4xx_rtc.c ****   return (status);  
 557              		.loc 1 583 10
 558 0060 FB7B     		ldrb	r3, [r7, #15]	@ zero_extendqisi2
 584:../Shared/Libraries/STM32F4xx_StdPeriph_Driver/src/stm32f4xx_rtc.c **** }
 559              		.loc 1 584 1
 560 0062 1846     		mov	r0, r3
 561 0064 1437     		adds	r7, r7, #20
ARM GAS  /tmp/cctIRrNQ.s 			page 21


 562              	.LCFI25:
 563              		.cfi_def_cfa_offset 4
 564 0066 BD46     		mov	sp, r7
 565              	.LCFI26:
 566              		.cfi_def_cfa_register 13
 567              		@ sp needed
 568 0068 5DF8047B 		ldr	r7, [sp], #4
 569              	.LCFI27:
 570              		.cfi_restore 7
 571              		.cfi_def_cfa_offset 0
 572 006c 7047     		bx	lr
 573              	.L32:
 574 006e 00BF     		.align	2
 575              	.L31:
 576 0070 00280040 		.word	1073752064
 577              		.cfi_endproc
 578              	.LFE114:
 580              		.section	.text.RTC_ExitInitMode,"ax",%progbits
 581              		.align	1
 582              		.global	RTC_ExitInitMode
 583              		.syntax unified
 584              		.thumb
 585              		.thumb_func
 587              	RTC_ExitInitMode:
 588              	.LFB115:
 585:../Shared/Libraries/STM32F4xx_StdPeriph_Driver/src/stm32f4xx_rtc.c **** 
 586:../Shared/Libraries/STM32F4xx_StdPeriph_Driver/src/stm32f4xx_rtc.c **** /**
 587:../Shared/Libraries/STM32F4xx_StdPeriph_Driver/src/stm32f4xx_rtc.c ****   * @brief  Exits the RTC Initialization mode.
 588:../Shared/Libraries/STM32F4xx_StdPeriph_Driver/src/stm32f4xx_rtc.c ****   * @note   When the initialization sequence is complete, the calendar restarts 
 589:../Shared/Libraries/STM32F4xx_StdPeriph_Driver/src/stm32f4xx_rtc.c ****   *         counting after 4 RTCCLK cycles.  
 590:../Shared/Libraries/STM32F4xx_StdPeriph_Driver/src/stm32f4xx_rtc.c ****   * @note   The RTC Initialization mode is write protected, use the 
 591:../Shared/Libraries/STM32F4xx_StdPeriph_Driver/src/stm32f4xx_rtc.c ****   *         RTC_WriteProtectionCmd(DISABLE) before calling this function.      
 592:../Shared/Libraries/STM32F4xx_StdPeriph_Driver/src/stm32f4xx_rtc.c ****   * @param  None
 593:../Shared/Libraries/STM32F4xx_StdPeriph_Driver/src/stm32f4xx_rtc.c ****   * @retval None
 594:../Shared/Libraries/STM32F4xx_StdPeriph_Driver/src/stm32f4xx_rtc.c ****   */
 595:../Shared/Libraries/STM32F4xx_StdPeriph_Driver/src/stm32f4xx_rtc.c **** void RTC_ExitInitMode(void)
 596:../Shared/Libraries/STM32F4xx_StdPeriph_Driver/src/stm32f4xx_rtc.c **** { 
 589              		.loc 1 596 1
 590              		.cfi_startproc
 591              		@ args = 0, pretend = 0, frame = 0
 592              		@ frame_needed = 1, uses_anonymous_args = 0
 593              		@ link register save eliminated.
 594 0000 80B4     		push	{r7}
 595              	.LCFI28:
 596              		.cfi_def_cfa_offset 4
 597              		.cfi_offset 7, -4
 598 0002 00AF     		add	r7, sp, #0
 599              	.LCFI29:
 600              		.cfi_def_cfa_register 7
 597:../Shared/Libraries/STM32F4xx_StdPeriph_Driver/src/stm32f4xx_rtc.c ****   /* Exit Initialization mode */
 598:../Shared/Libraries/STM32F4xx_StdPeriph_Driver/src/stm32f4xx_rtc.c ****   RTC->ISR &= (uint32_t)~RTC_ISR_INIT;  
 601              		.loc 1 598 6
 602 0004 054B     		ldr	r3, .L34
 603 0006 DB68     		ldr	r3, [r3, #12]
 604 0008 044A     		ldr	r2, .L34
 605              		.loc 1 598 12
 606 000a 23F08003 		bic	r3, r3, #128
ARM GAS  /tmp/cctIRrNQ.s 			page 22


 607 000e D360     		str	r3, [r2, #12]
 599:../Shared/Libraries/STM32F4xx_StdPeriph_Driver/src/stm32f4xx_rtc.c **** }
 608              		.loc 1 599 1
 609 0010 00BF     		nop
 610 0012 BD46     		mov	sp, r7
 611              	.LCFI30:
 612              		.cfi_def_cfa_register 13
 613              		@ sp needed
 614 0014 5DF8047B 		ldr	r7, [sp], #4
 615              	.LCFI31:
 616              		.cfi_restore 7
 617              		.cfi_def_cfa_offset 0
 618 0018 7047     		bx	lr
 619              	.L35:
 620 001a 00BF     		.align	2
 621              	.L34:
 622 001c 00280040 		.word	1073752064
 623              		.cfi_endproc
 624              	.LFE115:
 626              		.section	.text.RTC_WaitForSynchro,"ax",%progbits
 627              		.align	1
 628              		.global	RTC_WaitForSynchro
 629              		.syntax unified
 630              		.thumb
 631              		.thumb_func
 633              	RTC_WaitForSynchro:
 634              	.LFB116:
 600:../Shared/Libraries/STM32F4xx_StdPeriph_Driver/src/stm32f4xx_rtc.c **** 
 601:../Shared/Libraries/STM32F4xx_StdPeriph_Driver/src/stm32f4xx_rtc.c **** /**
 602:../Shared/Libraries/STM32F4xx_StdPeriph_Driver/src/stm32f4xx_rtc.c ****   * @brief  Waits until the RTC Time and Date registers (RTC_TR and RTC_DR) are 
 603:../Shared/Libraries/STM32F4xx_StdPeriph_Driver/src/stm32f4xx_rtc.c ****   *         synchronized with RTC APB clock.
 604:../Shared/Libraries/STM32F4xx_StdPeriph_Driver/src/stm32f4xx_rtc.c ****   * @note   The RTC Resynchronization mode is write protected, use the 
 605:../Shared/Libraries/STM32F4xx_StdPeriph_Driver/src/stm32f4xx_rtc.c ****   *         RTC_WriteProtectionCmd(DISABLE) before calling this function. 
 606:../Shared/Libraries/STM32F4xx_StdPeriph_Driver/src/stm32f4xx_rtc.c ****   * @note   To read the calendar through the shadow registers after Calendar 
 607:../Shared/Libraries/STM32F4xx_StdPeriph_Driver/src/stm32f4xx_rtc.c ****   *         initialization, calendar update or after wakeup from low power modes 
 608:../Shared/Libraries/STM32F4xx_StdPeriph_Driver/src/stm32f4xx_rtc.c ****   *         the software must first clear the RSF flag. 
 609:../Shared/Libraries/STM32F4xx_StdPeriph_Driver/src/stm32f4xx_rtc.c ****   *         The software must then wait until it is set again before reading 
 610:../Shared/Libraries/STM32F4xx_StdPeriph_Driver/src/stm32f4xx_rtc.c ****   *         the calendar, which means that the calendar registers have been 
 611:../Shared/Libraries/STM32F4xx_StdPeriph_Driver/src/stm32f4xx_rtc.c ****   *         correctly copied into the RTC_TR and RTC_DR shadow registers.   
 612:../Shared/Libraries/STM32F4xx_StdPeriph_Driver/src/stm32f4xx_rtc.c ****   * @param  None
 613:../Shared/Libraries/STM32F4xx_StdPeriph_Driver/src/stm32f4xx_rtc.c ****   * @retval An ErrorStatus enumeration value:
 614:../Shared/Libraries/STM32F4xx_StdPeriph_Driver/src/stm32f4xx_rtc.c ****   *          - SUCCESS: RTC registers are synchronised
 615:../Shared/Libraries/STM32F4xx_StdPeriph_Driver/src/stm32f4xx_rtc.c ****   *          - ERROR: RTC registers are not synchronised
 616:../Shared/Libraries/STM32F4xx_StdPeriph_Driver/src/stm32f4xx_rtc.c ****   */
 617:../Shared/Libraries/STM32F4xx_StdPeriph_Driver/src/stm32f4xx_rtc.c **** ErrorStatus RTC_WaitForSynchro(void)
 618:../Shared/Libraries/STM32F4xx_StdPeriph_Driver/src/stm32f4xx_rtc.c **** {
 635              		.loc 1 618 1
 636              		.cfi_startproc
 637              		@ args = 0, pretend = 0, frame = 16
 638              		@ frame_needed = 1, uses_anonymous_args = 0
 639              		@ link register save eliminated.
 640 0000 80B4     		push	{r7}
 641              	.LCFI32:
 642              		.cfi_def_cfa_offset 4
 643              		.cfi_offset 7, -4
 644 0002 85B0     		sub	sp, sp, #20
 645              	.LCFI33:
ARM GAS  /tmp/cctIRrNQ.s 			page 23


 646              		.cfi_def_cfa_offset 24
 647 0004 00AF     		add	r7, sp, #0
 648              	.LCFI34:
 649              		.cfi_def_cfa_register 7
 619:../Shared/Libraries/STM32F4xx_StdPeriph_Driver/src/stm32f4xx_rtc.c ****   __IO uint32_t synchrocounter = 0;
 650              		.loc 1 619 17
 651 0006 0023     		movs	r3, #0
 652 0008 7B60     		str	r3, [r7, #4]
 620:../Shared/Libraries/STM32F4xx_StdPeriph_Driver/src/stm32f4xx_rtc.c ****   ErrorStatus status = ERROR;
 653              		.loc 1 620 15
 654 000a 0023     		movs	r3, #0
 655 000c FB73     		strb	r3, [r7, #15]
 621:../Shared/Libraries/STM32F4xx_StdPeriph_Driver/src/stm32f4xx_rtc.c ****   uint32_t synchrostatus = 0x00;
 656              		.loc 1 621 12
 657 000e 0023     		movs	r3, #0
 658 0010 BB60     		str	r3, [r7, #8]
 622:../Shared/Libraries/STM32F4xx_StdPeriph_Driver/src/stm32f4xx_rtc.c **** 
 623:../Shared/Libraries/STM32F4xx_StdPeriph_Driver/src/stm32f4xx_rtc.c ****   /* Disable the write protection for RTC registers */
 624:../Shared/Libraries/STM32F4xx_StdPeriph_Driver/src/stm32f4xx_rtc.c ****   RTC->WPR = 0xCA;
 659              		.loc 1 624 6
 660 0012 184B     		ldr	r3, .L42
 661              		.loc 1 624 12
 662 0014 CA22     		movs	r2, #202
 663 0016 5A62     		str	r2, [r3, #36]
 625:../Shared/Libraries/STM32F4xx_StdPeriph_Driver/src/stm32f4xx_rtc.c ****   RTC->WPR = 0x53;
 664              		.loc 1 625 6
 665 0018 164B     		ldr	r3, .L42
 666              		.loc 1 625 12
 667 001a 5322     		movs	r2, #83
 668 001c 5A62     		str	r2, [r3, #36]
 626:../Shared/Libraries/STM32F4xx_StdPeriph_Driver/src/stm32f4xx_rtc.c ****     
 627:../Shared/Libraries/STM32F4xx_StdPeriph_Driver/src/stm32f4xx_rtc.c ****   /* Clear RSF flag */
 628:../Shared/Libraries/STM32F4xx_StdPeriph_Driver/src/stm32f4xx_rtc.c ****   RTC->ISR &= (uint32_t)RTC_RSF_MASK;
 669              		.loc 1 628 6
 670 001e 154B     		ldr	r3, .L42
 671 0020 DB68     		ldr	r3, [r3, #12]
 672 0022 144A     		ldr	r2, .L42
 673              		.loc 1 628 12
 674 0024 23F0A003 		bic	r3, r3, #160
 675 0028 D360     		str	r3, [r2, #12]
 676              	.L38:
 629:../Shared/Libraries/STM32F4xx_StdPeriph_Driver/src/stm32f4xx_rtc.c ****     
 630:../Shared/Libraries/STM32F4xx_StdPeriph_Driver/src/stm32f4xx_rtc.c ****   /* Wait the registers to be synchronised */
 631:../Shared/Libraries/STM32F4xx_StdPeriph_Driver/src/stm32f4xx_rtc.c ****   do
 632:../Shared/Libraries/STM32F4xx_StdPeriph_Driver/src/stm32f4xx_rtc.c ****   {
 633:../Shared/Libraries/STM32F4xx_StdPeriph_Driver/src/stm32f4xx_rtc.c ****     synchrostatus = RTC->ISR & RTC_ISR_RSF;
 677              		.loc 1 633 24
 678 002a 124B     		ldr	r3, .L42
 679 002c DB68     		ldr	r3, [r3, #12]
 680              		.loc 1 633 19
 681 002e 03F02003 		and	r3, r3, #32
 682 0032 BB60     		str	r3, [r7, #8]
 634:../Shared/Libraries/STM32F4xx_StdPeriph_Driver/src/stm32f4xx_rtc.c ****     synchrocounter++;  
 683              		.loc 1 634 19
 684 0034 7B68     		ldr	r3, [r7, #4]
 685 0036 0133     		adds	r3, r3, #1
 686 0038 7B60     		str	r3, [r7, #4]
ARM GAS  /tmp/cctIRrNQ.s 			page 24


 635:../Shared/Libraries/STM32F4xx_StdPeriph_Driver/src/stm32f4xx_rtc.c ****   } while((synchrocounter != SYNCHRO_TIMEOUT) && (synchrostatus == 0x00));
 687              		.loc 1 635 27 discriminator 2
 688 003a 7B68     		ldr	r3, [r7, #4]
 689              		.loc 1 635 47 discriminator 2
 690 003c B3F5003F 		cmp	r3, #131072
 691 0040 02D0     		beq	.L37
 692              		.loc 1 635 47 is_stmt 0 discriminator 1
 693 0042 BB68     		ldr	r3, [r7, #8]
 694 0044 002B     		cmp	r3, #0
 695 0046 F0D0     		beq	.L38
 696              	.L37:
 636:../Shared/Libraries/STM32F4xx_StdPeriph_Driver/src/stm32f4xx_rtc.c ****     
 637:../Shared/Libraries/STM32F4xx_StdPeriph_Driver/src/stm32f4xx_rtc.c ****   if ((RTC->ISR & RTC_ISR_RSF) != RESET)
 697              		.loc 1 637 11 is_stmt 1
 698 0048 0A4B     		ldr	r3, .L42
 699 004a DB68     		ldr	r3, [r3, #12]
 700              		.loc 1 637 17
 701 004c 03F02003 		and	r3, r3, #32
 702              		.loc 1 637 6
 703 0050 002B     		cmp	r3, #0
 704 0052 02D0     		beq	.L39
 638:../Shared/Libraries/STM32F4xx_StdPeriph_Driver/src/stm32f4xx_rtc.c ****   {
 639:../Shared/Libraries/STM32F4xx_StdPeriph_Driver/src/stm32f4xx_rtc.c ****     status = SUCCESS;
 705              		.loc 1 639 12
 706 0054 0123     		movs	r3, #1
 707 0056 FB73     		strb	r3, [r7, #15]
 708 0058 01E0     		b	.L40
 709              	.L39:
 640:../Shared/Libraries/STM32F4xx_StdPeriph_Driver/src/stm32f4xx_rtc.c ****   }
 641:../Shared/Libraries/STM32F4xx_StdPeriph_Driver/src/stm32f4xx_rtc.c ****   else
 642:../Shared/Libraries/STM32F4xx_StdPeriph_Driver/src/stm32f4xx_rtc.c ****   {
 643:../Shared/Libraries/STM32F4xx_StdPeriph_Driver/src/stm32f4xx_rtc.c ****     status = ERROR;
 710              		.loc 1 643 12
 711 005a 0023     		movs	r3, #0
 712 005c FB73     		strb	r3, [r7, #15]
 713              	.L40:
 644:../Shared/Libraries/STM32F4xx_StdPeriph_Driver/src/stm32f4xx_rtc.c ****   }        
 645:../Shared/Libraries/STM32F4xx_StdPeriph_Driver/src/stm32f4xx_rtc.c **** 
 646:../Shared/Libraries/STM32F4xx_StdPeriph_Driver/src/stm32f4xx_rtc.c ****   /* Enable the write protection for RTC registers */
 647:../Shared/Libraries/STM32F4xx_StdPeriph_Driver/src/stm32f4xx_rtc.c ****   RTC->WPR = 0xFF; 
 714              		.loc 1 647 6
 715 005e 054B     		ldr	r3, .L42
 716              		.loc 1 647 12
 717 0060 FF22     		movs	r2, #255
 718 0062 5A62     		str	r2, [r3, #36]
 648:../Shared/Libraries/STM32F4xx_StdPeriph_Driver/src/stm32f4xx_rtc.c ****     
 649:../Shared/Libraries/STM32F4xx_StdPeriph_Driver/src/stm32f4xx_rtc.c ****   return (status); 
 719              		.loc 1 649 10
 720 0064 FB7B     		ldrb	r3, [r7, #15]	@ zero_extendqisi2
 650:../Shared/Libraries/STM32F4xx_StdPeriph_Driver/src/stm32f4xx_rtc.c **** }
 721              		.loc 1 650 1
 722 0066 1846     		mov	r0, r3
 723 0068 1437     		adds	r7, r7, #20
 724              	.LCFI35:
 725              		.cfi_def_cfa_offset 4
 726 006a BD46     		mov	sp, r7
 727              	.LCFI36:
ARM GAS  /tmp/cctIRrNQ.s 			page 25


 728              		.cfi_def_cfa_register 13
 729              		@ sp needed
 730 006c 5DF8047B 		ldr	r7, [sp], #4
 731              	.LCFI37:
 732              		.cfi_restore 7
 733              		.cfi_def_cfa_offset 0
 734 0070 7047     		bx	lr
 735              	.L43:
 736 0072 00BF     		.align	2
 737              	.L42:
 738 0074 00280040 		.word	1073752064
 739              		.cfi_endproc
 740              	.LFE116:
 742              		.section	.text.RTC_RefClockCmd,"ax",%progbits
 743              		.align	1
 744              		.global	RTC_RefClockCmd
 745              		.syntax unified
 746              		.thumb
 747              		.thumb_func
 749              	RTC_RefClockCmd:
 750              	.LFB117:
 651:../Shared/Libraries/STM32F4xx_StdPeriph_Driver/src/stm32f4xx_rtc.c **** 
 652:../Shared/Libraries/STM32F4xx_StdPeriph_Driver/src/stm32f4xx_rtc.c **** /**
 653:../Shared/Libraries/STM32F4xx_StdPeriph_Driver/src/stm32f4xx_rtc.c ****   * @brief  Enables or disables the RTC reference clock detection.
 654:../Shared/Libraries/STM32F4xx_StdPeriph_Driver/src/stm32f4xx_rtc.c ****   * @param  NewState: new state of the RTC reference clock.
 655:../Shared/Libraries/STM32F4xx_StdPeriph_Driver/src/stm32f4xx_rtc.c ****   *          This parameter can be: ENABLE or DISABLE.
 656:../Shared/Libraries/STM32F4xx_StdPeriph_Driver/src/stm32f4xx_rtc.c ****   * @retval An ErrorStatus enumeration value:
 657:../Shared/Libraries/STM32F4xx_StdPeriph_Driver/src/stm32f4xx_rtc.c ****   *          - SUCCESS: RTC reference clock detection is enabled
 658:../Shared/Libraries/STM32F4xx_StdPeriph_Driver/src/stm32f4xx_rtc.c ****   *          - ERROR: RTC reference clock detection is disabled  
 659:../Shared/Libraries/STM32F4xx_StdPeriph_Driver/src/stm32f4xx_rtc.c ****   */
 660:../Shared/Libraries/STM32F4xx_StdPeriph_Driver/src/stm32f4xx_rtc.c **** ErrorStatus RTC_RefClockCmd(FunctionalState NewState)
 661:../Shared/Libraries/STM32F4xx_StdPeriph_Driver/src/stm32f4xx_rtc.c **** { 
 751              		.loc 1 661 1
 752              		.cfi_startproc
 753              		@ args = 0, pretend = 0, frame = 16
 754              		@ frame_needed = 1, uses_anonymous_args = 0
 755 0000 80B5     		push	{r7, lr}
 756              	.LCFI38:
 757              		.cfi_def_cfa_offset 8
 758              		.cfi_offset 7, -8
 759              		.cfi_offset 14, -4
 760 0002 84B0     		sub	sp, sp, #16
 761              	.LCFI39:
 762              		.cfi_def_cfa_offset 24
 763 0004 00AF     		add	r7, sp, #0
 764              	.LCFI40:
 765              		.cfi_def_cfa_register 7
 766 0006 0346     		mov	r3, r0
 767 0008 FB71     		strb	r3, [r7, #7]
 662:../Shared/Libraries/STM32F4xx_StdPeriph_Driver/src/stm32f4xx_rtc.c ****   ErrorStatus status = ERROR;
 768              		.loc 1 662 15
 769 000a 0023     		movs	r3, #0
 770 000c FB73     		strb	r3, [r7, #15]
 663:../Shared/Libraries/STM32F4xx_StdPeriph_Driver/src/stm32f4xx_rtc.c ****   
 664:../Shared/Libraries/STM32F4xx_StdPeriph_Driver/src/stm32f4xx_rtc.c ****   /* Check the parameters */
 665:../Shared/Libraries/STM32F4xx_StdPeriph_Driver/src/stm32f4xx_rtc.c ****   assert_param(IS_FUNCTIONAL_STATE(NewState));
 666:../Shared/Libraries/STM32F4xx_StdPeriph_Driver/src/stm32f4xx_rtc.c ****   
ARM GAS  /tmp/cctIRrNQ.s 			page 26


 667:../Shared/Libraries/STM32F4xx_StdPeriph_Driver/src/stm32f4xx_rtc.c ****   /* Disable the write protection for RTC registers */
 668:../Shared/Libraries/STM32F4xx_StdPeriph_Driver/src/stm32f4xx_rtc.c ****   RTC->WPR = 0xCA;
 771              		.loc 1 668 6
 772 000e 154B     		ldr	r3, .L50
 773              		.loc 1 668 12
 774 0010 CA22     		movs	r2, #202
 775 0012 5A62     		str	r2, [r3, #36]
 669:../Shared/Libraries/STM32F4xx_StdPeriph_Driver/src/stm32f4xx_rtc.c ****   RTC->WPR = 0x53;
 776              		.loc 1 669 6
 777 0014 134B     		ldr	r3, .L50
 778              		.loc 1 669 12
 779 0016 5322     		movs	r2, #83
 780 0018 5A62     		str	r2, [r3, #36]
 670:../Shared/Libraries/STM32F4xx_StdPeriph_Driver/src/stm32f4xx_rtc.c ****     
 671:../Shared/Libraries/STM32F4xx_StdPeriph_Driver/src/stm32f4xx_rtc.c ****   /* Set Initialization mode */
 672:../Shared/Libraries/STM32F4xx_StdPeriph_Driver/src/stm32f4xx_rtc.c ****   if (RTC_EnterInitMode() == ERROR)
 781              		.loc 1 672 7
 782 001a FFF7FEFF 		bl	RTC_EnterInitMode
 783 001e 0346     		mov	r3, r0
 784              		.loc 1 672 6 discriminator 1
 785 0020 002B     		cmp	r3, #0
 786 0022 02D1     		bne	.L45
 673:../Shared/Libraries/STM32F4xx_StdPeriph_Driver/src/stm32f4xx_rtc.c ****   {
 674:../Shared/Libraries/STM32F4xx_StdPeriph_Driver/src/stm32f4xx_rtc.c ****     status = ERROR;
 787              		.loc 1 674 12
 788 0024 0023     		movs	r3, #0
 789 0026 FB73     		strb	r3, [r7, #15]
 790 0028 13E0     		b	.L46
 791              	.L45:
 675:../Shared/Libraries/STM32F4xx_StdPeriph_Driver/src/stm32f4xx_rtc.c ****   } 
 676:../Shared/Libraries/STM32F4xx_StdPeriph_Driver/src/stm32f4xx_rtc.c ****   else
 677:../Shared/Libraries/STM32F4xx_StdPeriph_Driver/src/stm32f4xx_rtc.c ****   {  
 678:../Shared/Libraries/STM32F4xx_StdPeriph_Driver/src/stm32f4xx_rtc.c ****     if (NewState != DISABLE)
 792              		.loc 1 678 8
 793 002a FB79     		ldrb	r3, [r7, #7]	@ zero_extendqisi2
 794 002c 002B     		cmp	r3, #0
 795 002e 06D0     		beq	.L47
 679:../Shared/Libraries/STM32F4xx_StdPeriph_Driver/src/stm32f4xx_rtc.c ****     {
 680:../Shared/Libraries/STM32F4xx_StdPeriph_Driver/src/stm32f4xx_rtc.c ****       /* Enable the RTC reference clock detection */
 681:../Shared/Libraries/STM32F4xx_StdPeriph_Driver/src/stm32f4xx_rtc.c ****       RTC->CR |= RTC_CR_REFCKON;   
 796              		.loc 1 681 10
 797 0030 0C4B     		ldr	r3, .L50
 798 0032 9B68     		ldr	r3, [r3, #8]
 799 0034 0B4A     		ldr	r2, .L50
 800              		.loc 1 681 15
 801 0036 43F01003 		orr	r3, r3, #16
 802 003a 9360     		str	r3, [r2, #8]
 803 003c 05E0     		b	.L48
 804              	.L47:
 682:../Shared/Libraries/STM32F4xx_StdPeriph_Driver/src/stm32f4xx_rtc.c ****     }
 683:../Shared/Libraries/STM32F4xx_StdPeriph_Driver/src/stm32f4xx_rtc.c ****     else
 684:../Shared/Libraries/STM32F4xx_StdPeriph_Driver/src/stm32f4xx_rtc.c ****     {
 685:../Shared/Libraries/STM32F4xx_StdPeriph_Driver/src/stm32f4xx_rtc.c ****       /* Disable the RTC reference clock detection */
 686:../Shared/Libraries/STM32F4xx_StdPeriph_Driver/src/stm32f4xx_rtc.c ****       RTC->CR &= ~RTC_CR_REFCKON;    
 805              		.loc 1 686 10
 806 003e 094B     		ldr	r3, .L50
 807 0040 9B68     		ldr	r3, [r3, #8]
ARM GAS  /tmp/cctIRrNQ.s 			page 27


 808 0042 084A     		ldr	r2, .L50
 809              		.loc 1 686 15
 810 0044 23F01003 		bic	r3, r3, #16
 811 0048 9360     		str	r3, [r2, #8]
 812              	.L48:
 687:../Shared/Libraries/STM32F4xx_StdPeriph_Driver/src/stm32f4xx_rtc.c ****     }
 688:../Shared/Libraries/STM32F4xx_StdPeriph_Driver/src/stm32f4xx_rtc.c ****     /* Exit Initialization mode */
 689:../Shared/Libraries/STM32F4xx_StdPeriph_Driver/src/stm32f4xx_rtc.c ****     RTC_ExitInitMode();
 813              		.loc 1 689 5
 814 004a FFF7FEFF 		bl	RTC_ExitInitMode
 690:../Shared/Libraries/STM32F4xx_StdPeriph_Driver/src/stm32f4xx_rtc.c ****     
 691:../Shared/Libraries/STM32F4xx_StdPeriph_Driver/src/stm32f4xx_rtc.c ****     status = SUCCESS;
 815              		.loc 1 691 12
 816 004e 0123     		movs	r3, #1
 817 0050 FB73     		strb	r3, [r7, #15]
 818              	.L46:
 692:../Shared/Libraries/STM32F4xx_StdPeriph_Driver/src/stm32f4xx_rtc.c ****   }
 693:../Shared/Libraries/STM32F4xx_StdPeriph_Driver/src/stm32f4xx_rtc.c ****   
 694:../Shared/Libraries/STM32F4xx_StdPeriph_Driver/src/stm32f4xx_rtc.c ****   /* Enable the write protection for RTC registers */
 695:../Shared/Libraries/STM32F4xx_StdPeriph_Driver/src/stm32f4xx_rtc.c ****   RTC->WPR = 0xFF;  
 819              		.loc 1 695 6
 820 0052 044B     		ldr	r3, .L50
 821              		.loc 1 695 12
 822 0054 FF22     		movs	r2, #255
 823 0056 5A62     		str	r2, [r3, #36]
 696:../Shared/Libraries/STM32F4xx_StdPeriph_Driver/src/stm32f4xx_rtc.c ****   
 697:../Shared/Libraries/STM32F4xx_StdPeriph_Driver/src/stm32f4xx_rtc.c ****   return status; 
 824              		.loc 1 697 10
 825 0058 FB7B     		ldrb	r3, [r7, #15]	@ zero_extendqisi2
 698:../Shared/Libraries/STM32F4xx_StdPeriph_Driver/src/stm32f4xx_rtc.c **** }
 826              		.loc 1 698 1
 827 005a 1846     		mov	r0, r3
 828 005c 1037     		adds	r7, r7, #16
 829              	.LCFI41:
 830              		.cfi_def_cfa_offset 8
 831 005e BD46     		mov	sp, r7
 832              	.LCFI42:
 833              		.cfi_def_cfa_register 13
 834              		@ sp needed
 835 0060 80BD     		pop	{r7, pc}
 836              	.L51:
 837 0062 00BF     		.align	2
 838              	.L50:
 839 0064 00280040 		.word	1073752064
 840              		.cfi_endproc
 841              	.LFE117:
 843              		.section	.text.RTC_BypassShadowCmd,"ax",%progbits
 844              		.align	1
 845              		.global	RTC_BypassShadowCmd
 846              		.syntax unified
 847              		.thumb
 848              		.thumb_func
 850              	RTC_BypassShadowCmd:
 851              	.LFB118:
 699:../Shared/Libraries/STM32F4xx_StdPeriph_Driver/src/stm32f4xx_rtc.c **** 
 700:../Shared/Libraries/STM32F4xx_StdPeriph_Driver/src/stm32f4xx_rtc.c **** /**
 701:../Shared/Libraries/STM32F4xx_StdPeriph_Driver/src/stm32f4xx_rtc.c ****   * @brief  Enables or Disables the Bypass Shadow feature.
ARM GAS  /tmp/cctIRrNQ.s 			page 28


 702:../Shared/Libraries/STM32F4xx_StdPeriph_Driver/src/stm32f4xx_rtc.c ****   * @note   When the Bypass Shadow is enabled the calendar value are taken 
 703:../Shared/Libraries/STM32F4xx_StdPeriph_Driver/src/stm32f4xx_rtc.c ****   *         directly from the Calendar counter.
 704:../Shared/Libraries/STM32F4xx_StdPeriph_Driver/src/stm32f4xx_rtc.c ****   * @param  NewState: new state of the Bypass Shadow feature.
 705:../Shared/Libraries/STM32F4xx_StdPeriph_Driver/src/stm32f4xx_rtc.c ****   *         This parameter can be: ENABLE or DISABLE.
 706:../Shared/Libraries/STM32F4xx_StdPeriph_Driver/src/stm32f4xx_rtc.c ****   * @retval None
 707:../Shared/Libraries/STM32F4xx_StdPeriph_Driver/src/stm32f4xx_rtc.c **** */
 708:../Shared/Libraries/STM32F4xx_StdPeriph_Driver/src/stm32f4xx_rtc.c **** void RTC_BypassShadowCmd(FunctionalState NewState)
 709:../Shared/Libraries/STM32F4xx_StdPeriph_Driver/src/stm32f4xx_rtc.c **** {
 852              		.loc 1 709 1
 853              		.cfi_startproc
 854              		@ args = 0, pretend = 0, frame = 8
 855              		@ frame_needed = 1, uses_anonymous_args = 0
 856              		@ link register save eliminated.
 857 0000 80B4     		push	{r7}
 858              	.LCFI43:
 859              		.cfi_def_cfa_offset 4
 860              		.cfi_offset 7, -4
 861 0002 83B0     		sub	sp, sp, #12
 862              	.LCFI44:
 863              		.cfi_def_cfa_offset 16
 864 0004 00AF     		add	r7, sp, #0
 865              	.LCFI45:
 866              		.cfi_def_cfa_register 7
 867 0006 0346     		mov	r3, r0
 868 0008 FB71     		strb	r3, [r7, #7]
 710:../Shared/Libraries/STM32F4xx_StdPeriph_Driver/src/stm32f4xx_rtc.c ****   /* Check the parameters */
 711:../Shared/Libraries/STM32F4xx_StdPeriph_Driver/src/stm32f4xx_rtc.c ****   assert_param(IS_FUNCTIONAL_STATE(NewState));
 712:../Shared/Libraries/STM32F4xx_StdPeriph_Driver/src/stm32f4xx_rtc.c **** 
 713:../Shared/Libraries/STM32F4xx_StdPeriph_Driver/src/stm32f4xx_rtc.c ****   /* Disable the write protection for RTC registers */
 714:../Shared/Libraries/STM32F4xx_StdPeriph_Driver/src/stm32f4xx_rtc.c ****   RTC->WPR = 0xCA;
 869              		.loc 1 714 6
 870 000a 0F4B     		ldr	r3, .L55
 871              		.loc 1 714 12
 872 000c CA22     		movs	r2, #202
 873 000e 5A62     		str	r2, [r3, #36]
 715:../Shared/Libraries/STM32F4xx_StdPeriph_Driver/src/stm32f4xx_rtc.c ****   RTC->WPR = 0x53;
 874              		.loc 1 715 6
 875 0010 0D4B     		ldr	r3, .L55
 876              		.loc 1 715 12
 877 0012 5322     		movs	r2, #83
 878 0014 5A62     		str	r2, [r3, #36]
 716:../Shared/Libraries/STM32F4xx_StdPeriph_Driver/src/stm32f4xx_rtc.c ****   
 717:../Shared/Libraries/STM32F4xx_StdPeriph_Driver/src/stm32f4xx_rtc.c ****   if (NewState != DISABLE)
 879              		.loc 1 717 6
 880 0016 FB79     		ldrb	r3, [r7, #7]	@ zero_extendqisi2
 881 0018 002B     		cmp	r3, #0
 882 001a 06D0     		beq	.L53
 718:../Shared/Libraries/STM32F4xx_StdPeriph_Driver/src/stm32f4xx_rtc.c ****   {
 719:../Shared/Libraries/STM32F4xx_StdPeriph_Driver/src/stm32f4xx_rtc.c ****     /* Set the BYPSHAD bit */
 720:../Shared/Libraries/STM32F4xx_StdPeriph_Driver/src/stm32f4xx_rtc.c ****     RTC->CR |= (uint8_t)RTC_CR_BYPSHAD;
 883              		.loc 1 720 8
 884 001c 0A4B     		ldr	r3, .L55
 885 001e 9B68     		ldr	r3, [r3, #8]
 886 0020 094A     		ldr	r2, .L55
 887              		.loc 1 720 13
 888 0022 43F02003 		orr	r3, r3, #32
 889 0026 9360     		str	r3, [r2, #8]
ARM GAS  /tmp/cctIRrNQ.s 			page 29


 890 0028 05E0     		b	.L54
 891              	.L53:
 721:../Shared/Libraries/STM32F4xx_StdPeriph_Driver/src/stm32f4xx_rtc.c ****   }
 722:../Shared/Libraries/STM32F4xx_StdPeriph_Driver/src/stm32f4xx_rtc.c ****   else
 723:../Shared/Libraries/STM32F4xx_StdPeriph_Driver/src/stm32f4xx_rtc.c ****   {
 724:../Shared/Libraries/STM32F4xx_StdPeriph_Driver/src/stm32f4xx_rtc.c ****     /* Reset the BYPSHAD bit */
 725:../Shared/Libraries/STM32F4xx_StdPeriph_Driver/src/stm32f4xx_rtc.c ****     RTC->CR &= (uint8_t)~RTC_CR_BYPSHAD;
 892              		.loc 1 725 8
 893 002a 074B     		ldr	r3, .L55
 894 002c 9B68     		ldr	r3, [r3, #8]
 895 002e 064A     		ldr	r2, .L55
 896              		.loc 1 725 13
 897 0030 03F0DF03 		and	r3, r3, #223
 898 0034 9360     		str	r3, [r2, #8]
 899              	.L54:
 726:../Shared/Libraries/STM32F4xx_StdPeriph_Driver/src/stm32f4xx_rtc.c ****   }
 727:../Shared/Libraries/STM32F4xx_StdPeriph_Driver/src/stm32f4xx_rtc.c **** 
 728:../Shared/Libraries/STM32F4xx_StdPeriph_Driver/src/stm32f4xx_rtc.c ****   /* Enable the write protection for RTC registers */
 729:../Shared/Libraries/STM32F4xx_StdPeriph_Driver/src/stm32f4xx_rtc.c ****   RTC->WPR = 0xFF;
 900              		.loc 1 729 6
 901 0036 044B     		ldr	r3, .L55
 902              		.loc 1 729 12
 903 0038 FF22     		movs	r2, #255
 904 003a 5A62     		str	r2, [r3, #36]
 730:../Shared/Libraries/STM32F4xx_StdPeriph_Driver/src/stm32f4xx_rtc.c **** }
 905              		.loc 1 730 1
 906 003c 00BF     		nop
 907 003e 0C37     		adds	r7, r7, #12
 908              	.LCFI46:
 909              		.cfi_def_cfa_offset 4
 910 0040 BD46     		mov	sp, r7
 911              	.LCFI47:
 912              		.cfi_def_cfa_register 13
 913              		@ sp needed
 914 0042 5DF8047B 		ldr	r7, [sp], #4
 915              	.LCFI48:
 916              		.cfi_restore 7
 917              		.cfi_def_cfa_offset 0
 918 0046 7047     		bx	lr
 919              	.L56:
 920              		.align	2
 921              	.L55:
 922 0048 00280040 		.word	1073752064
 923              		.cfi_endproc
 924              	.LFE118:
 926              		.section	.text.RTC_SetTime,"ax",%progbits
 927              		.align	1
 928              		.global	RTC_SetTime
 929              		.syntax unified
 930              		.thumb
 931              		.thumb_func
 933              	RTC_SetTime:
 934              	.LFB119:
 731:../Shared/Libraries/STM32F4xx_StdPeriph_Driver/src/stm32f4xx_rtc.c **** 
 732:../Shared/Libraries/STM32F4xx_StdPeriph_Driver/src/stm32f4xx_rtc.c **** /**
 733:../Shared/Libraries/STM32F4xx_StdPeriph_Driver/src/stm32f4xx_rtc.c ****   * @}
 734:../Shared/Libraries/STM32F4xx_StdPeriph_Driver/src/stm32f4xx_rtc.c ****   */
ARM GAS  /tmp/cctIRrNQ.s 			page 30


 735:../Shared/Libraries/STM32F4xx_StdPeriph_Driver/src/stm32f4xx_rtc.c **** 
 736:../Shared/Libraries/STM32F4xx_StdPeriph_Driver/src/stm32f4xx_rtc.c **** /** @defgroup RTC_Group2 Time and Date configuration functions
 737:../Shared/Libraries/STM32F4xx_StdPeriph_Driver/src/stm32f4xx_rtc.c ****  *  @brief   Time and Date configuration functions 
 738:../Shared/Libraries/STM32F4xx_StdPeriph_Driver/src/stm32f4xx_rtc.c ****  *
 739:../Shared/Libraries/STM32F4xx_StdPeriph_Driver/src/stm32f4xx_rtc.c **** @verbatim   
 740:../Shared/Libraries/STM32F4xx_StdPeriph_Driver/src/stm32f4xx_rtc.c ****  ===============================================================================
 741:../Shared/Libraries/STM32F4xx_StdPeriph_Driver/src/stm32f4xx_rtc.c ****                    Time and Date configuration functions
 742:../Shared/Libraries/STM32F4xx_StdPeriph_Driver/src/stm32f4xx_rtc.c ****  ===============================================================================  
 743:../Shared/Libraries/STM32F4xx_StdPeriph_Driver/src/stm32f4xx_rtc.c **** 
 744:../Shared/Libraries/STM32F4xx_StdPeriph_Driver/src/stm32f4xx_rtc.c ****   This section provide functions allowing to program and read the RTC Calendar
 745:../Shared/Libraries/STM32F4xx_StdPeriph_Driver/src/stm32f4xx_rtc.c ****   (Time and Date).
 746:../Shared/Libraries/STM32F4xx_StdPeriph_Driver/src/stm32f4xx_rtc.c **** 
 747:../Shared/Libraries/STM32F4xx_StdPeriph_Driver/src/stm32f4xx_rtc.c **** @endverbatim
 748:../Shared/Libraries/STM32F4xx_StdPeriph_Driver/src/stm32f4xx_rtc.c ****   * @{
 749:../Shared/Libraries/STM32F4xx_StdPeriph_Driver/src/stm32f4xx_rtc.c ****   */
 750:../Shared/Libraries/STM32F4xx_StdPeriph_Driver/src/stm32f4xx_rtc.c **** 
 751:../Shared/Libraries/STM32F4xx_StdPeriph_Driver/src/stm32f4xx_rtc.c **** /**
 752:../Shared/Libraries/STM32F4xx_StdPeriph_Driver/src/stm32f4xx_rtc.c ****   * @brief  Set the RTC current time.
 753:../Shared/Libraries/STM32F4xx_StdPeriph_Driver/src/stm32f4xx_rtc.c ****   * @param  RTC_Format: specifies the format of the entered parameters.
 754:../Shared/Libraries/STM32F4xx_StdPeriph_Driver/src/stm32f4xx_rtc.c ****   *          This parameter can be  one of the following values:
 755:../Shared/Libraries/STM32F4xx_StdPeriph_Driver/src/stm32f4xx_rtc.c ****   *            @arg RTC_Format_BIN:  Binary data format 
 756:../Shared/Libraries/STM32F4xx_StdPeriph_Driver/src/stm32f4xx_rtc.c ****   *            @arg RTC_Format_BCD:  BCD data format
 757:../Shared/Libraries/STM32F4xx_StdPeriph_Driver/src/stm32f4xx_rtc.c ****   * @param  RTC_TimeStruct: pointer to a RTC_TimeTypeDef structure that contains 
 758:../Shared/Libraries/STM32F4xx_StdPeriph_Driver/src/stm32f4xx_rtc.c ****   *                        the time configuration information for the RTC.     
 759:../Shared/Libraries/STM32F4xx_StdPeriph_Driver/src/stm32f4xx_rtc.c ****   * @retval An ErrorStatus enumeration value:
 760:../Shared/Libraries/STM32F4xx_StdPeriph_Driver/src/stm32f4xx_rtc.c ****   *          - SUCCESS: RTC Time register is configured
 761:../Shared/Libraries/STM32F4xx_StdPeriph_Driver/src/stm32f4xx_rtc.c ****   *          - ERROR: RTC Time register is not configured
 762:../Shared/Libraries/STM32F4xx_StdPeriph_Driver/src/stm32f4xx_rtc.c ****   */
 763:../Shared/Libraries/STM32F4xx_StdPeriph_Driver/src/stm32f4xx_rtc.c **** ErrorStatus RTC_SetTime(uint32_t RTC_Format, RTC_TimeTypeDef* RTC_TimeStruct)
 764:../Shared/Libraries/STM32F4xx_StdPeriph_Driver/src/stm32f4xx_rtc.c **** {
 935              		.loc 1 764 1
 936              		.cfi_startproc
 937              		@ args = 0, pretend = 0, frame = 16
 938              		@ frame_needed = 1, uses_anonymous_args = 0
 939 0000 90B5     		push	{r4, r7, lr}
 940              	.LCFI49:
 941              		.cfi_def_cfa_offset 12
 942              		.cfi_offset 4, -12
 943              		.cfi_offset 7, -8
 944              		.cfi_offset 14, -4
 945 0002 85B0     		sub	sp, sp, #20
 946              	.LCFI50:
 947              		.cfi_def_cfa_offset 32
 948 0004 00AF     		add	r7, sp, #0
 949              	.LCFI51:
 950              		.cfi_def_cfa_register 7
 951 0006 7860     		str	r0, [r7, #4]
 952 0008 3960     		str	r1, [r7]
 765:../Shared/Libraries/STM32F4xx_StdPeriph_Driver/src/stm32f4xx_rtc.c ****   uint32_t tmpreg = 0;
 953              		.loc 1 765 12
 954 000a 0023     		movs	r3, #0
 955 000c FB60     		str	r3, [r7, #12]
 766:../Shared/Libraries/STM32F4xx_StdPeriph_Driver/src/stm32f4xx_rtc.c ****   ErrorStatus status = ERROR;
 956              		.loc 1 766 15
 957 000e 0023     		movs	r3, #0
 958 0010 FB72     		strb	r3, [r7, #11]
 767:../Shared/Libraries/STM32F4xx_StdPeriph_Driver/src/stm32f4xx_rtc.c ****     
ARM GAS  /tmp/cctIRrNQ.s 			page 31


 768:../Shared/Libraries/STM32F4xx_StdPeriph_Driver/src/stm32f4xx_rtc.c ****   /* Check the parameters */
 769:../Shared/Libraries/STM32F4xx_StdPeriph_Driver/src/stm32f4xx_rtc.c ****   assert_param(IS_RTC_FORMAT(RTC_Format));
 770:../Shared/Libraries/STM32F4xx_StdPeriph_Driver/src/stm32f4xx_rtc.c ****   
 771:../Shared/Libraries/STM32F4xx_StdPeriph_Driver/src/stm32f4xx_rtc.c ****   if (RTC_Format == RTC_Format_BIN)
 959              		.loc 1 771 6
 960 0012 7B68     		ldr	r3, [r7, #4]
 961 0014 002B     		cmp	r3, #0
 962 0016 09D1     		bne	.L58
 772:../Shared/Libraries/STM32F4xx_StdPeriph_Driver/src/stm32f4xx_rtc.c ****   {
 773:../Shared/Libraries/STM32F4xx_StdPeriph_Driver/src/stm32f4xx_rtc.c ****     if ((RTC->CR & RTC_CR_FMT) != (uint32_t)RESET)
 963              		.loc 1 773 13
 964 0018 3D4B     		ldr	r3, .L68
 965 001a 9B68     		ldr	r3, [r3, #8]
 966              		.loc 1 773 18
 967 001c 03F04003 		and	r3, r3, #64
 968              		.loc 1 773 8
 969 0020 002B     		cmp	r3, #0
 970 0022 14D1     		bne	.L59
 774:../Shared/Libraries/STM32F4xx_StdPeriph_Driver/src/stm32f4xx_rtc.c ****     {
 775:../Shared/Libraries/STM32F4xx_StdPeriph_Driver/src/stm32f4xx_rtc.c ****       assert_param(IS_RTC_HOUR12(RTC_TimeStruct->RTC_Hours));
 776:../Shared/Libraries/STM32F4xx_StdPeriph_Driver/src/stm32f4xx_rtc.c ****       assert_param(IS_RTC_H12(RTC_TimeStruct->RTC_H12));
 777:../Shared/Libraries/STM32F4xx_StdPeriph_Driver/src/stm32f4xx_rtc.c ****     } 
 778:../Shared/Libraries/STM32F4xx_StdPeriph_Driver/src/stm32f4xx_rtc.c ****     else
 779:../Shared/Libraries/STM32F4xx_StdPeriph_Driver/src/stm32f4xx_rtc.c ****     {
 780:../Shared/Libraries/STM32F4xx_StdPeriph_Driver/src/stm32f4xx_rtc.c ****       RTC_TimeStruct->RTC_H12 = 0x00;
 971              		.loc 1 780 31
 972 0024 3B68     		ldr	r3, [r7]
 973 0026 0022     		movs	r2, #0
 974 0028 DA70     		strb	r2, [r3, #3]
 975 002a 10E0     		b	.L59
 976              	.L58:
 781:../Shared/Libraries/STM32F4xx_StdPeriph_Driver/src/stm32f4xx_rtc.c ****       assert_param(IS_RTC_HOUR24(RTC_TimeStruct->RTC_Hours));
 782:../Shared/Libraries/STM32F4xx_StdPeriph_Driver/src/stm32f4xx_rtc.c ****     }
 783:../Shared/Libraries/STM32F4xx_StdPeriph_Driver/src/stm32f4xx_rtc.c ****     assert_param(IS_RTC_MINUTES(RTC_TimeStruct->RTC_Minutes));
 784:../Shared/Libraries/STM32F4xx_StdPeriph_Driver/src/stm32f4xx_rtc.c ****     assert_param(IS_RTC_SECONDS(RTC_TimeStruct->RTC_Seconds));
 785:../Shared/Libraries/STM32F4xx_StdPeriph_Driver/src/stm32f4xx_rtc.c ****   }
 786:../Shared/Libraries/STM32F4xx_StdPeriph_Driver/src/stm32f4xx_rtc.c ****   else
 787:../Shared/Libraries/STM32F4xx_StdPeriph_Driver/src/stm32f4xx_rtc.c ****   {
 788:../Shared/Libraries/STM32F4xx_StdPeriph_Driver/src/stm32f4xx_rtc.c ****     if ((RTC->CR & RTC_CR_FMT) != (uint32_t)RESET)
 977              		.loc 1 788 13
 978 002c 384B     		ldr	r3, .L68
 979 002e 9B68     		ldr	r3, [r3, #8]
 980              		.loc 1 788 18
 981 0030 03F04003 		and	r3, r3, #64
 982              		.loc 1 788 8
 983 0034 002B     		cmp	r3, #0
 984 0036 07D0     		beq	.L60
 789:../Shared/Libraries/STM32F4xx_StdPeriph_Driver/src/stm32f4xx_rtc.c ****     {
 790:../Shared/Libraries/STM32F4xx_StdPeriph_Driver/src/stm32f4xx_rtc.c ****       tmpreg = RTC_Bcd2ToByte(RTC_TimeStruct->RTC_Hours);
 985              		.loc 1 790 16
 986 0038 3B68     		ldr	r3, [r7]
 987 003a 1B78     		ldrb	r3, [r3]	@ zero_extendqisi2
 988 003c 1846     		mov	r0, r3
 989 003e FFF7FEFF 		bl	RTC_Bcd2ToByte
 990 0042 0346     		mov	r3, r0
 991              		.loc 1 790 14 discriminator 1
 992 0044 FB60     		str	r3, [r7, #12]
ARM GAS  /tmp/cctIRrNQ.s 			page 32


 993 0046 02E0     		b	.L59
 994              	.L60:
 791:../Shared/Libraries/STM32F4xx_StdPeriph_Driver/src/stm32f4xx_rtc.c ****       assert_param(IS_RTC_HOUR12(tmpreg));
 792:../Shared/Libraries/STM32F4xx_StdPeriph_Driver/src/stm32f4xx_rtc.c ****       assert_param(IS_RTC_H12(RTC_TimeStruct->RTC_H12)); 
 793:../Shared/Libraries/STM32F4xx_StdPeriph_Driver/src/stm32f4xx_rtc.c ****     } 
 794:../Shared/Libraries/STM32F4xx_StdPeriph_Driver/src/stm32f4xx_rtc.c ****     else
 795:../Shared/Libraries/STM32F4xx_StdPeriph_Driver/src/stm32f4xx_rtc.c ****     {
 796:../Shared/Libraries/STM32F4xx_StdPeriph_Driver/src/stm32f4xx_rtc.c ****       RTC_TimeStruct->RTC_H12 = 0x00;
 995              		.loc 1 796 31
 996 0048 3B68     		ldr	r3, [r7]
 997 004a 0022     		movs	r2, #0
 998 004c DA70     		strb	r2, [r3, #3]
 999              	.L59:
 797:../Shared/Libraries/STM32F4xx_StdPeriph_Driver/src/stm32f4xx_rtc.c ****       assert_param(IS_RTC_HOUR24(RTC_Bcd2ToByte(RTC_TimeStruct->RTC_Hours)));
 798:../Shared/Libraries/STM32F4xx_StdPeriph_Driver/src/stm32f4xx_rtc.c ****     }
 799:../Shared/Libraries/STM32F4xx_StdPeriph_Driver/src/stm32f4xx_rtc.c ****     assert_param(IS_RTC_MINUTES(RTC_Bcd2ToByte(RTC_TimeStruct->RTC_Minutes)));
 800:../Shared/Libraries/STM32F4xx_StdPeriph_Driver/src/stm32f4xx_rtc.c ****     assert_param(IS_RTC_SECONDS(RTC_Bcd2ToByte(RTC_TimeStruct->RTC_Seconds)));
 801:../Shared/Libraries/STM32F4xx_StdPeriph_Driver/src/stm32f4xx_rtc.c ****   }
 802:../Shared/Libraries/STM32F4xx_StdPeriph_Driver/src/stm32f4xx_rtc.c ****   
 803:../Shared/Libraries/STM32F4xx_StdPeriph_Driver/src/stm32f4xx_rtc.c ****   /* Check the input parameters format */
 804:../Shared/Libraries/STM32F4xx_StdPeriph_Driver/src/stm32f4xx_rtc.c ****   if (RTC_Format != RTC_Format_BIN)
 1000              		.loc 1 804 6
 1001 004e 7B68     		ldr	r3, [r7, #4]
 1002 0050 002B     		cmp	r3, #0
 1003 0052 0FD0     		beq	.L61
 805:../Shared/Libraries/STM32F4xx_StdPeriph_Driver/src/stm32f4xx_rtc.c ****   {
 806:../Shared/Libraries/STM32F4xx_StdPeriph_Driver/src/stm32f4xx_rtc.c ****     tmpreg = (((uint32_t)(RTC_TimeStruct->RTC_Hours) << 16) | \
 1004              		.loc 1 806 41
 1005 0054 3B68     		ldr	r3, [r7]
 1006 0056 1B78     		ldrb	r3, [r3]	@ zero_extendqisi2
 1007              		.loc 1 806 54
 1008 0058 1A04     		lsls	r2, r3, #16
 807:../Shared/Libraries/STM32F4xx_StdPeriph_Driver/src/stm32f4xx_rtc.c ****              ((uint32_t)(RTC_TimeStruct->RTC_Minutes) << 8) | \
 1009              		.loc 1 807 40
 1010 005a 3B68     		ldr	r3, [r7]
 1011 005c 5B78     		ldrb	r3, [r3, #1]	@ zero_extendqisi2
 1012              		.loc 1 807 55
 1013 005e 1B02     		lsls	r3, r3, #8
 806:../Shared/Libraries/STM32F4xx_StdPeriph_Driver/src/stm32f4xx_rtc.c ****              ((uint32_t)(RTC_TimeStruct->RTC_Minutes) << 8) | \
 1014              		.loc 1 806 61
 1015 0060 1343     		orrs	r3, r3, r2
 808:../Shared/Libraries/STM32F4xx_StdPeriph_Driver/src/stm32f4xx_rtc.c ****              ((uint32_t)RTC_TimeStruct->RTC_Seconds) | \
 1016              		.loc 1 808 39
 1017 0062 3A68     		ldr	r2, [r7]
 1018 0064 9278     		ldrb	r2, [r2, #2]	@ zero_extendqisi2
 807:../Shared/Libraries/STM32F4xx_StdPeriph_Driver/src/stm32f4xx_rtc.c ****              ((uint32_t)(RTC_TimeStruct->RTC_Minutes) << 8) | \
 1019              		.loc 1 807 61
 1020 0066 1A43     		orrs	r2, r2, r3
 809:../Shared/Libraries/STM32F4xx_StdPeriph_Driver/src/stm32f4xx_rtc.c ****              ((uint32_t)(RTC_TimeStruct->RTC_H12) << 16)); 
 1021              		.loc 1 809 40
 1022 0068 3B68     		ldr	r3, [r7]
 1023 006a DB78     		ldrb	r3, [r3, #3]	@ zero_extendqisi2
 1024              		.loc 1 809 51
 1025 006c 1B04     		lsls	r3, r3, #16
 806:../Shared/Libraries/STM32F4xx_StdPeriph_Driver/src/stm32f4xx_rtc.c ****              ((uint32_t)(RTC_TimeStruct->RTC_Minutes) << 8) | \
 1026              		.loc 1 806 12
 1027 006e 1343     		orrs	r3, r3, r2
ARM GAS  /tmp/cctIRrNQ.s 			page 33


 1028 0070 FB60     		str	r3, [r7, #12]
 1029 0072 1BE0     		b	.L62
 1030              	.L61:
 810:../Shared/Libraries/STM32F4xx_StdPeriph_Driver/src/stm32f4xx_rtc.c ****   }  
 811:../Shared/Libraries/STM32F4xx_StdPeriph_Driver/src/stm32f4xx_rtc.c ****   else
 812:../Shared/Libraries/STM32F4xx_StdPeriph_Driver/src/stm32f4xx_rtc.c ****   {
 813:../Shared/Libraries/STM32F4xx_StdPeriph_Driver/src/stm32f4xx_rtc.c ****     tmpreg = (uint32_t)(((uint32_t)RTC_ByteToBcd2(RTC_TimeStruct->RTC_Hours) << 16) | \
 1031              		.loc 1 813 36
 1032 0074 3B68     		ldr	r3, [r7]
 1033 0076 1B78     		ldrb	r3, [r3]	@ zero_extendqisi2
 1034 0078 1846     		mov	r0, r3
 1035 007a FFF7FEFF 		bl	RTC_ByteToBcd2
 1036 007e 0346     		mov	r3, r0
 1037              		.loc 1 813 78 discriminator 1
 1038 0080 1C04     		lsls	r4, r3, #16
 814:../Shared/Libraries/STM32F4xx_StdPeriph_Driver/src/stm32f4xx_rtc.c ****                    ((uint32_t)RTC_ByteToBcd2(RTC_TimeStruct->RTC_Minutes) << 8) | \
 1039              		.loc 1 814 31
 1040 0082 3B68     		ldr	r3, [r7]
 1041 0084 5B78     		ldrb	r3, [r3, #1]	@ zero_extendqisi2
 1042 0086 1846     		mov	r0, r3
 1043 0088 FFF7FEFF 		bl	RTC_ByteToBcd2
 1044 008c 0346     		mov	r3, r0
 1045              		.loc 1 814 75 discriminator 1
 1046 008e 1B02     		lsls	r3, r3, #8
 813:../Shared/Libraries/STM32F4xx_StdPeriph_Driver/src/stm32f4xx_rtc.c ****                    ((uint32_t)RTC_ByteToBcd2(RTC_TimeStruct->RTC_Minutes) << 8) | \
 1047              		.loc 1 813 85
 1048 0090 1C43     		orrs	r4, r4, r3
 815:../Shared/Libraries/STM32F4xx_StdPeriph_Driver/src/stm32f4xx_rtc.c ****                    ((uint32_t)RTC_ByteToBcd2(RTC_TimeStruct->RTC_Seconds)) | \
 1049              		.loc 1 815 31
 1050 0092 3B68     		ldr	r3, [r7]
 1051 0094 9B78     		ldrb	r3, [r3, #2]	@ zero_extendqisi2
 1052 0096 1846     		mov	r0, r3
 1053 0098 FFF7FEFF 		bl	RTC_ByteToBcd2
 1054 009c 0346     		mov	r3, r0
 814:../Shared/Libraries/STM32F4xx_StdPeriph_Driver/src/stm32f4xx_rtc.c ****                    ((uint32_t)RTC_ByteToBcd2(RTC_TimeStruct->RTC_Minutes) << 8) | \
 1055              		.loc 1 814 81
 1056 009e 44EA0302 		orr	r2, r4, r3
 816:../Shared/Libraries/STM32F4xx_StdPeriph_Driver/src/stm32f4xx_rtc.c ****                    (((uint32_t)RTC_TimeStruct->RTC_H12) << 16));
 1057              		.loc 1 816 46
 1058 00a2 3B68     		ldr	r3, [r7]
 1059 00a4 DB78     		ldrb	r3, [r3, #3]	@ zero_extendqisi2
 1060              		.loc 1 816 57
 1061 00a6 1B04     		lsls	r3, r3, #16
 813:../Shared/Libraries/STM32F4xx_StdPeriph_Driver/src/stm32f4xx_rtc.c ****                    ((uint32_t)RTC_ByteToBcd2(RTC_TimeStruct->RTC_Minutes) << 8) | \
 1062              		.loc 1 813 12
 1063 00a8 1343     		orrs	r3, r3, r2
 1064 00aa FB60     		str	r3, [r7, #12]
 1065              	.L62:
 817:../Shared/Libraries/STM32F4xx_StdPeriph_Driver/src/stm32f4xx_rtc.c ****   }  
 818:../Shared/Libraries/STM32F4xx_StdPeriph_Driver/src/stm32f4xx_rtc.c **** 
 819:../Shared/Libraries/STM32F4xx_StdPeriph_Driver/src/stm32f4xx_rtc.c ****   /* Disable the write protection for RTC registers */
 820:../Shared/Libraries/STM32F4xx_StdPeriph_Driver/src/stm32f4xx_rtc.c ****   RTC->WPR = 0xCA;
 1066              		.loc 1 820 6
 1067 00ac 184B     		ldr	r3, .L68
 1068              		.loc 1 820 12
 1069 00ae CA22     		movs	r2, #202
 1070 00b0 5A62     		str	r2, [r3, #36]
ARM GAS  /tmp/cctIRrNQ.s 			page 34


 821:../Shared/Libraries/STM32F4xx_StdPeriph_Driver/src/stm32f4xx_rtc.c ****   RTC->WPR = 0x53;
 1071              		.loc 1 821 6
 1072 00b2 174B     		ldr	r3, .L68
 1073              		.loc 1 821 12
 1074 00b4 5322     		movs	r2, #83
 1075 00b6 5A62     		str	r2, [r3, #36]
 822:../Shared/Libraries/STM32F4xx_StdPeriph_Driver/src/stm32f4xx_rtc.c **** 
 823:../Shared/Libraries/STM32F4xx_StdPeriph_Driver/src/stm32f4xx_rtc.c ****   /* Set Initialization mode */
 824:../Shared/Libraries/STM32F4xx_StdPeriph_Driver/src/stm32f4xx_rtc.c ****   if (RTC_EnterInitMode() == ERROR)
 1076              		.loc 1 824 7
 1077 00b8 FFF7FEFF 		bl	RTC_EnterInitMode
 1078 00bc 0346     		mov	r3, r0
 1079              		.loc 1 824 6 discriminator 1
 1080 00be 002B     		cmp	r3, #0
 1081 00c0 02D1     		bne	.L63
 825:../Shared/Libraries/STM32F4xx_StdPeriph_Driver/src/stm32f4xx_rtc.c ****   {
 826:../Shared/Libraries/STM32F4xx_StdPeriph_Driver/src/stm32f4xx_rtc.c ****     status = ERROR;
 1082              		.loc 1 826 12
 1083 00c2 0023     		movs	r3, #0
 1084 00c4 FB72     		strb	r3, [r7, #11]
 1085 00c6 1BE0     		b	.L64
 1086              	.L63:
 827:../Shared/Libraries/STM32F4xx_StdPeriph_Driver/src/stm32f4xx_rtc.c ****   } 
 828:../Shared/Libraries/STM32F4xx_StdPeriph_Driver/src/stm32f4xx_rtc.c ****   else
 829:../Shared/Libraries/STM32F4xx_StdPeriph_Driver/src/stm32f4xx_rtc.c ****   {
 830:../Shared/Libraries/STM32F4xx_StdPeriph_Driver/src/stm32f4xx_rtc.c ****     /* Set the RTC_TR register */
 831:../Shared/Libraries/STM32F4xx_StdPeriph_Driver/src/stm32f4xx_rtc.c ****     RTC->TR = (uint32_t)(tmpreg & RTC_TR_RESERVED_MASK);
 1087              		.loc 1 831 8
 1088 00c8 114A     		ldr	r2, .L68
 1089              		.loc 1 831 15
 1090 00ca FB68     		ldr	r3, [r7, #12]
 1091 00cc 03F07F33 		and	r3, r3, #2139062143
 1092 00d0 23F0FE43 		bic	r3, r3, #2130706432
 1093              		.loc 1 831 13
 1094 00d4 1360     		str	r3, [r2]
 832:../Shared/Libraries/STM32F4xx_StdPeriph_Driver/src/stm32f4xx_rtc.c **** 
 833:../Shared/Libraries/STM32F4xx_StdPeriph_Driver/src/stm32f4xx_rtc.c ****     /* Exit Initialization mode */
 834:../Shared/Libraries/STM32F4xx_StdPeriph_Driver/src/stm32f4xx_rtc.c ****     RTC_ExitInitMode(); 
 1095              		.loc 1 834 5
 1096 00d6 FFF7FEFF 		bl	RTC_ExitInitMode
 835:../Shared/Libraries/STM32F4xx_StdPeriph_Driver/src/stm32f4xx_rtc.c **** 
 836:../Shared/Libraries/STM32F4xx_StdPeriph_Driver/src/stm32f4xx_rtc.c ****     /* If  RTC_CR_BYPSHAD bit = 0, wait for synchro else this check is not needed */
 837:../Shared/Libraries/STM32F4xx_StdPeriph_Driver/src/stm32f4xx_rtc.c ****     if ((RTC->CR & RTC_CR_BYPSHAD) == RESET)
 1097              		.loc 1 837 13
 1098 00da 0D4B     		ldr	r3, .L68
 1099 00dc 9B68     		ldr	r3, [r3, #8]
 1100              		.loc 1 837 18
 1101 00de 03F02003 		and	r3, r3, #32
 1102              		.loc 1 837 8
 1103 00e2 002B     		cmp	r3, #0
 1104 00e4 0AD1     		bne	.L65
 838:../Shared/Libraries/STM32F4xx_StdPeriph_Driver/src/stm32f4xx_rtc.c ****     {
 839:../Shared/Libraries/STM32F4xx_StdPeriph_Driver/src/stm32f4xx_rtc.c ****       if (RTC_WaitForSynchro() == ERROR)
 1105              		.loc 1 839 11
 1106 00e6 FFF7FEFF 		bl	RTC_WaitForSynchro
 1107 00ea 0346     		mov	r3, r0
 1108              		.loc 1 839 10 discriminator 1
ARM GAS  /tmp/cctIRrNQ.s 			page 35


 1109 00ec 002B     		cmp	r3, #0
 1110 00ee 02D1     		bne	.L66
 840:../Shared/Libraries/STM32F4xx_StdPeriph_Driver/src/stm32f4xx_rtc.c ****       {
 841:../Shared/Libraries/STM32F4xx_StdPeriph_Driver/src/stm32f4xx_rtc.c ****         status = ERROR;
 1111              		.loc 1 841 16
 1112 00f0 0023     		movs	r3, #0
 1113 00f2 FB72     		strb	r3, [r7, #11]
 1114 00f4 04E0     		b	.L64
 1115              	.L66:
 842:../Shared/Libraries/STM32F4xx_StdPeriph_Driver/src/stm32f4xx_rtc.c ****       }
 843:../Shared/Libraries/STM32F4xx_StdPeriph_Driver/src/stm32f4xx_rtc.c ****       else
 844:../Shared/Libraries/STM32F4xx_StdPeriph_Driver/src/stm32f4xx_rtc.c ****       {
 845:../Shared/Libraries/STM32F4xx_StdPeriph_Driver/src/stm32f4xx_rtc.c ****         status = SUCCESS;
 1116              		.loc 1 845 16
 1117 00f6 0123     		movs	r3, #1
 1118 00f8 FB72     		strb	r3, [r7, #11]
 1119 00fa 01E0     		b	.L64
 1120              	.L65:
 846:../Shared/Libraries/STM32F4xx_StdPeriph_Driver/src/stm32f4xx_rtc.c ****       }
 847:../Shared/Libraries/STM32F4xx_StdPeriph_Driver/src/stm32f4xx_rtc.c ****     }
 848:../Shared/Libraries/STM32F4xx_StdPeriph_Driver/src/stm32f4xx_rtc.c ****     else
 849:../Shared/Libraries/STM32F4xx_StdPeriph_Driver/src/stm32f4xx_rtc.c ****     {
 850:../Shared/Libraries/STM32F4xx_StdPeriph_Driver/src/stm32f4xx_rtc.c ****       status = SUCCESS;
 1121              		.loc 1 850 14
 1122 00fc 0123     		movs	r3, #1
 1123 00fe FB72     		strb	r3, [r7, #11]
 1124              	.L64:
 851:../Shared/Libraries/STM32F4xx_StdPeriph_Driver/src/stm32f4xx_rtc.c ****     }
 852:../Shared/Libraries/STM32F4xx_StdPeriph_Driver/src/stm32f4xx_rtc.c ****   }
 853:../Shared/Libraries/STM32F4xx_StdPeriph_Driver/src/stm32f4xx_rtc.c ****   /* Enable the write protection for RTC registers */
 854:../Shared/Libraries/STM32F4xx_StdPeriph_Driver/src/stm32f4xx_rtc.c ****   RTC->WPR = 0xFF; 
 1125              		.loc 1 854 6
 1126 0100 034B     		ldr	r3, .L68
 1127              		.loc 1 854 12
 1128 0102 FF22     		movs	r2, #255
 1129 0104 5A62     		str	r2, [r3, #36]
 855:../Shared/Libraries/STM32F4xx_StdPeriph_Driver/src/stm32f4xx_rtc.c ****     
 856:../Shared/Libraries/STM32F4xx_StdPeriph_Driver/src/stm32f4xx_rtc.c ****   return status;
 1130              		.loc 1 856 10
 1131 0106 FB7A     		ldrb	r3, [r7, #11]	@ zero_extendqisi2
 857:../Shared/Libraries/STM32F4xx_StdPeriph_Driver/src/stm32f4xx_rtc.c **** }
 1132              		.loc 1 857 1
 1133 0108 1846     		mov	r0, r3
 1134 010a 1437     		adds	r7, r7, #20
 1135              	.LCFI52:
 1136              		.cfi_def_cfa_offset 12
 1137 010c BD46     		mov	sp, r7
 1138              	.LCFI53:
 1139              		.cfi_def_cfa_register 13
 1140              		@ sp needed
 1141 010e 90BD     		pop	{r4, r7, pc}
 1142              	.L69:
 1143              		.align	2
 1144              	.L68:
 1145 0110 00280040 		.word	1073752064
 1146              		.cfi_endproc
 1147              	.LFE119:
ARM GAS  /tmp/cctIRrNQ.s 			page 36


 1149              		.section	.text.RTC_TimeStructInit,"ax",%progbits
 1150              		.align	1
 1151              		.global	RTC_TimeStructInit
 1152              		.syntax unified
 1153              		.thumb
 1154              		.thumb_func
 1156              	RTC_TimeStructInit:
 1157              	.LFB120:
 858:../Shared/Libraries/STM32F4xx_StdPeriph_Driver/src/stm32f4xx_rtc.c **** 
 859:../Shared/Libraries/STM32F4xx_StdPeriph_Driver/src/stm32f4xx_rtc.c **** /**
 860:../Shared/Libraries/STM32F4xx_StdPeriph_Driver/src/stm32f4xx_rtc.c ****   * @brief  Fills each RTC_TimeStruct member with its default value
 861:../Shared/Libraries/STM32F4xx_StdPeriph_Driver/src/stm32f4xx_rtc.c ****   *         (Time = 00h:00min:00sec).
 862:../Shared/Libraries/STM32F4xx_StdPeriph_Driver/src/stm32f4xx_rtc.c ****   * @param  RTC_TimeStruct: pointer to a RTC_TimeTypeDef structure which will be 
 863:../Shared/Libraries/STM32F4xx_StdPeriph_Driver/src/stm32f4xx_rtc.c ****   *         initialized.
 864:../Shared/Libraries/STM32F4xx_StdPeriph_Driver/src/stm32f4xx_rtc.c ****   * @retval None
 865:../Shared/Libraries/STM32F4xx_StdPeriph_Driver/src/stm32f4xx_rtc.c ****   */
 866:../Shared/Libraries/STM32F4xx_StdPeriph_Driver/src/stm32f4xx_rtc.c **** void RTC_TimeStructInit(RTC_TimeTypeDef* RTC_TimeStruct)
 867:../Shared/Libraries/STM32F4xx_StdPeriph_Driver/src/stm32f4xx_rtc.c **** {
 1158              		.loc 1 867 1
 1159              		.cfi_startproc
 1160              		@ args = 0, pretend = 0, frame = 8
 1161              		@ frame_needed = 1, uses_anonymous_args = 0
 1162              		@ link register save eliminated.
 1163 0000 80B4     		push	{r7}
 1164              	.LCFI54:
 1165              		.cfi_def_cfa_offset 4
 1166              		.cfi_offset 7, -4
 1167 0002 83B0     		sub	sp, sp, #12
 1168              	.LCFI55:
 1169              		.cfi_def_cfa_offset 16
 1170 0004 00AF     		add	r7, sp, #0
 1171              	.LCFI56:
 1172              		.cfi_def_cfa_register 7
 1173 0006 7860     		str	r0, [r7, #4]
 868:../Shared/Libraries/STM32F4xx_StdPeriph_Driver/src/stm32f4xx_rtc.c ****   /* Time = 00h:00min:00sec */
 869:../Shared/Libraries/STM32F4xx_StdPeriph_Driver/src/stm32f4xx_rtc.c ****   RTC_TimeStruct->RTC_H12 = RTC_H12_AM;
 1174              		.loc 1 869 27
 1175 0008 7B68     		ldr	r3, [r7, #4]
 1176 000a 0022     		movs	r2, #0
 1177 000c DA70     		strb	r2, [r3, #3]
 870:../Shared/Libraries/STM32F4xx_StdPeriph_Driver/src/stm32f4xx_rtc.c ****   RTC_TimeStruct->RTC_Hours = 0;
 1178              		.loc 1 870 29
 1179 000e 7B68     		ldr	r3, [r7, #4]
 1180 0010 0022     		movs	r2, #0
 1181 0012 1A70     		strb	r2, [r3]
 871:../Shared/Libraries/STM32F4xx_StdPeriph_Driver/src/stm32f4xx_rtc.c ****   RTC_TimeStruct->RTC_Minutes = 0;
 1182              		.loc 1 871 31
 1183 0014 7B68     		ldr	r3, [r7, #4]
 1184 0016 0022     		movs	r2, #0
 1185 0018 5A70     		strb	r2, [r3, #1]
 872:../Shared/Libraries/STM32F4xx_StdPeriph_Driver/src/stm32f4xx_rtc.c ****   RTC_TimeStruct->RTC_Seconds = 0; 
 1186              		.loc 1 872 31
 1187 001a 7B68     		ldr	r3, [r7, #4]
 1188 001c 0022     		movs	r2, #0
 1189 001e 9A70     		strb	r2, [r3, #2]
 873:../Shared/Libraries/STM32F4xx_StdPeriph_Driver/src/stm32f4xx_rtc.c **** }
 1190              		.loc 1 873 1
ARM GAS  /tmp/cctIRrNQ.s 			page 37


 1191 0020 00BF     		nop
 1192 0022 0C37     		adds	r7, r7, #12
 1193              	.LCFI57:
 1194              		.cfi_def_cfa_offset 4
 1195 0024 BD46     		mov	sp, r7
 1196              	.LCFI58:
 1197              		.cfi_def_cfa_register 13
 1198              		@ sp needed
 1199 0026 5DF8047B 		ldr	r7, [sp], #4
 1200              	.LCFI59:
 1201              		.cfi_restore 7
 1202              		.cfi_def_cfa_offset 0
 1203 002a 7047     		bx	lr
 1204              		.cfi_endproc
 1205              	.LFE120:
 1207              		.section	.text.RTC_GetTime,"ax",%progbits
 1208              		.align	1
 1209              		.global	RTC_GetTime
 1210              		.syntax unified
 1211              		.thumb
 1212              		.thumb_func
 1214              	RTC_GetTime:
 1215              	.LFB121:
 874:../Shared/Libraries/STM32F4xx_StdPeriph_Driver/src/stm32f4xx_rtc.c **** 
 875:../Shared/Libraries/STM32F4xx_StdPeriph_Driver/src/stm32f4xx_rtc.c **** /**
 876:../Shared/Libraries/STM32F4xx_StdPeriph_Driver/src/stm32f4xx_rtc.c ****   * @brief  Get the RTC current Time.
 877:../Shared/Libraries/STM32F4xx_StdPeriph_Driver/src/stm32f4xx_rtc.c ****   * @param  RTC_Format: specifies the format of the returned parameters.
 878:../Shared/Libraries/STM32F4xx_StdPeriph_Driver/src/stm32f4xx_rtc.c ****   *          This parameter can be  one of the following values:
 879:../Shared/Libraries/STM32F4xx_StdPeriph_Driver/src/stm32f4xx_rtc.c ****   *            @arg RTC_Format_BIN:  Binary data format 
 880:../Shared/Libraries/STM32F4xx_StdPeriph_Driver/src/stm32f4xx_rtc.c ****   *            @arg RTC_Format_BCD:  BCD data format
 881:../Shared/Libraries/STM32F4xx_StdPeriph_Driver/src/stm32f4xx_rtc.c ****   * @param  RTC_TimeStruct: pointer to a RTC_TimeTypeDef structure that will 
 882:../Shared/Libraries/STM32F4xx_StdPeriph_Driver/src/stm32f4xx_rtc.c ****   *                        contain the returned current time configuration.     
 883:../Shared/Libraries/STM32F4xx_StdPeriph_Driver/src/stm32f4xx_rtc.c ****   * @retval None
 884:../Shared/Libraries/STM32F4xx_StdPeriph_Driver/src/stm32f4xx_rtc.c ****   */
 885:../Shared/Libraries/STM32F4xx_StdPeriph_Driver/src/stm32f4xx_rtc.c **** void RTC_GetTime(uint32_t RTC_Format, RTC_TimeTypeDef* RTC_TimeStruct)
 886:../Shared/Libraries/STM32F4xx_StdPeriph_Driver/src/stm32f4xx_rtc.c **** {
 1216              		.loc 1 886 1
 1217              		.cfi_startproc
 1218              		@ args = 0, pretend = 0, frame = 16
 1219              		@ frame_needed = 1, uses_anonymous_args = 0
 1220 0000 80B5     		push	{r7, lr}
 1221              	.LCFI60:
 1222              		.cfi_def_cfa_offset 8
 1223              		.cfi_offset 7, -8
 1224              		.cfi_offset 14, -4
 1225 0002 84B0     		sub	sp, sp, #16
 1226              	.LCFI61:
 1227              		.cfi_def_cfa_offset 24
 1228 0004 00AF     		add	r7, sp, #0
 1229              	.LCFI62:
 1230              		.cfi_def_cfa_register 7
 1231 0006 7860     		str	r0, [r7, #4]
 1232 0008 3960     		str	r1, [r7]
 887:../Shared/Libraries/STM32F4xx_StdPeriph_Driver/src/stm32f4xx_rtc.c ****   uint32_t tmpreg = 0;
 1233              		.loc 1 887 12
 1234 000a 0023     		movs	r3, #0
 1235 000c FB60     		str	r3, [r7, #12]
ARM GAS  /tmp/cctIRrNQ.s 			page 38


 888:../Shared/Libraries/STM32F4xx_StdPeriph_Driver/src/stm32f4xx_rtc.c **** 
 889:../Shared/Libraries/STM32F4xx_StdPeriph_Driver/src/stm32f4xx_rtc.c ****   /* Check the parameters */
 890:../Shared/Libraries/STM32F4xx_StdPeriph_Driver/src/stm32f4xx_rtc.c ****   assert_param(IS_RTC_FORMAT(RTC_Format));
 891:../Shared/Libraries/STM32F4xx_StdPeriph_Driver/src/stm32f4xx_rtc.c **** 
 892:../Shared/Libraries/STM32F4xx_StdPeriph_Driver/src/stm32f4xx_rtc.c ****   /* Get the RTC_TR register */
 893:../Shared/Libraries/STM32F4xx_StdPeriph_Driver/src/stm32f4xx_rtc.c ****   tmpreg = (uint32_t)(RTC->TR & RTC_TR_RESERVED_MASK); 
 1236              		.loc 1 893 26
 1237 000e 244B     		ldr	r3, .L74
 1238 0010 1B68     		ldr	r3, [r3]
 1239              		.loc 1 893 10
 1240 0012 03F07F33 		and	r3, r3, #2139062143
 1241 0016 23F0FE43 		bic	r3, r3, #2130706432
 1242 001a FB60     		str	r3, [r7, #12]
 894:../Shared/Libraries/STM32F4xx_StdPeriph_Driver/src/stm32f4xx_rtc.c ****   
 895:../Shared/Libraries/STM32F4xx_StdPeriph_Driver/src/stm32f4xx_rtc.c ****   /* Fill the structure fields with the read parameters */
 896:../Shared/Libraries/STM32F4xx_StdPeriph_Driver/src/stm32f4xx_rtc.c ****   RTC_TimeStruct->RTC_Hours = (uint8_t)((tmpreg & (RTC_TR_HT | RTC_TR_HU)) >> 16);
 1243              		.loc 1 896 76
 1244 001c FB68     		ldr	r3, [r7, #12]
 1245 001e 1B0C     		lsrs	r3, r3, #16
 1246              		.loc 1 896 31
 1247 0020 DBB2     		uxtb	r3, r3
 1248 0022 03F03F03 		and	r3, r3, #63
 1249 0026 DAB2     		uxtb	r2, r3
 1250              		.loc 1 896 29
 1251 0028 3B68     		ldr	r3, [r7]
 1252 002a 1A70     		strb	r2, [r3]
 897:../Shared/Libraries/STM32F4xx_StdPeriph_Driver/src/stm32f4xx_rtc.c ****   RTC_TimeStruct->RTC_Minutes = (uint8_t)((tmpreg & (RTC_TR_MNT | RTC_TR_MNU)) >>8);
 1253              		.loc 1 897 80
 1254 002c FB68     		ldr	r3, [r7, #12]
 1255 002e 1B0A     		lsrs	r3, r3, #8
 1256              		.loc 1 897 33
 1257 0030 DBB2     		uxtb	r3, r3
 1258 0032 03F07F03 		and	r3, r3, #127
 1259 0036 DAB2     		uxtb	r2, r3
 1260              		.loc 1 897 31
 1261 0038 3B68     		ldr	r3, [r7]
 1262 003a 5A70     		strb	r2, [r3, #1]
 898:../Shared/Libraries/STM32F4xx_StdPeriph_Driver/src/stm32f4xx_rtc.c ****   RTC_TimeStruct->RTC_Seconds = (uint8_t)(tmpreg & (RTC_TR_ST | RTC_TR_SU));
 1263              		.loc 1 898 33
 1264 003c FB68     		ldr	r3, [r7, #12]
 1265 003e DBB2     		uxtb	r3, r3
 1266 0040 03F07F03 		and	r3, r3, #127
 1267 0044 DAB2     		uxtb	r2, r3
 1268              		.loc 1 898 31
 1269 0046 3B68     		ldr	r3, [r7]
 1270 0048 9A70     		strb	r2, [r3, #2]
 899:../Shared/Libraries/STM32F4xx_StdPeriph_Driver/src/stm32f4xx_rtc.c ****   RTC_TimeStruct->RTC_H12 = (uint8_t)((tmpreg & (RTC_TR_PM)) >> 16);  
 1271              		.loc 1 899 62
 1272 004a FB68     		ldr	r3, [r7, #12]
 1273 004c 1B0C     		lsrs	r3, r3, #16
 1274              		.loc 1 899 29
 1275 004e DBB2     		uxtb	r3, r3
 1276 0050 03F04003 		and	r3, r3, #64
 1277 0054 DAB2     		uxtb	r2, r3
 1278              		.loc 1 899 27
 1279 0056 3B68     		ldr	r3, [r7]
 1280 0058 DA70     		strb	r2, [r3, #3]
ARM GAS  /tmp/cctIRrNQ.s 			page 39


 900:../Shared/Libraries/STM32F4xx_StdPeriph_Driver/src/stm32f4xx_rtc.c **** 
 901:../Shared/Libraries/STM32F4xx_StdPeriph_Driver/src/stm32f4xx_rtc.c ****   /* Check the input parameters format */
 902:../Shared/Libraries/STM32F4xx_StdPeriph_Driver/src/stm32f4xx_rtc.c ****   if (RTC_Format == RTC_Format_BIN)
 1281              		.loc 1 902 6
 1282 005a 7B68     		ldr	r3, [r7, #4]
 1283 005c 002B     		cmp	r3, #0
 1284 005e 1AD1     		bne	.L73
 903:../Shared/Libraries/STM32F4xx_StdPeriph_Driver/src/stm32f4xx_rtc.c ****   {
 904:../Shared/Libraries/STM32F4xx_StdPeriph_Driver/src/stm32f4xx_rtc.c ****     /* Convert the structure parameters to Binary format */
 905:../Shared/Libraries/STM32F4xx_StdPeriph_Driver/src/stm32f4xx_rtc.c ****     RTC_TimeStruct->RTC_Hours = (uint8_t)RTC_Bcd2ToByte(RTC_TimeStruct->RTC_Hours);
 1285              		.loc 1 905 42
 1286 0060 3B68     		ldr	r3, [r7]
 1287 0062 1B78     		ldrb	r3, [r3]	@ zero_extendqisi2
 1288 0064 1846     		mov	r0, r3
 1289 0066 FFF7FEFF 		bl	RTC_Bcd2ToByte
 1290 006a 0346     		mov	r3, r0
 1291 006c 1A46     		mov	r2, r3
 1292              		.loc 1 905 31 discriminator 1
 1293 006e 3B68     		ldr	r3, [r7]
 1294 0070 1A70     		strb	r2, [r3]
 906:../Shared/Libraries/STM32F4xx_StdPeriph_Driver/src/stm32f4xx_rtc.c ****     RTC_TimeStruct->RTC_Minutes = (uint8_t)RTC_Bcd2ToByte(RTC_TimeStruct->RTC_Minutes);
 1295              		.loc 1 906 44
 1296 0072 3B68     		ldr	r3, [r7]
 1297 0074 5B78     		ldrb	r3, [r3, #1]	@ zero_extendqisi2
 1298 0076 1846     		mov	r0, r3
 1299 0078 FFF7FEFF 		bl	RTC_Bcd2ToByte
 1300 007c 0346     		mov	r3, r0
 1301 007e 1A46     		mov	r2, r3
 1302              		.loc 1 906 33 discriminator 1
 1303 0080 3B68     		ldr	r3, [r7]
 1304 0082 5A70     		strb	r2, [r3, #1]
 907:../Shared/Libraries/STM32F4xx_StdPeriph_Driver/src/stm32f4xx_rtc.c ****     RTC_TimeStruct->RTC_Seconds = (uint8_t)RTC_Bcd2ToByte(RTC_TimeStruct->RTC_Seconds);   
 1305              		.loc 1 907 44
 1306 0084 3B68     		ldr	r3, [r7]
 1307 0086 9B78     		ldrb	r3, [r3, #2]	@ zero_extendqisi2
 1308 0088 1846     		mov	r0, r3
 1309 008a FFF7FEFF 		bl	RTC_Bcd2ToByte
 1310 008e 0346     		mov	r3, r0
 1311 0090 1A46     		mov	r2, r3
 1312              		.loc 1 907 33 discriminator 1
 1313 0092 3B68     		ldr	r3, [r7]
 1314 0094 9A70     		strb	r2, [r3, #2]
 1315              	.L73:
 908:../Shared/Libraries/STM32F4xx_StdPeriph_Driver/src/stm32f4xx_rtc.c ****   }
 909:../Shared/Libraries/STM32F4xx_StdPeriph_Driver/src/stm32f4xx_rtc.c **** }
 1316              		.loc 1 909 1
 1317 0096 00BF     		nop
 1318 0098 1037     		adds	r7, r7, #16
 1319              	.LCFI63:
 1320              		.cfi_def_cfa_offset 8
 1321 009a BD46     		mov	sp, r7
 1322              	.LCFI64:
 1323              		.cfi_def_cfa_register 13
 1324              		@ sp needed
 1325 009c 80BD     		pop	{r7, pc}
 1326              	.L75:
 1327 009e 00BF     		.align	2
ARM GAS  /tmp/cctIRrNQ.s 			page 40


 1328              	.L74:
 1329 00a0 00280040 		.word	1073752064
 1330              		.cfi_endproc
 1331              	.LFE121:
 1333              		.section	.text.RTC_GetSubSecond,"ax",%progbits
 1334              		.align	1
 1335              		.global	RTC_GetSubSecond
 1336              		.syntax unified
 1337              		.thumb
 1338              		.thumb_func
 1340              	RTC_GetSubSecond:
 1341              	.LFB122:
 910:../Shared/Libraries/STM32F4xx_StdPeriph_Driver/src/stm32f4xx_rtc.c **** 
 911:../Shared/Libraries/STM32F4xx_StdPeriph_Driver/src/stm32f4xx_rtc.c **** /**
 912:../Shared/Libraries/STM32F4xx_StdPeriph_Driver/src/stm32f4xx_rtc.c ****   * @brief  Gets the RTC current Calendar Subseconds value.
 913:../Shared/Libraries/STM32F4xx_StdPeriph_Driver/src/stm32f4xx_rtc.c ****   * @note   This function freeze the Time and Date registers after reading the 
 914:../Shared/Libraries/STM32F4xx_StdPeriph_Driver/src/stm32f4xx_rtc.c ****   *         SSR register.
 915:../Shared/Libraries/STM32F4xx_StdPeriph_Driver/src/stm32f4xx_rtc.c ****   * @param  None
 916:../Shared/Libraries/STM32F4xx_StdPeriph_Driver/src/stm32f4xx_rtc.c ****   * @retval RTC current Calendar Subseconds value.
 917:../Shared/Libraries/STM32F4xx_StdPeriph_Driver/src/stm32f4xx_rtc.c ****   */
 918:../Shared/Libraries/STM32F4xx_StdPeriph_Driver/src/stm32f4xx_rtc.c **** uint32_t RTC_GetSubSecond(void)
 919:../Shared/Libraries/STM32F4xx_StdPeriph_Driver/src/stm32f4xx_rtc.c **** {
 1342              		.loc 1 919 1
 1343              		.cfi_startproc
 1344              		@ args = 0, pretend = 0, frame = 8
 1345              		@ frame_needed = 1, uses_anonymous_args = 0
 1346              		@ link register save eliminated.
 1347 0000 80B4     		push	{r7}
 1348              	.LCFI65:
 1349              		.cfi_def_cfa_offset 4
 1350              		.cfi_offset 7, -4
 1351 0002 83B0     		sub	sp, sp, #12
 1352              	.LCFI66:
 1353              		.cfi_def_cfa_offset 16
 1354 0004 00AF     		add	r7, sp, #0
 1355              	.LCFI67:
 1356              		.cfi_def_cfa_register 7
 920:../Shared/Libraries/STM32F4xx_StdPeriph_Driver/src/stm32f4xx_rtc.c ****   uint32_t tmpreg = 0;
 1357              		.loc 1 920 12
 1358 0006 0023     		movs	r3, #0
 1359 0008 7B60     		str	r3, [r7, #4]
 921:../Shared/Libraries/STM32F4xx_StdPeriph_Driver/src/stm32f4xx_rtc.c ****   
 922:../Shared/Libraries/STM32F4xx_StdPeriph_Driver/src/stm32f4xx_rtc.c ****   /* Get subseconds values from the correspondent registers*/
 923:../Shared/Libraries/STM32F4xx_StdPeriph_Driver/src/stm32f4xx_rtc.c ****   tmpreg = (uint32_t)(RTC->SSR);
 1360              		.loc 1 923 26
 1361 000a 064B     		ldr	r3, .L78
 1362              		.loc 1 923 10
 1363 000c 9B6A     		ldr	r3, [r3, #40]
 1364 000e 7B60     		str	r3, [r7, #4]
 924:../Shared/Libraries/STM32F4xx_StdPeriph_Driver/src/stm32f4xx_rtc.c ****   
 925:../Shared/Libraries/STM32F4xx_StdPeriph_Driver/src/stm32f4xx_rtc.c ****   /* Read DR register to unfroze calendar registers */
 926:../Shared/Libraries/STM32F4xx_StdPeriph_Driver/src/stm32f4xx_rtc.c ****   (void) (RTC->DR);
 1365              		.loc 1 926 14
 1366 0010 044B     		ldr	r3, .L78
 1367              		.loc 1 926 3
 1368 0012 5B68     		ldr	r3, [r3, #4]
 927:../Shared/Libraries/STM32F4xx_StdPeriph_Driver/src/stm32f4xx_rtc.c ****   
ARM GAS  /tmp/cctIRrNQ.s 			page 41


 928:../Shared/Libraries/STM32F4xx_StdPeriph_Driver/src/stm32f4xx_rtc.c ****   return (tmpreg);
 1369              		.loc 1 928 10
 1370 0014 7B68     		ldr	r3, [r7, #4]
 929:../Shared/Libraries/STM32F4xx_StdPeriph_Driver/src/stm32f4xx_rtc.c **** }
 1371              		.loc 1 929 1
 1372 0016 1846     		mov	r0, r3
 1373 0018 0C37     		adds	r7, r7, #12
 1374              	.LCFI68:
 1375              		.cfi_def_cfa_offset 4
 1376 001a BD46     		mov	sp, r7
 1377              	.LCFI69:
 1378              		.cfi_def_cfa_register 13
 1379              		@ sp needed
 1380 001c 5DF8047B 		ldr	r7, [sp], #4
 1381              	.LCFI70:
 1382              		.cfi_restore 7
 1383              		.cfi_def_cfa_offset 0
 1384 0020 7047     		bx	lr
 1385              	.L79:
 1386 0022 00BF     		.align	2
 1387              	.L78:
 1388 0024 00280040 		.word	1073752064
 1389              		.cfi_endproc
 1390              	.LFE122:
 1392              		.section	.text.RTC_SetDate,"ax",%progbits
 1393              		.align	1
 1394              		.global	RTC_SetDate
 1395              		.syntax unified
 1396              		.thumb
 1397              		.thumb_func
 1399              	RTC_SetDate:
 1400              	.LFB123:
 930:../Shared/Libraries/STM32F4xx_StdPeriph_Driver/src/stm32f4xx_rtc.c **** 
 931:../Shared/Libraries/STM32F4xx_StdPeriph_Driver/src/stm32f4xx_rtc.c **** /**
 932:../Shared/Libraries/STM32F4xx_StdPeriph_Driver/src/stm32f4xx_rtc.c ****   * @brief  Set the RTC current date.
 933:../Shared/Libraries/STM32F4xx_StdPeriph_Driver/src/stm32f4xx_rtc.c ****   * @param  RTC_Format: specifies the format of the entered parameters.
 934:../Shared/Libraries/STM32F4xx_StdPeriph_Driver/src/stm32f4xx_rtc.c ****   *          This parameter can be  one of the following values:
 935:../Shared/Libraries/STM32F4xx_StdPeriph_Driver/src/stm32f4xx_rtc.c ****   *            @arg RTC_Format_BIN:  Binary data format 
 936:../Shared/Libraries/STM32F4xx_StdPeriph_Driver/src/stm32f4xx_rtc.c ****   *            @arg RTC_Format_BCD:  BCD data format
 937:../Shared/Libraries/STM32F4xx_StdPeriph_Driver/src/stm32f4xx_rtc.c ****   * @param  RTC_DateStruct: pointer to a RTC_DateTypeDef structure that contains 
 938:../Shared/Libraries/STM32F4xx_StdPeriph_Driver/src/stm32f4xx_rtc.c ****   *                         the date configuration information for the RTC.
 939:../Shared/Libraries/STM32F4xx_StdPeriph_Driver/src/stm32f4xx_rtc.c ****   * @retval An ErrorStatus enumeration value:
 940:../Shared/Libraries/STM32F4xx_StdPeriph_Driver/src/stm32f4xx_rtc.c ****   *          - SUCCESS: RTC Date register is configured
 941:../Shared/Libraries/STM32F4xx_StdPeriph_Driver/src/stm32f4xx_rtc.c ****   *          - ERROR: RTC Date register is not configured
 942:../Shared/Libraries/STM32F4xx_StdPeriph_Driver/src/stm32f4xx_rtc.c ****   */
 943:../Shared/Libraries/STM32F4xx_StdPeriph_Driver/src/stm32f4xx_rtc.c **** ErrorStatus RTC_SetDate(uint32_t RTC_Format, RTC_DateTypeDef* RTC_DateStruct)
 944:../Shared/Libraries/STM32F4xx_StdPeriph_Driver/src/stm32f4xx_rtc.c **** {
 1401              		.loc 1 944 1
 1402              		.cfi_startproc
 1403              		@ args = 0, pretend = 0, frame = 16
 1404              		@ frame_needed = 1, uses_anonymous_args = 0
 1405 0000 90B5     		push	{r4, r7, lr}
 1406              	.LCFI71:
 1407              		.cfi_def_cfa_offset 12
 1408              		.cfi_offset 4, -12
 1409              		.cfi_offset 7, -8
 1410              		.cfi_offset 14, -4
ARM GAS  /tmp/cctIRrNQ.s 			page 42


 1411 0002 85B0     		sub	sp, sp, #20
 1412              	.LCFI72:
 1413              		.cfi_def_cfa_offset 32
 1414 0004 00AF     		add	r7, sp, #0
 1415              	.LCFI73:
 1416              		.cfi_def_cfa_register 7
 1417 0006 7860     		str	r0, [r7, #4]
 1418 0008 3960     		str	r1, [r7]
 945:../Shared/Libraries/STM32F4xx_StdPeriph_Driver/src/stm32f4xx_rtc.c ****   uint32_t tmpreg = 0;
 1419              		.loc 1 945 12
 1420 000a 0023     		movs	r3, #0
 1421 000c FB60     		str	r3, [r7, #12]
 946:../Shared/Libraries/STM32F4xx_StdPeriph_Driver/src/stm32f4xx_rtc.c ****   ErrorStatus status = ERROR;
 1422              		.loc 1 946 15
 1423 000e 0023     		movs	r3, #0
 1424 0010 FB72     		strb	r3, [r7, #11]
 947:../Shared/Libraries/STM32F4xx_StdPeriph_Driver/src/stm32f4xx_rtc.c ****   
 948:../Shared/Libraries/STM32F4xx_StdPeriph_Driver/src/stm32f4xx_rtc.c ****   /* Check the parameters */
 949:../Shared/Libraries/STM32F4xx_StdPeriph_Driver/src/stm32f4xx_rtc.c ****   assert_param(IS_RTC_FORMAT(RTC_Format));
 950:../Shared/Libraries/STM32F4xx_StdPeriph_Driver/src/stm32f4xx_rtc.c **** 
 951:../Shared/Libraries/STM32F4xx_StdPeriph_Driver/src/stm32f4xx_rtc.c ****   if ((RTC_Format == RTC_Format_BIN) && ((RTC_DateStruct->RTC_Month & 0x10) == 0x10))
 1425              		.loc 1 951 6
 1426 0012 7B68     		ldr	r3, [r7, #4]
 1427 0014 002B     		cmp	r3, #0
 1428 0016 0ED1     		bne	.L81
 1429              		.loc 1 951 57 discriminator 1
 1430 0018 3B68     		ldr	r3, [r7]
 1431 001a 5B78     		ldrb	r3, [r3, #1]	@ zero_extendqisi2
 1432              		.loc 1 951 69 discriminator 1
 1433 001c 03F01003 		and	r3, r3, #16
 1434              		.loc 1 951 38 discriminator 1
 1435 0020 002B     		cmp	r3, #0
 1436 0022 08D0     		beq	.L81
 952:../Shared/Libraries/STM32F4xx_StdPeriph_Driver/src/stm32f4xx_rtc.c ****   {
 953:../Shared/Libraries/STM32F4xx_StdPeriph_Driver/src/stm32f4xx_rtc.c ****     RTC_DateStruct->RTC_Month = (RTC_DateStruct->RTC_Month & (uint32_t)~(0x10)) + 0x0A;
 1437              		.loc 1 953 48
 1438 0024 3B68     		ldr	r3, [r7]
 1439 0026 5B78     		ldrb	r3, [r3, #1]	@ zero_extendqisi2
 1440              		.loc 1 953 60
 1441 0028 23F01003 		bic	r3, r3, #16
 1442 002c DBB2     		uxtb	r3, r3
 1443              		.loc 1 953 81
 1444 002e 0A33     		adds	r3, r3, #10
 1445 0030 DAB2     		uxtb	r2, r3
 1446              		.loc 1 953 31
 1447 0032 3B68     		ldr	r3, [r7]
 1448 0034 5A70     		strb	r2, [r3, #1]
 1449              	.L81:
 954:../Shared/Libraries/STM32F4xx_StdPeriph_Driver/src/stm32f4xx_rtc.c ****   }  
 955:../Shared/Libraries/STM32F4xx_StdPeriph_Driver/src/stm32f4xx_rtc.c ****   if (RTC_Format == RTC_Format_BIN)
 1450              		.loc 1 955 6
 1451 0036 7B68     		ldr	r3, [r7, #4]
 1452 0038 002B     		cmp	r3, #0
 1453 003a 0DD0     		beq	.L82
 956:../Shared/Libraries/STM32F4xx_StdPeriph_Driver/src/stm32f4xx_rtc.c ****   {
 957:../Shared/Libraries/STM32F4xx_StdPeriph_Driver/src/stm32f4xx_rtc.c ****     assert_param(IS_RTC_YEAR(RTC_DateStruct->RTC_Year));
 958:../Shared/Libraries/STM32F4xx_StdPeriph_Driver/src/stm32f4xx_rtc.c ****     assert_param(IS_RTC_MONTH(RTC_DateStruct->RTC_Month));
ARM GAS  /tmp/cctIRrNQ.s 			page 43


 959:../Shared/Libraries/STM32F4xx_StdPeriph_Driver/src/stm32f4xx_rtc.c ****     assert_param(IS_RTC_DATE(RTC_DateStruct->RTC_Date));
 960:../Shared/Libraries/STM32F4xx_StdPeriph_Driver/src/stm32f4xx_rtc.c ****   }
 961:../Shared/Libraries/STM32F4xx_StdPeriph_Driver/src/stm32f4xx_rtc.c ****   else
 962:../Shared/Libraries/STM32F4xx_StdPeriph_Driver/src/stm32f4xx_rtc.c ****   {
 963:../Shared/Libraries/STM32F4xx_StdPeriph_Driver/src/stm32f4xx_rtc.c ****     assert_param(IS_RTC_YEAR(RTC_Bcd2ToByte(RTC_DateStruct->RTC_Year)));
 964:../Shared/Libraries/STM32F4xx_StdPeriph_Driver/src/stm32f4xx_rtc.c ****     tmpreg = RTC_Bcd2ToByte(RTC_DateStruct->RTC_Month);
 1454              		.loc 1 964 14
 1455 003c 3B68     		ldr	r3, [r7]
 1456 003e 5B78     		ldrb	r3, [r3, #1]	@ zero_extendqisi2
 1457 0040 1846     		mov	r0, r3
 1458 0042 FFF7FEFF 		bl	RTC_Bcd2ToByte
 1459 0046 0346     		mov	r3, r0
 1460              		.loc 1 964 12 discriminator 1
 1461 0048 FB60     		str	r3, [r7, #12]
 965:../Shared/Libraries/STM32F4xx_StdPeriph_Driver/src/stm32f4xx_rtc.c ****     assert_param(IS_RTC_MONTH(tmpreg));
 966:../Shared/Libraries/STM32F4xx_StdPeriph_Driver/src/stm32f4xx_rtc.c ****     tmpreg = RTC_Bcd2ToByte(RTC_DateStruct->RTC_Date);
 1462              		.loc 1 966 14
 1463 004a 3B68     		ldr	r3, [r7]
 1464 004c 9B78     		ldrb	r3, [r3, #2]	@ zero_extendqisi2
 1465 004e 1846     		mov	r0, r3
 1466 0050 FFF7FEFF 		bl	RTC_Bcd2ToByte
 1467 0054 0346     		mov	r3, r0
 1468              		.loc 1 966 12 discriminator 1
 1469 0056 FB60     		str	r3, [r7, #12]
 1470              	.L82:
 967:../Shared/Libraries/STM32F4xx_StdPeriph_Driver/src/stm32f4xx_rtc.c ****     assert_param(IS_RTC_DATE(tmpreg));
 968:../Shared/Libraries/STM32F4xx_StdPeriph_Driver/src/stm32f4xx_rtc.c ****   }
 969:../Shared/Libraries/STM32F4xx_StdPeriph_Driver/src/stm32f4xx_rtc.c ****   assert_param(IS_RTC_WEEKDAY(RTC_DateStruct->RTC_WeekDay));
 970:../Shared/Libraries/STM32F4xx_StdPeriph_Driver/src/stm32f4xx_rtc.c **** 
 971:../Shared/Libraries/STM32F4xx_StdPeriph_Driver/src/stm32f4xx_rtc.c ****   /* Check the input parameters format */
 972:../Shared/Libraries/STM32F4xx_StdPeriph_Driver/src/stm32f4xx_rtc.c ****   if (RTC_Format != RTC_Format_BIN)
 1471              		.loc 1 972 6
 1472 0058 7B68     		ldr	r3, [r7, #4]
 1473 005a 002B     		cmp	r3, #0
 1474 005c 0FD0     		beq	.L83
 973:../Shared/Libraries/STM32F4xx_StdPeriph_Driver/src/stm32f4xx_rtc.c ****   {
 974:../Shared/Libraries/STM32F4xx_StdPeriph_Driver/src/stm32f4xx_rtc.c ****     tmpreg = ((((uint32_t)RTC_DateStruct->RTC_Year) << 16) | \
 1475              		.loc 1 974 41
 1476 005e 3B68     		ldr	r3, [r7]
 1477 0060 DB78     		ldrb	r3, [r3, #3]	@ zero_extendqisi2
 1478              		.loc 1 974 53
 1479 0062 1A04     		lsls	r2, r3, #16
 975:../Shared/Libraries/STM32F4xx_StdPeriph_Driver/src/stm32f4xx_rtc.c ****               (((uint32_t)RTC_DateStruct->RTC_Month) << 8) | \
 1480              		.loc 1 975 41
 1481 0064 3B68     		ldr	r3, [r7]
 1482 0066 5B78     		ldrb	r3, [r3, #1]	@ zero_extendqisi2
 1483              		.loc 1 975 54
 1484 0068 1B02     		lsls	r3, r3, #8
 974:../Shared/Libraries/STM32F4xx_StdPeriph_Driver/src/stm32f4xx_rtc.c ****               (((uint32_t)RTC_DateStruct->RTC_Month) << 8) | \
 1485              		.loc 1 974 60
 1486 006a 1343     		orrs	r3, r3, r2
 976:../Shared/Libraries/STM32F4xx_StdPeriph_Driver/src/stm32f4xx_rtc.c ****               ((uint32_t)RTC_DateStruct->RTC_Date) | \
 1487              		.loc 1 976 40
 1488 006c 3A68     		ldr	r2, [r7]
 1489 006e 9278     		ldrb	r2, [r2, #2]	@ zero_extendqisi2
 975:../Shared/Libraries/STM32F4xx_StdPeriph_Driver/src/stm32f4xx_rtc.c ****               (((uint32_t)RTC_DateStruct->RTC_Month) << 8) | \
 1490              		.loc 1 975 60
ARM GAS  /tmp/cctIRrNQ.s 			page 44


 1491 0070 1A43     		orrs	r2, r2, r3
 977:../Shared/Libraries/STM32F4xx_StdPeriph_Driver/src/stm32f4xx_rtc.c ****               (((uint32_t)RTC_DateStruct->RTC_WeekDay) << 13)); 
 1492              		.loc 1 977 41
 1493 0072 3B68     		ldr	r3, [r7]
 1494 0074 1B78     		ldrb	r3, [r3]	@ zero_extendqisi2
 1495              		.loc 1 977 56
 1496 0076 5B03     		lsls	r3, r3, #13
 974:../Shared/Libraries/STM32F4xx_StdPeriph_Driver/src/stm32f4xx_rtc.c ****               (((uint32_t)RTC_DateStruct->RTC_Month) << 8) | \
 1497              		.loc 1 974 12
 1498 0078 1343     		orrs	r3, r3, r2
 1499 007a FB60     		str	r3, [r7, #12]
 1500 007c 1BE0     		b	.L84
 1501              	.L83:
 978:../Shared/Libraries/STM32F4xx_StdPeriph_Driver/src/stm32f4xx_rtc.c ****   }  
 979:../Shared/Libraries/STM32F4xx_StdPeriph_Driver/src/stm32f4xx_rtc.c ****   else
 980:../Shared/Libraries/STM32F4xx_StdPeriph_Driver/src/stm32f4xx_rtc.c ****   {
 981:../Shared/Libraries/STM32F4xx_StdPeriph_Driver/src/stm32f4xx_rtc.c ****     tmpreg = (((uint32_t)RTC_ByteToBcd2(RTC_DateStruct->RTC_Year) << 16) | \
 1502              		.loc 1 981 26
 1503 007e 3B68     		ldr	r3, [r7]
 1504 0080 DB78     		ldrb	r3, [r3, #3]	@ zero_extendqisi2
 1505 0082 1846     		mov	r0, r3
 1506 0084 FFF7FEFF 		bl	RTC_ByteToBcd2
 1507 0088 0346     		mov	r3, r0
 1508              		.loc 1 981 67 discriminator 1
 1509 008a 1C04     		lsls	r4, r3, #16
 982:../Shared/Libraries/STM32F4xx_StdPeriph_Driver/src/stm32f4xx_rtc.c ****               ((uint32_t)RTC_ByteToBcd2(RTC_DateStruct->RTC_Month) << 8) | \
 1510              		.loc 1 982 26
 1511 008c 3B68     		ldr	r3, [r7]
 1512 008e 5B78     		ldrb	r3, [r3, #1]	@ zero_extendqisi2
 1513 0090 1846     		mov	r0, r3
 1514 0092 FFF7FEFF 		bl	RTC_ByteToBcd2
 1515 0096 0346     		mov	r3, r0
 1516              		.loc 1 982 68 discriminator 1
 1517 0098 1B02     		lsls	r3, r3, #8
 981:../Shared/Libraries/STM32F4xx_StdPeriph_Driver/src/stm32f4xx_rtc.c ****               ((uint32_t)RTC_ByteToBcd2(RTC_DateStruct->RTC_Month) << 8) | \
 1518              		.loc 1 981 74
 1519 009a 1C43     		orrs	r4, r4, r3
 983:../Shared/Libraries/STM32F4xx_StdPeriph_Driver/src/stm32f4xx_rtc.c ****               ((uint32_t)RTC_ByteToBcd2(RTC_DateStruct->RTC_Date)) | \
 1520              		.loc 1 983 26
 1521 009c 3B68     		ldr	r3, [r7]
 1522 009e 9B78     		ldrb	r3, [r3, #2]	@ zero_extendqisi2
 1523 00a0 1846     		mov	r0, r3
 1524 00a2 FFF7FEFF 		bl	RTC_ByteToBcd2
 1525 00a6 0346     		mov	r3, r0
 982:../Shared/Libraries/STM32F4xx_StdPeriph_Driver/src/stm32f4xx_rtc.c ****               ((uint32_t)RTC_ByteToBcd2(RTC_DateStruct->RTC_Month) << 8) | \
 1526              		.loc 1 982 74
 1527 00a8 44EA0302 		orr	r2, r4, r3
 984:../Shared/Libraries/STM32F4xx_StdPeriph_Driver/src/stm32f4xx_rtc.c ****               ((uint32_t)RTC_DateStruct->RTC_WeekDay << 13));
 1528              		.loc 1 984 40
 1529 00ac 3B68     		ldr	r3, [r7]
 1530 00ae 1B78     		ldrb	r3, [r3]	@ zero_extendqisi2
 1531              		.loc 1 984 54
 1532 00b0 5B03     		lsls	r3, r3, #13
 981:../Shared/Libraries/STM32F4xx_StdPeriph_Driver/src/stm32f4xx_rtc.c ****               ((uint32_t)RTC_ByteToBcd2(RTC_DateStruct->RTC_Month) << 8) | \
 1533              		.loc 1 981 12
 1534 00b2 1343     		orrs	r3, r3, r2
 1535 00b4 FB60     		str	r3, [r7, #12]
ARM GAS  /tmp/cctIRrNQ.s 			page 45


 1536              	.L84:
 985:../Shared/Libraries/STM32F4xx_StdPeriph_Driver/src/stm32f4xx_rtc.c ****   }
 986:../Shared/Libraries/STM32F4xx_StdPeriph_Driver/src/stm32f4xx_rtc.c **** 
 987:../Shared/Libraries/STM32F4xx_StdPeriph_Driver/src/stm32f4xx_rtc.c ****   /* Disable the write protection for RTC registers */
 988:../Shared/Libraries/STM32F4xx_StdPeriph_Driver/src/stm32f4xx_rtc.c ****   RTC->WPR = 0xCA;
 1537              		.loc 1 988 6
 1538 00b6 194B     		ldr	r3, .L90
 1539              		.loc 1 988 12
 1540 00b8 CA22     		movs	r2, #202
 1541 00ba 5A62     		str	r2, [r3, #36]
 989:../Shared/Libraries/STM32F4xx_StdPeriph_Driver/src/stm32f4xx_rtc.c ****   RTC->WPR = 0x53;
 1542              		.loc 1 989 6
 1543 00bc 174B     		ldr	r3, .L90
 1544              		.loc 1 989 12
 1545 00be 5322     		movs	r2, #83
 1546 00c0 5A62     		str	r2, [r3, #36]
 990:../Shared/Libraries/STM32F4xx_StdPeriph_Driver/src/stm32f4xx_rtc.c **** 
 991:../Shared/Libraries/STM32F4xx_StdPeriph_Driver/src/stm32f4xx_rtc.c ****   /* Set Initialization mode */
 992:../Shared/Libraries/STM32F4xx_StdPeriph_Driver/src/stm32f4xx_rtc.c ****   if (RTC_EnterInitMode() == ERROR)
 1547              		.loc 1 992 7
 1548 00c2 FFF7FEFF 		bl	RTC_EnterInitMode
 1549 00c6 0346     		mov	r3, r0
 1550              		.loc 1 992 6 discriminator 1
 1551 00c8 002B     		cmp	r3, #0
 1552 00ca 02D1     		bne	.L85
 993:../Shared/Libraries/STM32F4xx_StdPeriph_Driver/src/stm32f4xx_rtc.c ****   {
 994:../Shared/Libraries/STM32F4xx_StdPeriph_Driver/src/stm32f4xx_rtc.c ****     status = ERROR;
 1553              		.loc 1 994 12
 1554 00cc 0023     		movs	r3, #0
 1555 00ce FB72     		strb	r3, [r7, #11]
 1556 00d0 1BE0     		b	.L86
 1557              	.L85:
 995:../Shared/Libraries/STM32F4xx_StdPeriph_Driver/src/stm32f4xx_rtc.c ****   } 
 996:../Shared/Libraries/STM32F4xx_StdPeriph_Driver/src/stm32f4xx_rtc.c ****   else
 997:../Shared/Libraries/STM32F4xx_StdPeriph_Driver/src/stm32f4xx_rtc.c ****   {
 998:../Shared/Libraries/STM32F4xx_StdPeriph_Driver/src/stm32f4xx_rtc.c ****     /* Set the RTC_DR register */
 999:../Shared/Libraries/STM32F4xx_StdPeriph_Driver/src/stm32f4xx_rtc.c ****     RTC->DR = (uint32_t)(tmpreg & RTC_DR_RESERVED_MASK);
 1558              		.loc 1 999 8
 1559 00d2 124A     		ldr	r2, .L90
 1560              		.loc 1 999 15
 1561 00d4 FB68     		ldr	r3, [r7, #12]
 1562 00d6 23F07F43 		bic	r3, r3, #-16777216
 1563 00da 23F0C003 		bic	r3, r3, #192
 1564              		.loc 1 999 13
 1565 00de 5360     		str	r3, [r2, #4]
1000:../Shared/Libraries/STM32F4xx_StdPeriph_Driver/src/stm32f4xx_rtc.c **** 
1001:../Shared/Libraries/STM32F4xx_StdPeriph_Driver/src/stm32f4xx_rtc.c ****     /* Exit Initialization mode */
1002:../Shared/Libraries/STM32F4xx_StdPeriph_Driver/src/stm32f4xx_rtc.c ****     RTC_ExitInitMode(); 
 1566              		.loc 1 1002 5
 1567 00e0 FFF7FEFF 		bl	RTC_ExitInitMode
1003:../Shared/Libraries/STM32F4xx_StdPeriph_Driver/src/stm32f4xx_rtc.c **** 
1004:../Shared/Libraries/STM32F4xx_StdPeriph_Driver/src/stm32f4xx_rtc.c ****     /* If  RTC_CR_BYPSHAD bit = 0, wait for synchro else this check is not needed */
1005:../Shared/Libraries/STM32F4xx_StdPeriph_Driver/src/stm32f4xx_rtc.c ****     if ((RTC->CR & RTC_CR_BYPSHAD) == RESET)
 1568              		.loc 1 1005 13
 1569 00e4 0D4B     		ldr	r3, .L90
 1570 00e6 9B68     		ldr	r3, [r3, #8]
 1571              		.loc 1 1005 18
ARM GAS  /tmp/cctIRrNQ.s 			page 46


 1572 00e8 03F02003 		and	r3, r3, #32
 1573              		.loc 1 1005 8
 1574 00ec 002B     		cmp	r3, #0
 1575 00ee 0AD1     		bne	.L87
1006:../Shared/Libraries/STM32F4xx_StdPeriph_Driver/src/stm32f4xx_rtc.c ****     {
1007:../Shared/Libraries/STM32F4xx_StdPeriph_Driver/src/stm32f4xx_rtc.c ****       if (RTC_WaitForSynchro() == ERROR)
 1576              		.loc 1 1007 11
 1577 00f0 FFF7FEFF 		bl	RTC_WaitForSynchro
 1578 00f4 0346     		mov	r3, r0
 1579              		.loc 1 1007 10 discriminator 1
 1580 00f6 002B     		cmp	r3, #0
 1581 00f8 02D1     		bne	.L88
1008:../Shared/Libraries/STM32F4xx_StdPeriph_Driver/src/stm32f4xx_rtc.c ****       {
1009:../Shared/Libraries/STM32F4xx_StdPeriph_Driver/src/stm32f4xx_rtc.c ****         status = ERROR;
 1582              		.loc 1 1009 16
 1583 00fa 0023     		movs	r3, #0
 1584 00fc FB72     		strb	r3, [r7, #11]
 1585 00fe 04E0     		b	.L86
 1586              	.L88:
1010:../Shared/Libraries/STM32F4xx_StdPeriph_Driver/src/stm32f4xx_rtc.c ****       }
1011:../Shared/Libraries/STM32F4xx_StdPeriph_Driver/src/stm32f4xx_rtc.c ****       else
1012:../Shared/Libraries/STM32F4xx_StdPeriph_Driver/src/stm32f4xx_rtc.c ****       {
1013:../Shared/Libraries/STM32F4xx_StdPeriph_Driver/src/stm32f4xx_rtc.c ****         status = SUCCESS;
 1587              		.loc 1 1013 16
 1588 0100 0123     		movs	r3, #1
 1589 0102 FB72     		strb	r3, [r7, #11]
 1590 0104 01E0     		b	.L86
 1591              	.L87:
1014:../Shared/Libraries/STM32F4xx_StdPeriph_Driver/src/stm32f4xx_rtc.c ****       }
1015:../Shared/Libraries/STM32F4xx_StdPeriph_Driver/src/stm32f4xx_rtc.c ****     }
1016:../Shared/Libraries/STM32F4xx_StdPeriph_Driver/src/stm32f4xx_rtc.c ****     else
1017:../Shared/Libraries/STM32F4xx_StdPeriph_Driver/src/stm32f4xx_rtc.c ****     {
1018:../Shared/Libraries/STM32F4xx_StdPeriph_Driver/src/stm32f4xx_rtc.c ****       status = SUCCESS;
 1592              		.loc 1 1018 14
 1593 0106 0123     		movs	r3, #1
 1594 0108 FB72     		strb	r3, [r7, #11]
 1595              	.L86:
1019:../Shared/Libraries/STM32F4xx_StdPeriph_Driver/src/stm32f4xx_rtc.c ****     }
1020:../Shared/Libraries/STM32F4xx_StdPeriph_Driver/src/stm32f4xx_rtc.c ****   }
1021:../Shared/Libraries/STM32F4xx_StdPeriph_Driver/src/stm32f4xx_rtc.c ****   /* Enable the write protection for RTC registers */
1022:../Shared/Libraries/STM32F4xx_StdPeriph_Driver/src/stm32f4xx_rtc.c ****   RTC->WPR = 0xFF;   
 1596              		.loc 1 1022 6
 1597 010a 044B     		ldr	r3, .L90
 1598              		.loc 1 1022 12
 1599 010c FF22     		movs	r2, #255
 1600 010e 5A62     		str	r2, [r3, #36]
1023:../Shared/Libraries/STM32F4xx_StdPeriph_Driver/src/stm32f4xx_rtc.c ****   
1024:../Shared/Libraries/STM32F4xx_StdPeriph_Driver/src/stm32f4xx_rtc.c ****   return status;
 1601              		.loc 1 1024 10
 1602 0110 FB7A     		ldrb	r3, [r7, #11]	@ zero_extendqisi2
1025:../Shared/Libraries/STM32F4xx_StdPeriph_Driver/src/stm32f4xx_rtc.c **** }
 1603              		.loc 1 1025 1
 1604 0112 1846     		mov	r0, r3
 1605 0114 1437     		adds	r7, r7, #20
 1606              	.LCFI74:
 1607              		.cfi_def_cfa_offset 12
 1608 0116 BD46     		mov	sp, r7
ARM GAS  /tmp/cctIRrNQ.s 			page 47


 1609              	.LCFI75:
 1610              		.cfi_def_cfa_register 13
 1611              		@ sp needed
 1612 0118 90BD     		pop	{r4, r7, pc}
 1613              	.L91:
 1614 011a 00BF     		.align	2
 1615              	.L90:
 1616 011c 00280040 		.word	1073752064
 1617              		.cfi_endproc
 1618              	.LFE123:
 1620              		.section	.text.RTC_DateStructInit,"ax",%progbits
 1621              		.align	1
 1622              		.global	RTC_DateStructInit
 1623              		.syntax unified
 1624              		.thumb
 1625              		.thumb_func
 1627              	RTC_DateStructInit:
 1628              	.LFB124:
1026:../Shared/Libraries/STM32F4xx_StdPeriph_Driver/src/stm32f4xx_rtc.c **** 
1027:../Shared/Libraries/STM32F4xx_StdPeriph_Driver/src/stm32f4xx_rtc.c **** /**
1028:../Shared/Libraries/STM32F4xx_StdPeriph_Driver/src/stm32f4xx_rtc.c ****   * @brief  Fills each RTC_DateStruct member with its default value
1029:../Shared/Libraries/STM32F4xx_StdPeriph_Driver/src/stm32f4xx_rtc.c ****   *         (Monday, January 01 xx00).
1030:../Shared/Libraries/STM32F4xx_StdPeriph_Driver/src/stm32f4xx_rtc.c ****   * @param  RTC_DateStruct: pointer to a RTC_DateTypeDef structure which will be 
1031:../Shared/Libraries/STM32F4xx_StdPeriph_Driver/src/stm32f4xx_rtc.c ****   *         initialized.
1032:../Shared/Libraries/STM32F4xx_StdPeriph_Driver/src/stm32f4xx_rtc.c ****   * @retval None
1033:../Shared/Libraries/STM32F4xx_StdPeriph_Driver/src/stm32f4xx_rtc.c ****   */
1034:../Shared/Libraries/STM32F4xx_StdPeriph_Driver/src/stm32f4xx_rtc.c **** void RTC_DateStructInit(RTC_DateTypeDef* RTC_DateStruct)
1035:../Shared/Libraries/STM32F4xx_StdPeriph_Driver/src/stm32f4xx_rtc.c **** {
 1629              		.loc 1 1035 1
 1630              		.cfi_startproc
 1631              		@ args = 0, pretend = 0, frame = 8
 1632              		@ frame_needed = 1, uses_anonymous_args = 0
 1633              		@ link register save eliminated.
 1634 0000 80B4     		push	{r7}
 1635              	.LCFI76:
 1636              		.cfi_def_cfa_offset 4
 1637              		.cfi_offset 7, -4
 1638 0002 83B0     		sub	sp, sp, #12
 1639              	.LCFI77:
 1640              		.cfi_def_cfa_offset 16
 1641 0004 00AF     		add	r7, sp, #0
 1642              	.LCFI78:
 1643              		.cfi_def_cfa_register 7
 1644 0006 7860     		str	r0, [r7, #4]
1036:../Shared/Libraries/STM32F4xx_StdPeriph_Driver/src/stm32f4xx_rtc.c ****   /* Monday, January 01 xx00 */
1037:../Shared/Libraries/STM32F4xx_StdPeriph_Driver/src/stm32f4xx_rtc.c ****   RTC_DateStruct->RTC_WeekDay = RTC_Weekday_Monday;
 1645              		.loc 1 1037 31
 1646 0008 7B68     		ldr	r3, [r7, #4]
 1647 000a 0122     		movs	r2, #1
 1648 000c 1A70     		strb	r2, [r3]
1038:../Shared/Libraries/STM32F4xx_StdPeriph_Driver/src/stm32f4xx_rtc.c ****   RTC_DateStruct->RTC_Date = 1;
 1649              		.loc 1 1038 28
 1650 000e 7B68     		ldr	r3, [r7, #4]
 1651 0010 0122     		movs	r2, #1
 1652 0012 9A70     		strb	r2, [r3, #2]
1039:../Shared/Libraries/STM32F4xx_StdPeriph_Driver/src/stm32f4xx_rtc.c ****   RTC_DateStruct->RTC_Month = RTC_Month_January;
 1653              		.loc 1 1039 29
ARM GAS  /tmp/cctIRrNQ.s 			page 48


 1654 0014 7B68     		ldr	r3, [r7, #4]
 1655 0016 0122     		movs	r2, #1
 1656 0018 5A70     		strb	r2, [r3, #1]
1040:../Shared/Libraries/STM32F4xx_StdPeriph_Driver/src/stm32f4xx_rtc.c ****   RTC_DateStruct->RTC_Year = 0;
 1657              		.loc 1 1040 28
 1658 001a 7B68     		ldr	r3, [r7, #4]
 1659 001c 0022     		movs	r2, #0
 1660 001e DA70     		strb	r2, [r3, #3]
1041:../Shared/Libraries/STM32F4xx_StdPeriph_Driver/src/stm32f4xx_rtc.c **** }
 1661              		.loc 1 1041 1
 1662 0020 00BF     		nop
 1663 0022 0C37     		adds	r7, r7, #12
 1664              	.LCFI79:
 1665              		.cfi_def_cfa_offset 4
 1666 0024 BD46     		mov	sp, r7
 1667              	.LCFI80:
 1668              		.cfi_def_cfa_register 13
 1669              		@ sp needed
 1670 0026 5DF8047B 		ldr	r7, [sp], #4
 1671              	.LCFI81:
 1672              		.cfi_restore 7
 1673              		.cfi_def_cfa_offset 0
 1674 002a 7047     		bx	lr
 1675              		.cfi_endproc
 1676              	.LFE124:
 1678              		.section	.text.RTC_GetDate,"ax",%progbits
 1679              		.align	1
 1680              		.global	RTC_GetDate
 1681              		.syntax unified
 1682              		.thumb
 1683              		.thumb_func
 1685              	RTC_GetDate:
 1686              	.LFB125:
1042:../Shared/Libraries/STM32F4xx_StdPeriph_Driver/src/stm32f4xx_rtc.c **** 
1043:../Shared/Libraries/STM32F4xx_StdPeriph_Driver/src/stm32f4xx_rtc.c **** /**
1044:../Shared/Libraries/STM32F4xx_StdPeriph_Driver/src/stm32f4xx_rtc.c ****   * @brief  Get the RTC current date. 
1045:../Shared/Libraries/STM32F4xx_StdPeriph_Driver/src/stm32f4xx_rtc.c ****   * @param  RTC_Format: specifies the format of the returned parameters.
1046:../Shared/Libraries/STM32F4xx_StdPeriph_Driver/src/stm32f4xx_rtc.c ****   *          This parameter can be one of the following values:
1047:../Shared/Libraries/STM32F4xx_StdPeriph_Driver/src/stm32f4xx_rtc.c ****   *            @arg RTC_Format_BIN: Binary data format 
1048:../Shared/Libraries/STM32F4xx_StdPeriph_Driver/src/stm32f4xx_rtc.c ****   *            @arg RTC_Format_BCD: BCD data format
1049:../Shared/Libraries/STM32F4xx_StdPeriph_Driver/src/stm32f4xx_rtc.c ****   * @param RTC_DateStruct: pointer to a RTC_DateTypeDef structure that will 
1050:../Shared/Libraries/STM32F4xx_StdPeriph_Driver/src/stm32f4xx_rtc.c ****   *                        contain the returned current date configuration.     
1051:../Shared/Libraries/STM32F4xx_StdPeriph_Driver/src/stm32f4xx_rtc.c ****   * @retval None
1052:../Shared/Libraries/STM32F4xx_StdPeriph_Driver/src/stm32f4xx_rtc.c ****   */
1053:../Shared/Libraries/STM32F4xx_StdPeriph_Driver/src/stm32f4xx_rtc.c **** void RTC_GetDate(uint32_t RTC_Format, RTC_DateTypeDef* RTC_DateStruct)
1054:../Shared/Libraries/STM32F4xx_StdPeriph_Driver/src/stm32f4xx_rtc.c **** {
 1687              		.loc 1 1054 1
 1688              		.cfi_startproc
 1689              		@ args = 0, pretend = 0, frame = 16
 1690              		@ frame_needed = 1, uses_anonymous_args = 0
 1691 0000 80B5     		push	{r7, lr}
 1692              	.LCFI82:
 1693              		.cfi_def_cfa_offset 8
 1694              		.cfi_offset 7, -8
 1695              		.cfi_offset 14, -4
 1696 0002 84B0     		sub	sp, sp, #16
 1697              	.LCFI83:
ARM GAS  /tmp/cctIRrNQ.s 			page 49


 1698              		.cfi_def_cfa_offset 24
 1699 0004 00AF     		add	r7, sp, #0
 1700              	.LCFI84:
 1701              		.cfi_def_cfa_register 7
 1702 0006 7860     		str	r0, [r7, #4]
 1703 0008 3960     		str	r1, [r7]
1055:../Shared/Libraries/STM32F4xx_StdPeriph_Driver/src/stm32f4xx_rtc.c ****   uint32_t tmpreg = 0;
 1704              		.loc 1 1055 12
 1705 000a 0023     		movs	r3, #0
 1706 000c FB60     		str	r3, [r7, #12]
1056:../Shared/Libraries/STM32F4xx_StdPeriph_Driver/src/stm32f4xx_rtc.c **** 
1057:../Shared/Libraries/STM32F4xx_StdPeriph_Driver/src/stm32f4xx_rtc.c ****   /* Check the parameters */
1058:../Shared/Libraries/STM32F4xx_StdPeriph_Driver/src/stm32f4xx_rtc.c ****   assert_param(IS_RTC_FORMAT(RTC_Format));
1059:../Shared/Libraries/STM32F4xx_StdPeriph_Driver/src/stm32f4xx_rtc.c ****   
1060:../Shared/Libraries/STM32F4xx_StdPeriph_Driver/src/stm32f4xx_rtc.c ****   /* Get the RTC_TR register */
1061:../Shared/Libraries/STM32F4xx_StdPeriph_Driver/src/stm32f4xx_rtc.c ****   tmpreg = (uint32_t)(RTC->DR & RTC_DR_RESERVED_MASK); 
 1707              		.loc 1 1061 26
 1708 000e 224B     		ldr	r3, .L96
 1709 0010 5B68     		ldr	r3, [r3, #4]
 1710              		.loc 1 1061 10
 1711 0012 23F07F43 		bic	r3, r3, #-16777216
 1712 0016 23F0C003 		bic	r3, r3, #192
 1713 001a FB60     		str	r3, [r7, #12]
1062:../Shared/Libraries/STM32F4xx_StdPeriph_Driver/src/stm32f4xx_rtc.c **** 
1063:../Shared/Libraries/STM32F4xx_StdPeriph_Driver/src/stm32f4xx_rtc.c ****   /* Fill the structure fields with the read parameters */
1064:../Shared/Libraries/STM32F4xx_StdPeriph_Driver/src/stm32f4xx_rtc.c ****   RTC_DateStruct->RTC_Year = (uint8_t)((tmpreg & (RTC_DR_YT | RTC_DR_YU)) >> 16);
 1714              		.loc 1 1064 75
 1715 001c FB68     		ldr	r3, [r7, #12]
 1716 001e 1B0C     		lsrs	r3, r3, #16
 1717              		.loc 1 1064 30
 1718 0020 DAB2     		uxtb	r2, r3
 1719              		.loc 1 1064 28
 1720 0022 3B68     		ldr	r3, [r7]
 1721 0024 DA70     		strb	r2, [r3, #3]
1065:../Shared/Libraries/STM32F4xx_StdPeriph_Driver/src/stm32f4xx_rtc.c ****   RTC_DateStruct->RTC_Month = (uint8_t)((tmpreg & (RTC_DR_MT | RTC_DR_MU)) >> 8);
 1722              		.loc 1 1065 76
 1723 0026 FB68     		ldr	r3, [r7, #12]
 1724 0028 1B0A     		lsrs	r3, r3, #8
 1725              		.loc 1 1065 31
 1726 002a DBB2     		uxtb	r3, r3
 1727 002c 03F01F03 		and	r3, r3, #31
 1728 0030 DAB2     		uxtb	r2, r3
 1729              		.loc 1 1065 29
 1730 0032 3B68     		ldr	r3, [r7]
 1731 0034 5A70     		strb	r2, [r3, #1]
1066:../Shared/Libraries/STM32F4xx_StdPeriph_Driver/src/stm32f4xx_rtc.c ****   RTC_DateStruct->RTC_Date = (uint8_t)(tmpreg & (RTC_DR_DT | RTC_DR_DU));
 1732              		.loc 1 1066 30
 1733 0036 FB68     		ldr	r3, [r7, #12]
 1734 0038 DBB2     		uxtb	r3, r3
 1735 003a 03F03F03 		and	r3, r3, #63
 1736 003e DAB2     		uxtb	r2, r3
 1737              		.loc 1 1066 28
 1738 0040 3B68     		ldr	r3, [r7]
 1739 0042 9A70     		strb	r2, [r3, #2]
1067:../Shared/Libraries/STM32F4xx_StdPeriph_Driver/src/stm32f4xx_rtc.c ****   RTC_DateStruct->RTC_WeekDay = (uint8_t)((tmpreg & (RTC_DR_WDU)) >> 13);
 1740              		.loc 1 1067 67
 1741 0044 FB68     		ldr	r3, [r7, #12]
ARM GAS  /tmp/cctIRrNQ.s 			page 50


 1742 0046 5B0B     		lsrs	r3, r3, #13
 1743              		.loc 1 1067 33
 1744 0048 DBB2     		uxtb	r3, r3
 1745 004a 03F00703 		and	r3, r3, #7
 1746 004e DAB2     		uxtb	r2, r3
 1747              		.loc 1 1067 31
 1748 0050 3B68     		ldr	r3, [r7]
 1749 0052 1A70     		strb	r2, [r3]
1068:../Shared/Libraries/STM32F4xx_StdPeriph_Driver/src/stm32f4xx_rtc.c **** 
1069:../Shared/Libraries/STM32F4xx_StdPeriph_Driver/src/stm32f4xx_rtc.c ****   /* Check the input parameters format */
1070:../Shared/Libraries/STM32F4xx_StdPeriph_Driver/src/stm32f4xx_rtc.c ****   if (RTC_Format == RTC_Format_BIN)
 1750              		.loc 1 1070 6
 1751 0054 7B68     		ldr	r3, [r7, #4]
 1752 0056 002B     		cmp	r3, #0
 1753 0058 1AD1     		bne	.L95
1071:../Shared/Libraries/STM32F4xx_StdPeriph_Driver/src/stm32f4xx_rtc.c ****   {
1072:../Shared/Libraries/STM32F4xx_StdPeriph_Driver/src/stm32f4xx_rtc.c ****     /* Convert the structure parameters to Binary format */
1073:../Shared/Libraries/STM32F4xx_StdPeriph_Driver/src/stm32f4xx_rtc.c ****     RTC_DateStruct->RTC_Year = (uint8_t)RTC_Bcd2ToByte(RTC_DateStruct->RTC_Year);
 1754              		.loc 1 1073 41
 1755 005a 3B68     		ldr	r3, [r7]
 1756 005c DB78     		ldrb	r3, [r3, #3]	@ zero_extendqisi2
 1757 005e 1846     		mov	r0, r3
 1758 0060 FFF7FEFF 		bl	RTC_Bcd2ToByte
 1759 0064 0346     		mov	r3, r0
 1760 0066 1A46     		mov	r2, r3
 1761              		.loc 1 1073 30 discriminator 1
 1762 0068 3B68     		ldr	r3, [r7]
 1763 006a DA70     		strb	r2, [r3, #3]
1074:../Shared/Libraries/STM32F4xx_StdPeriph_Driver/src/stm32f4xx_rtc.c ****     RTC_DateStruct->RTC_Month = (uint8_t)RTC_Bcd2ToByte(RTC_DateStruct->RTC_Month);
 1764              		.loc 1 1074 42
 1765 006c 3B68     		ldr	r3, [r7]
 1766 006e 5B78     		ldrb	r3, [r3, #1]	@ zero_extendqisi2
 1767 0070 1846     		mov	r0, r3
 1768 0072 FFF7FEFF 		bl	RTC_Bcd2ToByte
 1769 0076 0346     		mov	r3, r0
 1770 0078 1A46     		mov	r2, r3
 1771              		.loc 1 1074 31 discriminator 1
 1772 007a 3B68     		ldr	r3, [r7]
 1773 007c 5A70     		strb	r2, [r3, #1]
1075:../Shared/Libraries/STM32F4xx_StdPeriph_Driver/src/stm32f4xx_rtc.c ****     RTC_DateStruct->RTC_Date = (uint8_t)RTC_Bcd2ToByte(RTC_DateStruct->RTC_Date);
 1774              		.loc 1 1075 41
 1775 007e 3B68     		ldr	r3, [r7]
 1776 0080 9B78     		ldrb	r3, [r3, #2]	@ zero_extendqisi2
 1777 0082 1846     		mov	r0, r3
 1778 0084 FFF7FEFF 		bl	RTC_Bcd2ToByte
 1779 0088 0346     		mov	r3, r0
 1780 008a 1A46     		mov	r2, r3
 1781              		.loc 1 1075 30 discriminator 1
 1782 008c 3B68     		ldr	r3, [r7]
 1783 008e 9A70     		strb	r2, [r3, #2]
 1784              	.L95:
1076:../Shared/Libraries/STM32F4xx_StdPeriph_Driver/src/stm32f4xx_rtc.c ****   }
1077:../Shared/Libraries/STM32F4xx_StdPeriph_Driver/src/stm32f4xx_rtc.c **** }
 1785              		.loc 1 1077 1
 1786 0090 00BF     		nop
 1787 0092 1037     		adds	r7, r7, #16
 1788              	.LCFI85:
ARM GAS  /tmp/cctIRrNQ.s 			page 51


 1789              		.cfi_def_cfa_offset 8
 1790 0094 BD46     		mov	sp, r7
 1791              	.LCFI86:
 1792              		.cfi_def_cfa_register 13
 1793              		@ sp needed
 1794 0096 80BD     		pop	{r7, pc}
 1795              	.L97:
 1796              		.align	2
 1797              	.L96:
 1798 0098 00280040 		.word	1073752064
 1799              		.cfi_endproc
 1800              	.LFE125:
 1802              		.section	.text.RTC_SetAlarm,"ax",%progbits
 1803              		.align	1
 1804              		.global	RTC_SetAlarm
 1805              		.syntax unified
 1806              		.thumb
 1807              		.thumb_func
 1809              	RTC_SetAlarm:
 1810              	.LFB126:
1078:../Shared/Libraries/STM32F4xx_StdPeriph_Driver/src/stm32f4xx_rtc.c **** 
1079:../Shared/Libraries/STM32F4xx_StdPeriph_Driver/src/stm32f4xx_rtc.c **** /**
1080:../Shared/Libraries/STM32F4xx_StdPeriph_Driver/src/stm32f4xx_rtc.c ****   * @}
1081:../Shared/Libraries/STM32F4xx_StdPeriph_Driver/src/stm32f4xx_rtc.c ****   */
1082:../Shared/Libraries/STM32F4xx_StdPeriph_Driver/src/stm32f4xx_rtc.c **** 
1083:../Shared/Libraries/STM32F4xx_StdPeriph_Driver/src/stm32f4xx_rtc.c **** /** @defgroup RTC_Group3 Alarms configuration functions
1084:../Shared/Libraries/STM32F4xx_StdPeriph_Driver/src/stm32f4xx_rtc.c ****  *  @brief   Alarms (Alarm A and Alarm B) configuration functions 
1085:../Shared/Libraries/STM32F4xx_StdPeriph_Driver/src/stm32f4xx_rtc.c ****  *
1086:../Shared/Libraries/STM32F4xx_StdPeriph_Driver/src/stm32f4xx_rtc.c **** @verbatim   
1087:../Shared/Libraries/STM32F4xx_StdPeriph_Driver/src/stm32f4xx_rtc.c ****  ===============================================================================
1088:../Shared/Libraries/STM32F4xx_StdPeriph_Driver/src/stm32f4xx_rtc.c ****               Alarms (Alarm A and Alarm B) configuration functions
1089:../Shared/Libraries/STM32F4xx_StdPeriph_Driver/src/stm32f4xx_rtc.c ****  ===============================================================================  
1090:../Shared/Libraries/STM32F4xx_StdPeriph_Driver/src/stm32f4xx_rtc.c **** 
1091:../Shared/Libraries/STM32F4xx_StdPeriph_Driver/src/stm32f4xx_rtc.c ****   This section provide functions allowing to program and read the RTC Alarms.
1092:../Shared/Libraries/STM32F4xx_StdPeriph_Driver/src/stm32f4xx_rtc.c **** 
1093:../Shared/Libraries/STM32F4xx_StdPeriph_Driver/src/stm32f4xx_rtc.c **** @endverbatim
1094:../Shared/Libraries/STM32F4xx_StdPeriph_Driver/src/stm32f4xx_rtc.c ****   * @{
1095:../Shared/Libraries/STM32F4xx_StdPeriph_Driver/src/stm32f4xx_rtc.c ****   */
1096:../Shared/Libraries/STM32F4xx_StdPeriph_Driver/src/stm32f4xx_rtc.c **** 
1097:../Shared/Libraries/STM32F4xx_StdPeriph_Driver/src/stm32f4xx_rtc.c **** /**
1098:../Shared/Libraries/STM32F4xx_StdPeriph_Driver/src/stm32f4xx_rtc.c ****   * @brief  Set the specified RTC Alarm.
1099:../Shared/Libraries/STM32F4xx_StdPeriph_Driver/src/stm32f4xx_rtc.c ****   * @note   The Alarm register can only be written when the corresponding Alarm
1100:../Shared/Libraries/STM32F4xx_StdPeriph_Driver/src/stm32f4xx_rtc.c ****   *         is disabled (Use the RTC_AlarmCmd(DISABLE)).    
1101:../Shared/Libraries/STM32F4xx_StdPeriph_Driver/src/stm32f4xx_rtc.c ****   * @param  RTC_Format: specifies the format of the returned parameters.
1102:../Shared/Libraries/STM32F4xx_StdPeriph_Driver/src/stm32f4xx_rtc.c ****   *          This parameter can be one of the following values:
1103:../Shared/Libraries/STM32F4xx_StdPeriph_Driver/src/stm32f4xx_rtc.c ****   *            @arg RTC_Format_BIN: Binary data format 
1104:../Shared/Libraries/STM32F4xx_StdPeriph_Driver/src/stm32f4xx_rtc.c ****   *            @arg RTC_Format_BCD: BCD data format
1105:../Shared/Libraries/STM32F4xx_StdPeriph_Driver/src/stm32f4xx_rtc.c ****   * @param  RTC_Alarm: specifies the alarm to be configured.
1106:../Shared/Libraries/STM32F4xx_StdPeriph_Driver/src/stm32f4xx_rtc.c ****   *          This parameter can be one of the following values:
1107:../Shared/Libraries/STM32F4xx_StdPeriph_Driver/src/stm32f4xx_rtc.c ****   *            @arg RTC_Alarm_A: to select Alarm A
1108:../Shared/Libraries/STM32F4xx_StdPeriph_Driver/src/stm32f4xx_rtc.c ****   *            @arg RTC_Alarm_B: to select Alarm B  
1109:../Shared/Libraries/STM32F4xx_StdPeriph_Driver/src/stm32f4xx_rtc.c ****   * @param  RTC_AlarmStruct: pointer to a RTC_AlarmTypeDef structure that 
1110:../Shared/Libraries/STM32F4xx_StdPeriph_Driver/src/stm32f4xx_rtc.c ****   *                          contains the alarm configuration parameters.     
1111:../Shared/Libraries/STM32F4xx_StdPeriph_Driver/src/stm32f4xx_rtc.c ****   * @retval None
1112:../Shared/Libraries/STM32F4xx_StdPeriph_Driver/src/stm32f4xx_rtc.c ****   */
1113:../Shared/Libraries/STM32F4xx_StdPeriph_Driver/src/stm32f4xx_rtc.c **** void RTC_SetAlarm(uint32_t RTC_Format, uint32_t RTC_Alarm, RTC_AlarmTypeDef* RTC_AlarmStruct)
1114:../Shared/Libraries/STM32F4xx_StdPeriph_Driver/src/stm32f4xx_rtc.c **** {
ARM GAS  /tmp/cctIRrNQ.s 			page 52


 1811              		.loc 1 1114 1
 1812              		.cfi_startproc
 1813              		@ args = 0, pretend = 0, frame = 24
 1814              		@ frame_needed = 1, uses_anonymous_args = 0
 1815 0000 90B5     		push	{r4, r7, lr}
 1816              	.LCFI87:
 1817              		.cfi_def_cfa_offset 12
 1818              		.cfi_offset 4, -12
 1819              		.cfi_offset 7, -8
 1820              		.cfi_offset 14, -4
 1821 0002 87B0     		sub	sp, sp, #28
 1822              	.LCFI88:
 1823              		.cfi_def_cfa_offset 40
 1824 0004 00AF     		add	r7, sp, #0
 1825              	.LCFI89:
 1826              		.cfi_def_cfa_register 7
 1827 0006 F860     		str	r0, [r7, #12]
 1828 0008 B960     		str	r1, [r7, #8]
 1829 000a 7A60     		str	r2, [r7, #4]
1115:../Shared/Libraries/STM32F4xx_StdPeriph_Driver/src/stm32f4xx_rtc.c ****   uint32_t tmpreg = 0;
 1830              		.loc 1 1115 12
 1831 000c 0023     		movs	r3, #0
 1832 000e 7B61     		str	r3, [r7, #20]
1116:../Shared/Libraries/STM32F4xx_StdPeriph_Driver/src/stm32f4xx_rtc.c ****   
1117:../Shared/Libraries/STM32F4xx_StdPeriph_Driver/src/stm32f4xx_rtc.c ****   /* Check the parameters */
1118:../Shared/Libraries/STM32F4xx_StdPeriph_Driver/src/stm32f4xx_rtc.c ****   assert_param(IS_RTC_FORMAT(RTC_Format));
1119:../Shared/Libraries/STM32F4xx_StdPeriph_Driver/src/stm32f4xx_rtc.c ****   assert_param(IS_RTC_ALARM(RTC_Alarm));
1120:../Shared/Libraries/STM32F4xx_StdPeriph_Driver/src/stm32f4xx_rtc.c ****   assert_param(IS_ALARM_MASK(RTC_AlarmStruct->RTC_AlarmMask));
1121:../Shared/Libraries/STM32F4xx_StdPeriph_Driver/src/stm32f4xx_rtc.c ****   assert_param(IS_RTC_ALARM_DATE_WEEKDAY_SEL(RTC_AlarmStruct->RTC_AlarmDateWeekDaySel));
1122:../Shared/Libraries/STM32F4xx_StdPeriph_Driver/src/stm32f4xx_rtc.c **** 
1123:../Shared/Libraries/STM32F4xx_StdPeriph_Driver/src/stm32f4xx_rtc.c ****   if (RTC_Format == RTC_Format_BIN)
 1833              		.loc 1 1123 6
 1834 0010 FB68     		ldr	r3, [r7, #12]
 1835 0012 002B     		cmp	r3, #0
 1836 0014 09D1     		bne	.L99
1124:../Shared/Libraries/STM32F4xx_StdPeriph_Driver/src/stm32f4xx_rtc.c ****   {
1125:../Shared/Libraries/STM32F4xx_StdPeriph_Driver/src/stm32f4xx_rtc.c ****     if ((RTC->CR & RTC_CR_FMT) != (uint32_t)RESET)
 1837              		.loc 1 1125 13
 1838 0016 474B     		ldr	r3, .L109
 1839 0018 9B68     		ldr	r3, [r3, #8]
 1840              		.loc 1 1125 18
 1841 001a 03F04003 		and	r3, r3, #64
 1842              		.loc 1 1125 8
 1843 001e 002B     		cmp	r3, #0
 1844 0020 27D1     		bne	.L101
1126:../Shared/Libraries/STM32F4xx_StdPeriph_Driver/src/stm32f4xx_rtc.c ****     {
1127:../Shared/Libraries/STM32F4xx_StdPeriph_Driver/src/stm32f4xx_rtc.c ****       assert_param(IS_RTC_HOUR12(RTC_AlarmStruct->RTC_AlarmTime.RTC_Hours));
1128:../Shared/Libraries/STM32F4xx_StdPeriph_Driver/src/stm32f4xx_rtc.c ****       assert_param(IS_RTC_H12(RTC_AlarmStruct->RTC_AlarmTime.RTC_H12));
1129:../Shared/Libraries/STM32F4xx_StdPeriph_Driver/src/stm32f4xx_rtc.c ****     } 
1130:../Shared/Libraries/STM32F4xx_StdPeriph_Driver/src/stm32f4xx_rtc.c ****     else
1131:../Shared/Libraries/STM32F4xx_StdPeriph_Driver/src/stm32f4xx_rtc.c ****     {
1132:../Shared/Libraries/STM32F4xx_StdPeriph_Driver/src/stm32f4xx_rtc.c ****       RTC_AlarmStruct->RTC_AlarmTime.RTC_H12 = 0x00;
 1845              		.loc 1 1132 46
 1846 0022 7B68     		ldr	r3, [r7, #4]
 1847 0024 0022     		movs	r2, #0
 1848 0026 DA70     		strb	r2, [r3, #3]
 1849 0028 23E0     		b	.L101
ARM GAS  /tmp/cctIRrNQ.s 			page 53


 1850              	.L99:
1133:../Shared/Libraries/STM32F4xx_StdPeriph_Driver/src/stm32f4xx_rtc.c ****       assert_param(IS_RTC_HOUR24(RTC_AlarmStruct->RTC_AlarmTime.RTC_Hours));
1134:../Shared/Libraries/STM32F4xx_StdPeriph_Driver/src/stm32f4xx_rtc.c ****     }
1135:../Shared/Libraries/STM32F4xx_StdPeriph_Driver/src/stm32f4xx_rtc.c ****     assert_param(IS_RTC_MINUTES(RTC_AlarmStruct->RTC_AlarmTime.RTC_Minutes));
1136:../Shared/Libraries/STM32F4xx_StdPeriph_Driver/src/stm32f4xx_rtc.c ****     assert_param(IS_RTC_SECONDS(RTC_AlarmStruct->RTC_AlarmTime.RTC_Seconds));
1137:../Shared/Libraries/STM32F4xx_StdPeriph_Driver/src/stm32f4xx_rtc.c ****     
1138:../Shared/Libraries/STM32F4xx_StdPeriph_Driver/src/stm32f4xx_rtc.c ****     if(RTC_AlarmStruct->RTC_AlarmDateWeekDaySel == RTC_AlarmDateWeekDaySel_Date)
1139:../Shared/Libraries/STM32F4xx_StdPeriph_Driver/src/stm32f4xx_rtc.c ****     {
1140:../Shared/Libraries/STM32F4xx_StdPeriph_Driver/src/stm32f4xx_rtc.c ****       assert_param(IS_RTC_ALARM_DATE_WEEKDAY_DATE(RTC_AlarmStruct->RTC_AlarmDateWeekDay));
1141:../Shared/Libraries/STM32F4xx_StdPeriph_Driver/src/stm32f4xx_rtc.c ****     }
1142:../Shared/Libraries/STM32F4xx_StdPeriph_Driver/src/stm32f4xx_rtc.c ****     else
1143:../Shared/Libraries/STM32F4xx_StdPeriph_Driver/src/stm32f4xx_rtc.c ****     {
1144:../Shared/Libraries/STM32F4xx_StdPeriph_Driver/src/stm32f4xx_rtc.c ****       assert_param(IS_RTC_ALARM_DATE_WEEKDAY_WEEKDAY(RTC_AlarmStruct->RTC_AlarmDateWeekDay));
1145:../Shared/Libraries/STM32F4xx_StdPeriph_Driver/src/stm32f4xx_rtc.c ****     }
1146:../Shared/Libraries/STM32F4xx_StdPeriph_Driver/src/stm32f4xx_rtc.c ****   }
1147:../Shared/Libraries/STM32F4xx_StdPeriph_Driver/src/stm32f4xx_rtc.c ****   else
1148:../Shared/Libraries/STM32F4xx_StdPeriph_Driver/src/stm32f4xx_rtc.c ****   {
1149:../Shared/Libraries/STM32F4xx_StdPeriph_Driver/src/stm32f4xx_rtc.c ****     if ((RTC->CR & RTC_CR_FMT) != (uint32_t)RESET)
 1851              		.loc 1 1149 13
 1852 002a 424B     		ldr	r3, .L109
 1853 002c 9B68     		ldr	r3, [r3, #8]
 1854              		.loc 1 1149 18
 1855 002e 03F04003 		and	r3, r3, #64
 1856              		.loc 1 1149 8
 1857 0032 002B     		cmp	r3, #0
 1858 0034 07D0     		beq	.L102
1150:../Shared/Libraries/STM32F4xx_StdPeriph_Driver/src/stm32f4xx_rtc.c ****     {
1151:../Shared/Libraries/STM32F4xx_StdPeriph_Driver/src/stm32f4xx_rtc.c ****       tmpreg = RTC_Bcd2ToByte(RTC_AlarmStruct->RTC_AlarmTime.RTC_Hours);
 1859              		.loc 1 1151 16
 1860 0036 7B68     		ldr	r3, [r7, #4]
 1861 0038 1B78     		ldrb	r3, [r3]	@ zero_extendqisi2
 1862 003a 1846     		mov	r0, r3
 1863 003c FFF7FEFF 		bl	RTC_Bcd2ToByte
 1864 0040 0346     		mov	r3, r0
 1865              		.loc 1 1151 14 discriminator 1
 1866 0042 7B61     		str	r3, [r7, #20]
 1867 0044 02E0     		b	.L103
 1868              	.L102:
1152:../Shared/Libraries/STM32F4xx_StdPeriph_Driver/src/stm32f4xx_rtc.c ****       assert_param(IS_RTC_HOUR12(tmpreg));
1153:../Shared/Libraries/STM32F4xx_StdPeriph_Driver/src/stm32f4xx_rtc.c ****       assert_param(IS_RTC_H12(RTC_AlarmStruct->RTC_AlarmTime.RTC_H12));
1154:../Shared/Libraries/STM32F4xx_StdPeriph_Driver/src/stm32f4xx_rtc.c ****     } 
1155:../Shared/Libraries/STM32F4xx_StdPeriph_Driver/src/stm32f4xx_rtc.c ****     else
1156:../Shared/Libraries/STM32F4xx_StdPeriph_Driver/src/stm32f4xx_rtc.c ****     {
1157:../Shared/Libraries/STM32F4xx_StdPeriph_Driver/src/stm32f4xx_rtc.c ****       RTC_AlarmStruct->RTC_AlarmTime.RTC_H12 = 0x00;
 1869              		.loc 1 1157 46
 1870 0046 7B68     		ldr	r3, [r7, #4]
 1871 0048 0022     		movs	r2, #0
 1872 004a DA70     		strb	r2, [r3, #3]
 1873              	.L103:
1158:../Shared/Libraries/STM32F4xx_StdPeriph_Driver/src/stm32f4xx_rtc.c ****       assert_param(IS_RTC_HOUR24(RTC_Bcd2ToByte(RTC_AlarmStruct->RTC_AlarmTime.RTC_Hours)));
1159:../Shared/Libraries/STM32F4xx_StdPeriph_Driver/src/stm32f4xx_rtc.c ****     }
1160:../Shared/Libraries/STM32F4xx_StdPeriph_Driver/src/stm32f4xx_rtc.c ****     
1161:../Shared/Libraries/STM32F4xx_StdPeriph_Driver/src/stm32f4xx_rtc.c ****     assert_param(IS_RTC_MINUTES(RTC_Bcd2ToByte(RTC_AlarmStruct->RTC_AlarmTime.RTC_Minutes)));
1162:../Shared/Libraries/STM32F4xx_StdPeriph_Driver/src/stm32f4xx_rtc.c ****     assert_param(IS_RTC_SECONDS(RTC_Bcd2ToByte(RTC_AlarmStruct->RTC_AlarmTime.RTC_Seconds)));
1163:../Shared/Libraries/STM32F4xx_StdPeriph_Driver/src/stm32f4xx_rtc.c ****     
1164:../Shared/Libraries/STM32F4xx_StdPeriph_Driver/src/stm32f4xx_rtc.c ****     if(RTC_AlarmStruct->RTC_AlarmDateWeekDaySel == RTC_AlarmDateWeekDaySel_Date)
 1874              		.loc 1 1164 23
ARM GAS  /tmp/cctIRrNQ.s 			page 54


 1875 004c 7B68     		ldr	r3, [r7, #4]
 1876 004e 9B68     		ldr	r3, [r3, #8]
 1877              		.loc 1 1164 7
 1878 0050 002B     		cmp	r3, #0
 1879 0052 07D1     		bne	.L104
1165:../Shared/Libraries/STM32F4xx_StdPeriph_Driver/src/stm32f4xx_rtc.c ****     {
1166:../Shared/Libraries/STM32F4xx_StdPeriph_Driver/src/stm32f4xx_rtc.c ****       tmpreg = RTC_Bcd2ToByte(RTC_AlarmStruct->RTC_AlarmDateWeekDay);
 1880              		.loc 1 1166 16
 1881 0054 7B68     		ldr	r3, [r7, #4]
 1882 0056 1B7B     		ldrb	r3, [r3, #12]	@ zero_extendqisi2
 1883 0058 1846     		mov	r0, r3
 1884 005a FFF7FEFF 		bl	RTC_Bcd2ToByte
 1885 005e 0346     		mov	r3, r0
 1886              		.loc 1 1166 14 discriminator 1
 1887 0060 7B61     		str	r3, [r7, #20]
 1888 0062 06E0     		b	.L101
 1889              	.L104:
1167:../Shared/Libraries/STM32F4xx_StdPeriph_Driver/src/stm32f4xx_rtc.c ****       assert_param(IS_RTC_ALARM_DATE_WEEKDAY_DATE(tmpreg));    
1168:../Shared/Libraries/STM32F4xx_StdPeriph_Driver/src/stm32f4xx_rtc.c ****     }
1169:../Shared/Libraries/STM32F4xx_StdPeriph_Driver/src/stm32f4xx_rtc.c ****     else
1170:../Shared/Libraries/STM32F4xx_StdPeriph_Driver/src/stm32f4xx_rtc.c ****     {
1171:../Shared/Libraries/STM32F4xx_StdPeriph_Driver/src/stm32f4xx_rtc.c ****       tmpreg = RTC_Bcd2ToByte(RTC_AlarmStruct->RTC_AlarmDateWeekDay);
 1890              		.loc 1 1171 16
 1891 0064 7B68     		ldr	r3, [r7, #4]
 1892 0066 1B7B     		ldrb	r3, [r3, #12]	@ zero_extendqisi2
 1893 0068 1846     		mov	r0, r3
 1894 006a FFF7FEFF 		bl	RTC_Bcd2ToByte
 1895 006e 0346     		mov	r3, r0
 1896              		.loc 1 1171 14 discriminator 1
 1897 0070 7B61     		str	r3, [r7, #20]
 1898              	.L101:
1172:../Shared/Libraries/STM32F4xx_StdPeriph_Driver/src/stm32f4xx_rtc.c ****       assert_param(IS_RTC_ALARM_DATE_WEEKDAY_WEEKDAY(tmpreg));      
1173:../Shared/Libraries/STM32F4xx_StdPeriph_Driver/src/stm32f4xx_rtc.c ****     }    
1174:../Shared/Libraries/STM32F4xx_StdPeriph_Driver/src/stm32f4xx_rtc.c ****   }
1175:../Shared/Libraries/STM32F4xx_StdPeriph_Driver/src/stm32f4xx_rtc.c **** 
1176:../Shared/Libraries/STM32F4xx_StdPeriph_Driver/src/stm32f4xx_rtc.c ****   /* Check the input parameters format */
1177:../Shared/Libraries/STM32F4xx_StdPeriph_Driver/src/stm32f4xx_rtc.c ****   if (RTC_Format != RTC_Format_BIN)
 1899              		.loc 1 1177 6
 1900 0072 FB68     		ldr	r3, [r7, #12]
 1901 0074 002B     		cmp	r3, #0
 1902 0076 19D0     		beq	.L105
1178:../Shared/Libraries/STM32F4xx_StdPeriph_Driver/src/stm32f4xx_rtc.c ****   {
1179:../Shared/Libraries/STM32F4xx_StdPeriph_Driver/src/stm32f4xx_rtc.c ****     tmpreg = (((uint32_t)(RTC_AlarmStruct->RTC_AlarmTime.RTC_Hours) << 16) | \
 1903              		.loc 1 1179 57
 1904 0078 7B68     		ldr	r3, [r7, #4]
 1905 007a 1B78     		ldrb	r3, [r3]	@ zero_extendqisi2
 1906              		.loc 1 1179 69
 1907 007c 1A04     		lsls	r2, r3, #16
1180:../Shared/Libraries/STM32F4xx_StdPeriph_Driver/src/stm32f4xx_rtc.c ****               ((uint32_t)(RTC_AlarmStruct->RTC_AlarmTime.RTC_Minutes) << 8) | \
 1908              		.loc 1 1180 57
 1909 007e 7B68     		ldr	r3, [r7, #4]
 1910 0080 5B78     		ldrb	r3, [r3, #1]	@ zero_extendqisi2
 1911              		.loc 1 1180 71
 1912 0082 1B02     		lsls	r3, r3, #8
1179:../Shared/Libraries/STM32F4xx_StdPeriph_Driver/src/stm32f4xx_rtc.c ****               ((uint32_t)(RTC_AlarmStruct->RTC_AlarmTime.RTC_Minutes) << 8) | \
 1913              		.loc 1 1179 76
 1914 0084 1343     		orrs	r3, r3, r2
ARM GAS  /tmp/cctIRrNQ.s 			page 55


1181:../Shared/Libraries/STM32F4xx_StdPeriph_Driver/src/stm32f4xx_rtc.c ****               ((uint32_t)RTC_AlarmStruct->RTC_AlarmTime.RTC_Seconds) | \
 1915              		.loc 1 1181 56
 1916 0086 7A68     		ldr	r2, [r7, #4]
 1917 0088 9278     		ldrb	r2, [r2, #2]	@ zero_extendqisi2
1180:../Shared/Libraries/STM32F4xx_StdPeriph_Driver/src/stm32f4xx_rtc.c ****               ((uint32_t)(RTC_AlarmStruct->RTC_AlarmTime.RTC_Minutes) << 8) | \
 1918              		.loc 1 1180 77
 1919 008a 1A43     		orrs	r2, r2, r3
1182:../Shared/Libraries/STM32F4xx_StdPeriph_Driver/src/stm32f4xx_rtc.c ****               ((uint32_t)(RTC_AlarmStruct->RTC_AlarmTime.RTC_H12) << 16) | \
 1920              		.loc 1 1182 57
 1921 008c 7B68     		ldr	r3, [r7, #4]
 1922 008e DB78     		ldrb	r3, [r3, #3]	@ zero_extendqisi2
 1923              		.loc 1 1182 67
 1924 0090 1B04     		lsls	r3, r3, #16
1181:../Shared/Libraries/STM32F4xx_StdPeriph_Driver/src/stm32f4xx_rtc.c ****               ((uint32_t)RTC_AlarmStruct->RTC_AlarmTime.RTC_Seconds) | \
 1925              		.loc 1 1181 70
 1926 0092 1A43     		orrs	r2, r2, r3
1183:../Shared/Libraries/STM32F4xx_StdPeriph_Driver/src/stm32f4xx_rtc.c ****               ((uint32_t)(RTC_AlarmStruct->RTC_AlarmDateWeekDay) << 24) | \
 1927              		.loc 1 1183 42
 1928 0094 7B68     		ldr	r3, [r7, #4]
 1929 0096 1B7B     		ldrb	r3, [r3, #12]	@ zero_extendqisi2
 1930              		.loc 1 1183 66
 1931 0098 1B06     		lsls	r3, r3, #24
1182:../Shared/Libraries/STM32F4xx_StdPeriph_Driver/src/stm32f4xx_rtc.c ****               ((uint32_t)(RTC_AlarmStruct->RTC_AlarmTime.RTC_H12) << 16) | \
 1932              		.loc 1 1182 74
 1933 009a 1A43     		orrs	r2, r2, r3
1184:../Shared/Libraries/STM32F4xx_StdPeriph_Driver/src/stm32f4xx_rtc.c ****               ((uint32_t)RTC_AlarmStruct->RTC_AlarmDateWeekDaySel) | \
 1934              		.loc 1 1184 41
 1935 009c 7B68     		ldr	r3, [r7, #4]
 1936 009e 9B68     		ldr	r3, [r3, #8]
1183:../Shared/Libraries/STM32F4xx_StdPeriph_Driver/src/stm32f4xx_rtc.c ****               ((uint32_t)(RTC_AlarmStruct->RTC_AlarmDateWeekDay) << 24) | \
 1937              		.loc 1 1183 73
 1938 00a0 1A43     		orrs	r2, r2, r3
1185:../Shared/Libraries/STM32F4xx_StdPeriph_Driver/src/stm32f4xx_rtc.c ****               ((uint32_t)RTC_AlarmStruct->RTC_AlarmMask)); 
 1939              		.loc 1 1185 41
 1940 00a2 7B68     		ldr	r3, [r7, #4]
 1941 00a4 5B68     		ldr	r3, [r3, #4]
1179:../Shared/Libraries/STM32F4xx_StdPeriph_Driver/src/stm32f4xx_rtc.c ****               ((uint32_t)(RTC_AlarmStruct->RTC_AlarmTime.RTC_Minutes) << 8) | \
 1942              		.loc 1 1179 12
 1943 00a6 1343     		orrs	r3, r3, r2
 1944 00a8 7B61     		str	r3, [r7, #20]
 1945 00aa 2BE0     		b	.L106
 1946              	.L105:
1186:../Shared/Libraries/STM32F4xx_StdPeriph_Driver/src/stm32f4xx_rtc.c ****   }  
1187:../Shared/Libraries/STM32F4xx_StdPeriph_Driver/src/stm32f4xx_rtc.c ****   else
1188:../Shared/Libraries/STM32F4xx_StdPeriph_Driver/src/stm32f4xx_rtc.c ****   {
1189:../Shared/Libraries/STM32F4xx_StdPeriph_Driver/src/stm32f4xx_rtc.c ****     tmpreg = (((uint32_t)RTC_ByteToBcd2(RTC_AlarmStruct->RTC_AlarmTime.RTC_Hours) << 16) | \
 1947              		.loc 1 1189 26
 1948 00ac 7B68     		ldr	r3, [r7, #4]
 1949 00ae 1B78     		ldrb	r3, [r3]	@ zero_extendqisi2
 1950 00b0 1846     		mov	r0, r3
 1951 00b2 FFF7FEFF 		bl	RTC_ByteToBcd2
 1952 00b6 0346     		mov	r3, r0
 1953              		.loc 1 1189 83 discriminator 1
 1954 00b8 1C04     		lsls	r4, r3, #16
1190:../Shared/Libraries/STM32F4xx_StdPeriph_Driver/src/stm32f4xx_rtc.c ****               ((uint32_t)RTC_ByteToBcd2(RTC_AlarmStruct->RTC_AlarmTime.RTC_Minutes) << 8) | \
 1955              		.loc 1 1190 26
 1956 00ba 7B68     		ldr	r3, [r7, #4]
ARM GAS  /tmp/cctIRrNQ.s 			page 56


 1957 00bc 5B78     		ldrb	r3, [r3, #1]	@ zero_extendqisi2
 1958 00be 1846     		mov	r0, r3
 1959 00c0 FFF7FEFF 		bl	RTC_ByteToBcd2
 1960 00c4 0346     		mov	r3, r0
 1961              		.loc 1 1190 85 discriminator 1
 1962 00c6 1B02     		lsls	r3, r3, #8
1189:../Shared/Libraries/STM32F4xx_StdPeriph_Driver/src/stm32f4xx_rtc.c ****               ((uint32_t)RTC_ByteToBcd2(RTC_AlarmStruct->RTC_AlarmTime.RTC_Minutes) << 8) | \
 1963              		.loc 1 1189 90
 1964 00c8 1C43     		orrs	r4, r4, r3
1191:../Shared/Libraries/STM32F4xx_StdPeriph_Driver/src/stm32f4xx_rtc.c ****               ((uint32_t)RTC_ByteToBcd2(RTC_AlarmStruct->RTC_AlarmTime.RTC_Seconds)) | \
 1965              		.loc 1 1191 26
 1966 00ca 7B68     		ldr	r3, [r7, #4]
 1967 00cc 9B78     		ldrb	r3, [r3, #2]	@ zero_extendqisi2
 1968 00ce 1846     		mov	r0, r3
 1969 00d0 FFF7FEFF 		bl	RTC_ByteToBcd2
 1970 00d4 0346     		mov	r3, r0
1190:../Shared/Libraries/STM32F4xx_StdPeriph_Driver/src/stm32f4xx_rtc.c ****               ((uint32_t)RTC_ByteToBcd2(RTC_AlarmStruct->RTC_AlarmTime.RTC_Minutes) << 8) | \
 1971              		.loc 1 1190 91
 1972 00d6 44EA0302 		orr	r2, r4, r3
1192:../Shared/Libraries/STM32F4xx_StdPeriph_Driver/src/stm32f4xx_rtc.c ****               ((uint32_t)(RTC_AlarmStruct->RTC_AlarmTime.RTC_H12) << 16) | \
 1973              		.loc 1 1192 57
 1974 00da 7B68     		ldr	r3, [r7, #4]
 1975 00dc DB78     		ldrb	r3, [r3, #3]	@ zero_extendqisi2
 1976              		.loc 1 1192 67
 1977 00de 1B04     		lsls	r3, r3, #16
1191:../Shared/Libraries/STM32F4xx_StdPeriph_Driver/src/stm32f4xx_rtc.c ****               ((uint32_t)RTC_ByteToBcd2(RTC_AlarmStruct->RTC_AlarmTime.RTC_Seconds)) | \
 1978              		.loc 1 1191 86
 1979 00e0 42EA0304 		orr	r4, r2, r3
1193:../Shared/Libraries/STM32F4xx_StdPeriph_Driver/src/stm32f4xx_rtc.c ****               ((uint32_t)RTC_ByteToBcd2(RTC_AlarmStruct->RTC_AlarmDateWeekDay) << 24) | \
 1980              		.loc 1 1193 26
 1981 00e4 7B68     		ldr	r3, [r7, #4]
 1982 00e6 1B7B     		ldrb	r3, [r3, #12]	@ zero_extendqisi2
 1983 00e8 1846     		mov	r0, r3
 1984 00ea FFF7FEFF 		bl	RTC_ByteToBcd2
 1985 00ee 0346     		mov	r3, r0
 1986              		.loc 1 1193 80 discriminator 1
 1987 00f0 1B06     		lsls	r3, r3, #24
1192:../Shared/Libraries/STM32F4xx_StdPeriph_Driver/src/stm32f4xx_rtc.c ****               ((uint32_t)(RTC_AlarmStruct->RTC_AlarmTime.RTC_H12) << 16) | \
 1988              		.loc 1 1192 74
 1989 00f2 44EA0302 		orr	r2, r4, r3
1194:../Shared/Libraries/STM32F4xx_StdPeriph_Driver/src/stm32f4xx_rtc.c ****               ((uint32_t)RTC_AlarmStruct->RTC_AlarmDateWeekDaySel) | \
 1990              		.loc 1 1194 41
 1991 00f6 7B68     		ldr	r3, [r7, #4]
 1992 00f8 9B68     		ldr	r3, [r3, #8]
1193:../Shared/Libraries/STM32F4xx_StdPeriph_Driver/src/stm32f4xx_rtc.c ****               ((uint32_t)RTC_ByteToBcd2(RTC_AlarmStruct->RTC_AlarmDateWeekDay) << 24) | \
 1993              		.loc 1 1193 87
 1994 00fa 1A43     		orrs	r2, r2, r3
1195:../Shared/Libraries/STM32F4xx_StdPeriph_Driver/src/stm32f4xx_rtc.c ****               ((uint32_t)RTC_AlarmStruct->RTC_AlarmMask)); 
 1995              		.loc 1 1195 41
 1996 00fc 7B68     		ldr	r3, [r7, #4]
 1997 00fe 5B68     		ldr	r3, [r3, #4]
1189:../Shared/Libraries/STM32F4xx_StdPeriph_Driver/src/stm32f4xx_rtc.c ****               ((uint32_t)RTC_ByteToBcd2(RTC_AlarmStruct->RTC_AlarmTime.RTC_Minutes) << 8) | \
 1998              		.loc 1 1189 12
 1999 0100 1343     		orrs	r3, r3, r2
 2000 0102 7B61     		str	r3, [r7, #20]
 2001              	.L106:
1196:../Shared/Libraries/STM32F4xx_StdPeriph_Driver/src/stm32f4xx_rtc.c ****   } 
ARM GAS  /tmp/cctIRrNQ.s 			page 57


1197:../Shared/Libraries/STM32F4xx_StdPeriph_Driver/src/stm32f4xx_rtc.c **** 
1198:../Shared/Libraries/STM32F4xx_StdPeriph_Driver/src/stm32f4xx_rtc.c ****   /* Disable the write protection for RTC registers */
1199:../Shared/Libraries/STM32F4xx_StdPeriph_Driver/src/stm32f4xx_rtc.c ****   RTC->WPR = 0xCA;
 2002              		.loc 1 1199 6
 2003 0104 0B4B     		ldr	r3, .L109
 2004              		.loc 1 1199 12
 2005 0106 CA22     		movs	r2, #202
 2006 0108 5A62     		str	r2, [r3, #36]
1200:../Shared/Libraries/STM32F4xx_StdPeriph_Driver/src/stm32f4xx_rtc.c ****   RTC->WPR = 0x53;
 2007              		.loc 1 1200 6
 2008 010a 0A4B     		ldr	r3, .L109
 2009              		.loc 1 1200 12
 2010 010c 5322     		movs	r2, #83
 2011 010e 5A62     		str	r2, [r3, #36]
1201:../Shared/Libraries/STM32F4xx_StdPeriph_Driver/src/stm32f4xx_rtc.c **** 
1202:../Shared/Libraries/STM32F4xx_StdPeriph_Driver/src/stm32f4xx_rtc.c ****   /* Configure the Alarm register */
1203:../Shared/Libraries/STM32F4xx_StdPeriph_Driver/src/stm32f4xx_rtc.c ****   if (RTC_Alarm == RTC_Alarm_A)
 2012              		.loc 1 1203 6
 2013 0110 BB68     		ldr	r3, [r7, #8]
 2014 0112 B3F5807F 		cmp	r3, #256
 2015 0116 03D1     		bne	.L107
1204:../Shared/Libraries/STM32F4xx_StdPeriph_Driver/src/stm32f4xx_rtc.c ****   {
1205:../Shared/Libraries/STM32F4xx_StdPeriph_Driver/src/stm32f4xx_rtc.c ****     RTC->ALRMAR = (uint32_t)tmpreg;
 2016              		.loc 1 1205 8
 2017 0118 064A     		ldr	r2, .L109
 2018              		.loc 1 1205 17
 2019 011a 7B69     		ldr	r3, [r7, #20]
 2020 011c D361     		str	r3, [r2, #28]
 2021 011e 02E0     		b	.L108
 2022              	.L107:
1206:../Shared/Libraries/STM32F4xx_StdPeriph_Driver/src/stm32f4xx_rtc.c ****   }
1207:../Shared/Libraries/STM32F4xx_StdPeriph_Driver/src/stm32f4xx_rtc.c ****   else
1208:../Shared/Libraries/STM32F4xx_StdPeriph_Driver/src/stm32f4xx_rtc.c ****   {
1209:../Shared/Libraries/STM32F4xx_StdPeriph_Driver/src/stm32f4xx_rtc.c ****     RTC->ALRMBR = (uint32_t)tmpreg;
 2023              		.loc 1 1209 8
 2024 0120 044A     		ldr	r2, .L109
 2025              		.loc 1 1209 17
 2026 0122 7B69     		ldr	r3, [r7, #20]
 2027 0124 1362     		str	r3, [r2, #32]
 2028              	.L108:
1210:../Shared/Libraries/STM32F4xx_StdPeriph_Driver/src/stm32f4xx_rtc.c ****   }
1211:../Shared/Libraries/STM32F4xx_StdPeriph_Driver/src/stm32f4xx_rtc.c **** 
1212:../Shared/Libraries/STM32F4xx_StdPeriph_Driver/src/stm32f4xx_rtc.c ****   /* Enable the write protection for RTC registers */
1213:../Shared/Libraries/STM32F4xx_StdPeriph_Driver/src/stm32f4xx_rtc.c ****   RTC->WPR = 0xFF;   
 2029              		.loc 1 1213 6
 2030 0126 034B     		ldr	r3, .L109
 2031              		.loc 1 1213 12
 2032 0128 FF22     		movs	r2, #255
 2033 012a 5A62     		str	r2, [r3, #36]
1214:../Shared/Libraries/STM32F4xx_StdPeriph_Driver/src/stm32f4xx_rtc.c **** }
 2034              		.loc 1 1214 1
 2035 012c 00BF     		nop
 2036 012e 1C37     		adds	r7, r7, #28
 2037              	.LCFI90:
 2038              		.cfi_def_cfa_offset 12
 2039 0130 BD46     		mov	sp, r7
 2040              	.LCFI91:
ARM GAS  /tmp/cctIRrNQ.s 			page 58


 2041              		.cfi_def_cfa_register 13
 2042              		@ sp needed
 2043 0132 90BD     		pop	{r4, r7, pc}
 2044              	.L110:
 2045              		.align	2
 2046              	.L109:
 2047 0134 00280040 		.word	1073752064
 2048              		.cfi_endproc
 2049              	.LFE126:
 2051              		.section	.text.RTC_AlarmStructInit,"ax",%progbits
 2052              		.align	1
 2053              		.global	RTC_AlarmStructInit
 2054              		.syntax unified
 2055              		.thumb
 2056              		.thumb_func
 2058              	RTC_AlarmStructInit:
 2059              	.LFB127:
1215:../Shared/Libraries/STM32F4xx_StdPeriph_Driver/src/stm32f4xx_rtc.c **** 
1216:../Shared/Libraries/STM32F4xx_StdPeriph_Driver/src/stm32f4xx_rtc.c **** /**
1217:../Shared/Libraries/STM32F4xx_StdPeriph_Driver/src/stm32f4xx_rtc.c ****   * @brief  Fills each RTC_AlarmStruct member with its default value
1218:../Shared/Libraries/STM32F4xx_StdPeriph_Driver/src/stm32f4xx_rtc.c ****   *         (Time = 00h:00mn:00sec / Date = 1st day of the month/Mask =
1219:../Shared/Libraries/STM32F4xx_StdPeriph_Driver/src/stm32f4xx_rtc.c ****   *         all fields are masked).
1220:../Shared/Libraries/STM32F4xx_StdPeriph_Driver/src/stm32f4xx_rtc.c ****   * @param  RTC_AlarmStruct: pointer to a @ref RTC_AlarmTypeDef structure which
1221:../Shared/Libraries/STM32F4xx_StdPeriph_Driver/src/stm32f4xx_rtc.c ****   *         will be initialized.
1222:../Shared/Libraries/STM32F4xx_StdPeriph_Driver/src/stm32f4xx_rtc.c ****   * @retval None
1223:../Shared/Libraries/STM32F4xx_StdPeriph_Driver/src/stm32f4xx_rtc.c ****   */
1224:../Shared/Libraries/STM32F4xx_StdPeriph_Driver/src/stm32f4xx_rtc.c **** void RTC_AlarmStructInit(RTC_AlarmTypeDef* RTC_AlarmStruct)
1225:../Shared/Libraries/STM32F4xx_StdPeriph_Driver/src/stm32f4xx_rtc.c **** {
 2060              		.loc 1 1225 1
 2061              		.cfi_startproc
 2062              		@ args = 0, pretend = 0, frame = 8
 2063              		@ frame_needed = 1, uses_anonymous_args = 0
 2064              		@ link register save eliminated.
 2065 0000 80B4     		push	{r7}
 2066              	.LCFI92:
 2067              		.cfi_def_cfa_offset 4
 2068              		.cfi_offset 7, -4
 2069 0002 83B0     		sub	sp, sp, #12
 2070              	.LCFI93:
 2071              		.cfi_def_cfa_offset 16
 2072 0004 00AF     		add	r7, sp, #0
 2073              	.LCFI94:
 2074              		.cfi_def_cfa_register 7
 2075 0006 7860     		str	r0, [r7, #4]
1226:../Shared/Libraries/STM32F4xx_StdPeriph_Driver/src/stm32f4xx_rtc.c ****   /* Alarm Time Settings : Time = 00h:00mn:00sec */
1227:../Shared/Libraries/STM32F4xx_StdPeriph_Driver/src/stm32f4xx_rtc.c ****   RTC_AlarmStruct->RTC_AlarmTime.RTC_H12 = RTC_H12_AM;
 2076              		.loc 1 1227 42
 2077 0008 7B68     		ldr	r3, [r7, #4]
 2078 000a 0022     		movs	r2, #0
 2079 000c DA70     		strb	r2, [r3, #3]
1228:../Shared/Libraries/STM32F4xx_StdPeriph_Driver/src/stm32f4xx_rtc.c ****   RTC_AlarmStruct->RTC_AlarmTime.RTC_Hours = 0;
 2080              		.loc 1 1228 44
 2081 000e 7B68     		ldr	r3, [r7, #4]
 2082 0010 0022     		movs	r2, #0
 2083 0012 1A70     		strb	r2, [r3]
1229:../Shared/Libraries/STM32F4xx_StdPeriph_Driver/src/stm32f4xx_rtc.c ****   RTC_AlarmStruct->RTC_AlarmTime.RTC_Minutes = 0;
 2084              		.loc 1 1229 46
ARM GAS  /tmp/cctIRrNQ.s 			page 59


 2085 0014 7B68     		ldr	r3, [r7, #4]
 2086 0016 0022     		movs	r2, #0
 2087 0018 5A70     		strb	r2, [r3, #1]
1230:../Shared/Libraries/STM32F4xx_StdPeriph_Driver/src/stm32f4xx_rtc.c ****   RTC_AlarmStruct->RTC_AlarmTime.RTC_Seconds = 0;
 2088              		.loc 1 1230 46
 2089 001a 7B68     		ldr	r3, [r7, #4]
 2090 001c 0022     		movs	r2, #0
 2091 001e 9A70     		strb	r2, [r3, #2]
1231:../Shared/Libraries/STM32F4xx_StdPeriph_Driver/src/stm32f4xx_rtc.c **** 
1232:../Shared/Libraries/STM32F4xx_StdPeriph_Driver/src/stm32f4xx_rtc.c ****   /* Alarm Date Settings : Date = 1st day of the month */
1233:../Shared/Libraries/STM32F4xx_StdPeriph_Driver/src/stm32f4xx_rtc.c ****   RTC_AlarmStruct->RTC_AlarmDateWeekDaySel = RTC_AlarmDateWeekDaySel_Date;
 2092              		.loc 1 1233 44
 2093 0020 7B68     		ldr	r3, [r7, #4]
 2094 0022 0022     		movs	r2, #0
 2095 0024 9A60     		str	r2, [r3, #8]
1234:../Shared/Libraries/STM32F4xx_StdPeriph_Driver/src/stm32f4xx_rtc.c ****   RTC_AlarmStruct->RTC_AlarmDateWeekDay = 1;
 2096              		.loc 1 1234 41
 2097 0026 7B68     		ldr	r3, [r7, #4]
 2098 0028 0122     		movs	r2, #1
 2099 002a 1A73     		strb	r2, [r3, #12]
1235:../Shared/Libraries/STM32F4xx_StdPeriph_Driver/src/stm32f4xx_rtc.c **** 
1236:../Shared/Libraries/STM32F4xx_StdPeriph_Driver/src/stm32f4xx_rtc.c ****   /* Alarm Masks Settings : Mask =  all fields are not masked */
1237:../Shared/Libraries/STM32F4xx_StdPeriph_Driver/src/stm32f4xx_rtc.c ****   RTC_AlarmStruct->RTC_AlarmMask = RTC_AlarmMask_None;
 2100              		.loc 1 1237 34
 2101 002c 7B68     		ldr	r3, [r7, #4]
 2102 002e 0022     		movs	r2, #0
 2103 0030 5A60     		str	r2, [r3, #4]
1238:../Shared/Libraries/STM32F4xx_StdPeriph_Driver/src/stm32f4xx_rtc.c **** }
 2104              		.loc 1 1238 1
 2105 0032 00BF     		nop
 2106 0034 0C37     		adds	r7, r7, #12
 2107              	.LCFI95:
 2108              		.cfi_def_cfa_offset 4
 2109 0036 BD46     		mov	sp, r7
 2110              	.LCFI96:
 2111              		.cfi_def_cfa_register 13
 2112              		@ sp needed
 2113 0038 5DF8047B 		ldr	r7, [sp], #4
 2114              	.LCFI97:
 2115              		.cfi_restore 7
 2116              		.cfi_def_cfa_offset 0
 2117 003c 7047     		bx	lr
 2118              		.cfi_endproc
 2119              	.LFE127:
 2121              		.section	.text.RTC_GetAlarm,"ax",%progbits
 2122              		.align	1
 2123              		.global	RTC_GetAlarm
 2124              		.syntax unified
 2125              		.thumb
 2126              		.thumb_func
 2128              	RTC_GetAlarm:
 2129              	.LFB128:
1239:../Shared/Libraries/STM32F4xx_StdPeriph_Driver/src/stm32f4xx_rtc.c **** 
1240:../Shared/Libraries/STM32F4xx_StdPeriph_Driver/src/stm32f4xx_rtc.c **** /**
1241:../Shared/Libraries/STM32F4xx_StdPeriph_Driver/src/stm32f4xx_rtc.c ****   * @brief  Get the RTC Alarm value and masks.
1242:../Shared/Libraries/STM32F4xx_StdPeriph_Driver/src/stm32f4xx_rtc.c ****   * @param  RTC_Format: specifies the format of the output parameters.
1243:../Shared/Libraries/STM32F4xx_StdPeriph_Driver/src/stm32f4xx_rtc.c ****   *          This parameter can be one of the following values:
ARM GAS  /tmp/cctIRrNQ.s 			page 60


1244:../Shared/Libraries/STM32F4xx_StdPeriph_Driver/src/stm32f4xx_rtc.c ****   *            @arg RTC_Format_BIN: Binary data format 
1245:../Shared/Libraries/STM32F4xx_StdPeriph_Driver/src/stm32f4xx_rtc.c ****   *            @arg RTC_Format_BCD: BCD data format
1246:../Shared/Libraries/STM32F4xx_StdPeriph_Driver/src/stm32f4xx_rtc.c ****   * @param  RTC_Alarm: specifies the alarm to be read.
1247:../Shared/Libraries/STM32F4xx_StdPeriph_Driver/src/stm32f4xx_rtc.c ****   *          This parameter can be one of the following values:
1248:../Shared/Libraries/STM32F4xx_StdPeriph_Driver/src/stm32f4xx_rtc.c ****   *            @arg RTC_Alarm_A: to select Alarm A
1249:../Shared/Libraries/STM32F4xx_StdPeriph_Driver/src/stm32f4xx_rtc.c ****   *            @arg RTC_Alarm_B: to select Alarm B  
1250:../Shared/Libraries/STM32F4xx_StdPeriph_Driver/src/stm32f4xx_rtc.c ****   * @param  RTC_AlarmStruct: pointer to a RTC_AlarmTypeDef structure that will 
1251:../Shared/Libraries/STM32F4xx_StdPeriph_Driver/src/stm32f4xx_rtc.c ****   *                          contains the output alarm configuration values.     
1252:../Shared/Libraries/STM32F4xx_StdPeriph_Driver/src/stm32f4xx_rtc.c ****   * @retval None
1253:../Shared/Libraries/STM32F4xx_StdPeriph_Driver/src/stm32f4xx_rtc.c ****   */
1254:../Shared/Libraries/STM32F4xx_StdPeriph_Driver/src/stm32f4xx_rtc.c **** void RTC_GetAlarm(uint32_t RTC_Format, uint32_t RTC_Alarm, RTC_AlarmTypeDef* RTC_AlarmStruct)
1255:../Shared/Libraries/STM32F4xx_StdPeriph_Driver/src/stm32f4xx_rtc.c **** {
 2130              		.loc 1 1255 1
 2131              		.cfi_startproc
 2132              		@ args = 0, pretend = 0, frame = 24
 2133              		@ frame_needed = 1, uses_anonymous_args = 0
 2134 0000 80B5     		push	{r7, lr}
 2135              	.LCFI98:
 2136              		.cfi_def_cfa_offset 8
 2137              		.cfi_offset 7, -8
 2138              		.cfi_offset 14, -4
 2139 0002 86B0     		sub	sp, sp, #24
 2140              	.LCFI99:
 2141              		.cfi_def_cfa_offset 32
 2142 0004 00AF     		add	r7, sp, #0
 2143              	.LCFI100:
 2144              		.cfi_def_cfa_register 7
 2145 0006 F860     		str	r0, [r7, #12]
 2146 0008 B960     		str	r1, [r7, #8]
 2147 000a 7A60     		str	r2, [r7, #4]
1256:../Shared/Libraries/STM32F4xx_StdPeriph_Driver/src/stm32f4xx_rtc.c ****   uint32_t tmpreg = 0;
 2148              		.loc 1 1256 12
 2149 000c 0023     		movs	r3, #0
 2150 000e 7B61     		str	r3, [r7, #20]
1257:../Shared/Libraries/STM32F4xx_StdPeriph_Driver/src/stm32f4xx_rtc.c **** 
1258:../Shared/Libraries/STM32F4xx_StdPeriph_Driver/src/stm32f4xx_rtc.c ****   /* Check the parameters */
1259:../Shared/Libraries/STM32F4xx_StdPeriph_Driver/src/stm32f4xx_rtc.c ****   assert_param(IS_RTC_FORMAT(RTC_Format));
1260:../Shared/Libraries/STM32F4xx_StdPeriph_Driver/src/stm32f4xx_rtc.c ****   assert_param(IS_RTC_ALARM(RTC_Alarm)); 
1261:../Shared/Libraries/STM32F4xx_StdPeriph_Driver/src/stm32f4xx_rtc.c **** 
1262:../Shared/Libraries/STM32F4xx_StdPeriph_Driver/src/stm32f4xx_rtc.c ****   /* Get the RTC_ALRMxR register */
1263:../Shared/Libraries/STM32F4xx_StdPeriph_Driver/src/stm32f4xx_rtc.c ****   if (RTC_Alarm == RTC_Alarm_A)
 2151              		.loc 1 1263 6
 2152 0010 BB68     		ldr	r3, [r7, #8]
 2153 0012 B3F5807F 		cmp	r3, #256
 2154 0016 03D1     		bne	.L113
1264:../Shared/Libraries/STM32F4xx_StdPeriph_Driver/src/stm32f4xx_rtc.c ****   {
1265:../Shared/Libraries/STM32F4xx_StdPeriph_Driver/src/stm32f4xx_rtc.c ****     tmpreg = (uint32_t)(RTC->ALRMAR);
 2155              		.loc 1 1265 28
 2156 0018 314B     		ldr	r3, .L117
 2157              		.loc 1 1265 12
 2158 001a DB69     		ldr	r3, [r3, #28]
 2159 001c 7B61     		str	r3, [r7, #20]
 2160 001e 02E0     		b	.L114
 2161              	.L113:
1266:../Shared/Libraries/STM32F4xx_StdPeriph_Driver/src/stm32f4xx_rtc.c ****   }
1267:../Shared/Libraries/STM32F4xx_StdPeriph_Driver/src/stm32f4xx_rtc.c ****   else
1268:../Shared/Libraries/STM32F4xx_StdPeriph_Driver/src/stm32f4xx_rtc.c ****   {
ARM GAS  /tmp/cctIRrNQ.s 			page 61


1269:../Shared/Libraries/STM32F4xx_StdPeriph_Driver/src/stm32f4xx_rtc.c ****     tmpreg = (uint32_t)(RTC->ALRMBR);
 2162              		.loc 1 1269 28
 2163 0020 2F4B     		ldr	r3, .L117
 2164              		.loc 1 1269 12
 2165 0022 1B6A     		ldr	r3, [r3, #32]
 2166 0024 7B61     		str	r3, [r7, #20]
 2167              	.L114:
1270:../Shared/Libraries/STM32F4xx_StdPeriph_Driver/src/stm32f4xx_rtc.c ****   }
1271:../Shared/Libraries/STM32F4xx_StdPeriph_Driver/src/stm32f4xx_rtc.c **** 
1272:../Shared/Libraries/STM32F4xx_StdPeriph_Driver/src/stm32f4xx_rtc.c ****   /* Fill the structure with the read parameters */
1273:../Shared/Libraries/STM32F4xx_StdPeriph_Driver/src/stm32f4xx_rtc.c ****   RTC_AlarmStruct->RTC_AlarmTime.RTC_Hours = (uint32_t)((tmpreg & (RTC_ALRMAR_HT | \
 2168              		.loc 1 1273 46
 2169 0026 7B69     		ldr	r3, [r7, #20]
 2170 0028 1B0C     		lsrs	r3, r3, #16
 2171 002a DBB2     		uxtb	r3, r3
 2172 002c 03F03F03 		and	r3, r3, #63
 2173 0030 DAB2     		uxtb	r2, r3
 2174              		.loc 1 1273 44
 2175 0032 7B68     		ldr	r3, [r7, #4]
 2176 0034 1A70     		strb	r2, [r3]
1274:../Shared/Libraries/STM32F4xx_StdPeriph_Driver/src/stm32f4xx_rtc.c ****                                                      RTC_ALRMAR_HU)) >> 16);
1275:../Shared/Libraries/STM32F4xx_StdPeriph_Driver/src/stm32f4xx_rtc.c ****   RTC_AlarmStruct->RTC_AlarmTime.RTC_Minutes = (uint32_t)((tmpreg & (RTC_ALRMAR_MNT | \
 2177              		.loc 1 1275 48
 2178 0036 7B69     		ldr	r3, [r7, #20]
 2179 0038 1B0A     		lsrs	r3, r3, #8
 2180 003a DBB2     		uxtb	r3, r3
 2181 003c 03F07F03 		and	r3, r3, #127
 2182 0040 DAB2     		uxtb	r2, r3
 2183              		.loc 1 1275 46
 2184 0042 7B68     		ldr	r3, [r7, #4]
 2185 0044 5A70     		strb	r2, [r3, #1]
1276:../Shared/Libraries/STM32F4xx_StdPeriph_Driver/src/stm32f4xx_rtc.c ****                                                      RTC_ALRMAR_MNU)) >> 8);
1277:../Shared/Libraries/STM32F4xx_StdPeriph_Driver/src/stm32f4xx_rtc.c ****   RTC_AlarmStruct->RTC_AlarmTime.RTC_Seconds = (uint32_t)(tmpreg & (RTC_ALRMAR_ST | \
 2186              		.loc 1 1277 48
 2187 0046 7B69     		ldr	r3, [r7, #20]
 2188 0048 DBB2     		uxtb	r3, r3
 2189 004a 03F07F03 		and	r3, r3, #127
 2190 004e DAB2     		uxtb	r2, r3
 2191              		.loc 1 1277 46
 2192 0050 7B68     		ldr	r3, [r7, #4]
 2193 0052 9A70     		strb	r2, [r3, #2]
1278:../Shared/Libraries/STM32F4xx_StdPeriph_Driver/src/stm32f4xx_rtc.c ****                                                      RTC_ALRMAR_SU));
1279:../Shared/Libraries/STM32F4xx_StdPeriph_Driver/src/stm32f4xx_rtc.c ****   RTC_AlarmStruct->RTC_AlarmTime.RTC_H12 = (uint32_t)((tmpreg & RTC_ALRMAR_PM) >> 16);
 2194              		.loc 1 1279 44
 2195 0054 7B69     		ldr	r3, [r7, #20]
 2196 0056 1B0C     		lsrs	r3, r3, #16
 2197 0058 DBB2     		uxtb	r3, r3
 2198 005a 03F04003 		and	r3, r3, #64
 2199 005e DAB2     		uxtb	r2, r3
 2200              		.loc 1 1279 42
 2201 0060 7B68     		ldr	r3, [r7, #4]
 2202 0062 DA70     		strb	r2, [r3, #3]
1280:../Shared/Libraries/STM32F4xx_StdPeriph_Driver/src/stm32f4xx_rtc.c ****   RTC_AlarmStruct->RTC_AlarmDateWeekDay = (uint32_t)((tmpreg & (RTC_ALRMAR_DT | RTC_ALRMAR_DU)) >> 
 2203              		.loc 1 1280 43
 2204 0064 7B69     		ldr	r3, [r7, #20]
 2205 0066 1B0E     		lsrs	r3, r3, #24
 2206 0068 DBB2     		uxtb	r3, r3
ARM GAS  /tmp/cctIRrNQ.s 			page 62


 2207 006a 03F03F03 		and	r3, r3, #63
 2208 006e DAB2     		uxtb	r2, r3
 2209              		.loc 1 1280 41
 2210 0070 7B68     		ldr	r3, [r7, #4]
 2211 0072 1A73     		strb	r2, [r3, #12]
1281:../Shared/Libraries/STM32F4xx_StdPeriph_Driver/src/stm32f4xx_rtc.c ****   RTC_AlarmStruct->RTC_AlarmDateWeekDaySel = (uint32_t)(tmpreg & RTC_ALRMAR_WDSEL);
 2212              		.loc 1 1281 46
 2213 0074 7B69     		ldr	r3, [r7, #20]
 2214 0076 03F08042 		and	r2, r3, #1073741824
 2215              		.loc 1 1281 44
 2216 007a 7B68     		ldr	r3, [r7, #4]
 2217 007c 9A60     		str	r2, [r3, #8]
1282:../Shared/Libraries/STM32F4xx_StdPeriph_Driver/src/stm32f4xx_rtc.c ****   RTC_AlarmStruct->RTC_AlarmMask = (uint32_t)(tmpreg & RTC_AlarmMask_All);
 2218              		.loc 1 1282 36
 2219 007e 7B69     		ldr	r3, [r7, #20]
 2220 0080 03F08032 		and	r2, r3, #-2139062144
 2221              		.loc 1 1282 34
 2222 0084 7B68     		ldr	r3, [r7, #4]
 2223 0086 5A60     		str	r2, [r3, #4]
1283:../Shared/Libraries/STM32F4xx_StdPeriph_Driver/src/stm32f4xx_rtc.c **** 
1284:../Shared/Libraries/STM32F4xx_StdPeriph_Driver/src/stm32f4xx_rtc.c ****   if (RTC_Format == RTC_Format_BIN)
 2224              		.loc 1 1284 6
 2225 0088 FB68     		ldr	r3, [r7, #12]
 2226 008a 002B     		cmp	r3, #0
 2227 008c 23D1     		bne	.L116
1285:../Shared/Libraries/STM32F4xx_StdPeriph_Driver/src/stm32f4xx_rtc.c ****   {
1286:../Shared/Libraries/STM32F4xx_StdPeriph_Driver/src/stm32f4xx_rtc.c ****     RTC_AlarmStruct->RTC_AlarmTime.RTC_Hours = RTC_Bcd2ToByte(RTC_AlarmStruct-> \
 2228              		.loc 1 1286 48
 2229 008e 7B68     		ldr	r3, [r7, #4]
 2230 0090 1B78     		ldrb	r3, [r3]	@ zero_extendqisi2
 2231 0092 1846     		mov	r0, r3
 2232 0094 FFF7FEFF 		bl	RTC_Bcd2ToByte
 2233 0098 0346     		mov	r3, r0
 2234 009a 1A46     		mov	r2, r3
 2235              		.loc 1 1286 46 discriminator 1
 2236 009c 7B68     		ldr	r3, [r7, #4]
 2237 009e 1A70     		strb	r2, [r3]
1287:../Shared/Libraries/STM32F4xx_StdPeriph_Driver/src/stm32f4xx_rtc.c ****                                                         RTC_AlarmTime.RTC_Hours);
1288:../Shared/Libraries/STM32F4xx_StdPeriph_Driver/src/stm32f4xx_rtc.c ****     RTC_AlarmStruct->RTC_AlarmTime.RTC_Minutes = RTC_Bcd2ToByte(RTC_AlarmStruct-> \
 2238              		.loc 1 1288 50
 2239 00a0 7B68     		ldr	r3, [r7, #4]
 2240 00a2 5B78     		ldrb	r3, [r3, #1]	@ zero_extendqisi2
 2241 00a4 1846     		mov	r0, r3
 2242 00a6 FFF7FEFF 		bl	RTC_Bcd2ToByte
 2243 00aa 0346     		mov	r3, r0
 2244 00ac 1A46     		mov	r2, r3
 2245              		.loc 1 1288 48 discriminator 1
 2246 00ae 7B68     		ldr	r3, [r7, #4]
 2247 00b0 5A70     		strb	r2, [r3, #1]
1289:../Shared/Libraries/STM32F4xx_StdPeriph_Driver/src/stm32f4xx_rtc.c ****                                                         RTC_AlarmTime.RTC_Minutes);
1290:../Shared/Libraries/STM32F4xx_StdPeriph_Driver/src/stm32f4xx_rtc.c ****     RTC_AlarmStruct->RTC_AlarmTime.RTC_Seconds = RTC_Bcd2ToByte(RTC_AlarmStruct-> \
 2248              		.loc 1 1290 50
 2249 00b2 7B68     		ldr	r3, [r7, #4]
 2250 00b4 9B78     		ldrb	r3, [r3, #2]	@ zero_extendqisi2
 2251 00b6 1846     		mov	r0, r3
 2252 00b8 FFF7FEFF 		bl	RTC_Bcd2ToByte
 2253 00bc 0346     		mov	r3, r0
ARM GAS  /tmp/cctIRrNQ.s 			page 63


 2254 00be 1A46     		mov	r2, r3
 2255              		.loc 1 1290 48 discriminator 1
 2256 00c0 7B68     		ldr	r3, [r7, #4]
 2257 00c2 9A70     		strb	r2, [r3, #2]
1291:../Shared/Libraries/STM32F4xx_StdPeriph_Driver/src/stm32f4xx_rtc.c ****                                                         RTC_AlarmTime.RTC_Seconds);
1292:../Shared/Libraries/STM32F4xx_StdPeriph_Driver/src/stm32f4xx_rtc.c ****     RTC_AlarmStruct->RTC_AlarmDateWeekDay = RTC_Bcd2ToByte(RTC_AlarmStruct->RTC_AlarmDateWeekDay);
 2258              		.loc 1 1292 45
 2259 00c4 7B68     		ldr	r3, [r7, #4]
 2260 00c6 1B7B     		ldrb	r3, [r3, #12]	@ zero_extendqisi2
 2261 00c8 1846     		mov	r0, r3
 2262 00ca FFF7FEFF 		bl	RTC_Bcd2ToByte
 2263 00ce 0346     		mov	r3, r0
 2264 00d0 1A46     		mov	r2, r3
 2265              		.loc 1 1292 43 discriminator 1
 2266 00d2 7B68     		ldr	r3, [r7, #4]
 2267 00d4 1A73     		strb	r2, [r3, #12]
 2268              	.L116:
1293:../Shared/Libraries/STM32F4xx_StdPeriph_Driver/src/stm32f4xx_rtc.c ****   }  
1294:../Shared/Libraries/STM32F4xx_StdPeriph_Driver/src/stm32f4xx_rtc.c **** }
 2269              		.loc 1 1294 1
 2270 00d6 00BF     		nop
 2271 00d8 1837     		adds	r7, r7, #24
 2272              	.LCFI101:
 2273              		.cfi_def_cfa_offset 8
 2274 00da BD46     		mov	sp, r7
 2275              	.LCFI102:
 2276              		.cfi_def_cfa_register 13
 2277              		@ sp needed
 2278 00dc 80BD     		pop	{r7, pc}
 2279              	.L118:
 2280 00de 00BF     		.align	2
 2281              	.L117:
 2282 00e0 00280040 		.word	1073752064
 2283              		.cfi_endproc
 2284              	.LFE128:
 2286              		.section	.text.RTC_AlarmCmd,"ax",%progbits
 2287              		.align	1
 2288              		.global	RTC_AlarmCmd
 2289              		.syntax unified
 2290              		.thumb
 2291              		.thumb_func
 2293              	RTC_AlarmCmd:
 2294              	.LFB129:
1295:../Shared/Libraries/STM32F4xx_StdPeriph_Driver/src/stm32f4xx_rtc.c **** 
1296:../Shared/Libraries/STM32F4xx_StdPeriph_Driver/src/stm32f4xx_rtc.c **** /**
1297:../Shared/Libraries/STM32F4xx_StdPeriph_Driver/src/stm32f4xx_rtc.c ****   * @brief  Enables or disables the specified RTC Alarm.
1298:../Shared/Libraries/STM32F4xx_StdPeriph_Driver/src/stm32f4xx_rtc.c ****   * @param  RTC_Alarm: specifies the alarm to be configured.
1299:../Shared/Libraries/STM32F4xx_StdPeriph_Driver/src/stm32f4xx_rtc.c ****   *          This parameter can be any combination of the following values:
1300:../Shared/Libraries/STM32F4xx_StdPeriph_Driver/src/stm32f4xx_rtc.c ****   *            @arg RTC_Alarm_A: to select Alarm A
1301:../Shared/Libraries/STM32F4xx_StdPeriph_Driver/src/stm32f4xx_rtc.c ****   *            @arg RTC_Alarm_B: to select Alarm B  
1302:../Shared/Libraries/STM32F4xx_StdPeriph_Driver/src/stm32f4xx_rtc.c ****   * @param  NewState: new state of the specified alarm.
1303:../Shared/Libraries/STM32F4xx_StdPeriph_Driver/src/stm32f4xx_rtc.c ****   *          This parameter can be: ENABLE or DISABLE.
1304:../Shared/Libraries/STM32F4xx_StdPeriph_Driver/src/stm32f4xx_rtc.c ****   * @retval An ErrorStatus enumeration value:
1305:../Shared/Libraries/STM32F4xx_StdPeriph_Driver/src/stm32f4xx_rtc.c ****   *          - SUCCESS: RTC Alarm is enabled/disabled
1306:../Shared/Libraries/STM32F4xx_StdPeriph_Driver/src/stm32f4xx_rtc.c ****   *          - ERROR: RTC Alarm is not enabled/disabled  
1307:../Shared/Libraries/STM32F4xx_StdPeriph_Driver/src/stm32f4xx_rtc.c ****   */
1308:../Shared/Libraries/STM32F4xx_StdPeriph_Driver/src/stm32f4xx_rtc.c **** ErrorStatus RTC_AlarmCmd(uint32_t RTC_Alarm, FunctionalState NewState)
ARM GAS  /tmp/cctIRrNQ.s 			page 64


1309:../Shared/Libraries/STM32F4xx_StdPeriph_Driver/src/stm32f4xx_rtc.c **** {
 2295              		.loc 1 1309 1
 2296              		.cfi_startproc
 2297              		@ args = 0, pretend = 0, frame = 24
 2298              		@ frame_needed = 1, uses_anonymous_args = 0
 2299              		@ link register save eliminated.
 2300 0000 80B4     		push	{r7}
 2301              	.LCFI103:
 2302              		.cfi_def_cfa_offset 4
 2303              		.cfi_offset 7, -4
 2304 0002 87B0     		sub	sp, sp, #28
 2305              	.LCFI104:
 2306              		.cfi_def_cfa_offset 32
 2307 0004 00AF     		add	r7, sp, #0
 2308              	.LCFI105:
 2309              		.cfi_def_cfa_register 7
 2310 0006 7860     		str	r0, [r7, #4]
 2311 0008 0B46     		mov	r3, r1
 2312 000a FB70     		strb	r3, [r7, #3]
1310:../Shared/Libraries/STM32F4xx_StdPeriph_Driver/src/stm32f4xx_rtc.c ****   __IO uint32_t alarmcounter = 0x00;
 2313              		.loc 1 1310 17
 2314 000c 0023     		movs	r3, #0
 2315 000e FB60     		str	r3, [r7, #12]
1311:../Shared/Libraries/STM32F4xx_StdPeriph_Driver/src/stm32f4xx_rtc.c ****   uint32_t alarmstatus = 0x00;
 2316              		.loc 1 1311 12
 2317 0010 0023     		movs	r3, #0
 2318 0012 3B61     		str	r3, [r7, #16]
1312:../Shared/Libraries/STM32F4xx_StdPeriph_Driver/src/stm32f4xx_rtc.c ****   ErrorStatus status = ERROR;
 2319              		.loc 1 1312 15
 2320 0014 0023     		movs	r3, #0
 2321 0016 FB75     		strb	r3, [r7, #23]
1313:../Shared/Libraries/STM32F4xx_StdPeriph_Driver/src/stm32f4xx_rtc.c ****     
1314:../Shared/Libraries/STM32F4xx_StdPeriph_Driver/src/stm32f4xx_rtc.c ****   /* Check the parameters */
1315:../Shared/Libraries/STM32F4xx_StdPeriph_Driver/src/stm32f4xx_rtc.c ****   assert_param(IS_RTC_CMD_ALARM(RTC_Alarm));
1316:../Shared/Libraries/STM32F4xx_StdPeriph_Driver/src/stm32f4xx_rtc.c ****   assert_param(IS_FUNCTIONAL_STATE(NewState));
1317:../Shared/Libraries/STM32F4xx_StdPeriph_Driver/src/stm32f4xx_rtc.c **** 
1318:../Shared/Libraries/STM32F4xx_StdPeriph_Driver/src/stm32f4xx_rtc.c ****   /* Disable the write protection for RTC registers */
1319:../Shared/Libraries/STM32F4xx_StdPeriph_Driver/src/stm32f4xx_rtc.c ****   RTC->WPR = 0xCA;
 2322              		.loc 1 1319 6
 2323 0018 1F4B     		ldr	r3, .L126
 2324              		.loc 1 1319 12
 2325 001a CA22     		movs	r2, #202
 2326 001c 5A62     		str	r2, [r3, #36]
1320:../Shared/Libraries/STM32F4xx_StdPeriph_Driver/src/stm32f4xx_rtc.c ****   RTC->WPR = 0x53;
 2327              		.loc 1 1320 6
 2328 001e 1E4B     		ldr	r3, .L126
 2329              		.loc 1 1320 12
 2330 0020 5322     		movs	r2, #83
 2331 0022 5A62     		str	r2, [r3, #36]
1321:../Shared/Libraries/STM32F4xx_StdPeriph_Driver/src/stm32f4xx_rtc.c **** 
1322:../Shared/Libraries/STM32F4xx_StdPeriph_Driver/src/stm32f4xx_rtc.c ****   /* Configure the Alarm state */
1323:../Shared/Libraries/STM32F4xx_StdPeriph_Driver/src/stm32f4xx_rtc.c ****   if (NewState != DISABLE)
 2332              		.loc 1 1323 6
 2333 0024 FB78     		ldrb	r3, [r7, #3]	@ zero_extendqisi2
 2334 0026 002B     		cmp	r3, #0
 2335 0028 08D0     		beq	.L120
1324:../Shared/Libraries/STM32F4xx_StdPeriph_Driver/src/stm32f4xx_rtc.c ****   {
ARM GAS  /tmp/cctIRrNQ.s 			page 65


1325:../Shared/Libraries/STM32F4xx_StdPeriph_Driver/src/stm32f4xx_rtc.c ****     RTC->CR |= (uint32_t)RTC_Alarm;
 2336              		.loc 1 1325 8
 2337 002a 1B4B     		ldr	r3, .L126
 2338 002c 9A68     		ldr	r2, [r3, #8]
 2339 002e 1A49     		ldr	r1, .L126
 2340              		.loc 1 1325 13
 2341 0030 7B68     		ldr	r3, [r7, #4]
 2342 0032 1343     		orrs	r3, r3, r2
 2343 0034 8B60     		str	r3, [r1, #8]
1326:../Shared/Libraries/STM32F4xx_StdPeriph_Driver/src/stm32f4xx_rtc.c **** 
1327:../Shared/Libraries/STM32F4xx_StdPeriph_Driver/src/stm32f4xx_rtc.c ****     status = SUCCESS;    
 2344              		.loc 1 1327 12
 2345 0036 0123     		movs	r3, #1
 2346 0038 FB75     		strb	r3, [r7, #23]
 2347 003a 22E0     		b	.L121
 2348              	.L120:
1328:../Shared/Libraries/STM32F4xx_StdPeriph_Driver/src/stm32f4xx_rtc.c ****   }
1329:../Shared/Libraries/STM32F4xx_StdPeriph_Driver/src/stm32f4xx_rtc.c ****   else
1330:../Shared/Libraries/STM32F4xx_StdPeriph_Driver/src/stm32f4xx_rtc.c ****   { 
1331:../Shared/Libraries/STM32F4xx_StdPeriph_Driver/src/stm32f4xx_rtc.c ****     /* Disable the Alarm in RTC_CR register */
1332:../Shared/Libraries/STM32F4xx_StdPeriph_Driver/src/stm32f4xx_rtc.c ****     RTC->CR &= (uint32_t)~RTC_Alarm;
 2349              		.loc 1 1332 8
 2350 003c 164B     		ldr	r3, .L126
 2351 003e 9A68     		ldr	r2, [r3, #8]
 2352              		.loc 1 1332 26
 2353 0040 7B68     		ldr	r3, [r7, #4]
 2354 0042 DB43     		mvns	r3, r3
 2355              		.loc 1 1332 8
 2356 0044 1449     		ldr	r1, .L126
 2357              		.loc 1 1332 13
 2358 0046 1340     		ands	r3, r3, r2
 2359 0048 8B60     		str	r3, [r1, #8]
 2360              	.L123:
1333:../Shared/Libraries/STM32F4xx_StdPeriph_Driver/src/stm32f4xx_rtc.c ****    
1334:../Shared/Libraries/STM32F4xx_StdPeriph_Driver/src/stm32f4xx_rtc.c ****     /* Wait till RTC ALRxWF flag is set and if Time out is reached exit */
1335:../Shared/Libraries/STM32F4xx_StdPeriph_Driver/src/stm32f4xx_rtc.c ****     do
1336:../Shared/Libraries/STM32F4xx_StdPeriph_Driver/src/stm32f4xx_rtc.c ****     {
1337:../Shared/Libraries/STM32F4xx_StdPeriph_Driver/src/stm32f4xx_rtc.c ****       alarmstatus = RTC->ISR & (RTC_Alarm >> 8);
 2361              		.loc 1 1337 24
 2362 004a 134B     		ldr	r3, .L126
 2363 004c DA68     		ldr	r2, [r3, #12]
 2364              		.loc 1 1337 43
 2365 004e 7B68     		ldr	r3, [r7, #4]
 2366 0050 1B0A     		lsrs	r3, r3, #8
 2367              		.loc 1 1337 19
 2368 0052 1340     		ands	r3, r3, r2
 2369 0054 3B61     		str	r3, [r7, #16]
1338:../Shared/Libraries/STM32F4xx_StdPeriph_Driver/src/stm32f4xx_rtc.c ****       alarmcounter++;  
 2370              		.loc 1 1338 19
 2371 0056 FB68     		ldr	r3, [r7, #12]
 2372 0058 0133     		adds	r3, r3, #1
 2373 005a FB60     		str	r3, [r7, #12]
1339:../Shared/Libraries/STM32F4xx_StdPeriph_Driver/src/stm32f4xx_rtc.c ****     } while((alarmcounter != INITMODE_TIMEOUT) && (alarmstatus == 0x00));
 2374              		.loc 1 1339 27 discriminator 2
 2375 005c FB68     		ldr	r3, [r7, #12]
 2376              		.loc 1 1339 48 discriminator 2
 2377 005e B3F5803F 		cmp	r3, #65536
ARM GAS  /tmp/cctIRrNQ.s 			page 66


 2378 0062 02D0     		beq	.L122
 2379              		.loc 1 1339 48 is_stmt 0 discriminator 1
 2380 0064 3B69     		ldr	r3, [r7, #16]
 2381 0066 002B     		cmp	r3, #0
 2382 0068 EFD0     		beq	.L123
 2383              	.L122:
1340:../Shared/Libraries/STM32F4xx_StdPeriph_Driver/src/stm32f4xx_rtc.c ****     
1341:../Shared/Libraries/STM32F4xx_StdPeriph_Driver/src/stm32f4xx_rtc.c ****     if ((RTC->ISR & (RTC_Alarm >> 8)) == RESET)
 2384              		.loc 1 1341 13 is_stmt 1
 2385 006a 0B4B     		ldr	r3, .L126
 2386 006c DA68     		ldr	r2, [r3, #12]
 2387              		.loc 1 1341 32
 2388 006e 7B68     		ldr	r3, [r7, #4]
 2389 0070 1B0A     		lsrs	r3, r3, #8
 2390              		.loc 1 1341 19
 2391 0072 1340     		ands	r3, r3, r2
 2392              		.loc 1 1341 8
 2393 0074 002B     		cmp	r3, #0
 2394 0076 02D1     		bne	.L124
1342:../Shared/Libraries/STM32F4xx_StdPeriph_Driver/src/stm32f4xx_rtc.c ****     {
1343:../Shared/Libraries/STM32F4xx_StdPeriph_Driver/src/stm32f4xx_rtc.c ****       status = ERROR;
 2395              		.loc 1 1343 14
 2396 0078 0023     		movs	r3, #0
 2397 007a FB75     		strb	r3, [r7, #23]
 2398 007c 01E0     		b	.L121
 2399              	.L124:
1344:../Shared/Libraries/STM32F4xx_StdPeriph_Driver/src/stm32f4xx_rtc.c ****     } 
1345:../Shared/Libraries/STM32F4xx_StdPeriph_Driver/src/stm32f4xx_rtc.c ****     else
1346:../Shared/Libraries/STM32F4xx_StdPeriph_Driver/src/stm32f4xx_rtc.c ****     {
1347:../Shared/Libraries/STM32F4xx_StdPeriph_Driver/src/stm32f4xx_rtc.c ****       status = SUCCESS;
 2400              		.loc 1 1347 14
 2401 007e 0123     		movs	r3, #1
 2402 0080 FB75     		strb	r3, [r7, #23]
 2403              	.L121:
1348:../Shared/Libraries/STM32F4xx_StdPeriph_Driver/src/stm32f4xx_rtc.c ****     }        
1349:../Shared/Libraries/STM32F4xx_StdPeriph_Driver/src/stm32f4xx_rtc.c ****   } 
1350:../Shared/Libraries/STM32F4xx_StdPeriph_Driver/src/stm32f4xx_rtc.c **** 
1351:../Shared/Libraries/STM32F4xx_StdPeriph_Driver/src/stm32f4xx_rtc.c ****   /* Enable the write protection for RTC registers */
1352:../Shared/Libraries/STM32F4xx_StdPeriph_Driver/src/stm32f4xx_rtc.c ****   RTC->WPR = 0xFF; 
 2404              		.loc 1 1352 6
 2405 0082 054B     		ldr	r3, .L126
 2406              		.loc 1 1352 12
 2407 0084 FF22     		movs	r2, #255
 2408 0086 5A62     		str	r2, [r3, #36]
1353:../Shared/Libraries/STM32F4xx_StdPeriph_Driver/src/stm32f4xx_rtc.c ****   
1354:../Shared/Libraries/STM32F4xx_StdPeriph_Driver/src/stm32f4xx_rtc.c ****   return status;
 2409              		.loc 1 1354 10
 2410 0088 FB7D     		ldrb	r3, [r7, #23]	@ zero_extendqisi2
1355:../Shared/Libraries/STM32F4xx_StdPeriph_Driver/src/stm32f4xx_rtc.c **** }
 2411              		.loc 1 1355 1
 2412 008a 1846     		mov	r0, r3
 2413 008c 1C37     		adds	r7, r7, #28
 2414              	.LCFI106:
 2415              		.cfi_def_cfa_offset 4
 2416 008e BD46     		mov	sp, r7
 2417              	.LCFI107:
 2418              		.cfi_def_cfa_register 13
ARM GAS  /tmp/cctIRrNQ.s 			page 67


 2419              		@ sp needed
 2420 0090 5DF8047B 		ldr	r7, [sp], #4
 2421              	.LCFI108:
 2422              		.cfi_restore 7
 2423              		.cfi_def_cfa_offset 0
 2424 0094 7047     		bx	lr
 2425              	.L127:
 2426 0096 00BF     		.align	2
 2427              	.L126:
 2428 0098 00280040 		.word	1073752064
 2429              		.cfi_endproc
 2430              	.LFE129:
 2432              		.section	.text.RTC_AlarmSubSecondConfig,"ax",%progbits
 2433              		.align	1
 2434              		.global	RTC_AlarmSubSecondConfig
 2435              		.syntax unified
 2436              		.thumb
 2437              		.thumb_func
 2439              	RTC_AlarmSubSecondConfig:
 2440              	.LFB130:
1356:../Shared/Libraries/STM32F4xx_StdPeriph_Driver/src/stm32f4xx_rtc.c **** 
1357:../Shared/Libraries/STM32F4xx_StdPeriph_Driver/src/stm32f4xx_rtc.c **** /**
1358:../Shared/Libraries/STM32F4xx_StdPeriph_Driver/src/stm32f4xx_rtc.c ****   * @brief  Configure the RTC AlarmA/B Subseconds value and mask.*
1359:../Shared/Libraries/STM32F4xx_StdPeriph_Driver/src/stm32f4xx_rtc.c ****   * @note   This function is performed only when the Alarm is disabled. 
1360:../Shared/Libraries/STM32F4xx_StdPeriph_Driver/src/stm32f4xx_rtc.c ****   * @param  RTC_Alarm: specifies the alarm to be configured.
1361:../Shared/Libraries/STM32F4xx_StdPeriph_Driver/src/stm32f4xx_rtc.c ****   *   This parameter can be one of the following values:
1362:../Shared/Libraries/STM32F4xx_StdPeriph_Driver/src/stm32f4xx_rtc.c ****   *     @arg RTC_Alarm_A: to select Alarm A
1363:../Shared/Libraries/STM32F4xx_StdPeriph_Driver/src/stm32f4xx_rtc.c ****   *     @arg RTC_Alarm_B: to select Alarm B
1364:../Shared/Libraries/STM32F4xx_StdPeriph_Driver/src/stm32f4xx_rtc.c ****   * @param  RTC_AlarmSubSecondValue: specifies the Subseconds value.
1365:../Shared/Libraries/STM32F4xx_StdPeriph_Driver/src/stm32f4xx_rtc.c ****   *   This parameter can be a value from 0 to 0x00007FFF.
1366:../Shared/Libraries/STM32F4xx_StdPeriph_Driver/src/stm32f4xx_rtc.c ****   * @param  RTC_AlarmSubSecondMask:  specifies the Subseconds Mask.
1367:../Shared/Libraries/STM32F4xx_StdPeriph_Driver/src/stm32f4xx_rtc.c ****   *   This parameter can be any combination of the following values:
1368:../Shared/Libraries/STM32F4xx_StdPeriph_Driver/src/stm32f4xx_rtc.c ****   *     @arg RTC_AlarmSubSecondMask_All    : All Alarm SS fields are masked.
1369:../Shared/Libraries/STM32F4xx_StdPeriph_Driver/src/stm32f4xx_rtc.c ****   *                                          There is no comparison on sub seconds for Alarm.
1370:../Shared/Libraries/STM32F4xx_StdPeriph_Driver/src/stm32f4xx_rtc.c ****   *     @arg RTC_AlarmSubSecondMask_SS14_1 : SS[14:1] are don't care in Alarm comparison.
1371:../Shared/Libraries/STM32F4xx_StdPeriph_Driver/src/stm32f4xx_rtc.c ****   *                                          Only SS[0] is compared
1372:../Shared/Libraries/STM32F4xx_StdPeriph_Driver/src/stm32f4xx_rtc.c ****   *     @arg RTC_AlarmSubSecondMask_SS14_2 : SS[14:2] are don't care in Alarm comparison.
1373:../Shared/Libraries/STM32F4xx_StdPeriph_Driver/src/stm32f4xx_rtc.c ****   *                                          Only SS[1:0] are compared
1374:../Shared/Libraries/STM32F4xx_StdPeriph_Driver/src/stm32f4xx_rtc.c ****   *     @arg RTC_AlarmSubSecondMask_SS14_3 : SS[14:3] are don't care in Alarm comparison.
1375:../Shared/Libraries/STM32F4xx_StdPeriph_Driver/src/stm32f4xx_rtc.c ****   *                                          Only SS[2:0] are compared
1376:../Shared/Libraries/STM32F4xx_StdPeriph_Driver/src/stm32f4xx_rtc.c ****   *     @arg RTC_AlarmSubSecondMask_SS14_4 : SS[14:4] are don't care in Alarm comparison.
1377:../Shared/Libraries/STM32F4xx_StdPeriph_Driver/src/stm32f4xx_rtc.c ****   *                                          Only SS[3:0] are compared
1378:../Shared/Libraries/STM32F4xx_StdPeriph_Driver/src/stm32f4xx_rtc.c ****   *     @arg RTC_AlarmSubSecondMask_SS14_5 : SS[14:5] are don't care in Alarm comparison.
1379:../Shared/Libraries/STM32F4xx_StdPeriph_Driver/src/stm32f4xx_rtc.c ****   *                                          Only SS[4:0] are compared
1380:../Shared/Libraries/STM32F4xx_StdPeriph_Driver/src/stm32f4xx_rtc.c ****   *     @arg RTC_AlarmSubSecondMask_SS14_6 : SS[14:6] are don't care in Alarm comparison.
1381:../Shared/Libraries/STM32F4xx_StdPeriph_Driver/src/stm32f4xx_rtc.c ****   *                                          Only SS[5:0] are compared
1382:../Shared/Libraries/STM32F4xx_StdPeriph_Driver/src/stm32f4xx_rtc.c ****   *     @arg RTC_AlarmSubSecondMask_SS14_7 : SS[14:7] are don't care in Alarm comparison.
1383:../Shared/Libraries/STM32F4xx_StdPeriph_Driver/src/stm32f4xx_rtc.c ****   *                                          Only SS[6:0] are compared
1384:../Shared/Libraries/STM32F4xx_StdPeriph_Driver/src/stm32f4xx_rtc.c ****   *     @arg RTC_AlarmSubSecondMask_SS14_8 : SS[14:8] are don't care in Alarm comparison.
1385:../Shared/Libraries/STM32F4xx_StdPeriph_Driver/src/stm32f4xx_rtc.c ****   *                                          Only SS[7:0] are compared
1386:../Shared/Libraries/STM32F4xx_StdPeriph_Driver/src/stm32f4xx_rtc.c ****   *     @arg RTC_AlarmSubSecondMask_SS14_9 : SS[14:9] are don't care in Alarm comparison.
1387:../Shared/Libraries/STM32F4xx_StdPeriph_Driver/src/stm32f4xx_rtc.c ****   *                                          Only SS[8:0] are compared
1388:../Shared/Libraries/STM32F4xx_StdPeriph_Driver/src/stm32f4xx_rtc.c ****   *     @arg RTC_AlarmSubSecondMask_SS14_10: SS[14:10] are don't care in Alarm comparison.
1389:../Shared/Libraries/STM32F4xx_StdPeriph_Driver/src/stm32f4xx_rtc.c ****   *                                          Only SS[9:0] are compared
1390:../Shared/Libraries/STM32F4xx_StdPeriph_Driver/src/stm32f4xx_rtc.c ****   *     @arg RTC_AlarmSubSecondMask_SS14_11: SS[14:11] are don't care in Alarm comparison.
1391:../Shared/Libraries/STM32F4xx_StdPeriph_Driver/src/stm32f4xx_rtc.c ****   *                                          Only SS[10:0] are compared
1392:../Shared/Libraries/STM32F4xx_StdPeriph_Driver/src/stm32f4xx_rtc.c ****   *     @arg RTC_AlarmSubSecondMask_SS14_12: SS[14:12] are don't care in Alarm comparison.
ARM GAS  /tmp/cctIRrNQ.s 			page 68


1393:../Shared/Libraries/STM32F4xx_StdPeriph_Driver/src/stm32f4xx_rtc.c ****   *                                          Only SS[11:0] are compared
1394:../Shared/Libraries/STM32F4xx_StdPeriph_Driver/src/stm32f4xx_rtc.c ****   *     @arg RTC_AlarmSubSecondMask_SS14_13: SS[14:13] are don't care in Alarm comparison.
1395:../Shared/Libraries/STM32F4xx_StdPeriph_Driver/src/stm32f4xx_rtc.c ****   *                                          Only SS[12:0] are compared
1396:../Shared/Libraries/STM32F4xx_StdPeriph_Driver/src/stm32f4xx_rtc.c ****   *     @arg RTC_AlarmSubSecondMask_SS14   : SS[14] is don't care in Alarm comparison.
1397:../Shared/Libraries/STM32F4xx_StdPeriph_Driver/src/stm32f4xx_rtc.c ****   *                                          Only SS[13:0] are compared
1398:../Shared/Libraries/STM32F4xx_StdPeriph_Driver/src/stm32f4xx_rtc.c ****   *     @arg RTC_AlarmSubSecondMask_None   : SS[14:0] are compared and must match
1399:../Shared/Libraries/STM32F4xx_StdPeriph_Driver/src/stm32f4xx_rtc.c ****   *                                          to activate alarm
1400:../Shared/Libraries/STM32F4xx_StdPeriph_Driver/src/stm32f4xx_rtc.c ****   * @retval None
1401:../Shared/Libraries/STM32F4xx_StdPeriph_Driver/src/stm32f4xx_rtc.c ****   */
1402:../Shared/Libraries/STM32F4xx_StdPeriph_Driver/src/stm32f4xx_rtc.c **** void RTC_AlarmSubSecondConfig(uint32_t RTC_Alarm, uint32_t RTC_AlarmSubSecondValue, uint32_t RTC_Al
1403:../Shared/Libraries/STM32F4xx_StdPeriph_Driver/src/stm32f4xx_rtc.c **** {
 2441              		.loc 1 1403 1
 2442              		.cfi_startproc
 2443              		@ args = 0, pretend = 0, frame = 24
 2444              		@ frame_needed = 1, uses_anonymous_args = 0
 2445              		@ link register save eliminated.
 2446 0000 80B4     		push	{r7}
 2447              	.LCFI109:
 2448              		.cfi_def_cfa_offset 4
 2449              		.cfi_offset 7, -4
 2450 0002 87B0     		sub	sp, sp, #28
 2451              	.LCFI110:
 2452              		.cfi_def_cfa_offset 32
 2453 0004 00AF     		add	r7, sp, #0
 2454              	.LCFI111:
 2455              		.cfi_def_cfa_register 7
 2456 0006 F860     		str	r0, [r7, #12]
 2457 0008 B960     		str	r1, [r7, #8]
 2458 000a 7A60     		str	r2, [r7, #4]
1404:../Shared/Libraries/STM32F4xx_StdPeriph_Driver/src/stm32f4xx_rtc.c ****   uint32_t tmpreg = 0;
 2459              		.loc 1 1404 12
 2460 000c 0023     		movs	r3, #0
 2461 000e 7B61     		str	r3, [r7, #20]
1405:../Shared/Libraries/STM32F4xx_StdPeriph_Driver/src/stm32f4xx_rtc.c **** 
1406:../Shared/Libraries/STM32F4xx_StdPeriph_Driver/src/stm32f4xx_rtc.c ****   /* Check the parameters */
1407:../Shared/Libraries/STM32F4xx_StdPeriph_Driver/src/stm32f4xx_rtc.c ****   assert_param(IS_RTC_ALARM(RTC_Alarm));
1408:../Shared/Libraries/STM32F4xx_StdPeriph_Driver/src/stm32f4xx_rtc.c ****   assert_param(IS_RTC_ALARM_SUB_SECOND_VALUE(RTC_AlarmSubSecondValue));
1409:../Shared/Libraries/STM32F4xx_StdPeriph_Driver/src/stm32f4xx_rtc.c ****   assert_param(IS_RTC_ALARM_SUB_SECOND_MASK(RTC_AlarmSubSecondMask));
1410:../Shared/Libraries/STM32F4xx_StdPeriph_Driver/src/stm32f4xx_rtc.c ****   
1411:../Shared/Libraries/STM32F4xx_StdPeriph_Driver/src/stm32f4xx_rtc.c ****   /* Disable the write protection for RTC registers */
1412:../Shared/Libraries/STM32F4xx_StdPeriph_Driver/src/stm32f4xx_rtc.c ****   RTC->WPR = 0xCA;
 2462              		.loc 1 1412 6
 2463 0010 0E4B     		ldr	r3, .L131
 2464              		.loc 1 1412 12
 2465 0012 CA22     		movs	r2, #202
 2466 0014 5A62     		str	r2, [r3, #36]
1413:../Shared/Libraries/STM32F4xx_StdPeriph_Driver/src/stm32f4xx_rtc.c ****   RTC->WPR = 0x53;
 2467              		.loc 1 1413 6
 2468 0016 0D4B     		ldr	r3, .L131
 2469              		.loc 1 1413 12
 2470 0018 5322     		movs	r2, #83
 2471 001a 5A62     		str	r2, [r3, #36]
1414:../Shared/Libraries/STM32F4xx_StdPeriph_Driver/src/stm32f4xx_rtc.c ****   
1415:../Shared/Libraries/STM32F4xx_StdPeriph_Driver/src/stm32f4xx_rtc.c ****   /* Configure the Alarm A or Alarm B SubSecond registers */
1416:../Shared/Libraries/STM32F4xx_StdPeriph_Driver/src/stm32f4xx_rtc.c ****   tmpreg = (uint32_t) (uint32_t)(RTC_AlarmSubSecondValue) | (uint32_t)(RTC_AlarmSubSecondMask);
 2472              		.loc 1 1416 10
 2473 001c BA68     		ldr	r2, [r7, #8]
ARM GAS  /tmp/cctIRrNQ.s 			page 69


 2474 001e 7B68     		ldr	r3, [r7, #4]
 2475 0020 1343     		orrs	r3, r3, r2
 2476 0022 7B61     		str	r3, [r7, #20]
1417:../Shared/Libraries/STM32F4xx_StdPeriph_Driver/src/stm32f4xx_rtc.c ****   
1418:../Shared/Libraries/STM32F4xx_StdPeriph_Driver/src/stm32f4xx_rtc.c ****   if (RTC_Alarm == RTC_Alarm_A)
 2477              		.loc 1 1418 6
 2478 0024 FB68     		ldr	r3, [r7, #12]
 2479 0026 B3F5807F 		cmp	r3, #256
 2480 002a 03D1     		bne	.L129
1419:../Shared/Libraries/STM32F4xx_StdPeriph_Driver/src/stm32f4xx_rtc.c ****   {
1420:../Shared/Libraries/STM32F4xx_StdPeriph_Driver/src/stm32f4xx_rtc.c ****     /* Configure the AlarmA SubSecond register */
1421:../Shared/Libraries/STM32F4xx_StdPeriph_Driver/src/stm32f4xx_rtc.c ****     RTC->ALRMASSR = tmpreg;
 2481              		.loc 1 1421 8
 2482 002c 074A     		ldr	r2, .L131
 2483              		.loc 1 1421 19
 2484 002e 7B69     		ldr	r3, [r7, #20]
 2485 0030 5364     		str	r3, [r2, #68]
 2486 0032 02E0     		b	.L130
 2487              	.L129:
1422:../Shared/Libraries/STM32F4xx_StdPeriph_Driver/src/stm32f4xx_rtc.c ****   }
1423:../Shared/Libraries/STM32F4xx_StdPeriph_Driver/src/stm32f4xx_rtc.c ****   else
1424:../Shared/Libraries/STM32F4xx_StdPeriph_Driver/src/stm32f4xx_rtc.c ****   {
1425:../Shared/Libraries/STM32F4xx_StdPeriph_Driver/src/stm32f4xx_rtc.c ****     /* Configure the Alarm B SubSecond register */
1426:../Shared/Libraries/STM32F4xx_StdPeriph_Driver/src/stm32f4xx_rtc.c ****     RTC->ALRMBSSR = tmpreg;
 2488              		.loc 1 1426 8
 2489 0034 054A     		ldr	r2, .L131
 2490              		.loc 1 1426 19
 2491 0036 7B69     		ldr	r3, [r7, #20]
 2492 0038 9364     		str	r3, [r2, #72]
 2493              	.L130:
1427:../Shared/Libraries/STM32F4xx_StdPeriph_Driver/src/stm32f4xx_rtc.c ****   }
1428:../Shared/Libraries/STM32F4xx_StdPeriph_Driver/src/stm32f4xx_rtc.c **** 
1429:../Shared/Libraries/STM32F4xx_StdPeriph_Driver/src/stm32f4xx_rtc.c ****   /* Enable the write protection for RTC registers */
1430:../Shared/Libraries/STM32F4xx_StdPeriph_Driver/src/stm32f4xx_rtc.c ****   RTC->WPR = 0xFF;
 2494              		.loc 1 1430 6
 2495 003a 044B     		ldr	r3, .L131
 2496              		.loc 1 1430 12
 2497 003c FF22     		movs	r2, #255
 2498 003e 5A62     		str	r2, [r3, #36]
1431:../Shared/Libraries/STM32F4xx_StdPeriph_Driver/src/stm32f4xx_rtc.c **** 
1432:../Shared/Libraries/STM32F4xx_StdPeriph_Driver/src/stm32f4xx_rtc.c **** }
 2499              		.loc 1 1432 1
 2500 0040 00BF     		nop
 2501 0042 1C37     		adds	r7, r7, #28
 2502              	.LCFI112:
 2503              		.cfi_def_cfa_offset 4
 2504 0044 BD46     		mov	sp, r7
 2505              	.LCFI113:
 2506              		.cfi_def_cfa_register 13
 2507              		@ sp needed
 2508 0046 5DF8047B 		ldr	r7, [sp], #4
 2509              	.LCFI114:
 2510              		.cfi_restore 7
 2511              		.cfi_def_cfa_offset 0
 2512 004a 7047     		bx	lr
 2513              	.L132:
 2514              		.align	2
ARM GAS  /tmp/cctIRrNQ.s 			page 70


 2515              	.L131:
 2516 004c 00280040 		.word	1073752064
 2517              		.cfi_endproc
 2518              	.LFE130:
 2520              		.section	.text.RTC_GetAlarmSubSecond,"ax",%progbits
 2521              		.align	1
 2522              		.global	RTC_GetAlarmSubSecond
 2523              		.syntax unified
 2524              		.thumb
 2525              		.thumb_func
 2527              	RTC_GetAlarmSubSecond:
 2528              	.LFB131:
1433:../Shared/Libraries/STM32F4xx_StdPeriph_Driver/src/stm32f4xx_rtc.c **** 
1434:../Shared/Libraries/STM32F4xx_StdPeriph_Driver/src/stm32f4xx_rtc.c **** /**
1435:../Shared/Libraries/STM32F4xx_StdPeriph_Driver/src/stm32f4xx_rtc.c ****   * @brief  Gets the RTC Alarm Subseconds value.
1436:../Shared/Libraries/STM32F4xx_StdPeriph_Driver/src/stm32f4xx_rtc.c ****   * @param  RTC_Alarm: specifies the alarm to be read.
1437:../Shared/Libraries/STM32F4xx_StdPeriph_Driver/src/stm32f4xx_rtc.c ****   *   This parameter can be one of the following values:
1438:../Shared/Libraries/STM32F4xx_StdPeriph_Driver/src/stm32f4xx_rtc.c ****   *     @arg RTC_Alarm_A: to select Alarm A
1439:../Shared/Libraries/STM32F4xx_StdPeriph_Driver/src/stm32f4xx_rtc.c ****   *     @arg RTC_Alarm_B: to select Alarm B
1440:../Shared/Libraries/STM32F4xx_StdPeriph_Driver/src/stm32f4xx_rtc.c ****   * @param  None
1441:../Shared/Libraries/STM32F4xx_StdPeriph_Driver/src/stm32f4xx_rtc.c ****   * @retval RTC Alarm Subseconds value.
1442:../Shared/Libraries/STM32F4xx_StdPeriph_Driver/src/stm32f4xx_rtc.c ****   */
1443:../Shared/Libraries/STM32F4xx_StdPeriph_Driver/src/stm32f4xx_rtc.c **** uint32_t RTC_GetAlarmSubSecond(uint32_t RTC_Alarm)
1444:../Shared/Libraries/STM32F4xx_StdPeriph_Driver/src/stm32f4xx_rtc.c **** {
 2529              		.loc 1 1444 1
 2530              		.cfi_startproc
 2531              		@ args = 0, pretend = 0, frame = 16
 2532              		@ frame_needed = 1, uses_anonymous_args = 0
 2533              		@ link register save eliminated.
 2534 0000 80B4     		push	{r7}
 2535              	.LCFI115:
 2536              		.cfi_def_cfa_offset 4
 2537              		.cfi_offset 7, -4
 2538 0002 85B0     		sub	sp, sp, #20
 2539              	.LCFI116:
 2540              		.cfi_def_cfa_offset 24
 2541 0004 00AF     		add	r7, sp, #0
 2542              	.LCFI117:
 2543              		.cfi_def_cfa_register 7
 2544 0006 7860     		str	r0, [r7, #4]
1445:../Shared/Libraries/STM32F4xx_StdPeriph_Driver/src/stm32f4xx_rtc.c ****   uint32_t tmpreg = 0;
 2545              		.loc 1 1445 12
 2546 0008 0023     		movs	r3, #0
 2547 000a FB60     		str	r3, [r7, #12]
1446:../Shared/Libraries/STM32F4xx_StdPeriph_Driver/src/stm32f4xx_rtc.c ****   
1447:../Shared/Libraries/STM32F4xx_StdPeriph_Driver/src/stm32f4xx_rtc.c ****   /* Get the RTC_ALRMxR register */
1448:../Shared/Libraries/STM32F4xx_StdPeriph_Driver/src/stm32f4xx_rtc.c ****   if (RTC_Alarm == RTC_Alarm_A)
 2548              		.loc 1 1448 6
 2549 000c 7B68     		ldr	r3, [r7, #4]
 2550 000e B3F5807F 		cmp	r3, #256
 2551 0012 05D1     		bne	.L134
1449:../Shared/Libraries/STM32F4xx_StdPeriph_Driver/src/stm32f4xx_rtc.c ****   {
1450:../Shared/Libraries/STM32F4xx_StdPeriph_Driver/src/stm32f4xx_rtc.c ****     tmpreg = (uint32_t)((RTC->ALRMASSR) & RTC_ALRMASSR_SS);
 2552              		.loc 1 1450 29
 2553 0014 084B     		ldr	r3, .L137
 2554 0016 5B6C     		ldr	r3, [r3, #68]
 2555              		.loc 1 1450 12
ARM GAS  /tmp/cctIRrNQ.s 			page 71


 2556 0018 C3F30E03 		ubfx	r3, r3, #0, #15
 2557 001c FB60     		str	r3, [r7, #12]
 2558 001e 04E0     		b	.L135
 2559              	.L134:
1451:../Shared/Libraries/STM32F4xx_StdPeriph_Driver/src/stm32f4xx_rtc.c ****   }
1452:../Shared/Libraries/STM32F4xx_StdPeriph_Driver/src/stm32f4xx_rtc.c ****   else
1453:../Shared/Libraries/STM32F4xx_StdPeriph_Driver/src/stm32f4xx_rtc.c ****   {
1454:../Shared/Libraries/STM32F4xx_StdPeriph_Driver/src/stm32f4xx_rtc.c ****     tmpreg = (uint32_t)((RTC->ALRMBSSR) & RTC_ALRMBSSR_SS);
 2560              		.loc 1 1454 29
 2561 0020 054B     		ldr	r3, .L137
 2562 0022 9B6C     		ldr	r3, [r3, #72]
 2563              		.loc 1 1454 12
 2564 0024 C3F30E03 		ubfx	r3, r3, #0, #15
 2565 0028 FB60     		str	r3, [r7, #12]
 2566              	.L135:
1455:../Shared/Libraries/STM32F4xx_StdPeriph_Driver/src/stm32f4xx_rtc.c ****   } 
1456:../Shared/Libraries/STM32F4xx_StdPeriph_Driver/src/stm32f4xx_rtc.c ****   
1457:../Shared/Libraries/STM32F4xx_StdPeriph_Driver/src/stm32f4xx_rtc.c ****   return (tmpreg);
 2567              		.loc 1 1457 10
 2568 002a FB68     		ldr	r3, [r7, #12]
1458:../Shared/Libraries/STM32F4xx_StdPeriph_Driver/src/stm32f4xx_rtc.c **** }
 2569              		.loc 1 1458 1
 2570 002c 1846     		mov	r0, r3
 2571 002e 1437     		adds	r7, r7, #20
 2572              	.LCFI118:
 2573              		.cfi_def_cfa_offset 4
 2574 0030 BD46     		mov	sp, r7
 2575              	.LCFI119:
 2576              		.cfi_def_cfa_register 13
 2577              		@ sp needed
 2578 0032 5DF8047B 		ldr	r7, [sp], #4
 2579              	.LCFI120:
 2580              		.cfi_restore 7
 2581              		.cfi_def_cfa_offset 0
 2582 0036 7047     		bx	lr
 2583              	.L138:
 2584              		.align	2
 2585              	.L137:
 2586 0038 00280040 		.word	1073752064
 2587              		.cfi_endproc
 2588              	.LFE131:
 2590              		.section	.text.RTC_WakeUpClockConfig,"ax",%progbits
 2591              		.align	1
 2592              		.global	RTC_WakeUpClockConfig
 2593              		.syntax unified
 2594              		.thumb
 2595              		.thumb_func
 2597              	RTC_WakeUpClockConfig:
 2598              	.LFB132:
1459:../Shared/Libraries/STM32F4xx_StdPeriph_Driver/src/stm32f4xx_rtc.c **** 
1460:../Shared/Libraries/STM32F4xx_StdPeriph_Driver/src/stm32f4xx_rtc.c **** /**
1461:../Shared/Libraries/STM32F4xx_StdPeriph_Driver/src/stm32f4xx_rtc.c ****   * @}
1462:../Shared/Libraries/STM32F4xx_StdPeriph_Driver/src/stm32f4xx_rtc.c ****   */
1463:../Shared/Libraries/STM32F4xx_StdPeriph_Driver/src/stm32f4xx_rtc.c **** 
1464:../Shared/Libraries/STM32F4xx_StdPeriph_Driver/src/stm32f4xx_rtc.c **** /** @defgroup RTC_Group4 WakeUp Timer configuration functions
1465:../Shared/Libraries/STM32F4xx_StdPeriph_Driver/src/stm32f4xx_rtc.c ****  *  @brief   WakeUp Timer configuration functions 
1466:../Shared/Libraries/STM32F4xx_StdPeriph_Driver/src/stm32f4xx_rtc.c ****  *
ARM GAS  /tmp/cctIRrNQ.s 			page 72


1467:../Shared/Libraries/STM32F4xx_StdPeriph_Driver/src/stm32f4xx_rtc.c **** @verbatim   
1468:../Shared/Libraries/STM32F4xx_StdPeriph_Driver/src/stm32f4xx_rtc.c ****  ===============================================================================
1469:../Shared/Libraries/STM32F4xx_StdPeriph_Driver/src/stm32f4xx_rtc.c ****                      WakeUp Timer configuration functions
1470:../Shared/Libraries/STM32F4xx_StdPeriph_Driver/src/stm32f4xx_rtc.c ****  ===============================================================================  
1471:../Shared/Libraries/STM32F4xx_StdPeriph_Driver/src/stm32f4xx_rtc.c **** 
1472:../Shared/Libraries/STM32F4xx_StdPeriph_Driver/src/stm32f4xx_rtc.c ****   This section provide functions allowing to program and read the RTC WakeUp.
1473:../Shared/Libraries/STM32F4xx_StdPeriph_Driver/src/stm32f4xx_rtc.c **** 
1474:../Shared/Libraries/STM32F4xx_StdPeriph_Driver/src/stm32f4xx_rtc.c **** @endverbatim
1475:../Shared/Libraries/STM32F4xx_StdPeriph_Driver/src/stm32f4xx_rtc.c ****   * @{
1476:../Shared/Libraries/STM32F4xx_StdPeriph_Driver/src/stm32f4xx_rtc.c ****   */
1477:../Shared/Libraries/STM32F4xx_StdPeriph_Driver/src/stm32f4xx_rtc.c **** 
1478:../Shared/Libraries/STM32F4xx_StdPeriph_Driver/src/stm32f4xx_rtc.c **** /**
1479:../Shared/Libraries/STM32F4xx_StdPeriph_Driver/src/stm32f4xx_rtc.c ****   * @brief  Configures the RTC Wakeup clock source.
1480:../Shared/Libraries/STM32F4xx_StdPeriph_Driver/src/stm32f4xx_rtc.c ****   * @note   The WakeUp Clock source can only be changed when the RTC WakeUp
1481:../Shared/Libraries/STM32F4xx_StdPeriph_Driver/src/stm32f4xx_rtc.c ****   *         is disabled (Use the RTC_WakeUpCmd(DISABLE)).      
1482:../Shared/Libraries/STM32F4xx_StdPeriph_Driver/src/stm32f4xx_rtc.c ****   * @param  RTC_WakeUpClock: Wakeup Clock source.
1483:../Shared/Libraries/STM32F4xx_StdPeriph_Driver/src/stm32f4xx_rtc.c ****   *          This parameter can be one of the following values:
1484:../Shared/Libraries/STM32F4xx_StdPeriph_Driver/src/stm32f4xx_rtc.c ****   *            @arg RTC_WakeUpClock_RTCCLK_Div16: RTC Wakeup Counter Clock = RTCCLK/16
1485:../Shared/Libraries/STM32F4xx_StdPeriph_Driver/src/stm32f4xx_rtc.c ****   *            @arg RTC_WakeUpClock_RTCCLK_Div8: RTC Wakeup Counter Clock = RTCCLK/8
1486:../Shared/Libraries/STM32F4xx_StdPeriph_Driver/src/stm32f4xx_rtc.c ****   *            @arg RTC_WakeUpClock_RTCCLK_Div4: RTC Wakeup Counter Clock = RTCCLK/4
1487:../Shared/Libraries/STM32F4xx_StdPeriph_Driver/src/stm32f4xx_rtc.c ****   *            @arg RTC_WakeUpClock_RTCCLK_Div2: RTC Wakeup Counter Clock = RTCCLK/2
1488:../Shared/Libraries/STM32F4xx_StdPeriph_Driver/src/stm32f4xx_rtc.c ****   *            @arg RTC_WakeUpClock_CK_SPRE_16bits: RTC Wakeup Counter Clock = CK_SPRE
1489:../Shared/Libraries/STM32F4xx_StdPeriph_Driver/src/stm32f4xx_rtc.c ****   *            @arg RTC_WakeUpClock_CK_SPRE_17bits: RTC Wakeup Counter Clock = CK_SPRE
1490:../Shared/Libraries/STM32F4xx_StdPeriph_Driver/src/stm32f4xx_rtc.c ****   * @retval None
1491:../Shared/Libraries/STM32F4xx_StdPeriph_Driver/src/stm32f4xx_rtc.c ****   */
1492:../Shared/Libraries/STM32F4xx_StdPeriph_Driver/src/stm32f4xx_rtc.c **** void RTC_WakeUpClockConfig(uint32_t RTC_WakeUpClock)
1493:../Shared/Libraries/STM32F4xx_StdPeriph_Driver/src/stm32f4xx_rtc.c **** {
 2599              		.loc 1 1493 1
 2600              		.cfi_startproc
 2601              		@ args = 0, pretend = 0, frame = 8
 2602              		@ frame_needed = 1, uses_anonymous_args = 0
 2603              		@ link register save eliminated.
 2604 0000 80B4     		push	{r7}
 2605              	.LCFI121:
 2606              		.cfi_def_cfa_offset 4
 2607              		.cfi_offset 7, -4
 2608 0002 83B0     		sub	sp, sp, #12
 2609              	.LCFI122:
 2610              		.cfi_def_cfa_offset 16
 2611 0004 00AF     		add	r7, sp, #0
 2612              	.LCFI123:
 2613              		.cfi_def_cfa_register 7
 2614 0006 7860     		str	r0, [r7, #4]
1494:../Shared/Libraries/STM32F4xx_StdPeriph_Driver/src/stm32f4xx_rtc.c ****   /* Check the parameters */
1495:../Shared/Libraries/STM32F4xx_StdPeriph_Driver/src/stm32f4xx_rtc.c ****   assert_param(IS_RTC_WAKEUP_CLOCK(RTC_WakeUpClock));
1496:../Shared/Libraries/STM32F4xx_StdPeriph_Driver/src/stm32f4xx_rtc.c **** 
1497:../Shared/Libraries/STM32F4xx_StdPeriph_Driver/src/stm32f4xx_rtc.c ****   /* Disable the write protection for RTC registers */
1498:../Shared/Libraries/STM32F4xx_StdPeriph_Driver/src/stm32f4xx_rtc.c ****   RTC->WPR = 0xCA;
 2615              		.loc 1 1498 6
 2616 0008 0D4B     		ldr	r3, .L140
 2617              		.loc 1 1498 12
 2618 000a CA22     		movs	r2, #202
 2619 000c 5A62     		str	r2, [r3, #36]
1499:../Shared/Libraries/STM32F4xx_StdPeriph_Driver/src/stm32f4xx_rtc.c ****   RTC->WPR = 0x53;
 2620              		.loc 1 1499 6
 2621 000e 0C4B     		ldr	r3, .L140
 2622              		.loc 1 1499 12
ARM GAS  /tmp/cctIRrNQ.s 			page 73


 2623 0010 5322     		movs	r2, #83
 2624 0012 5A62     		str	r2, [r3, #36]
1500:../Shared/Libraries/STM32F4xx_StdPeriph_Driver/src/stm32f4xx_rtc.c **** 
1501:../Shared/Libraries/STM32F4xx_StdPeriph_Driver/src/stm32f4xx_rtc.c ****   /* Clear the Wakeup Timer clock source bits in CR register */
1502:../Shared/Libraries/STM32F4xx_StdPeriph_Driver/src/stm32f4xx_rtc.c ****   RTC->CR &= (uint32_t)~RTC_CR_WUCKSEL;
 2625              		.loc 1 1502 6
 2626 0014 0A4B     		ldr	r3, .L140
 2627 0016 9B68     		ldr	r3, [r3, #8]
 2628 0018 094A     		ldr	r2, .L140
 2629              		.loc 1 1502 11
 2630 001a 23F00703 		bic	r3, r3, #7
 2631 001e 9360     		str	r3, [r2, #8]
1503:../Shared/Libraries/STM32F4xx_StdPeriph_Driver/src/stm32f4xx_rtc.c **** 
1504:../Shared/Libraries/STM32F4xx_StdPeriph_Driver/src/stm32f4xx_rtc.c ****   /* Configure the clock source */
1505:../Shared/Libraries/STM32F4xx_StdPeriph_Driver/src/stm32f4xx_rtc.c ****   RTC->CR |= (uint32_t)RTC_WakeUpClock;
 2632              		.loc 1 1505 6
 2633 0020 074B     		ldr	r3, .L140
 2634 0022 9A68     		ldr	r2, [r3, #8]
 2635 0024 0649     		ldr	r1, .L140
 2636              		.loc 1 1505 11
 2637 0026 7B68     		ldr	r3, [r7, #4]
 2638 0028 1343     		orrs	r3, r3, r2
 2639 002a 8B60     		str	r3, [r1, #8]
1506:../Shared/Libraries/STM32F4xx_StdPeriph_Driver/src/stm32f4xx_rtc.c ****   
1507:../Shared/Libraries/STM32F4xx_StdPeriph_Driver/src/stm32f4xx_rtc.c ****   /* Enable the write protection for RTC registers */
1508:../Shared/Libraries/STM32F4xx_StdPeriph_Driver/src/stm32f4xx_rtc.c ****   RTC->WPR = 0xFF; 
 2640              		.loc 1 1508 6
 2641 002c 044B     		ldr	r3, .L140
 2642              		.loc 1 1508 12
 2643 002e FF22     		movs	r2, #255
 2644 0030 5A62     		str	r2, [r3, #36]
1509:../Shared/Libraries/STM32F4xx_StdPeriph_Driver/src/stm32f4xx_rtc.c **** }
 2645              		.loc 1 1509 1
 2646 0032 00BF     		nop
 2647 0034 0C37     		adds	r7, r7, #12
 2648              	.LCFI124:
 2649              		.cfi_def_cfa_offset 4
 2650 0036 BD46     		mov	sp, r7
 2651              	.LCFI125:
 2652              		.cfi_def_cfa_register 13
 2653              		@ sp needed
 2654 0038 5DF8047B 		ldr	r7, [sp], #4
 2655              	.LCFI126:
 2656              		.cfi_restore 7
 2657              		.cfi_def_cfa_offset 0
 2658 003c 7047     		bx	lr
 2659              	.L141:
 2660 003e 00BF     		.align	2
 2661              	.L140:
 2662 0040 00280040 		.word	1073752064
 2663              		.cfi_endproc
 2664              	.LFE132:
 2666              		.section	.text.RTC_SetWakeUpCounter,"ax",%progbits
 2667              		.align	1
 2668              		.global	RTC_SetWakeUpCounter
 2669              		.syntax unified
 2670              		.thumb
ARM GAS  /tmp/cctIRrNQ.s 			page 74


 2671              		.thumb_func
 2673              	RTC_SetWakeUpCounter:
 2674              	.LFB133:
1510:../Shared/Libraries/STM32F4xx_StdPeriph_Driver/src/stm32f4xx_rtc.c **** 
1511:../Shared/Libraries/STM32F4xx_StdPeriph_Driver/src/stm32f4xx_rtc.c **** /**
1512:../Shared/Libraries/STM32F4xx_StdPeriph_Driver/src/stm32f4xx_rtc.c ****   * @brief  Configures the RTC Wakeup counter.
1513:../Shared/Libraries/STM32F4xx_StdPeriph_Driver/src/stm32f4xx_rtc.c ****   * @note   The RTC WakeUp counter can only be written when the RTC WakeUp
1514:../Shared/Libraries/STM32F4xx_StdPeriph_Driver/src/stm32f4xx_rtc.c ****   *         is disabled (Use the RTC_WakeUpCmd(DISABLE)).        
1515:../Shared/Libraries/STM32F4xx_StdPeriph_Driver/src/stm32f4xx_rtc.c ****   * @param  RTC_WakeUpCounter: specifies the WakeUp counter.
1516:../Shared/Libraries/STM32F4xx_StdPeriph_Driver/src/stm32f4xx_rtc.c ****   *          This parameter can be a value from 0x0000 to 0xFFFF. 
1517:../Shared/Libraries/STM32F4xx_StdPeriph_Driver/src/stm32f4xx_rtc.c ****   * @retval None
1518:../Shared/Libraries/STM32F4xx_StdPeriph_Driver/src/stm32f4xx_rtc.c ****   */
1519:../Shared/Libraries/STM32F4xx_StdPeriph_Driver/src/stm32f4xx_rtc.c **** void RTC_SetWakeUpCounter(uint32_t RTC_WakeUpCounter)
1520:../Shared/Libraries/STM32F4xx_StdPeriph_Driver/src/stm32f4xx_rtc.c **** {
 2675              		.loc 1 1520 1
 2676              		.cfi_startproc
 2677              		@ args = 0, pretend = 0, frame = 8
 2678              		@ frame_needed = 1, uses_anonymous_args = 0
 2679              		@ link register save eliminated.
 2680 0000 80B4     		push	{r7}
 2681              	.LCFI127:
 2682              		.cfi_def_cfa_offset 4
 2683              		.cfi_offset 7, -4
 2684 0002 83B0     		sub	sp, sp, #12
 2685              	.LCFI128:
 2686              		.cfi_def_cfa_offset 16
 2687 0004 00AF     		add	r7, sp, #0
 2688              	.LCFI129:
 2689              		.cfi_def_cfa_register 7
 2690 0006 7860     		str	r0, [r7, #4]
1521:../Shared/Libraries/STM32F4xx_StdPeriph_Driver/src/stm32f4xx_rtc.c ****   /* Check the parameters */
1522:../Shared/Libraries/STM32F4xx_StdPeriph_Driver/src/stm32f4xx_rtc.c ****   assert_param(IS_RTC_WAKEUP_COUNTER(RTC_WakeUpCounter));
1523:../Shared/Libraries/STM32F4xx_StdPeriph_Driver/src/stm32f4xx_rtc.c ****   
1524:../Shared/Libraries/STM32F4xx_StdPeriph_Driver/src/stm32f4xx_rtc.c ****   /* Disable the write protection for RTC registers */
1525:../Shared/Libraries/STM32F4xx_StdPeriph_Driver/src/stm32f4xx_rtc.c ****   RTC->WPR = 0xCA;
 2691              		.loc 1 1525 6
 2692 0008 084B     		ldr	r3, .L143
 2693              		.loc 1 1525 12
 2694 000a CA22     		movs	r2, #202
 2695 000c 5A62     		str	r2, [r3, #36]
1526:../Shared/Libraries/STM32F4xx_StdPeriph_Driver/src/stm32f4xx_rtc.c ****   RTC->WPR = 0x53;
 2696              		.loc 1 1526 6
 2697 000e 074B     		ldr	r3, .L143
 2698              		.loc 1 1526 12
 2699 0010 5322     		movs	r2, #83
 2700 0012 5A62     		str	r2, [r3, #36]
1527:../Shared/Libraries/STM32F4xx_StdPeriph_Driver/src/stm32f4xx_rtc.c ****   
1528:../Shared/Libraries/STM32F4xx_StdPeriph_Driver/src/stm32f4xx_rtc.c ****   /* Configure the Wakeup Timer counter */
1529:../Shared/Libraries/STM32F4xx_StdPeriph_Driver/src/stm32f4xx_rtc.c ****   RTC->WUTR = (uint32_t)RTC_WakeUpCounter;
 2701              		.loc 1 1529 6
 2702 0014 054A     		ldr	r2, .L143
 2703              		.loc 1 1529 13
 2704 0016 7B68     		ldr	r3, [r7, #4]
 2705 0018 5361     		str	r3, [r2, #20]
1530:../Shared/Libraries/STM32F4xx_StdPeriph_Driver/src/stm32f4xx_rtc.c ****   
1531:../Shared/Libraries/STM32F4xx_StdPeriph_Driver/src/stm32f4xx_rtc.c ****   /* Enable the write protection for RTC registers */
1532:../Shared/Libraries/STM32F4xx_StdPeriph_Driver/src/stm32f4xx_rtc.c ****   RTC->WPR = 0xFF; 
ARM GAS  /tmp/cctIRrNQ.s 			page 75


 2706              		.loc 1 1532 6
 2707 001a 044B     		ldr	r3, .L143
 2708              		.loc 1 1532 12
 2709 001c FF22     		movs	r2, #255
 2710 001e 5A62     		str	r2, [r3, #36]
1533:../Shared/Libraries/STM32F4xx_StdPeriph_Driver/src/stm32f4xx_rtc.c **** }
 2711              		.loc 1 1533 1
 2712 0020 00BF     		nop
 2713 0022 0C37     		adds	r7, r7, #12
 2714              	.LCFI130:
 2715              		.cfi_def_cfa_offset 4
 2716 0024 BD46     		mov	sp, r7
 2717              	.LCFI131:
 2718              		.cfi_def_cfa_register 13
 2719              		@ sp needed
 2720 0026 5DF8047B 		ldr	r7, [sp], #4
 2721              	.LCFI132:
 2722              		.cfi_restore 7
 2723              		.cfi_def_cfa_offset 0
 2724 002a 7047     		bx	lr
 2725              	.L144:
 2726              		.align	2
 2727              	.L143:
 2728 002c 00280040 		.word	1073752064
 2729              		.cfi_endproc
 2730              	.LFE133:
 2732              		.section	.text.RTC_GetWakeUpCounter,"ax",%progbits
 2733              		.align	1
 2734              		.global	RTC_GetWakeUpCounter
 2735              		.syntax unified
 2736              		.thumb
 2737              		.thumb_func
 2739              	RTC_GetWakeUpCounter:
 2740              	.LFB134:
1534:../Shared/Libraries/STM32F4xx_StdPeriph_Driver/src/stm32f4xx_rtc.c **** 
1535:../Shared/Libraries/STM32F4xx_StdPeriph_Driver/src/stm32f4xx_rtc.c **** /**
1536:../Shared/Libraries/STM32F4xx_StdPeriph_Driver/src/stm32f4xx_rtc.c ****   * @brief  Returns the RTC WakeUp timer counter value.
1537:../Shared/Libraries/STM32F4xx_StdPeriph_Driver/src/stm32f4xx_rtc.c ****   * @param  None
1538:../Shared/Libraries/STM32F4xx_StdPeriph_Driver/src/stm32f4xx_rtc.c ****   * @retval The RTC WakeUp Counter value.
1539:../Shared/Libraries/STM32F4xx_StdPeriph_Driver/src/stm32f4xx_rtc.c ****   */
1540:../Shared/Libraries/STM32F4xx_StdPeriph_Driver/src/stm32f4xx_rtc.c **** uint32_t RTC_GetWakeUpCounter(void)
1541:../Shared/Libraries/STM32F4xx_StdPeriph_Driver/src/stm32f4xx_rtc.c **** {
 2741              		.loc 1 1541 1
 2742              		.cfi_startproc
 2743              		@ args = 0, pretend = 0, frame = 0
 2744              		@ frame_needed = 1, uses_anonymous_args = 0
 2745              		@ link register save eliminated.
 2746 0000 80B4     		push	{r7}
 2747              	.LCFI133:
 2748              		.cfi_def_cfa_offset 4
 2749              		.cfi_offset 7, -4
 2750 0002 00AF     		add	r7, sp, #0
 2751              	.LCFI134:
 2752              		.cfi_def_cfa_register 7
1542:../Shared/Libraries/STM32F4xx_StdPeriph_Driver/src/stm32f4xx_rtc.c ****   /* Get the counter value */
1543:../Shared/Libraries/STM32F4xx_StdPeriph_Driver/src/stm32f4xx_rtc.c ****   return ((uint32_t)(RTC->WUTR & RTC_WUTR_WUT));
 2753              		.loc 1 1543 25
ARM GAS  /tmp/cctIRrNQ.s 			page 76


 2754 0004 034B     		ldr	r3, .L147
 2755 0006 5B69     		ldr	r3, [r3, #20]
 2756              		.loc 1 1543 11
 2757 0008 9BB2     		uxth	r3, r3
1544:../Shared/Libraries/STM32F4xx_StdPeriph_Driver/src/stm32f4xx_rtc.c **** }
 2758              		.loc 1 1544 1
 2759 000a 1846     		mov	r0, r3
 2760 000c BD46     		mov	sp, r7
 2761              	.LCFI135:
 2762              		.cfi_def_cfa_register 13
 2763              		@ sp needed
 2764 000e 5DF8047B 		ldr	r7, [sp], #4
 2765              	.LCFI136:
 2766              		.cfi_restore 7
 2767              		.cfi_def_cfa_offset 0
 2768 0012 7047     		bx	lr
 2769              	.L148:
 2770              		.align	2
 2771              	.L147:
 2772 0014 00280040 		.word	1073752064
 2773              		.cfi_endproc
 2774              	.LFE134:
 2776              		.section	.text.RTC_WakeUpCmd,"ax",%progbits
 2777              		.align	1
 2778              		.global	RTC_WakeUpCmd
 2779              		.syntax unified
 2780              		.thumb
 2781              		.thumb_func
 2783              	RTC_WakeUpCmd:
 2784              	.LFB135:
1545:../Shared/Libraries/STM32F4xx_StdPeriph_Driver/src/stm32f4xx_rtc.c **** 
1546:../Shared/Libraries/STM32F4xx_StdPeriph_Driver/src/stm32f4xx_rtc.c **** /**
1547:../Shared/Libraries/STM32F4xx_StdPeriph_Driver/src/stm32f4xx_rtc.c ****   * @brief  Enables or Disables the RTC WakeUp timer.
1548:../Shared/Libraries/STM32F4xx_StdPeriph_Driver/src/stm32f4xx_rtc.c ****   * @param  NewState: new state of the WakeUp timer.
1549:../Shared/Libraries/STM32F4xx_StdPeriph_Driver/src/stm32f4xx_rtc.c ****   *          This parameter can be: ENABLE or DISABLE.
1550:../Shared/Libraries/STM32F4xx_StdPeriph_Driver/src/stm32f4xx_rtc.c ****   * @retval None
1551:../Shared/Libraries/STM32F4xx_StdPeriph_Driver/src/stm32f4xx_rtc.c ****   */
1552:../Shared/Libraries/STM32F4xx_StdPeriph_Driver/src/stm32f4xx_rtc.c **** ErrorStatus RTC_WakeUpCmd(FunctionalState NewState)
1553:../Shared/Libraries/STM32F4xx_StdPeriph_Driver/src/stm32f4xx_rtc.c **** {
 2785              		.loc 1 1553 1
 2786              		.cfi_startproc
 2787              		@ args = 0, pretend = 0, frame = 24
 2788              		@ frame_needed = 1, uses_anonymous_args = 0
 2789              		@ link register save eliminated.
 2790 0000 80B4     		push	{r7}
 2791              	.LCFI137:
 2792              		.cfi_def_cfa_offset 4
 2793              		.cfi_offset 7, -4
 2794 0002 87B0     		sub	sp, sp, #28
 2795              	.LCFI138:
 2796              		.cfi_def_cfa_offset 32
 2797 0004 00AF     		add	r7, sp, #0
 2798              	.LCFI139:
 2799              		.cfi_def_cfa_register 7
 2800 0006 0346     		mov	r3, r0
 2801 0008 FB71     		strb	r3, [r7, #7]
1554:../Shared/Libraries/STM32F4xx_StdPeriph_Driver/src/stm32f4xx_rtc.c ****   __IO uint32_t wutcounter = 0x00;
ARM GAS  /tmp/cctIRrNQ.s 			page 77


 2802              		.loc 1 1554 17
 2803 000a 0023     		movs	r3, #0
 2804 000c FB60     		str	r3, [r7, #12]
1555:../Shared/Libraries/STM32F4xx_StdPeriph_Driver/src/stm32f4xx_rtc.c ****   uint32_t wutwfstatus = 0x00;
 2805              		.loc 1 1555 12
 2806 000e 0023     		movs	r3, #0
 2807 0010 3B61     		str	r3, [r7, #16]
1556:../Shared/Libraries/STM32F4xx_StdPeriph_Driver/src/stm32f4xx_rtc.c ****   ErrorStatus status = ERROR;
 2808              		.loc 1 1556 15
 2809 0012 0023     		movs	r3, #0
 2810 0014 FB75     		strb	r3, [r7, #23]
1557:../Shared/Libraries/STM32F4xx_StdPeriph_Driver/src/stm32f4xx_rtc.c ****   
1558:../Shared/Libraries/STM32F4xx_StdPeriph_Driver/src/stm32f4xx_rtc.c ****   /* Check the parameters */
1559:../Shared/Libraries/STM32F4xx_StdPeriph_Driver/src/stm32f4xx_rtc.c ****   assert_param(IS_FUNCTIONAL_STATE(NewState));
1560:../Shared/Libraries/STM32F4xx_StdPeriph_Driver/src/stm32f4xx_rtc.c **** 
1561:../Shared/Libraries/STM32F4xx_StdPeriph_Driver/src/stm32f4xx_rtc.c ****   /* Disable the write protection for RTC registers */
1562:../Shared/Libraries/STM32F4xx_StdPeriph_Driver/src/stm32f4xx_rtc.c ****   RTC->WPR = 0xCA;
 2811              		.loc 1 1562 6
 2812 0016 1E4B     		ldr	r3, .L156
 2813              		.loc 1 1562 12
 2814 0018 CA22     		movs	r2, #202
 2815 001a 5A62     		str	r2, [r3, #36]
1563:../Shared/Libraries/STM32F4xx_StdPeriph_Driver/src/stm32f4xx_rtc.c ****   RTC->WPR = 0x53;
 2816              		.loc 1 1563 6
 2817 001c 1C4B     		ldr	r3, .L156
 2818              		.loc 1 1563 12
 2819 001e 5322     		movs	r2, #83
 2820 0020 5A62     		str	r2, [r3, #36]
1564:../Shared/Libraries/STM32F4xx_StdPeriph_Driver/src/stm32f4xx_rtc.c **** 
1565:../Shared/Libraries/STM32F4xx_StdPeriph_Driver/src/stm32f4xx_rtc.c ****   if (NewState != DISABLE)
 2821              		.loc 1 1565 6
 2822 0022 FB79     		ldrb	r3, [r7, #7]	@ zero_extendqisi2
 2823 0024 002B     		cmp	r3, #0
 2824 0026 08D0     		beq	.L150
1566:../Shared/Libraries/STM32F4xx_StdPeriph_Driver/src/stm32f4xx_rtc.c ****   {
1567:../Shared/Libraries/STM32F4xx_StdPeriph_Driver/src/stm32f4xx_rtc.c ****     /* Enable the Wakeup Timer */
1568:../Shared/Libraries/STM32F4xx_StdPeriph_Driver/src/stm32f4xx_rtc.c ****     RTC->CR |= (uint32_t)RTC_CR_WUTE;
 2825              		.loc 1 1568 8
 2826 0028 194B     		ldr	r3, .L156
 2827 002a 9B68     		ldr	r3, [r3, #8]
 2828 002c 184A     		ldr	r2, .L156
 2829              		.loc 1 1568 13
 2830 002e 43F48063 		orr	r3, r3, #1024
 2831 0032 9360     		str	r3, [r2, #8]
1569:../Shared/Libraries/STM32F4xx_StdPeriph_Driver/src/stm32f4xx_rtc.c ****     status = SUCCESS;    
 2832              		.loc 1 1569 12
 2833 0034 0123     		movs	r3, #1
 2834 0036 FB75     		strb	r3, [r7, #23]
 2835 0038 1FE0     		b	.L151
 2836              	.L150:
1570:../Shared/Libraries/STM32F4xx_StdPeriph_Driver/src/stm32f4xx_rtc.c ****   }
1571:../Shared/Libraries/STM32F4xx_StdPeriph_Driver/src/stm32f4xx_rtc.c ****   else
1572:../Shared/Libraries/STM32F4xx_StdPeriph_Driver/src/stm32f4xx_rtc.c ****   {
1573:../Shared/Libraries/STM32F4xx_StdPeriph_Driver/src/stm32f4xx_rtc.c ****     /* Disable the Wakeup Timer */
1574:../Shared/Libraries/STM32F4xx_StdPeriph_Driver/src/stm32f4xx_rtc.c ****     RTC->CR &= (uint32_t)~RTC_CR_WUTE;
 2837              		.loc 1 1574 8
 2838 003a 154B     		ldr	r3, .L156
ARM GAS  /tmp/cctIRrNQ.s 			page 78


 2839 003c 9B68     		ldr	r3, [r3, #8]
 2840 003e 144A     		ldr	r2, .L156
 2841              		.loc 1 1574 13
 2842 0040 23F48063 		bic	r3, r3, #1024
 2843 0044 9360     		str	r3, [r2, #8]
 2844              	.L153:
1575:../Shared/Libraries/STM32F4xx_StdPeriph_Driver/src/stm32f4xx_rtc.c ****     /* Wait till RTC WUTWF flag is set and if Time out is reached exit */
1576:../Shared/Libraries/STM32F4xx_StdPeriph_Driver/src/stm32f4xx_rtc.c ****     do
1577:../Shared/Libraries/STM32F4xx_StdPeriph_Driver/src/stm32f4xx_rtc.c ****     {
1578:../Shared/Libraries/STM32F4xx_StdPeriph_Driver/src/stm32f4xx_rtc.c ****       wutwfstatus = RTC->ISR & RTC_ISR_WUTWF;
 2845              		.loc 1 1578 24
 2846 0046 124B     		ldr	r3, .L156
 2847 0048 DB68     		ldr	r3, [r3, #12]
 2848              		.loc 1 1578 19
 2849 004a 03F00403 		and	r3, r3, #4
 2850 004e 3B61     		str	r3, [r7, #16]
1579:../Shared/Libraries/STM32F4xx_StdPeriph_Driver/src/stm32f4xx_rtc.c ****       wutcounter++;  
 2851              		.loc 1 1579 17
 2852 0050 FB68     		ldr	r3, [r7, #12]
 2853 0052 0133     		adds	r3, r3, #1
 2854 0054 FB60     		str	r3, [r7, #12]
1580:../Shared/Libraries/STM32F4xx_StdPeriph_Driver/src/stm32f4xx_rtc.c ****     } while((wutcounter != INITMODE_TIMEOUT) && (wutwfstatus == 0x00));
 2855              		.loc 1 1580 25 discriminator 2
 2856 0056 FB68     		ldr	r3, [r7, #12]
 2857              		.loc 1 1580 46 discriminator 2
 2858 0058 B3F5803F 		cmp	r3, #65536
 2859 005c 02D0     		beq	.L152
 2860              		.loc 1 1580 46 is_stmt 0 discriminator 1
 2861 005e 3B69     		ldr	r3, [r7, #16]
 2862 0060 002B     		cmp	r3, #0
 2863 0062 F0D0     		beq	.L153
 2864              	.L152:
1581:../Shared/Libraries/STM32F4xx_StdPeriph_Driver/src/stm32f4xx_rtc.c ****     
1582:../Shared/Libraries/STM32F4xx_StdPeriph_Driver/src/stm32f4xx_rtc.c ****     if ((RTC->ISR & RTC_ISR_WUTWF) == RESET)
 2865              		.loc 1 1582 13 is_stmt 1
 2866 0064 0A4B     		ldr	r3, .L156
 2867 0066 DB68     		ldr	r3, [r3, #12]
 2868              		.loc 1 1582 19
 2869 0068 03F00403 		and	r3, r3, #4
 2870              		.loc 1 1582 8
 2871 006c 002B     		cmp	r3, #0
 2872 006e 02D1     		bne	.L154
1583:../Shared/Libraries/STM32F4xx_StdPeriph_Driver/src/stm32f4xx_rtc.c ****     {
1584:../Shared/Libraries/STM32F4xx_StdPeriph_Driver/src/stm32f4xx_rtc.c ****       status = ERROR;
 2873              		.loc 1 1584 14
 2874 0070 0023     		movs	r3, #0
 2875 0072 FB75     		strb	r3, [r7, #23]
 2876 0074 01E0     		b	.L151
 2877              	.L154:
1585:../Shared/Libraries/STM32F4xx_StdPeriph_Driver/src/stm32f4xx_rtc.c ****     }
1586:../Shared/Libraries/STM32F4xx_StdPeriph_Driver/src/stm32f4xx_rtc.c ****     else
1587:../Shared/Libraries/STM32F4xx_StdPeriph_Driver/src/stm32f4xx_rtc.c ****     {
1588:../Shared/Libraries/STM32F4xx_StdPeriph_Driver/src/stm32f4xx_rtc.c ****       status = SUCCESS;
 2878              		.loc 1 1588 14
 2879 0076 0123     		movs	r3, #1
 2880 0078 FB75     		strb	r3, [r7, #23]
 2881              	.L151:
ARM GAS  /tmp/cctIRrNQ.s 			page 79


1589:../Shared/Libraries/STM32F4xx_StdPeriph_Driver/src/stm32f4xx_rtc.c ****     }    
1590:../Shared/Libraries/STM32F4xx_StdPeriph_Driver/src/stm32f4xx_rtc.c ****   }
1591:../Shared/Libraries/STM32F4xx_StdPeriph_Driver/src/stm32f4xx_rtc.c **** 
1592:../Shared/Libraries/STM32F4xx_StdPeriph_Driver/src/stm32f4xx_rtc.c ****   /* Enable the write protection for RTC registers */
1593:../Shared/Libraries/STM32F4xx_StdPeriph_Driver/src/stm32f4xx_rtc.c ****   RTC->WPR = 0xFF; 
 2882              		.loc 1 1593 6
 2883 007a 054B     		ldr	r3, .L156
 2884              		.loc 1 1593 12
 2885 007c FF22     		movs	r2, #255
 2886 007e 5A62     		str	r2, [r3, #36]
1594:../Shared/Libraries/STM32F4xx_StdPeriph_Driver/src/stm32f4xx_rtc.c ****   
1595:../Shared/Libraries/STM32F4xx_StdPeriph_Driver/src/stm32f4xx_rtc.c ****   return status;
 2887              		.loc 1 1595 10
 2888 0080 FB7D     		ldrb	r3, [r7, #23]	@ zero_extendqisi2
1596:../Shared/Libraries/STM32F4xx_StdPeriph_Driver/src/stm32f4xx_rtc.c **** }
 2889              		.loc 1 1596 1
 2890 0082 1846     		mov	r0, r3
 2891 0084 1C37     		adds	r7, r7, #28
 2892              	.LCFI140:
 2893              		.cfi_def_cfa_offset 4
 2894 0086 BD46     		mov	sp, r7
 2895              	.LCFI141:
 2896              		.cfi_def_cfa_register 13
 2897              		@ sp needed
 2898 0088 5DF8047B 		ldr	r7, [sp], #4
 2899              	.LCFI142:
 2900              		.cfi_restore 7
 2901              		.cfi_def_cfa_offset 0
 2902 008c 7047     		bx	lr
 2903              	.L157:
 2904 008e 00BF     		.align	2
 2905              	.L156:
 2906 0090 00280040 		.word	1073752064
 2907              		.cfi_endproc
 2908              	.LFE135:
 2910              		.section	.text.RTC_DayLightSavingConfig,"ax",%progbits
 2911              		.align	1
 2912              		.global	RTC_DayLightSavingConfig
 2913              		.syntax unified
 2914              		.thumb
 2915              		.thumb_func
 2917              	RTC_DayLightSavingConfig:
 2918              	.LFB136:
1597:../Shared/Libraries/STM32F4xx_StdPeriph_Driver/src/stm32f4xx_rtc.c **** 
1598:../Shared/Libraries/STM32F4xx_StdPeriph_Driver/src/stm32f4xx_rtc.c **** /**
1599:../Shared/Libraries/STM32F4xx_StdPeriph_Driver/src/stm32f4xx_rtc.c ****   * @}
1600:../Shared/Libraries/STM32F4xx_StdPeriph_Driver/src/stm32f4xx_rtc.c ****   */
1601:../Shared/Libraries/STM32F4xx_StdPeriph_Driver/src/stm32f4xx_rtc.c **** 
1602:../Shared/Libraries/STM32F4xx_StdPeriph_Driver/src/stm32f4xx_rtc.c **** /** @defgroup RTC_Group5 Daylight Saving configuration functions
1603:../Shared/Libraries/STM32F4xx_StdPeriph_Driver/src/stm32f4xx_rtc.c ****  *  @brief   Daylight Saving configuration functions 
1604:../Shared/Libraries/STM32F4xx_StdPeriph_Driver/src/stm32f4xx_rtc.c ****  *
1605:../Shared/Libraries/STM32F4xx_StdPeriph_Driver/src/stm32f4xx_rtc.c **** @verbatim   
1606:../Shared/Libraries/STM32F4xx_StdPeriph_Driver/src/stm32f4xx_rtc.c ****  ===============================================================================
1607:../Shared/Libraries/STM32F4xx_StdPeriph_Driver/src/stm32f4xx_rtc.c ****                     Daylight Saving configuration functions
1608:../Shared/Libraries/STM32F4xx_StdPeriph_Driver/src/stm32f4xx_rtc.c ****  ===============================================================================  
1609:../Shared/Libraries/STM32F4xx_StdPeriph_Driver/src/stm32f4xx_rtc.c **** 
1610:../Shared/Libraries/STM32F4xx_StdPeriph_Driver/src/stm32f4xx_rtc.c ****   This section provide functions allowing to configure the RTC DayLight Saving.
ARM GAS  /tmp/cctIRrNQ.s 			page 80


1611:../Shared/Libraries/STM32F4xx_StdPeriph_Driver/src/stm32f4xx_rtc.c **** 
1612:../Shared/Libraries/STM32F4xx_StdPeriph_Driver/src/stm32f4xx_rtc.c **** @endverbatim
1613:../Shared/Libraries/STM32F4xx_StdPeriph_Driver/src/stm32f4xx_rtc.c ****   * @{
1614:../Shared/Libraries/STM32F4xx_StdPeriph_Driver/src/stm32f4xx_rtc.c ****   */
1615:../Shared/Libraries/STM32F4xx_StdPeriph_Driver/src/stm32f4xx_rtc.c **** 
1616:../Shared/Libraries/STM32F4xx_StdPeriph_Driver/src/stm32f4xx_rtc.c **** /**
1617:../Shared/Libraries/STM32F4xx_StdPeriph_Driver/src/stm32f4xx_rtc.c ****   * @brief  Adds or substract one hour from the current time.
1618:../Shared/Libraries/STM32F4xx_StdPeriph_Driver/src/stm32f4xx_rtc.c ****   * @param  RTC_DayLightSaveOperation: the value of hour adjustment. 
1619:../Shared/Libraries/STM32F4xx_StdPeriph_Driver/src/stm32f4xx_rtc.c ****   *          This parameter can be one of the following values:
1620:../Shared/Libraries/STM32F4xx_StdPeriph_Driver/src/stm32f4xx_rtc.c ****   *            @arg RTC_DayLightSaving_SUB1H: Substract one hour (winter time)
1621:../Shared/Libraries/STM32F4xx_StdPeriph_Driver/src/stm32f4xx_rtc.c ****   *            @arg RTC_DayLightSaving_ADD1H: Add one hour (summer time)
1622:../Shared/Libraries/STM32F4xx_StdPeriph_Driver/src/stm32f4xx_rtc.c ****   * @param  RTC_StoreOperation: Specifies the value to be written in the BCK bit 
1623:../Shared/Libraries/STM32F4xx_StdPeriph_Driver/src/stm32f4xx_rtc.c ****   *                            in CR register to store the operation.
1624:../Shared/Libraries/STM32F4xx_StdPeriph_Driver/src/stm32f4xx_rtc.c ****   *          This parameter can be one of the following values:
1625:../Shared/Libraries/STM32F4xx_StdPeriph_Driver/src/stm32f4xx_rtc.c ****   *            @arg RTC_StoreOperation_Reset: BCK Bit Reset
1626:../Shared/Libraries/STM32F4xx_StdPeriph_Driver/src/stm32f4xx_rtc.c ****   *            @arg RTC_StoreOperation_Set: BCK Bit Set
1627:../Shared/Libraries/STM32F4xx_StdPeriph_Driver/src/stm32f4xx_rtc.c ****   * @retval None
1628:../Shared/Libraries/STM32F4xx_StdPeriph_Driver/src/stm32f4xx_rtc.c ****   */
1629:../Shared/Libraries/STM32F4xx_StdPeriph_Driver/src/stm32f4xx_rtc.c **** void RTC_DayLightSavingConfig(uint32_t RTC_DayLightSaving, uint32_t RTC_StoreOperation)
1630:../Shared/Libraries/STM32F4xx_StdPeriph_Driver/src/stm32f4xx_rtc.c **** {
 2919              		.loc 1 1630 1
 2920              		.cfi_startproc
 2921              		@ args = 0, pretend = 0, frame = 8
 2922              		@ frame_needed = 1, uses_anonymous_args = 0
 2923              		@ link register save eliminated.
 2924 0000 80B4     		push	{r7}
 2925              	.LCFI143:
 2926              		.cfi_def_cfa_offset 4
 2927              		.cfi_offset 7, -4
 2928 0002 83B0     		sub	sp, sp, #12
 2929              	.LCFI144:
 2930              		.cfi_def_cfa_offset 16
 2931 0004 00AF     		add	r7, sp, #0
 2932              	.LCFI145:
 2933              		.cfi_def_cfa_register 7
 2934 0006 7860     		str	r0, [r7, #4]
 2935 0008 3960     		str	r1, [r7]
1631:../Shared/Libraries/STM32F4xx_StdPeriph_Driver/src/stm32f4xx_rtc.c ****   /* Check the parameters */
1632:../Shared/Libraries/STM32F4xx_StdPeriph_Driver/src/stm32f4xx_rtc.c ****   assert_param(IS_RTC_DAYLIGHT_SAVING(RTC_DayLightSaving));
1633:../Shared/Libraries/STM32F4xx_StdPeriph_Driver/src/stm32f4xx_rtc.c ****   assert_param(IS_RTC_STORE_OPERATION(RTC_StoreOperation));
1634:../Shared/Libraries/STM32F4xx_StdPeriph_Driver/src/stm32f4xx_rtc.c **** 
1635:../Shared/Libraries/STM32F4xx_StdPeriph_Driver/src/stm32f4xx_rtc.c ****   /* Disable the write protection for RTC registers */
1636:../Shared/Libraries/STM32F4xx_StdPeriph_Driver/src/stm32f4xx_rtc.c ****   RTC->WPR = 0xCA;
 2936              		.loc 1 1636 6
 2937 000a 0E4B     		ldr	r3, .L159
 2938              		.loc 1 1636 12
 2939 000c CA22     		movs	r2, #202
 2940 000e 5A62     		str	r2, [r3, #36]
1637:../Shared/Libraries/STM32F4xx_StdPeriph_Driver/src/stm32f4xx_rtc.c ****   RTC->WPR = 0x53;
 2941              		.loc 1 1637 6
 2942 0010 0C4B     		ldr	r3, .L159
 2943              		.loc 1 1637 12
 2944 0012 5322     		movs	r2, #83
 2945 0014 5A62     		str	r2, [r3, #36]
1638:../Shared/Libraries/STM32F4xx_StdPeriph_Driver/src/stm32f4xx_rtc.c **** 
1639:../Shared/Libraries/STM32F4xx_StdPeriph_Driver/src/stm32f4xx_rtc.c ****   /* Clear the bits to be configured */
1640:../Shared/Libraries/STM32F4xx_StdPeriph_Driver/src/stm32f4xx_rtc.c ****   RTC->CR &= (uint32_t)~(RTC_CR_BCK);
ARM GAS  /tmp/cctIRrNQ.s 			page 81


 2946              		.loc 1 1640 6
 2947 0016 0B4B     		ldr	r3, .L159
 2948 0018 9B68     		ldr	r3, [r3, #8]
 2949 001a 0A4A     		ldr	r2, .L159
 2950              		.loc 1 1640 11
 2951 001c 23F48023 		bic	r3, r3, #262144
 2952 0020 9360     		str	r3, [r2, #8]
1641:../Shared/Libraries/STM32F4xx_StdPeriph_Driver/src/stm32f4xx_rtc.c **** 
1642:../Shared/Libraries/STM32F4xx_StdPeriph_Driver/src/stm32f4xx_rtc.c ****   /* Configure the RTC_CR register */
1643:../Shared/Libraries/STM32F4xx_StdPeriph_Driver/src/stm32f4xx_rtc.c ****   RTC->CR |= (uint32_t)(RTC_DayLightSaving | RTC_StoreOperation);
 2953              		.loc 1 1643 6
 2954 0022 084B     		ldr	r3, .L159
 2955 0024 9A68     		ldr	r2, [r3, #8]
 2956              		.loc 1 1643 44
 2957 0026 7968     		ldr	r1, [r7, #4]
 2958 0028 3B68     		ldr	r3, [r7]
 2959 002a 0B43     		orrs	r3, r3, r1
 2960              		.loc 1 1643 6
 2961 002c 0549     		ldr	r1, .L159
 2962              		.loc 1 1643 11
 2963 002e 1343     		orrs	r3, r3, r2
 2964 0030 8B60     		str	r3, [r1, #8]
1644:../Shared/Libraries/STM32F4xx_StdPeriph_Driver/src/stm32f4xx_rtc.c **** 
1645:../Shared/Libraries/STM32F4xx_StdPeriph_Driver/src/stm32f4xx_rtc.c ****   /* Enable the write protection for RTC registers */
1646:../Shared/Libraries/STM32F4xx_StdPeriph_Driver/src/stm32f4xx_rtc.c ****   RTC->WPR = 0xFF; 
 2965              		.loc 1 1646 6
 2966 0032 044B     		ldr	r3, .L159
 2967              		.loc 1 1646 12
 2968 0034 FF22     		movs	r2, #255
 2969 0036 5A62     		str	r2, [r3, #36]
1647:../Shared/Libraries/STM32F4xx_StdPeriph_Driver/src/stm32f4xx_rtc.c **** }
 2970              		.loc 1 1647 1
 2971 0038 00BF     		nop
 2972 003a 0C37     		adds	r7, r7, #12
 2973              	.LCFI146:
 2974              		.cfi_def_cfa_offset 4
 2975 003c BD46     		mov	sp, r7
 2976              	.LCFI147:
 2977              		.cfi_def_cfa_register 13
 2978              		@ sp needed
 2979 003e 5DF8047B 		ldr	r7, [sp], #4
 2980              	.LCFI148:
 2981              		.cfi_restore 7
 2982              		.cfi_def_cfa_offset 0
 2983 0042 7047     		bx	lr
 2984              	.L160:
 2985              		.align	2
 2986              	.L159:
 2987 0044 00280040 		.word	1073752064
 2988              		.cfi_endproc
 2989              	.LFE136:
 2991              		.section	.text.RTC_GetStoreOperation,"ax",%progbits
 2992              		.align	1
 2993              		.global	RTC_GetStoreOperation
 2994              		.syntax unified
 2995              		.thumb
 2996              		.thumb_func
ARM GAS  /tmp/cctIRrNQ.s 			page 82


 2998              	RTC_GetStoreOperation:
 2999              	.LFB137:
1648:../Shared/Libraries/STM32F4xx_StdPeriph_Driver/src/stm32f4xx_rtc.c **** 
1649:../Shared/Libraries/STM32F4xx_StdPeriph_Driver/src/stm32f4xx_rtc.c **** /**
1650:../Shared/Libraries/STM32F4xx_StdPeriph_Driver/src/stm32f4xx_rtc.c ****   * @brief  Returns the RTC Day Light Saving stored operation.
1651:../Shared/Libraries/STM32F4xx_StdPeriph_Driver/src/stm32f4xx_rtc.c ****   * @param  None
1652:../Shared/Libraries/STM32F4xx_StdPeriph_Driver/src/stm32f4xx_rtc.c ****   * @retval RTC Day Light Saving stored operation.
1653:../Shared/Libraries/STM32F4xx_StdPeriph_Driver/src/stm32f4xx_rtc.c ****   *          - RTC_StoreOperation_Reset
1654:../Shared/Libraries/STM32F4xx_StdPeriph_Driver/src/stm32f4xx_rtc.c ****   *          - RTC_StoreOperation_Set       
1655:../Shared/Libraries/STM32F4xx_StdPeriph_Driver/src/stm32f4xx_rtc.c ****   */
1656:../Shared/Libraries/STM32F4xx_StdPeriph_Driver/src/stm32f4xx_rtc.c **** uint32_t RTC_GetStoreOperation(void)
1657:../Shared/Libraries/STM32F4xx_StdPeriph_Driver/src/stm32f4xx_rtc.c **** {
 3000              		.loc 1 1657 1
 3001              		.cfi_startproc
 3002              		@ args = 0, pretend = 0, frame = 0
 3003              		@ frame_needed = 1, uses_anonymous_args = 0
 3004              		@ link register save eliminated.
 3005 0000 80B4     		push	{r7}
 3006              	.LCFI149:
 3007              		.cfi_def_cfa_offset 4
 3008              		.cfi_offset 7, -4
 3009 0002 00AF     		add	r7, sp, #0
 3010              	.LCFI150:
 3011              		.cfi_def_cfa_register 7
1658:../Shared/Libraries/STM32F4xx_StdPeriph_Driver/src/stm32f4xx_rtc.c ****   return (RTC->CR & RTC_CR_BCK);
 3012              		.loc 1 1658 14
 3013 0004 044B     		ldr	r3, .L163
 3014 0006 9B68     		ldr	r3, [r3, #8]
 3015              		.loc 1 1658 19
 3016 0008 03F48023 		and	r3, r3, #262144
1659:../Shared/Libraries/STM32F4xx_StdPeriph_Driver/src/stm32f4xx_rtc.c **** }
 3017              		.loc 1 1659 1
 3018 000c 1846     		mov	r0, r3
 3019 000e BD46     		mov	sp, r7
 3020              	.LCFI151:
 3021              		.cfi_def_cfa_register 13
 3022              		@ sp needed
 3023 0010 5DF8047B 		ldr	r7, [sp], #4
 3024              	.LCFI152:
 3025              		.cfi_restore 7
 3026              		.cfi_def_cfa_offset 0
 3027 0014 7047     		bx	lr
 3028              	.L164:
 3029 0016 00BF     		.align	2
 3030              	.L163:
 3031 0018 00280040 		.word	1073752064
 3032              		.cfi_endproc
 3033              	.LFE137:
 3035              		.section	.text.RTC_OutputConfig,"ax",%progbits
 3036              		.align	1
 3037              		.global	RTC_OutputConfig
 3038              		.syntax unified
 3039              		.thumb
 3040              		.thumb_func
 3042              	RTC_OutputConfig:
 3043              	.LFB138:
1660:../Shared/Libraries/STM32F4xx_StdPeriph_Driver/src/stm32f4xx_rtc.c **** 
ARM GAS  /tmp/cctIRrNQ.s 			page 83


1661:../Shared/Libraries/STM32F4xx_StdPeriph_Driver/src/stm32f4xx_rtc.c **** /**
1662:../Shared/Libraries/STM32F4xx_StdPeriph_Driver/src/stm32f4xx_rtc.c ****   * @}
1663:../Shared/Libraries/STM32F4xx_StdPeriph_Driver/src/stm32f4xx_rtc.c ****   */
1664:../Shared/Libraries/STM32F4xx_StdPeriph_Driver/src/stm32f4xx_rtc.c **** 
1665:../Shared/Libraries/STM32F4xx_StdPeriph_Driver/src/stm32f4xx_rtc.c **** /** @defgroup RTC_Group6 Output pin Configuration function
1666:../Shared/Libraries/STM32F4xx_StdPeriph_Driver/src/stm32f4xx_rtc.c ****  *  @brief   Output pin Configuration function 
1667:../Shared/Libraries/STM32F4xx_StdPeriph_Driver/src/stm32f4xx_rtc.c ****  *
1668:../Shared/Libraries/STM32F4xx_StdPeriph_Driver/src/stm32f4xx_rtc.c **** @verbatim   
1669:../Shared/Libraries/STM32F4xx_StdPeriph_Driver/src/stm32f4xx_rtc.c ****  ===============================================================================
1670:../Shared/Libraries/STM32F4xx_StdPeriph_Driver/src/stm32f4xx_rtc.c ****                          Output pin Configuration function
1671:../Shared/Libraries/STM32F4xx_StdPeriph_Driver/src/stm32f4xx_rtc.c ****  ===============================================================================  
1672:../Shared/Libraries/STM32F4xx_StdPeriph_Driver/src/stm32f4xx_rtc.c **** 
1673:../Shared/Libraries/STM32F4xx_StdPeriph_Driver/src/stm32f4xx_rtc.c ****   This section provide functions allowing to configure the RTC Output source.
1674:../Shared/Libraries/STM32F4xx_StdPeriph_Driver/src/stm32f4xx_rtc.c **** 
1675:../Shared/Libraries/STM32F4xx_StdPeriph_Driver/src/stm32f4xx_rtc.c **** @endverbatim
1676:../Shared/Libraries/STM32F4xx_StdPeriph_Driver/src/stm32f4xx_rtc.c ****   * @{
1677:../Shared/Libraries/STM32F4xx_StdPeriph_Driver/src/stm32f4xx_rtc.c ****   */
1678:../Shared/Libraries/STM32F4xx_StdPeriph_Driver/src/stm32f4xx_rtc.c **** 
1679:../Shared/Libraries/STM32F4xx_StdPeriph_Driver/src/stm32f4xx_rtc.c **** /**
1680:../Shared/Libraries/STM32F4xx_StdPeriph_Driver/src/stm32f4xx_rtc.c ****   * @brief  Configures the RTC output source (AFO_ALARM).
1681:../Shared/Libraries/STM32F4xx_StdPeriph_Driver/src/stm32f4xx_rtc.c ****   * @param  RTC_Output: Specifies which signal will be routed to the RTC output. 
1682:../Shared/Libraries/STM32F4xx_StdPeriph_Driver/src/stm32f4xx_rtc.c ****   *          This parameter can be one of the following values:
1683:../Shared/Libraries/STM32F4xx_StdPeriph_Driver/src/stm32f4xx_rtc.c ****   *            @arg RTC_Output_Disable: No output selected
1684:../Shared/Libraries/STM32F4xx_StdPeriph_Driver/src/stm32f4xx_rtc.c ****   *            @arg RTC_Output_AlarmA: signal of AlarmA mapped to output
1685:../Shared/Libraries/STM32F4xx_StdPeriph_Driver/src/stm32f4xx_rtc.c ****   *            @arg RTC_Output_AlarmB: signal of AlarmB mapped to output
1686:../Shared/Libraries/STM32F4xx_StdPeriph_Driver/src/stm32f4xx_rtc.c ****   *            @arg RTC_Output_WakeUp: signal of WakeUp mapped to output
1687:../Shared/Libraries/STM32F4xx_StdPeriph_Driver/src/stm32f4xx_rtc.c ****   * @param  RTC_OutputPolarity: Specifies the polarity of the output signal. 
1688:../Shared/Libraries/STM32F4xx_StdPeriph_Driver/src/stm32f4xx_rtc.c ****   *          This parameter can be one of the following:
1689:../Shared/Libraries/STM32F4xx_StdPeriph_Driver/src/stm32f4xx_rtc.c ****   *            @arg RTC_OutputPolarity_High: The output pin is high when the 
1690:../Shared/Libraries/STM32F4xx_StdPeriph_Driver/src/stm32f4xx_rtc.c ****   *                                 ALRAF/ALRBF/WUTF is high (depending on OSEL)
1691:../Shared/Libraries/STM32F4xx_StdPeriph_Driver/src/stm32f4xx_rtc.c ****   *            @arg RTC_OutputPolarity_Low: The output pin is low when the 
1692:../Shared/Libraries/STM32F4xx_StdPeriph_Driver/src/stm32f4xx_rtc.c ****   *                                 ALRAF/ALRBF/WUTF is high (depending on OSEL)
1693:../Shared/Libraries/STM32F4xx_StdPeriph_Driver/src/stm32f4xx_rtc.c ****   * @retval None
1694:../Shared/Libraries/STM32F4xx_StdPeriph_Driver/src/stm32f4xx_rtc.c ****   */
1695:../Shared/Libraries/STM32F4xx_StdPeriph_Driver/src/stm32f4xx_rtc.c **** void RTC_OutputConfig(uint32_t RTC_Output, uint32_t RTC_OutputPolarity)
1696:../Shared/Libraries/STM32F4xx_StdPeriph_Driver/src/stm32f4xx_rtc.c **** {
 3044              		.loc 1 1696 1
 3045              		.cfi_startproc
 3046              		@ args = 0, pretend = 0, frame = 8
 3047              		@ frame_needed = 1, uses_anonymous_args = 0
 3048              		@ link register save eliminated.
 3049 0000 80B4     		push	{r7}
 3050              	.LCFI153:
 3051              		.cfi_def_cfa_offset 4
 3052              		.cfi_offset 7, -4
 3053 0002 83B0     		sub	sp, sp, #12
 3054              	.LCFI154:
 3055              		.cfi_def_cfa_offset 16
 3056 0004 00AF     		add	r7, sp, #0
 3057              	.LCFI155:
 3058              		.cfi_def_cfa_register 7
 3059 0006 7860     		str	r0, [r7, #4]
 3060 0008 3960     		str	r1, [r7]
1697:../Shared/Libraries/STM32F4xx_StdPeriph_Driver/src/stm32f4xx_rtc.c ****   /* Check the parameters */
1698:../Shared/Libraries/STM32F4xx_StdPeriph_Driver/src/stm32f4xx_rtc.c ****   assert_param(IS_RTC_OUTPUT(RTC_Output));
1699:../Shared/Libraries/STM32F4xx_StdPeriph_Driver/src/stm32f4xx_rtc.c ****   assert_param(IS_RTC_OUTPUT_POL(RTC_OutputPolarity));
1700:../Shared/Libraries/STM32F4xx_StdPeriph_Driver/src/stm32f4xx_rtc.c **** 
ARM GAS  /tmp/cctIRrNQ.s 			page 84


1701:../Shared/Libraries/STM32F4xx_StdPeriph_Driver/src/stm32f4xx_rtc.c ****   /* Disable the write protection for RTC registers */
1702:../Shared/Libraries/STM32F4xx_StdPeriph_Driver/src/stm32f4xx_rtc.c ****   RTC->WPR = 0xCA;
 3061              		.loc 1 1702 6
 3062 000a 0E4B     		ldr	r3, .L166
 3063              		.loc 1 1702 12
 3064 000c CA22     		movs	r2, #202
 3065 000e 5A62     		str	r2, [r3, #36]
1703:../Shared/Libraries/STM32F4xx_StdPeriph_Driver/src/stm32f4xx_rtc.c ****   RTC->WPR = 0x53;
 3066              		.loc 1 1703 6
 3067 0010 0C4B     		ldr	r3, .L166
 3068              		.loc 1 1703 12
 3069 0012 5322     		movs	r2, #83
 3070 0014 5A62     		str	r2, [r3, #36]
1704:../Shared/Libraries/STM32F4xx_StdPeriph_Driver/src/stm32f4xx_rtc.c **** 
1705:../Shared/Libraries/STM32F4xx_StdPeriph_Driver/src/stm32f4xx_rtc.c ****   /* Clear the bits to be configured */
1706:../Shared/Libraries/STM32F4xx_StdPeriph_Driver/src/stm32f4xx_rtc.c ****   RTC->CR &= (uint32_t)~(RTC_CR_OSEL | RTC_CR_POL);
 3071              		.loc 1 1706 6
 3072 0016 0B4B     		ldr	r3, .L166
 3073 0018 9B68     		ldr	r3, [r3, #8]
 3074 001a 0A4A     		ldr	r2, .L166
 3075              		.loc 1 1706 11
 3076 001c 23F4E003 		bic	r3, r3, #7340032
 3077 0020 9360     		str	r3, [r2, #8]
1707:../Shared/Libraries/STM32F4xx_StdPeriph_Driver/src/stm32f4xx_rtc.c **** 
1708:../Shared/Libraries/STM32F4xx_StdPeriph_Driver/src/stm32f4xx_rtc.c ****   /* Configure the output selection and polarity */
1709:../Shared/Libraries/STM32F4xx_StdPeriph_Driver/src/stm32f4xx_rtc.c ****   RTC->CR |= (uint32_t)(RTC_Output | RTC_OutputPolarity);
 3078              		.loc 1 1709 6
 3079 0022 084B     		ldr	r3, .L166
 3080 0024 9A68     		ldr	r2, [r3, #8]
 3081              		.loc 1 1709 36
 3082 0026 7968     		ldr	r1, [r7, #4]
 3083 0028 3B68     		ldr	r3, [r7]
 3084 002a 0B43     		orrs	r3, r3, r1
 3085              		.loc 1 1709 6
 3086 002c 0549     		ldr	r1, .L166
 3087              		.loc 1 1709 11
 3088 002e 1343     		orrs	r3, r3, r2
 3089 0030 8B60     		str	r3, [r1, #8]
1710:../Shared/Libraries/STM32F4xx_StdPeriph_Driver/src/stm32f4xx_rtc.c **** 
1711:../Shared/Libraries/STM32F4xx_StdPeriph_Driver/src/stm32f4xx_rtc.c ****   /* Enable the write protection for RTC registers */
1712:../Shared/Libraries/STM32F4xx_StdPeriph_Driver/src/stm32f4xx_rtc.c ****   RTC->WPR = 0xFF; 
 3090              		.loc 1 1712 6
 3091 0032 044B     		ldr	r3, .L166
 3092              		.loc 1 1712 12
 3093 0034 FF22     		movs	r2, #255
 3094 0036 5A62     		str	r2, [r3, #36]
1713:../Shared/Libraries/STM32F4xx_StdPeriph_Driver/src/stm32f4xx_rtc.c **** }
 3095              		.loc 1 1713 1
 3096 0038 00BF     		nop
 3097 003a 0C37     		adds	r7, r7, #12
 3098              	.LCFI156:
 3099              		.cfi_def_cfa_offset 4
 3100 003c BD46     		mov	sp, r7
 3101              	.LCFI157:
 3102              		.cfi_def_cfa_register 13
 3103              		@ sp needed
 3104 003e 5DF8047B 		ldr	r7, [sp], #4
ARM GAS  /tmp/cctIRrNQ.s 			page 85


 3105              	.LCFI158:
 3106              		.cfi_restore 7
 3107              		.cfi_def_cfa_offset 0
 3108 0042 7047     		bx	lr
 3109              	.L167:
 3110              		.align	2
 3111              	.L166:
 3112 0044 00280040 		.word	1073752064
 3113              		.cfi_endproc
 3114              	.LFE138:
 3116              		.section	.text.RTC_CoarseCalibConfig,"ax",%progbits
 3117              		.align	1
 3118              		.global	RTC_CoarseCalibConfig
 3119              		.syntax unified
 3120              		.thumb
 3121              		.thumb_func
 3123              	RTC_CoarseCalibConfig:
 3124              	.LFB139:
1714:../Shared/Libraries/STM32F4xx_StdPeriph_Driver/src/stm32f4xx_rtc.c **** 
1715:../Shared/Libraries/STM32F4xx_StdPeriph_Driver/src/stm32f4xx_rtc.c **** /**
1716:../Shared/Libraries/STM32F4xx_StdPeriph_Driver/src/stm32f4xx_rtc.c ****   * @}
1717:../Shared/Libraries/STM32F4xx_StdPeriph_Driver/src/stm32f4xx_rtc.c ****   */
1718:../Shared/Libraries/STM32F4xx_StdPeriph_Driver/src/stm32f4xx_rtc.c **** 
1719:../Shared/Libraries/STM32F4xx_StdPeriph_Driver/src/stm32f4xx_rtc.c **** /** @defgroup RTC_Group7 Digital Calibration configuration functions
1720:../Shared/Libraries/STM32F4xx_StdPeriph_Driver/src/stm32f4xx_rtc.c ****  *  @brief   Coarse Calibration configuration functions 
1721:../Shared/Libraries/STM32F4xx_StdPeriph_Driver/src/stm32f4xx_rtc.c ****  *
1722:../Shared/Libraries/STM32F4xx_StdPeriph_Driver/src/stm32f4xx_rtc.c **** @verbatim   
1723:../Shared/Libraries/STM32F4xx_StdPeriph_Driver/src/stm32f4xx_rtc.c ****  ===============================================================================
1724:../Shared/Libraries/STM32F4xx_StdPeriph_Driver/src/stm32f4xx_rtc.c ****                   Digital Calibration configuration functions
1725:../Shared/Libraries/STM32F4xx_StdPeriph_Driver/src/stm32f4xx_rtc.c ****  ===============================================================================  
1726:../Shared/Libraries/STM32F4xx_StdPeriph_Driver/src/stm32f4xx_rtc.c **** 
1727:../Shared/Libraries/STM32F4xx_StdPeriph_Driver/src/stm32f4xx_rtc.c **** @endverbatim
1728:../Shared/Libraries/STM32F4xx_StdPeriph_Driver/src/stm32f4xx_rtc.c ****   * @{
1729:../Shared/Libraries/STM32F4xx_StdPeriph_Driver/src/stm32f4xx_rtc.c ****   */
1730:../Shared/Libraries/STM32F4xx_StdPeriph_Driver/src/stm32f4xx_rtc.c **** 
1731:../Shared/Libraries/STM32F4xx_StdPeriph_Driver/src/stm32f4xx_rtc.c **** /**
1732:../Shared/Libraries/STM32F4xx_StdPeriph_Driver/src/stm32f4xx_rtc.c ****   * @brief  Configures the Coarse calibration parameters.
1733:../Shared/Libraries/STM32F4xx_StdPeriph_Driver/src/stm32f4xx_rtc.c ****   * @param  RTC_CalibSign: specifies the sign of the coarse calibration value.
1734:../Shared/Libraries/STM32F4xx_StdPeriph_Driver/src/stm32f4xx_rtc.c ****   *          This parameter can be  one of the following values:
1735:../Shared/Libraries/STM32F4xx_StdPeriph_Driver/src/stm32f4xx_rtc.c ****   *            @arg RTC_CalibSign_Positive: The value sign is positive 
1736:../Shared/Libraries/STM32F4xx_StdPeriph_Driver/src/stm32f4xx_rtc.c ****   *            @arg RTC_CalibSign_Negative: The value sign is negative
1737:../Shared/Libraries/STM32F4xx_StdPeriph_Driver/src/stm32f4xx_rtc.c ****   * @param  Value: value of coarse calibration expressed in ppm (coded on 5 bits).
1738:../Shared/Libraries/STM32F4xx_StdPeriph_Driver/src/stm32f4xx_rtc.c ****   *    
1739:../Shared/Libraries/STM32F4xx_StdPeriph_Driver/src/stm32f4xx_rtc.c ****   * @note   This Calibration value should be between 0 and 63 when using negative
1740:../Shared/Libraries/STM32F4xx_StdPeriph_Driver/src/stm32f4xx_rtc.c ****   *         sign with a 2-ppm step.
1741:../Shared/Libraries/STM32F4xx_StdPeriph_Driver/src/stm32f4xx_rtc.c ****   *           
1742:../Shared/Libraries/STM32F4xx_StdPeriph_Driver/src/stm32f4xx_rtc.c ****   * @note   This Calibration value should be between 0 and 126 when using positive
1743:../Shared/Libraries/STM32F4xx_StdPeriph_Driver/src/stm32f4xx_rtc.c ****   *         sign with a 4-ppm step.
1744:../Shared/Libraries/STM32F4xx_StdPeriph_Driver/src/stm32f4xx_rtc.c ****   *           
1745:../Shared/Libraries/STM32F4xx_StdPeriph_Driver/src/stm32f4xx_rtc.c ****   * @retval An ErrorStatus enumeration value:
1746:../Shared/Libraries/STM32F4xx_StdPeriph_Driver/src/stm32f4xx_rtc.c ****   *          - SUCCESS: RTC Coarse calibration are initialized
1747:../Shared/Libraries/STM32F4xx_StdPeriph_Driver/src/stm32f4xx_rtc.c ****   *          - ERROR: RTC Coarse calibration are not initialized     
1748:../Shared/Libraries/STM32F4xx_StdPeriph_Driver/src/stm32f4xx_rtc.c ****   */
1749:../Shared/Libraries/STM32F4xx_StdPeriph_Driver/src/stm32f4xx_rtc.c **** ErrorStatus RTC_CoarseCalibConfig(uint32_t RTC_CalibSign, uint32_t Value)
1750:../Shared/Libraries/STM32F4xx_StdPeriph_Driver/src/stm32f4xx_rtc.c **** {
 3125              		.loc 1 1750 1
 3126              		.cfi_startproc
ARM GAS  /tmp/cctIRrNQ.s 			page 86


 3127              		@ args = 0, pretend = 0, frame = 16
 3128              		@ frame_needed = 1, uses_anonymous_args = 0
 3129 0000 80B5     		push	{r7, lr}
 3130              	.LCFI159:
 3131              		.cfi_def_cfa_offset 8
 3132              		.cfi_offset 7, -8
 3133              		.cfi_offset 14, -4
 3134 0002 84B0     		sub	sp, sp, #16
 3135              	.LCFI160:
 3136              		.cfi_def_cfa_offset 24
 3137 0004 00AF     		add	r7, sp, #0
 3138              	.LCFI161:
 3139              		.cfi_def_cfa_register 7
 3140 0006 7860     		str	r0, [r7, #4]
 3141 0008 3960     		str	r1, [r7]
1751:../Shared/Libraries/STM32F4xx_StdPeriph_Driver/src/stm32f4xx_rtc.c ****   ErrorStatus status = ERROR;
 3142              		.loc 1 1751 15
 3143 000a 0023     		movs	r3, #0
 3144 000c FB73     		strb	r3, [r7, #15]
1752:../Shared/Libraries/STM32F4xx_StdPeriph_Driver/src/stm32f4xx_rtc.c ****    
1753:../Shared/Libraries/STM32F4xx_StdPeriph_Driver/src/stm32f4xx_rtc.c ****   /* Check the parameters */
1754:../Shared/Libraries/STM32F4xx_StdPeriph_Driver/src/stm32f4xx_rtc.c ****   assert_param(IS_RTC_CALIB_SIGN(RTC_CalibSign));
1755:../Shared/Libraries/STM32F4xx_StdPeriph_Driver/src/stm32f4xx_rtc.c ****   assert_param(IS_RTC_CALIB_VALUE(Value)); 
1756:../Shared/Libraries/STM32F4xx_StdPeriph_Driver/src/stm32f4xx_rtc.c **** 
1757:../Shared/Libraries/STM32F4xx_StdPeriph_Driver/src/stm32f4xx_rtc.c ****   /* Disable the write protection for RTC registers */
1758:../Shared/Libraries/STM32F4xx_StdPeriph_Driver/src/stm32f4xx_rtc.c ****   RTC->WPR = 0xCA;
 3145              		.loc 1 1758 6
 3146 000e 0F4B     		ldr	r3, .L172
 3147              		.loc 1 1758 12
 3148 0010 CA22     		movs	r2, #202
 3149 0012 5A62     		str	r2, [r3, #36]
1759:../Shared/Libraries/STM32F4xx_StdPeriph_Driver/src/stm32f4xx_rtc.c ****   RTC->WPR = 0x53;
 3150              		.loc 1 1759 6
 3151 0014 0D4B     		ldr	r3, .L172
 3152              		.loc 1 1759 12
 3153 0016 5322     		movs	r2, #83
 3154 0018 5A62     		str	r2, [r3, #36]
1760:../Shared/Libraries/STM32F4xx_StdPeriph_Driver/src/stm32f4xx_rtc.c **** 
1761:../Shared/Libraries/STM32F4xx_StdPeriph_Driver/src/stm32f4xx_rtc.c ****   /* Set Initialization mode */
1762:../Shared/Libraries/STM32F4xx_StdPeriph_Driver/src/stm32f4xx_rtc.c ****   if (RTC_EnterInitMode() == ERROR)
 3155              		.loc 1 1762 7
 3156 001a FFF7FEFF 		bl	RTC_EnterInitMode
 3157 001e 0346     		mov	r3, r0
 3158              		.loc 1 1762 6 discriminator 1
 3159 0020 002B     		cmp	r3, #0
 3160 0022 02D1     		bne	.L169
1763:../Shared/Libraries/STM32F4xx_StdPeriph_Driver/src/stm32f4xx_rtc.c ****   {
1764:../Shared/Libraries/STM32F4xx_StdPeriph_Driver/src/stm32f4xx_rtc.c ****     status = ERROR;
 3161              		.loc 1 1764 12
 3162 0024 0023     		movs	r3, #0
 3163 0026 FB73     		strb	r3, [r7, #15]
 3164 0028 08E0     		b	.L170
 3165              	.L169:
1765:../Shared/Libraries/STM32F4xx_StdPeriph_Driver/src/stm32f4xx_rtc.c ****   } 
1766:../Shared/Libraries/STM32F4xx_StdPeriph_Driver/src/stm32f4xx_rtc.c ****   else
1767:../Shared/Libraries/STM32F4xx_StdPeriph_Driver/src/stm32f4xx_rtc.c ****   {
1768:../Shared/Libraries/STM32F4xx_StdPeriph_Driver/src/stm32f4xx_rtc.c ****     /* Set the coarse calibration value */
ARM GAS  /tmp/cctIRrNQ.s 			page 87


1769:../Shared/Libraries/STM32F4xx_StdPeriph_Driver/src/stm32f4xx_rtc.c ****     RTC->CALIBR = (uint32_t)(RTC_CalibSign | Value);
 3166              		.loc 1 1769 8
 3167 002a 0849     		ldr	r1, .L172
 3168              		.loc 1 1769 44
 3169 002c 7A68     		ldr	r2, [r7, #4]
 3170 002e 3B68     		ldr	r3, [r7]
 3171 0030 1343     		orrs	r3, r3, r2
 3172              		.loc 1 1769 17
 3173 0032 8B61     		str	r3, [r1, #24]
1770:../Shared/Libraries/STM32F4xx_StdPeriph_Driver/src/stm32f4xx_rtc.c ****     /* Exit Initialization mode */
1771:../Shared/Libraries/STM32F4xx_StdPeriph_Driver/src/stm32f4xx_rtc.c ****     RTC_ExitInitMode();
 3174              		.loc 1 1771 5
 3175 0034 FFF7FEFF 		bl	RTC_ExitInitMode
1772:../Shared/Libraries/STM32F4xx_StdPeriph_Driver/src/stm32f4xx_rtc.c ****     
1773:../Shared/Libraries/STM32F4xx_StdPeriph_Driver/src/stm32f4xx_rtc.c ****     status = SUCCESS;
 3176              		.loc 1 1773 12
 3177 0038 0123     		movs	r3, #1
 3178 003a FB73     		strb	r3, [r7, #15]
 3179              	.L170:
1774:../Shared/Libraries/STM32F4xx_StdPeriph_Driver/src/stm32f4xx_rtc.c ****   } 
1775:../Shared/Libraries/STM32F4xx_StdPeriph_Driver/src/stm32f4xx_rtc.c **** 
1776:../Shared/Libraries/STM32F4xx_StdPeriph_Driver/src/stm32f4xx_rtc.c ****   /* Enable the write protection for RTC registers */
1777:../Shared/Libraries/STM32F4xx_StdPeriph_Driver/src/stm32f4xx_rtc.c ****   RTC->WPR = 0xFF; 
 3180              		.loc 1 1777 6
 3181 003c 034B     		ldr	r3, .L172
 3182              		.loc 1 1777 12
 3183 003e FF22     		movs	r2, #255
 3184 0040 5A62     		str	r2, [r3, #36]
1778:../Shared/Libraries/STM32F4xx_StdPeriph_Driver/src/stm32f4xx_rtc.c ****   
1779:../Shared/Libraries/STM32F4xx_StdPeriph_Driver/src/stm32f4xx_rtc.c ****   return status;
 3185              		.loc 1 1779 10
 3186 0042 FB7B     		ldrb	r3, [r7, #15]	@ zero_extendqisi2
1780:../Shared/Libraries/STM32F4xx_StdPeriph_Driver/src/stm32f4xx_rtc.c **** }
 3187              		.loc 1 1780 1
 3188 0044 1846     		mov	r0, r3
 3189 0046 1037     		adds	r7, r7, #16
 3190              	.LCFI162:
 3191              		.cfi_def_cfa_offset 8
 3192 0048 BD46     		mov	sp, r7
 3193              	.LCFI163:
 3194              		.cfi_def_cfa_register 13
 3195              		@ sp needed
 3196 004a 80BD     		pop	{r7, pc}
 3197              	.L173:
 3198              		.align	2
 3199              	.L172:
 3200 004c 00280040 		.word	1073752064
 3201              		.cfi_endproc
 3202              	.LFE139:
 3204              		.section	.text.RTC_CoarseCalibCmd,"ax",%progbits
 3205              		.align	1
 3206              		.global	RTC_CoarseCalibCmd
 3207              		.syntax unified
 3208              		.thumb
 3209              		.thumb_func
 3211              	RTC_CoarseCalibCmd:
 3212              	.LFB140:
ARM GAS  /tmp/cctIRrNQ.s 			page 88


1781:../Shared/Libraries/STM32F4xx_StdPeriph_Driver/src/stm32f4xx_rtc.c **** 
1782:../Shared/Libraries/STM32F4xx_StdPeriph_Driver/src/stm32f4xx_rtc.c **** /**
1783:../Shared/Libraries/STM32F4xx_StdPeriph_Driver/src/stm32f4xx_rtc.c ****   * @brief  Enables or disables the Coarse calibration process.
1784:../Shared/Libraries/STM32F4xx_StdPeriph_Driver/src/stm32f4xx_rtc.c ****   * @param  NewState: new state of the Coarse calibration.
1785:../Shared/Libraries/STM32F4xx_StdPeriph_Driver/src/stm32f4xx_rtc.c ****   *          This parameter can be: ENABLE or DISABLE.
1786:../Shared/Libraries/STM32F4xx_StdPeriph_Driver/src/stm32f4xx_rtc.c ****   * @retval An ErrorStatus enumeration value:
1787:../Shared/Libraries/STM32F4xx_StdPeriph_Driver/src/stm32f4xx_rtc.c ****   *          - SUCCESS: RTC Coarse calibration are enabled/disabled
1788:../Shared/Libraries/STM32F4xx_StdPeriph_Driver/src/stm32f4xx_rtc.c ****   *          - ERROR: RTC Coarse calibration are not enabled/disabled    
1789:../Shared/Libraries/STM32F4xx_StdPeriph_Driver/src/stm32f4xx_rtc.c ****   */
1790:../Shared/Libraries/STM32F4xx_StdPeriph_Driver/src/stm32f4xx_rtc.c **** ErrorStatus RTC_CoarseCalibCmd(FunctionalState NewState)
1791:../Shared/Libraries/STM32F4xx_StdPeriph_Driver/src/stm32f4xx_rtc.c **** {
 3213              		.loc 1 1791 1
 3214              		.cfi_startproc
 3215              		@ args = 0, pretend = 0, frame = 16
 3216              		@ frame_needed = 1, uses_anonymous_args = 0
 3217 0000 80B5     		push	{r7, lr}
 3218              	.LCFI164:
 3219              		.cfi_def_cfa_offset 8
 3220              		.cfi_offset 7, -8
 3221              		.cfi_offset 14, -4
 3222 0002 84B0     		sub	sp, sp, #16
 3223              	.LCFI165:
 3224              		.cfi_def_cfa_offset 24
 3225 0004 00AF     		add	r7, sp, #0
 3226              	.LCFI166:
 3227              		.cfi_def_cfa_register 7
 3228 0006 0346     		mov	r3, r0
 3229 0008 FB71     		strb	r3, [r7, #7]
1792:../Shared/Libraries/STM32F4xx_StdPeriph_Driver/src/stm32f4xx_rtc.c ****   ErrorStatus status = ERROR;
 3230              		.loc 1 1792 15
 3231 000a 0023     		movs	r3, #0
 3232 000c FB73     		strb	r3, [r7, #15]
1793:../Shared/Libraries/STM32F4xx_StdPeriph_Driver/src/stm32f4xx_rtc.c ****   
1794:../Shared/Libraries/STM32F4xx_StdPeriph_Driver/src/stm32f4xx_rtc.c ****   /* Check the parameters */
1795:../Shared/Libraries/STM32F4xx_StdPeriph_Driver/src/stm32f4xx_rtc.c ****   assert_param(IS_FUNCTIONAL_STATE(NewState));
1796:../Shared/Libraries/STM32F4xx_StdPeriph_Driver/src/stm32f4xx_rtc.c **** 
1797:../Shared/Libraries/STM32F4xx_StdPeriph_Driver/src/stm32f4xx_rtc.c ****   /* Disable the write protection for RTC registers */
1798:../Shared/Libraries/STM32F4xx_StdPeriph_Driver/src/stm32f4xx_rtc.c ****   RTC->WPR = 0xCA;
 3233              		.loc 1 1798 6
 3234 000e 154B     		ldr	r3, .L180
 3235              		.loc 1 1798 12
 3236 0010 CA22     		movs	r2, #202
 3237 0012 5A62     		str	r2, [r3, #36]
1799:../Shared/Libraries/STM32F4xx_StdPeriph_Driver/src/stm32f4xx_rtc.c ****   RTC->WPR = 0x53;
 3238              		.loc 1 1799 6
 3239 0014 134B     		ldr	r3, .L180
 3240              		.loc 1 1799 12
 3241 0016 5322     		movs	r2, #83
 3242 0018 5A62     		str	r2, [r3, #36]
1800:../Shared/Libraries/STM32F4xx_StdPeriph_Driver/src/stm32f4xx_rtc.c ****   
1801:../Shared/Libraries/STM32F4xx_StdPeriph_Driver/src/stm32f4xx_rtc.c ****   /* Set Initialization mode */
1802:../Shared/Libraries/STM32F4xx_StdPeriph_Driver/src/stm32f4xx_rtc.c ****   if (RTC_EnterInitMode() == ERROR)
 3243              		.loc 1 1802 7
 3244 001a FFF7FEFF 		bl	RTC_EnterInitMode
 3245 001e 0346     		mov	r3, r0
 3246              		.loc 1 1802 6 discriminator 1
 3247 0020 002B     		cmp	r3, #0
ARM GAS  /tmp/cctIRrNQ.s 			page 89


 3248 0022 02D1     		bne	.L175
1803:../Shared/Libraries/STM32F4xx_StdPeriph_Driver/src/stm32f4xx_rtc.c ****   {
1804:../Shared/Libraries/STM32F4xx_StdPeriph_Driver/src/stm32f4xx_rtc.c ****     status =  ERROR;
 3249              		.loc 1 1804 12
 3250 0024 0023     		movs	r3, #0
 3251 0026 FB73     		strb	r3, [r7, #15]
 3252 0028 13E0     		b	.L176
 3253              	.L175:
1805:../Shared/Libraries/STM32F4xx_StdPeriph_Driver/src/stm32f4xx_rtc.c ****   }
1806:../Shared/Libraries/STM32F4xx_StdPeriph_Driver/src/stm32f4xx_rtc.c ****   else
1807:../Shared/Libraries/STM32F4xx_StdPeriph_Driver/src/stm32f4xx_rtc.c ****   {
1808:../Shared/Libraries/STM32F4xx_StdPeriph_Driver/src/stm32f4xx_rtc.c ****     if (NewState != DISABLE)
 3254              		.loc 1 1808 8
 3255 002a FB79     		ldrb	r3, [r7, #7]	@ zero_extendqisi2
 3256 002c 002B     		cmp	r3, #0
 3257 002e 06D0     		beq	.L177
1809:../Shared/Libraries/STM32F4xx_StdPeriph_Driver/src/stm32f4xx_rtc.c ****     {
1810:../Shared/Libraries/STM32F4xx_StdPeriph_Driver/src/stm32f4xx_rtc.c ****       /* Enable the Coarse Calibration */
1811:../Shared/Libraries/STM32F4xx_StdPeriph_Driver/src/stm32f4xx_rtc.c ****       RTC->CR |= (uint32_t)RTC_CR_DCE;
 3258              		.loc 1 1811 10
 3259 0030 0C4B     		ldr	r3, .L180
 3260 0032 9B68     		ldr	r3, [r3, #8]
 3261 0034 0B4A     		ldr	r2, .L180
 3262              		.loc 1 1811 15
 3263 0036 43F08003 		orr	r3, r3, #128
 3264 003a 9360     		str	r3, [r2, #8]
 3265 003c 05E0     		b	.L178
 3266              	.L177:
1812:../Shared/Libraries/STM32F4xx_StdPeriph_Driver/src/stm32f4xx_rtc.c ****     }
1813:../Shared/Libraries/STM32F4xx_StdPeriph_Driver/src/stm32f4xx_rtc.c ****     else
1814:../Shared/Libraries/STM32F4xx_StdPeriph_Driver/src/stm32f4xx_rtc.c ****     { 
1815:../Shared/Libraries/STM32F4xx_StdPeriph_Driver/src/stm32f4xx_rtc.c ****       /* Disable the Coarse Calibration */
1816:../Shared/Libraries/STM32F4xx_StdPeriph_Driver/src/stm32f4xx_rtc.c ****       RTC->CR &= (uint32_t)~RTC_CR_DCE;
 3267              		.loc 1 1816 10
 3268 003e 094B     		ldr	r3, .L180
 3269 0040 9B68     		ldr	r3, [r3, #8]
 3270 0042 084A     		ldr	r2, .L180
 3271              		.loc 1 1816 15
 3272 0044 23F08003 		bic	r3, r3, #128
 3273 0048 9360     		str	r3, [r2, #8]
 3274              	.L178:
1817:../Shared/Libraries/STM32F4xx_StdPeriph_Driver/src/stm32f4xx_rtc.c ****     }
1818:../Shared/Libraries/STM32F4xx_StdPeriph_Driver/src/stm32f4xx_rtc.c ****     /* Exit Initialization mode */
1819:../Shared/Libraries/STM32F4xx_StdPeriph_Driver/src/stm32f4xx_rtc.c ****     RTC_ExitInitMode();
 3275              		.loc 1 1819 5
 3276 004a FFF7FEFF 		bl	RTC_ExitInitMode
1820:../Shared/Libraries/STM32F4xx_StdPeriph_Driver/src/stm32f4xx_rtc.c ****     
1821:../Shared/Libraries/STM32F4xx_StdPeriph_Driver/src/stm32f4xx_rtc.c ****     status = SUCCESS;
 3277              		.loc 1 1821 12
 3278 004e 0123     		movs	r3, #1
 3279 0050 FB73     		strb	r3, [r7, #15]
 3280              	.L176:
1822:../Shared/Libraries/STM32F4xx_StdPeriph_Driver/src/stm32f4xx_rtc.c ****   } 
1823:../Shared/Libraries/STM32F4xx_StdPeriph_Driver/src/stm32f4xx_rtc.c ****   
1824:../Shared/Libraries/STM32F4xx_StdPeriph_Driver/src/stm32f4xx_rtc.c ****   /* Enable the write protection for RTC registers */
1825:../Shared/Libraries/STM32F4xx_StdPeriph_Driver/src/stm32f4xx_rtc.c ****   RTC->WPR = 0xFF; 
 3281              		.loc 1 1825 6
ARM GAS  /tmp/cctIRrNQ.s 			page 90


 3282 0052 044B     		ldr	r3, .L180
 3283              		.loc 1 1825 12
 3284 0054 FF22     		movs	r2, #255
 3285 0056 5A62     		str	r2, [r3, #36]
1826:../Shared/Libraries/STM32F4xx_StdPeriph_Driver/src/stm32f4xx_rtc.c ****   
1827:../Shared/Libraries/STM32F4xx_StdPeriph_Driver/src/stm32f4xx_rtc.c ****   return status;
 3286              		.loc 1 1827 10
 3287 0058 FB7B     		ldrb	r3, [r7, #15]	@ zero_extendqisi2
1828:../Shared/Libraries/STM32F4xx_StdPeriph_Driver/src/stm32f4xx_rtc.c **** }
 3288              		.loc 1 1828 1
 3289 005a 1846     		mov	r0, r3
 3290 005c 1037     		adds	r7, r7, #16
 3291              	.LCFI167:
 3292              		.cfi_def_cfa_offset 8
 3293 005e BD46     		mov	sp, r7
 3294              	.LCFI168:
 3295              		.cfi_def_cfa_register 13
 3296              		@ sp needed
 3297 0060 80BD     		pop	{r7, pc}
 3298              	.L181:
 3299 0062 00BF     		.align	2
 3300              	.L180:
 3301 0064 00280040 		.word	1073752064
 3302              		.cfi_endproc
 3303              	.LFE140:
 3305              		.section	.text.RTC_CalibOutputCmd,"ax",%progbits
 3306              		.align	1
 3307              		.global	RTC_CalibOutputCmd
 3308              		.syntax unified
 3309              		.thumb
 3310              		.thumb_func
 3312              	RTC_CalibOutputCmd:
 3313              	.LFB141:
1829:../Shared/Libraries/STM32F4xx_StdPeriph_Driver/src/stm32f4xx_rtc.c **** 
1830:../Shared/Libraries/STM32F4xx_StdPeriph_Driver/src/stm32f4xx_rtc.c **** /**
1831:../Shared/Libraries/STM32F4xx_StdPeriph_Driver/src/stm32f4xx_rtc.c ****   * @brief  Enables or disables the RTC clock to be output through the relative pin.
1832:../Shared/Libraries/STM32F4xx_StdPeriph_Driver/src/stm32f4xx_rtc.c ****   * @param  NewState: new state of the digital calibration Output.
1833:../Shared/Libraries/STM32F4xx_StdPeriph_Driver/src/stm32f4xx_rtc.c ****   *          This parameter can be: ENABLE or DISABLE.
1834:../Shared/Libraries/STM32F4xx_StdPeriph_Driver/src/stm32f4xx_rtc.c ****   * @retval None
1835:../Shared/Libraries/STM32F4xx_StdPeriph_Driver/src/stm32f4xx_rtc.c ****   */
1836:../Shared/Libraries/STM32F4xx_StdPeriph_Driver/src/stm32f4xx_rtc.c **** void RTC_CalibOutputCmd(FunctionalState NewState)
1837:../Shared/Libraries/STM32F4xx_StdPeriph_Driver/src/stm32f4xx_rtc.c **** {
 3314              		.loc 1 1837 1
 3315              		.cfi_startproc
 3316              		@ args = 0, pretend = 0, frame = 8
 3317              		@ frame_needed = 1, uses_anonymous_args = 0
 3318              		@ link register save eliminated.
 3319 0000 80B4     		push	{r7}
 3320              	.LCFI169:
 3321              		.cfi_def_cfa_offset 4
 3322              		.cfi_offset 7, -4
 3323 0002 83B0     		sub	sp, sp, #12
 3324              	.LCFI170:
 3325              		.cfi_def_cfa_offset 16
 3326 0004 00AF     		add	r7, sp, #0
 3327              	.LCFI171:
 3328              		.cfi_def_cfa_register 7
ARM GAS  /tmp/cctIRrNQ.s 			page 91


 3329 0006 0346     		mov	r3, r0
 3330 0008 FB71     		strb	r3, [r7, #7]
1838:../Shared/Libraries/STM32F4xx_StdPeriph_Driver/src/stm32f4xx_rtc.c ****   /* Check the parameters */
1839:../Shared/Libraries/STM32F4xx_StdPeriph_Driver/src/stm32f4xx_rtc.c ****   assert_param(IS_FUNCTIONAL_STATE(NewState));
1840:../Shared/Libraries/STM32F4xx_StdPeriph_Driver/src/stm32f4xx_rtc.c ****   
1841:../Shared/Libraries/STM32F4xx_StdPeriph_Driver/src/stm32f4xx_rtc.c ****   /* Disable the write protection for RTC registers */
1842:../Shared/Libraries/STM32F4xx_StdPeriph_Driver/src/stm32f4xx_rtc.c ****   RTC->WPR = 0xCA;
 3331              		.loc 1 1842 6
 3332 000a 0F4B     		ldr	r3, .L185
 3333              		.loc 1 1842 12
 3334 000c CA22     		movs	r2, #202
 3335 000e 5A62     		str	r2, [r3, #36]
1843:../Shared/Libraries/STM32F4xx_StdPeriph_Driver/src/stm32f4xx_rtc.c ****   RTC->WPR = 0x53;
 3336              		.loc 1 1843 6
 3337 0010 0D4B     		ldr	r3, .L185
 3338              		.loc 1 1843 12
 3339 0012 5322     		movs	r2, #83
 3340 0014 5A62     		str	r2, [r3, #36]
1844:../Shared/Libraries/STM32F4xx_StdPeriph_Driver/src/stm32f4xx_rtc.c ****   
1845:../Shared/Libraries/STM32F4xx_StdPeriph_Driver/src/stm32f4xx_rtc.c ****   if (NewState != DISABLE)
 3341              		.loc 1 1845 6
 3342 0016 FB79     		ldrb	r3, [r7, #7]	@ zero_extendqisi2
 3343 0018 002B     		cmp	r3, #0
 3344 001a 06D0     		beq	.L183
1846:../Shared/Libraries/STM32F4xx_StdPeriph_Driver/src/stm32f4xx_rtc.c ****   {
1847:../Shared/Libraries/STM32F4xx_StdPeriph_Driver/src/stm32f4xx_rtc.c ****     /* Enable the RTC clock output */
1848:../Shared/Libraries/STM32F4xx_StdPeriph_Driver/src/stm32f4xx_rtc.c ****     RTC->CR |= (uint32_t)RTC_CR_COE;
 3345              		.loc 1 1848 8
 3346 001c 0A4B     		ldr	r3, .L185
 3347 001e 9B68     		ldr	r3, [r3, #8]
 3348 0020 094A     		ldr	r2, .L185
 3349              		.loc 1 1848 13
 3350 0022 43F40003 		orr	r3, r3, #8388608
 3351 0026 9360     		str	r3, [r2, #8]
 3352 0028 05E0     		b	.L184
 3353              	.L183:
1849:../Shared/Libraries/STM32F4xx_StdPeriph_Driver/src/stm32f4xx_rtc.c ****   }
1850:../Shared/Libraries/STM32F4xx_StdPeriph_Driver/src/stm32f4xx_rtc.c ****   else
1851:../Shared/Libraries/STM32F4xx_StdPeriph_Driver/src/stm32f4xx_rtc.c ****   { 
1852:../Shared/Libraries/STM32F4xx_StdPeriph_Driver/src/stm32f4xx_rtc.c ****     /* Disable the RTC clock output */
1853:../Shared/Libraries/STM32F4xx_StdPeriph_Driver/src/stm32f4xx_rtc.c ****     RTC->CR &= (uint32_t)~RTC_CR_COE;
 3354              		.loc 1 1853 8
 3355 002a 074B     		ldr	r3, .L185
 3356 002c 9B68     		ldr	r3, [r3, #8]
 3357 002e 064A     		ldr	r2, .L185
 3358              		.loc 1 1853 13
 3359 0030 23F40003 		bic	r3, r3, #8388608
 3360 0034 9360     		str	r3, [r2, #8]
 3361              	.L184:
1854:../Shared/Libraries/STM32F4xx_StdPeriph_Driver/src/stm32f4xx_rtc.c ****   }
1855:../Shared/Libraries/STM32F4xx_StdPeriph_Driver/src/stm32f4xx_rtc.c ****   
1856:../Shared/Libraries/STM32F4xx_StdPeriph_Driver/src/stm32f4xx_rtc.c ****   /* Enable the write protection for RTC registers */
1857:../Shared/Libraries/STM32F4xx_StdPeriph_Driver/src/stm32f4xx_rtc.c ****   RTC->WPR = 0xFF; 
 3362              		.loc 1 1857 6
 3363 0036 044B     		ldr	r3, .L185
 3364              		.loc 1 1857 12
 3365 0038 FF22     		movs	r2, #255
ARM GAS  /tmp/cctIRrNQ.s 			page 92


 3366 003a 5A62     		str	r2, [r3, #36]
1858:../Shared/Libraries/STM32F4xx_StdPeriph_Driver/src/stm32f4xx_rtc.c **** }
 3367              		.loc 1 1858 1
 3368 003c 00BF     		nop
 3369 003e 0C37     		adds	r7, r7, #12
 3370              	.LCFI172:
 3371              		.cfi_def_cfa_offset 4
 3372 0040 BD46     		mov	sp, r7
 3373              	.LCFI173:
 3374              		.cfi_def_cfa_register 13
 3375              		@ sp needed
 3376 0042 5DF8047B 		ldr	r7, [sp], #4
 3377              	.LCFI174:
 3378              		.cfi_restore 7
 3379              		.cfi_def_cfa_offset 0
 3380 0046 7047     		bx	lr
 3381              	.L186:
 3382              		.align	2
 3383              	.L185:
 3384 0048 00280040 		.word	1073752064
 3385              		.cfi_endproc
 3386              	.LFE141:
 3388              		.section	.text.RTC_CalibOutputConfig,"ax",%progbits
 3389              		.align	1
 3390              		.global	RTC_CalibOutputConfig
 3391              		.syntax unified
 3392              		.thumb
 3393              		.thumb_func
 3395              	RTC_CalibOutputConfig:
 3396              	.LFB142:
1859:../Shared/Libraries/STM32F4xx_StdPeriph_Driver/src/stm32f4xx_rtc.c **** 
1860:../Shared/Libraries/STM32F4xx_StdPeriph_Driver/src/stm32f4xx_rtc.c **** /**
1861:../Shared/Libraries/STM32F4xx_StdPeriph_Driver/src/stm32f4xx_rtc.c ****   * @brief  Configure the Calibration Pinout (RTC_CALIB) Selection (1Hz or 512Hz).
1862:../Shared/Libraries/STM32F4xx_StdPeriph_Driver/src/stm32f4xx_rtc.c ****   * @param  RTC_CalibOutput : Select the Calibration output Selection .
1863:../Shared/Libraries/STM32F4xx_StdPeriph_Driver/src/stm32f4xx_rtc.c ****   *   This parameter can be one of the following values:
1864:../Shared/Libraries/STM32F4xx_StdPeriph_Driver/src/stm32f4xx_rtc.c ****   *     @arg RTC_CalibOutput_512Hz: A signal has a regular waveform at 512Hz. 
1865:../Shared/Libraries/STM32F4xx_StdPeriph_Driver/src/stm32f4xx_rtc.c ****   *     @arg RTC_CalibOutput_1Hz  : A signal has a regular waveform at 1Hz.
1866:../Shared/Libraries/STM32F4xx_StdPeriph_Driver/src/stm32f4xx_rtc.c ****   * @retval None
1867:../Shared/Libraries/STM32F4xx_StdPeriph_Driver/src/stm32f4xx_rtc.c **** */
1868:../Shared/Libraries/STM32F4xx_StdPeriph_Driver/src/stm32f4xx_rtc.c **** void RTC_CalibOutputConfig(uint32_t RTC_CalibOutput)
1869:../Shared/Libraries/STM32F4xx_StdPeriph_Driver/src/stm32f4xx_rtc.c **** {
 3397              		.loc 1 1869 1
 3398              		.cfi_startproc
 3399              		@ args = 0, pretend = 0, frame = 8
 3400              		@ frame_needed = 1, uses_anonymous_args = 0
 3401              		@ link register save eliminated.
 3402 0000 80B4     		push	{r7}
 3403              	.LCFI175:
 3404              		.cfi_def_cfa_offset 4
 3405              		.cfi_offset 7, -4
 3406 0002 83B0     		sub	sp, sp, #12
 3407              	.LCFI176:
 3408              		.cfi_def_cfa_offset 16
 3409 0004 00AF     		add	r7, sp, #0
 3410              	.LCFI177:
 3411              		.cfi_def_cfa_register 7
 3412 0006 7860     		str	r0, [r7, #4]
ARM GAS  /tmp/cctIRrNQ.s 			page 93


1870:../Shared/Libraries/STM32F4xx_StdPeriph_Driver/src/stm32f4xx_rtc.c ****   /* Check the parameters */
1871:../Shared/Libraries/STM32F4xx_StdPeriph_Driver/src/stm32f4xx_rtc.c ****   assert_param(IS_RTC_CALIB_OUTPUT(RTC_CalibOutput));
1872:../Shared/Libraries/STM32F4xx_StdPeriph_Driver/src/stm32f4xx_rtc.c **** 
1873:../Shared/Libraries/STM32F4xx_StdPeriph_Driver/src/stm32f4xx_rtc.c ****   /* Disable the write protection for RTC registers */
1874:../Shared/Libraries/STM32F4xx_StdPeriph_Driver/src/stm32f4xx_rtc.c ****   RTC->WPR = 0xCA;
 3413              		.loc 1 1874 6
 3414 0008 0D4B     		ldr	r3, .L188
 3415              		.loc 1 1874 12
 3416 000a CA22     		movs	r2, #202
 3417 000c 5A62     		str	r2, [r3, #36]
1875:../Shared/Libraries/STM32F4xx_StdPeriph_Driver/src/stm32f4xx_rtc.c ****   RTC->WPR = 0x53;
 3418              		.loc 1 1875 6
 3419 000e 0C4B     		ldr	r3, .L188
 3420              		.loc 1 1875 12
 3421 0010 5322     		movs	r2, #83
 3422 0012 5A62     		str	r2, [r3, #36]
1876:../Shared/Libraries/STM32F4xx_StdPeriph_Driver/src/stm32f4xx_rtc.c ****   
1877:../Shared/Libraries/STM32F4xx_StdPeriph_Driver/src/stm32f4xx_rtc.c ****   /*clear flags before config*/
1878:../Shared/Libraries/STM32F4xx_StdPeriph_Driver/src/stm32f4xx_rtc.c ****   RTC->CR &= (uint32_t)~(RTC_CR_COSEL);
 3423              		.loc 1 1878 6
 3424 0014 0A4B     		ldr	r3, .L188
 3425 0016 9B68     		ldr	r3, [r3, #8]
 3426 0018 094A     		ldr	r2, .L188
 3427              		.loc 1 1878 11
 3428 001a 23F40023 		bic	r3, r3, #524288
 3429 001e 9360     		str	r3, [r2, #8]
1879:../Shared/Libraries/STM32F4xx_StdPeriph_Driver/src/stm32f4xx_rtc.c **** 
1880:../Shared/Libraries/STM32F4xx_StdPeriph_Driver/src/stm32f4xx_rtc.c ****   /* Configure the RTC_CR register */
1881:../Shared/Libraries/STM32F4xx_StdPeriph_Driver/src/stm32f4xx_rtc.c ****   RTC->CR |= (uint32_t)RTC_CalibOutput;
 3430              		.loc 1 1881 6
 3431 0020 074B     		ldr	r3, .L188
 3432 0022 9A68     		ldr	r2, [r3, #8]
 3433 0024 0649     		ldr	r1, .L188
 3434              		.loc 1 1881 11
 3435 0026 7B68     		ldr	r3, [r7, #4]
 3436 0028 1343     		orrs	r3, r3, r2
 3437 002a 8B60     		str	r3, [r1, #8]
1882:../Shared/Libraries/STM32F4xx_StdPeriph_Driver/src/stm32f4xx_rtc.c **** 
1883:../Shared/Libraries/STM32F4xx_StdPeriph_Driver/src/stm32f4xx_rtc.c ****   /* Enable the write protection for RTC registers */
1884:../Shared/Libraries/STM32F4xx_StdPeriph_Driver/src/stm32f4xx_rtc.c ****   RTC->WPR = 0xFF;
 3438              		.loc 1 1884 6
 3439 002c 044B     		ldr	r3, .L188
 3440              		.loc 1 1884 12
 3441 002e FF22     		movs	r2, #255
 3442 0030 5A62     		str	r2, [r3, #36]
1885:../Shared/Libraries/STM32F4xx_StdPeriph_Driver/src/stm32f4xx_rtc.c **** }
 3443              		.loc 1 1885 1
 3444 0032 00BF     		nop
 3445 0034 0C37     		adds	r7, r7, #12
 3446              	.LCFI178:
 3447              		.cfi_def_cfa_offset 4
 3448 0036 BD46     		mov	sp, r7
 3449              	.LCFI179:
 3450              		.cfi_def_cfa_register 13
 3451              		@ sp needed
 3452 0038 5DF8047B 		ldr	r7, [sp], #4
 3453              	.LCFI180:
ARM GAS  /tmp/cctIRrNQ.s 			page 94


 3454              		.cfi_restore 7
 3455              		.cfi_def_cfa_offset 0
 3456 003c 7047     		bx	lr
 3457              	.L189:
 3458 003e 00BF     		.align	2
 3459              	.L188:
 3460 0040 00280040 		.word	1073752064
 3461              		.cfi_endproc
 3462              	.LFE142:
 3464              		.section	.text.RTC_SmoothCalibConfig,"ax",%progbits
 3465              		.align	1
 3466              		.global	RTC_SmoothCalibConfig
 3467              		.syntax unified
 3468              		.thumb
 3469              		.thumb_func
 3471              	RTC_SmoothCalibConfig:
 3472              	.LFB143:
1886:../Shared/Libraries/STM32F4xx_StdPeriph_Driver/src/stm32f4xx_rtc.c **** 
1887:../Shared/Libraries/STM32F4xx_StdPeriph_Driver/src/stm32f4xx_rtc.c **** /**
1888:../Shared/Libraries/STM32F4xx_StdPeriph_Driver/src/stm32f4xx_rtc.c ****   * @brief  Configures the Smooth Calibration Settings.
1889:../Shared/Libraries/STM32F4xx_StdPeriph_Driver/src/stm32f4xx_rtc.c ****   * @param  RTC_SmoothCalibPeriod : Select the Smooth Calibration Period.
1890:../Shared/Libraries/STM32F4xx_StdPeriph_Driver/src/stm32f4xx_rtc.c ****   *   This parameter can be can be one of the following values:
1891:../Shared/Libraries/STM32F4xx_StdPeriph_Driver/src/stm32f4xx_rtc.c ****   *     @arg RTC_SmoothCalibPeriod_32sec : The smooth calibration periode is 32s.
1892:../Shared/Libraries/STM32F4xx_StdPeriph_Driver/src/stm32f4xx_rtc.c ****   *     @arg RTC_SmoothCalibPeriod_16sec : The smooth calibration periode is 16s.
1893:../Shared/Libraries/STM32F4xx_StdPeriph_Driver/src/stm32f4xx_rtc.c ****   *     @arg RTC_SmoothCalibPeriod_8sec  : The smooth calibartion periode is 8s.
1894:../Shared/Libraries/STM32F4xx_StdPeriph_Driver/src/stm32f4xx_rtc.c ****   * @param  RTC_SmoothCalibPlusPulses : Select to Set or reset the CALP bit.
1895:../Shared/Libraries/STM32F4xx_StdPeriph_Driver/src/stm32f4xx_rtc.c ****   *   This parameter can be one of the following values:
1896:../Shared/Libraries/STM32F4xx_StdPeriph_Driver/src/stm32f4xx_rtc.c ****   *     @arg RTC_SmoothCalibPlusPulses_Set  : Add one RTCCLK puls every 2**11 pulses.
1897:../Shared/Libraries/STM32F4xx_StdPeriph_Driver/src/stm32f4xx_rtc.c ****   *     @arg RTC_SmoothCalibPlusPulses_Reset: No RTCCLK pulses are added.
1898:../Shared/Libraries/STM32F4xx_StdPeriph_Driver/src/stm32f4xx_rtc.c ****   * @param  RTC_SmouthCalibMinusPulsesValue: Select the value of CALM[8:0] bits.
1899:../Shared/Libraries/STM32F4xx_StdPeriph_Driver/src/stm32f4xx_rtc.c ****   *   This parameter can be one any value from 0 to 0x000001FF.
1900:../Shared/Libraries/STM32F4xx_StdPeriph_Driver/src/stm32f4xx_rtc.c ****   * @retval An ErrorStatus enumeration value:
1901:../Shared/Libraries/STM32F4xx_StdPeriph_Driver/src/stm32f4xx_rtc.c ****   *          - SUCCESS: RTC Calib registers are configured
1902:../Shared/Libraries/STM32F4xx_StdPeriph_Driver/src/stm32f4xx_rtc.c ****   *          - ERROR: RTC Calib registers are not configured
1903:../Shared/Libraries/STM32F4xx_StdPeriph_Driver/src/stm32f4xx_rtc.c **** */
1904:../Shared/Libraries/STM32F4xx_StdPeriph_Driver/src/stm32f4xx_rtc.c **** ErrorStatus RTC_SmoothCalibConfig(uint32_t RTC_SmoothCalibPeriod,
1905:../Shared/Libraries/STM32F4xx_StdPeriph_Driver/src/stm32f4xx_rtc.c ****                                   uint32_t RTC_SmoothCalibPlusPulses,
1906:../Shared/Libraries/STM32F4xx_StdPeriph_Driver/src/stm32f4xx_rtc.c ****                                   uint32_t RTC_SmouthCalibMinusPulsesValue)
1907:../Shared/Libraries/STM32F4xx_StdPeriph_Driver/src/stm32f4xx_rtc.c **** {
 3473              		.loc 1 1907 1
 3474              		.cfi_startproc
 3475              		@ args = 0, pretend = 0, frame = 24
 3476              		@ frame_needed = 1, uses_anonymous_args = 0
 3477              		@ link register save eliminated.
 3478 0000 80B4     		push	{r7}
 3479              	.LCFI181:
 3480              		.cfi_def_cfa_offset 4
 3481              		.cfi_offset 7, -4
 3482 0002 87B0     		sub	sp, sp, #28
 3483              	.LCFI182:
 3484              		.cfi_def_cfa_offset 32
 3485 0004 00AF     		add	r7, sp, #0
 3486              	.LCFI183:
 3487              		.cfi_def_cfa_register 7
 3488 0006 F860     		str	r0, [r7, #12]
 3489 0008 B960     		str	r1, [r7, #8]
 3490 000a 7A60     		str	r2, [r7, #4]
ARM GAS  /tmp/cctIRrNQ.s 			page 95


1908:../Shared/Libraries/STM32F4xx_StdPeriph_Driver/src/stm32f4xx_rtc.c ****   ErrorStatus status = ERROR;
 3491              		.loc 1 1908 15
 3492 000c 0023     		movs	r3, #0
 3493 000e FB75     		strb	r3, [r7, #23]
1909:../Shared/Libraries/STM32F4xx_StdPeriph_Driver/src/stm32f4xx_rtc.c ****   uint32_t recalpfcount = 0;
 3494              		.loc 1 1909 12
 3495 0010 0023     		movs	r3, #0
 3496 0012 3B61     		str	r3, [r7, #16]
1910:../Shared/Libraries/STM32F4xx_StdPeriph_Driver/src/stm32f4xx_rtc.c **** 
1911:../Shared/Libraries/STM32F4xx_StdPeriph_Driver/src/stm32f4xx_rtc.c ****   /* Check the parameters */
1912:../Shared/Libraries/STM32F4xx_StdPeriph_Driver/src/stm32f4xx_rtc.c ****   assert_param(IS_RTC_SMOOTH_CALIB_PERIOD(RTC_SmoothCalibPeriod));
1913:../Shared/Libraries/STM32F4xx_StdPeriph_Driver/src/stm32f4xx_rtc.c ****   assert_param(IS_RTC_SMOOTH_CALIB_PLUS(RTC_SmoothCalibPlusPulses));
1914:../Shared/Libraries/STM32F4xx_StdPeriph_Driver/src/stm32f4xx_rtc.c ****   assert_param(IS_RTC_SMOOTH_CALIB_MINUS(RTC_SmouthCalibMinusPulsesValue));
1915:../Shared/Libraries/STM32F4xx_StdPeriph_Driver/src/stm32f4xx_rtc.c **** 
1916:../Shared/Libraries/STM32F4xx_StdPeriph_Driver/src/stm32f4xx_rtc.c ****   /* Disable the write protection for RTC registers */
1917:../Shared/Libraries/STM32F4xx_StdPeriph_Driver/src/stm32f4xx_rtc.c ****   RTC->WPR = 0xCA;
 3497              		.loc 1 1917 6
 3498 0014 1A4B     		ldr	r3, .L197
 3499              		.loc 1 1917 12
 3500 0016 CA22     		movs	r2, #202
 3501 0018 5A62     		str	r2, [r3, #36]
1918:../Shared/Libraries/STM32F4xx_StdPeriph_Driver/src/stm32f4xx_rtc.c ****   RTC->WPR = 0x53;
 3502              		.loc 1 1918 6
 3503 001a 194B     		ldr	r3, .L197
 3504              		.loc 1 1918 12
 3505 001c 5322     		movs	r2, #83
 3506 001e 5A62     		str	r2, [r3, #36]
1919:../Shared/Libraries/STM32F4xx_StdPeriph_Driver/src/stm32f4xx_rtc.c ****   
1920:../Shared/Libraries/STM32F4xx_StdPeriph_Driver/src/stm32f4xx_rtc.c ****   /* check if a calibration is pending*/
1921:../Shared/Libraries/STM32F4xx_StdPeriph_Driver/src/stm32f4xx_rtc.c ****   if ((RTC->ISR & RTC_ISR_RECALPF) != RESET)
 3507              		.loc 1 1921 11
 3508 0020 174B     		ldr	r3, .L197
 3509 0022 DB68     		ldr	r3, [r3, #12]
 3510              		.loc 1 1921 17
 3511 0024 03F48033 		and	r3, r3, #65536
 3512              		.loc 1 1921 6
 3513 0028 002B     		cmp	r3, #0
 3514 002a 0DD0     		beq	.L191
1922:../Shared/Libraries/STM32F4xx_StdPeriph_Driver/src/stm32f4xx_rtc.c ****   {
1923:../Shared/Libraries/STM32F4xx_StdPeriph_Driver/src/stm32f4xx_rtc.c ****     /* wait until the Calibration is completed*/
1924:../Shared/Libraries/STM32F4xx_StdPeriph_Driver/src/stm32f4xx_rtc.c ****     while (((RTC->ISR & RTC_ISR_RECALPF) != RESET) && (recalpfcount != RECALPF_TIMEOUT))
 3515              		.loc 1 1924 11
 3516 002c 02E0     		b	.L192
 3517              	.L193:
1925:../Shared/Libraries/STM32F4xx_StdPeriph_Driver/src/stm32f4xx_rtc.c ****     {
1926:../Shared/Libraries/STM32F4xx_StdPeriph_Driver/src/stm32f4xx_rtc.c ****       recalpfcount++;
 3518              		.loc 1 1926 19
 3519 002e 3B69     		ldr	r3, [r7, #16]
 3520 0030 0133     		adds	r3, r3, #1
 3521 0032 3B61     		str	r3, [r7, #16]
 3522              	.L192:
1924:../Shared/Libraries/STM32F4xx_StdPeriph_Driver/src/stm32f4xx_rtc.c ****     {
 3523              		.loc 1 1924 17
 3524 0034 124B     		ldr	r3, .L197
 3525 0036 DB68     		ldr	r3, [r3, #12]
1924:../Shared/Libraries/STM32F4xx_StdPeriph_Driver/src/stm32f4xx_rtc.c ****     {
 3526              		.loc 1 1924 23
ARM GAS  /tmp/cctIRrNQ.s 			page 96


 3527 0038 03F48033 		and	r3, r3, #65536
1924:../Shared/Libraries/STM32F4xx_StdPeriph_Driver/src/stm32f4xx_rtc.c ****     {
 3528              		.loc 1 1924 52
 3529 003c 002B     		cmp	r3, #0
 3530 003e 03D0     		beq	.L191
1924:../Shared/Libraries/STM32F4xx_StdPeriph_Driver/src/stm32f4xx_rtc.c ****     {
 3531              		.loc 1 1924 52 is_stmt 0 discriminator 1
 3532 0040 3B69     		ldr	r3, [r7, #16]
 3533 0042 B3F5003F 		cmp	r3, #131072
 3534 0046 F2D1     		bne	.L193
 3535              	.L191:
1927:../Shared/Libraries/STM32F4xx_StdPeriph_Driver/src/stm32f4xx_rtc.c ****     }
1928:../Shared/Libraries/STM32F4xx_StdPeriph_Driver/src/stm32f4xx_rtc.c ****   }
1929:../Shared/Libraries/STM32F4xx_StdPeriph_Driver/src/stm32f4xx_rtc.c **** 
1930:../Shared/Libraries/STM32F4xx_StdPeriph_Driver/src/stm32f4xx_rtc.c ****   /* check if the calibration pending is completed or if there is no calibration operation at all*/
1931:../Shared/Libraries/STM32F4xx_StdPeriph_Driver/src/stm32f4xx_rtc.c ****   if ((RTC->ISR & RTC_ISR_RECALPF) == RESET)
 3536              		.loc 1 1931 11 is_stmt 1
 3537 0048 0D4B     		ldr	r3, .L197
 3538 004a DB68     		ldr	r3, [r3, #12]
 3539              		.loc 1 1931 17
 3540 004c 03F48033 		and	r3, r3, #65536
 3541              		.loc 1 1931 6
 3542 0050 002B     		cmp	r3, #0
 3543 0052 09D1     		bne	.L194
1932:../Shared/Libraries/STM32F4xx_StdPeriph_Driver/src/stm32f4xx_rtc.c ****   {
1933:../Shared/Libraries/STM32F4xx_StdPeriph_Driver/src/stm32f4xx_rtc.c ****     /* Configure the Smooth calibration settings */
1934:../Shared/Libraries/STM32F4xx_StdPeriph_Driver/src/stm32f4xx_rtc.c ****     RTC->CALR = (uint32_t)((uint32_t)RTC_SmoothCalibPeriod | (uint32_t)RTC_SmoothCalibPlusPulses | 
 3544              		.loc 1 1934 60
 3545 0054 FA68     		ldr	r2, [r7, #12]
 3546 0056 BB68     		ldr	r3, [r7, #8]
 3547 0058 1A43     		orrs	r2, r2, r3
 3548              		.loc 1 1934 8
 3549 005a 0949     		ldr	r1, .L197
 3550              		.loc 1 1934 17
 3551 005c 7B68     		ldr	r3, [r7, #4]
 3552 005e 1343     		orrs	r3, r3, r2
 3553              		.loc 1 1934 15
 3554 0060 CB63     		str	r3, [r1, #60]
1935:../Shared/Libraries/STM32F4xx_StdPeriph_Driver/src/stm32f4xx_rtc.c **** 
1936:../Shared/Libraries/STM32F4xx_StdPeriph_Driver/src/stm32f4xx_rtc.c ****     status = SUCCESS;
 3555              		.loc 1 1936 12
 3556 0062 0123     		movs	r3, #1
 3557 0064 FB75     		strb	r3, [r7, #23]
 3558 0066 01E0     		b	.L195
 3559              	.L194:
1937:../Shared/Libraries/STM32F4xx_StdPeriph_Driver/src/stm32f4xx_rtc.c ****   }
1938:../Shared/Libraries/STM32F4xx_StdPeriph_Driver/src/stm32f4xx_rtc.c ****   else
1939:../Shared/Libraries/STM32F4xx_StdPeriph_Driver/src/stm32f4xx_rtc.c ****   {
1940:../Shared/Libraries/STM32F4xx_StdPeriph_Driver/src/stm32f4xx_rtc.c ****     status = ERROR;
 3560              		.loc 1 1940 12
 3561 0068 0023     		movs	r3, #0
 3562 006a FB75     		strb	r3, [r7, #23]
 3563              	.L195:
1941:../Shared/Libraries/STM32F4xx_StdPeriph_Driver/src/stm32f4xx_rtc.c ****   }
1942:../Shared/Libraries/STM32F4xx_StdPeriph_Driver/src/stm32f4xx_rtc.c **** 
1943:../Shared/Libraries/STM32F4xx_StdPeriph_Driver/src/stm32f4xx_rtc.c ****   /* Enable the write protection for RTC registers */
1944:../Shared/Libraries/STM32F4xx_StdPeriph_Driver/src/stm32f4xx_rtc.c ****   RTC->WPR = 0xFF;
ARM GAS  /tmp/cctIRrNQ.s 			page 97


 3564              		.loc 1 1944 6
 3565 006c 044B     		ldr	r3, .L197
 3566              		.loc 1 1944 12
 3567 006e FF22     		movs	r2, #255
 3568 0070 5A62     		str	r2, [r3, #36]
1945:../Shared/Libraries/STM32F4xx_StdPeriph_Driver/src/stm32f4xx_rtc.c ****   
1946:../Shared/Libraries/STM32F4xx_StdPeriph_Driver/src/stm32f4xx_rtc.c ****   return (ErrorStatus)(status);
 3569              		.loc 1 1946 10
 3570 0072 FB7D     		ldrb	r3, [r7, #23]	@ zero_extendqisi2
1947:../Shared/Libraries/STM32F4xx_StdPeriph_Driver/src/stm32f4xx_rtc.c **** }
 3571              		.loc 1 1947 1
 3572 0074 1846     		mov	r0, r3
 3573 0076 1C37     		adds	r7, r7, #28
 3574              	.LCFI184:
 3575              		.cfi_def_cfa_offset 4
 3576 0078 BD46     		mov	sp, r7
 3577              	.LCFI185:
 3578              		.cfi_def_cfa_register 13
 3579              		@ sp needed
 3580 007a 5DF8047B 		ldr	r7, [sp], #4
 3581              	.LCFI186:
 3582              		.cfi_restore 7
 3583              		.cfi_def_cfa_offset 0
 3584 007e 7047     		bx	lr
 3585              	.L198:
 3586              		.align	2
 3587              	.L197:
 3588 0080 00280040 		.word	1073752064
 3589              		.cfi_endproc
 3590              	.LFE143:
 3592              		.section	.text.RTC_TimeStampCmd,"ax",%progbits
 3593              		.align	1
 3594              		.global	RTC_TimeStampCmd
 3595              		.syntax unified
 3596              		.thumb
 3597              		.thumb_func
 3599              	RTC_TimeStampCmd:
 3600              	.LFB144:
1948:../Shared/Libraries/STM32F4xx_StdPeriph_Driver/src/stm32f4xx_rtc.c **** 
1949:../Shared/Libraries/STM32F4xx_StdPeriph_Driver/src/stm32f4xx_rtc.c **** /**
1950:../Shared/Libraries/STM32F4xx_StdPeriph_Driver/src/stm32f4xx_rtc.c ****   * @}
1951:../Shared/Libraries/STM32F4xx_StdPeriph_Driver/src/stm32f4xx_rtc.c ****   */
1952:../Shared/Libraries/STM32F4xx_StdPeriph_Driver/src/stm32f4xx_rtc.c **** 
1953:../Shared/Libraries/STM32F4xx_StdPeriph_Driver/src/stm32f4xx_rtc.c **** 
1954:../Shared/Libraries/STM32F4xx_StdPeriph_Driver/src/stm32f4xx_rtc.c **** /** @defgroup RTC_Group8 TimeStamp configuration functions
1955:../Shared/Libraries/STM32F4xx_StdPeriph_Driver/src/stm32f4xx_rtc.c ****  *  @brief   TimeStamp configuration functions 
1956:../Shared/Libraries/STM32F4xx_StdPeriph_Driver/src/stm32f4xx_rtc.c ****  *
1957:../Shared/Libraries/STM32F4xx_StdPeriph_Driver/src/stm32f4xx_rtc.c **** @verbatim   
1958:../Shared/Libraries/STM32F4xx_StdPeriph_Driver/src/stm32f4xx_rtc.c ****  ===============================================================================
1959:../Shared/Libraries/STM32F4xx_StdPeriph_Driver/src/stm32f4xx_rtc.c ****                        TimeStamp configuration functions
1960:../Shared/Libraries/STM32F4xx_StdPeriph_Driver/src/stm32f4xx_rtc.c ****  ===============================================================================  
1961:../Shared/Libraries/STM32F4xx_StdPeriph_Driver/src/stm32f4xx_rtc.c **** 
1962:../Shared/Libraries/STM32F4xx_StdPeriph_Driver/src/stm32f4xx_rtc.c **** @endverbatim
1963:../Shared/Libraries/STM32F4xx_StdPeriph_Driver/src/stm32f4xx_rtc.c ****   * @{
1964:../Shared/Libraries/STM32F4xx_StdPeriph_Driver/src/stm32f4xx_rtc.c ****   */
1965:../Shared/Libraries/STM32F4xx_StdPeriph_Driver/src/stm32f4xx_rtc.c **** 
1966:../Shared/Libraries/STM32F4xx_StdPeriph_Driver/src/stm32f4xx_rtc.c **** /**
ARM GAS  /tmp/cctIRrNQ.s 			page 98


1967:../Shared/Libraries/STM32F4xx_StdPeriph_Driver/src/stm32f4xx_rtc.c ****   * @brief  Enables or Disables the RTC TimeStamp functionality with the 
1968:../Shared/Libraries/STM32F4xx_StdPeriph_Driver/src/stm32f4xx_rtc.c ****   *         specified time stamp pin stimulating edge.
1969:../Shared/Libraries/STM32F4xx_StdPeriph_Driver/src/stm32f4xx_rtc.c ****   * @param  RTC_TimeStampEdge: Specifies the pin edge on which the TimeStamp is 
1970:../Shared/Libraries/STM32F4xx_StdPeriph_Driver/src/stm32f4xx_rtc.c ****   *         activated.
1971:../Shared/Libraries/STM32F4xx_StdPeriph_Driver/src/stm32f4xx_rtc.c ****   *          This parameter can be one of the following:
1972:../Shared/Libraries/STM32F4xx_StdPeriph_Driver/src/stm32f4xx_rtc.c ****   *            @arg RTC_TimeStampEdge_Rising: the Time stamp event occurs on the rising 
1973:../Shared/Libraries/STM32F4xx_StdPeriph_Driver/src/stm32f4xx_rtc.c ****   *                                    edge of the related pin.
1974:../Shared/Libraries/STM32F4xx_StdPeriph_Driver/src/stm32f4xx_rtc.c ****   *            @arg RTC_TimeStampEdge_Falling: the Time stamp event occurs on the 
1975:../Shared/Libraries/STM32F4xx_StdPeriph_Driver/src/stm32f4xx_rtc.c ****   *                                     falling edge of the related pin.
1976:../Shared/Libraries/STM32F4xx_StdPeriph_Driver/src/stm32f4xx_rtc.c ****   * @param  NewState: new state of the TimeStamp.
1977:../Shared/Libraries/STM32F4xx_StdPeriph_Driver/src/stm32f4xx_rtc.c ****   *          This parameter can be: ENABLE or DISABLE.
1978:../Shared/Libraries/STM32F4xx_StdPeriph_Driver/src/stm32f4xx_rtc.c ****   * @retval None
1979:../Shared/Libraries/STM32F4xx_StdPeriph_Driver/src/stm32f4xx_rtc.c ****   */
1980:../Shared/Libraries/STM32F4xx_StdPeriph_Driver/src/stm32f4xx_rtc.c **** void RTC_TimeStampCmd(uint32_t RTC_TimeStampEdge, FunctionalState NewState)
1981:../Shared/Libraries/STM32F4xx_StdPeriph_Driver/src/stm32f4xx_rtc.c **** {
 3601              		.loc 1 1981 1
 3602              		.cfi_startproc
 3603              		@ args = 0, pretend = 0, frame = 16
 3604              		@ frame_needed = 1, uses_anonymous_args = 0
 3605              		@ link register save eliminated.
 3606 0000 80B4     		push	{r7}
 3607              	.LCFI187:
 3608              		.cfi_def_cfa_offset 4
 3609              		.cfi_offset 7, -4
 3610 0002 85B0     		sub	sp, sp, #20
 3611              	.LCFI188:
 3612              		.cfi_def_cfa_offset 24
 3613 0004 00AF     		add	r7, sp, #0
 3614              	.LCFI189:
 3615              		.cfi_def_cfa_register 7
 3616 0006 7860     		str	r0, [r7, #4]
 3617 0008 0B46     		mov	r3, r1
 3618 000a FB70     		strb	r3, [r7, #3]
1982:../Shared/Libraries/STM32F4xx_StdPeriph_Driver/src/stm32f4xx_rtc.c ****   uint32_t tmpreg = 0;
 3619              		.loc 1 1982 12
 3620 000c 0023     		movs	r3, #0
 3621 000e FB60     		str	r3, [r7, #12]
1983:../Shared/Libraries/STM32F4xx_StdPeriph_Driver/src/stm32f4xx_rtc.c **** 
1984:../Shared/Libraries/STM32F4xx_StdPeriph_Driver/src/stm32f4xx_rtc.c ****   /* Check the parameters */
1985:../Shared/Libraries/STM32F4xx_StdPeriph_Driver/src/stm32f4xx_rtc.c ****   assert_param(IS_RTC_TIMESTAMP_EDGE(RTC_TimeStampEdge));
1986:../Shared/Libraries/STM32F4xx_StdPeriph_Driver/src/stm32f4xx_rtc.c ****   assert_param(IS_FUNCTIONAL_STATE(NewState));
1987:../Shared/Libraries/STM32F4xx_StdPeriph_Driver/src/stm32f4xx_rtc.c **** 
1988:../Shared/Libraries/STM32F4xx_StdPeriph_Driver/src/stm32f4xx_rtc.c ****   /* Get the RTC_CR register and clear the bits to be configured */
1989:../Shared/Libraries/STM32F4xx_StdPeriph_Driver/src/stm32f4xx_rtc.c ****   tmpreg = (uint32_t)(RTC->CR & (uint32_t)~(RTC_CR_TSEDGE | RTC_CR_TSE));
 3622              		.loc 1 1989 26
 3623 0010 134B     		ldr	r3, .L202
 3624 0012 9B68     		ldr	r3, [r3, #8]
 3625              		.loc 1 1989 10
 3626 0014 23F40063 		bic	r3, r3, #2048
 3627 0018 23F00803 		bic	r3, r3, #8
 3628 001c FB60     		str	r3, [r7, #12]
1990:../Shared/Libraries/STM32F4xx_StdPeriph_Driver/src/stm32f4xx_rtc.c **** 
1991:../Shared/Libraries/STM32F4xx_StdPeriph_Driver/src/stm32f4xx_rtc.c ****   /* Get the new configuration */
1992:../Shared/Libraries/STM32F4xx_StdPeriph_Driver/src/stm32f4xx_rtc.c ****   if (NewState != DISABLE)
 3629              		.loc 1 1992 6
 3630 001e FB78     		ldrb	r3, [r7, #3]	@ zero_extendqisi2
 3631 0020 002B     		cmp	r3, #0
ARM GAS  /tmp/cctIRrNQ.s 			page 99


 3632 0022 06D0     		beq	.L200
1993:../Shared/Libraries/STM32F4xx_StdPeriph_Driver/src/stm32f4xx_rtc.c ****   {
1994:../Shared/Libraries/STM32F4xx_StdPeriph_Driver/src/stm32f4xx_rtc.c ****     tmpreg |= (uint32_t)(RTC_TimeStampEdge | RTC_CR_TSE);
 3633              		.loc 1 1994 12
 3634 0024 7A68     		ldr	r2, [r7, #4]
 3635 0026 FB68     		ldr	r3, [r7, #12]
 3636 0028 1343     		orrs	r3, r3, r2
 3637 002a 43F40063 		orr	r3, r3, #2048
 3638 002e FB60     		str	r3, [r7, #12]
 3639 0030 03E0     		b	.L201
 3640              	.L200:
1995:../Shared/Libraries/STM32F4xx_StdPeriph_Driver/src/stm32f4xx_rtc.c ****   }
1996:../Shared/Libraries/STM32F4xx_StdPeriph_Driver/src/stm32f4xx_rtc.c ****   else
1997:../Shared/Libraries/STM32F4xx_StdPeriph_Driver/src/stm32f4xx_rtc.c ****   {
1998:../Shared/Libraries/STM32F4xx_StdPeriph_Driver/src/stm32f4xx_rtc.c ****     tmpreg |= (uint32_t)(RTC_TimeStampEdge);
 3641              		.loc 1 1998 12
 3642 0032 FA68     		ldr	r2, [r7, #12]
 3643 0034 7B68     		ldr	r3, [r7, #4]
 3644 0036 1343     		orrs	r3, r3, r2
 3645 0038 FB60     		str	r3, [r7, #12]
 3646              	.L201:
1999:../Shared/Libraries/STM32F4xx_StdPeriph_Driver/src/stm32f4xx_rtc.c ****   }
2000:../Shared/Libraries/STM32F4xx_StdPeriph_Driver/src/stm32f4xx_rtc.c **** 
2001:../Shared/Libraries/STM32F4xx_StdPeriph_Driver/src/stm32f4xx_rtc.c ****   /* Disable the write protection for RTC registers */
2002:../Shared/Libraries/STM32F4xx_StdPeriph_Driver/src/stm32f4xx_rtc.c ****   RTC->WPR = 0xCA;
 3647              		.loc 1 2002 6
 3648 003a 094B     		ldr	r3, .L202
 3649              		.loc 1 2002 12
 3650 003c CA22     		movs	r2, #202
 3651 003e 5A62     		str	r2, [r3, #36]
2003:../Shared/Libraries/STM32F4xx_StdPeriph_Driver/src/stm32f4xx_rtc.c ****   RTC->WPR = 0x53;
 3652              		.loc 1 2003 6
 3653 0040 074B     		ldr	r3, .L202
 3654              		.loc 1 2003 12
 3655 0042 5322     		movs	r2, #83
 3656 0044 5A62     		str	r2, [r3, #36]
2004:../Shared/Libraries/STM32F4xx_StdPeriph_Driver/src/stm32f4xx_rtc.c **** 
2005:../Shared/Libraries/STM32F4xx_StdPeriph_Driver/src/stm32f4xx_rtc.c ****   /* Configure the Time Stamp TSEDGE and Enable bits */
2006:../Shared/Libraries/STM32F4xx_StdPeriph_Driver/src/stm32f4xx_rtc.c ****   RTC->CR = (uint32_t)tmpreg;
 3657              		.loc 1 2006 6
 3658 0046 064A     		ldr	r2, .L202
 3659              		.loc 1 2006 11
 3660 0048 FB68     		ldr	r3, [r7, #12]
 3661 004a 9360     		str	r3, [r2, #8]
2007:../Shared/Libraries/STM32F4xx_StdPeriph_Driver/src/stm32f4xx_rtc.c **** 
2008:../Shared/Libraries/STM32F4xx_StdPeriph_Driver/src/stm32f4xx_rtc.c ****   /* Enable the write protection for RTC registers */
2009:../Shared/Libraries/STM32F4xx_StdPeriph_Driver/src/stm32f4xx_rtc.c ****   RTC->WPR = 0xFF; 
 3662              		.loc 1 2009 6
 3663 004c 044B     		ldr	r3, .L202
 3664              		.loc 1 2009 12
 3665 004e FF22     		movs	r2, #255
 3666 0050 5A62     		str	r2, [r3, #36]
2010:../Shared/Libraries/STM32F4xx_StdPeriph_Driver/src/stm32f4xx_rtc.c **** }
 3667              		.loc 1 2010 1
 3668 0052 00BF     		nop
 3669 0054 1437     		adds	r7, r7, #20
 3670              	.LCFI190:
ARM GAS  /tmp/cctIRrNQ.s 			page 100


 3671              		.cfi_def_cfa_offset 4
 3672 0056 BD46     		mov	sp, r7
 3673              	.LCFI191:
 3674              		.cfi_def_cfa_register 13
 3675              		@ sp needed
 3676 0058 5DF8047B 		ldr	r7, [sp], #4
 3677              	.LCFI192:
 3678              		.cfi_restore 7
 3679              		.cfi_def_cfa_offset 0
 3680 005c 7047     		bx	lr
 3681              	.L203:
 3682 005e 00BF     		.align	2
 3683              	.L202:
 3684 0060 00280040 		.word	1073752064
 3685              		.cfi_endproc
 3686              	.LFE144:
 3688              		.section	.text.RTC_GetTimeStamp,"ax",%progbits
 3689              		.align	1
 3690              		.global	RTC_GetTimeStamp
 3691              		.syntax unified
 3692              		.thumb
 3693              		.thumb_func
 3695              	RTC_GetTimeStamp:
 3696              	.LFB145:
2011:../Shared/Libraries/STM32F4xx_StdPeriph_Driver/src/stm32f4xx_rtc.c **** 
2012:../Shared/Libraries/STM32F4xx_StdPeriph_Driver/src/stm32f4xx_rtc.c **** /**
2013:../Shared/Libraries/STM32F4xx_StdPeriph_Driver/src/stm32f4xx_rtc.c ****   * @brief  Get the RTC TimeStamp value and masks.
2014:../Shared/Libraries/STM32F4xx_StdPeriph_Driver/src/stm32f4xx_rtc.c ****   * @param  RTC_Format: specifies the format of the output parameters.
2015:../Shared/Libraries/STM32F4xx_StdPeriph_Driver/src/stm32f4xx_rtc.c ****   *          This parameter can be one of the following values:
2016:../Shared/Libraries/STM32F4xx_StdPeriph_Driver/src/stm32f4xx_rtc.c ****   *            @arg RTC_Format_BIN: Binary data format 
2017:../Shared/Libraries/STM32F4xx_StdPeriph_Driver/src/stm32f4xx_rtc.c ****   *            @arg RTC_Format_BCD: BCD data format
2018:../Shared/Libraries/STM32F4xx_StdPeriph_Driver/src/stm32f4xx_rtc.c ****   * @param RTC_StampTimeStruct: pointer to a RTC_TimeTypeDef structure that will 
2019:../Shared/Libraries/STM32F4xx_StdPeriph_Driver/src/stm32f4xx_rtc.c ****   *                             contains the TimeStamp time values. 
2020:../Shared/Libraries/STM32F4xx_StdPeriph_Driver/src/stm32f4xx_rtc.c ****   * @param RTC_StampDateStruct: pointer to a RTC_DateTypeDef structure that will 
2021:../Shared/Libraries/STM32F4xx_StdPeriph_Driver/src/stm32f4xx_rtc.c ****   *                             contains the TimeStamp date values.     
2022:../Shared/Libraries/STM32F4xx_StdPeriph_Driver/src/stm32f4xx_rtc.c ****   * @retval None
2023:../Shared/Libraries/STM32F4xx_StdPeriph_Driver/src/stm32f4xx_rtc.c ****   */
2024:../Shared/Libraries/STM32F4xx_StdPeriph_Driver/src/stm32f4xx_rtc.c **** void RTC_GetTimeStamp(uint32_t RTC_Format, RTC_TimeTypeDef* RTC_StampTimeStruct, 
2025:../Shared/Libraries/STM32F4xx_StdPeriph_Driver/src/stm32f4xx_rtc.c ****                                       RTC_DateTypeDef* RTC_StampDateStruct)
2026:../Shared/Libraries/STM32F4xx_StdPeriph_Driver/src/stm32f4xx_rtc.c **** {
 3697              		.loc 1 2026 1
 3698              		.cfi_startproc
 3699              		@ args = 0, pretend = 0, frame = 24
 3700              		@ frame_needed = 1, uses_anonymous_args = 0
 3701 0000 80B5     		push	{r7, lr}
 3702              	.LCFI193:
 3703              		.cfi_def_cfa_offset 8
 3704              		.cfi_offset 7, -8
 3705              		.cfi_offset 14, -4
 3706 0002 86B0     		sub	sp, sp, #24
 3707              	.LCFI194:
 3708              		.cfi_def_cfa_offset 32
 3709 0004 00AF     		add	r7, sp, #0
 3710              	.LCFI195:
 3711              		.cfi_def_cfa_register 7
 3712 0006 F860     		str	r0, [r7, #12]
 3713 0008 B960     		str	r1, [r7, #8]
ARM GAS  /tmp/cctIRrNQ.s 			page 101


 3714 000a 7A60     		str	r2, [r7, #4]
2027:../Shared/Libraries/STM32F4xx_StdPeriph_Driver/src/stm32f4xx_rtc.c ****   uint32_t tmptime = 0, tmpdate = 0;
 3715              		.loc 1 2027 12
 3716 000c 0023     		movs	r3, #0
 3717 000e 7B61     		str	r3, [r7, #20]
 3718              		.loc 1 2027 25
 3719 0010 0023     		movs	r3, #0
 3720 0012 3B61     		str	r3, [r7, #16]
2028:../Shared/Libraries/STM32F4xx_StdPeriph_Driver/src/stm32f4xx_rtc.c **** 
2029:../Shared/Libraries/STM32F4xx_StdPeriph_Driver/src/stm32f4xx_rtc.c ****   /* Check the parameters */
2030:../Shared/Libraries/STM32F4xx_StdPeriph_Driver/src/stm32f4xx_rtc.c ****   assert_param(IS_RTC_FORMAT(RTC_Format));
2031:../Shared/Libraries/STM32F4xx_StdPeriph_Driver/src/stm32f4xx_rtc.c **** 
2032:../Shared/Libraries/STM32F4xx_StdPeriph_Driver/src/stm32f4xx_rtc.c ****   /* Get the TimeStamp time and date registers values */
2033:../Shared/Libraries/STM32F4xx_StdPeriph_Driver/src/stm32f4xx_rtc.c ****   tmptime = (uint32_t)(RTC->TSTR & RTC_TR_RESERVED_MASK);
 3721              		.loc 1 2033 27
 3722 0014 414B     		ldr	r3, .L207
 3723 0016 1B6B     		ldr	r3, [r3, #48]
 3724              		.loc 1 2033 11
 3725 0018 03F07F33 		and	r3, r3, #2139062143
 3726 001c 23F0FE43 		bic	r3, r3, #2130706432
 3727 0020 7B61     		str	r3, [r7, #20]
2034:../Shared/Libraries/STM32F4xx_StdPeriph_Driver/src/stm32f4xx_rtc.c ****   tmpdate = (uint32_t)(RTC->TSDR & RTC_DR_RESERVED_MASK);
 3728              		.loc 1 2034 27
 3729 0022 3E4B     		ldr	r3, .L207
 3730 0024 5B6B     		ldr	r3, [r3, #52]
 3731              		.loc 1 2034 11
 3732 0026 23F07F43 		bic	r3, r3, #-16777216
 3733 002a 23F0C003 		bic	r3, r3, #192
 3734 002e 3B61     		str	r3, [r7, #16]
2035:../Shared/Libraries/STM32F4xx_StdPeriph_Driver/src/stm32f4xx_rtc.c **** 
2036:../Shared/Libraries/STM32F4xx_StdPeriph_Driver/src/stm32f4xx_rtc.c ****   /* Fill the Time structure fields with the read parameters */
2037:../Shared/Libraries/STM32F4xx_StdPeriph_Driver/src/stm32f4xx_rtc.c ****   RTC_StampTimeStruct->RTC_Hours = (uint8_t)((tmptime & (RTC_TR_HT | RTC_TR_HU)) >> 16);
 3735              		.loc 1 2037 82
 3736 0030 7B69     		ldr	r3, [r7, #20]
 3737 0032 1B0C     		lsrs	r3, r3, #16
 3738              		.loc 1 2037 36
 3739 0034 DBB2     		uxtb	r3, r3
 3740 0036 03F03F03 		and	r3, r3, #63
 3741 003a DAB2     		uxtb	r2, r3
 3742              		.loc 1 2037 34
 3743 003c BB68     		ldr	r3, [r7, #8]
 3744 003e 1A70     		strb	r2, [r3]
2038:../Shared/Libraries/STM32F4xx_StdPeriph_Driver/src/stm32f4xx_rtc.c ****   RTC_StampTimeStruct->RTC_Minutes = (uint8_t)((tmptime & (RTC_TR_MNT | RTC_TR_MNU)) >> 8);
 3745              		.loc 1 2038 86
 3746 0040 7B69     		ldr	r3, [r7, #20]
 3747 0042 1B0A     		lsrs	r3, r3, #8
 3748              		.loc 1 2038 38
 3749 0044 DBB2     		uxtb	r3, r3
 3750 0046 03F07F03 		and	r3, r3, #127
 3751 004a DAB2     		uxtb	r2, r3
 3752              		.loc 1 2038 36
 3753 004c BB68     		ldr	r3, [r7, #8]
 3754 004e 5A70     		strb	r2, [r3, #1]
2039:../Shared/Libraries/STM32F4xx_StdPeriph_Driver/src/stm32f4xx_rtc.c ****   RTC_StampTimeStruct->RTC_Seconds = (uint8_t)(tmptime & (RTC_TR_ST | RTC_TR_SU));
 3755              		.loc 1 2039 38
 3756 0050 7B69     		ldr	r3, [r7, #20]
 3757 0052 DBB2     		uxtb	r3, r3
ARM GAS  /tmp/cctIRrNQ.s 			page 102


 3758 0054 03F07F03 		and	r3, r3, #127
 3759 0058 DAB2     		uxtb	r2, r3
 3760              		.loc 1 2039 36
 3761 005a BB68     		ldr	r3, [r7, #8]
 3762 005c 9A70     		strb	r2, [r3, #2]
2040:../Shared/Libraries/STM32F4xx_StdPeriph_Driver/src/stm32f4xx_rtc.c ****   RTC_StampTimeStruct->RTC_H12 = (uint8_t)((tmptime & (RTC_TR_PM)) >> 16);  
 3763              		.loc 1 2040 68
 3764 005e 7B69     		ldr	r3, [r7, #20]
 3765 0060 1B0C     		lsrs	r3, r3, #16
 3766              		.loc 1 2040 34
 3767 0062 DBB2     		uxtb	r3, r3
 3768 0064 03F04003 		and	r3, r3, #64
 3769 0068 DAB2     		uxtb	r2, r3
 3770              		.loc 1 2040 32
 3771 006a BB68     		ldr	r3, [r7, #8]
 3772 006c DA70     		strb	r2, [r3, #3]
2041:../Shared/Libraries/STM32F4xx_StdPeriph_Driver/src/stm32f4xx_rtc.c **** 
2042:../Shared/Libraries/STM32F4xx_StdPeriph_Driver/src/stm32f4xx_rtc.c ****   /* Fill the Date structure fields with the read parameters */
2043:../Shared/Libraries/STM32F4xx_StdPeriph_Driver/src/stm32f4xx_rtc.c ****   RTC_StampDateStruct->RTC_Year = 0;
 3773              		.loc 1 2043 33
 3774 006e 7B68     		ldr	r3, [r7, #4]
 3775 0070 0022     		movs	r2, #0
 3776 0072 DA70     		strb	r2, [r3, #3]
2044:../Shared/Libraries/STM32F4xx_StdPeriph_Driver/src/stm32f4xx_rtc.c ****   RTC_StampDateStruct->RTC_Month = (uint8_t)((tmpdate & (RTC_DR_MT | RTC_DR_MU)) >> 8);
 3777              		.loc 1 2044 82
 3778 0074 3B69     		ldr	r3, [r7, #16]
 3779 0076 1B0A     		lsrs	r3, r3, #8
 3780              		.loc 1 2044 36
 3781 0078 DBB2     		uxtb	r3, r3
 3782 007a 03F01F03 		and	r3, r3, #31
 3783 007e DAB2     		uxtb	r2, r3
 3784              		.loc 1 2044 34
 3785 0080 7B68     		ldr	r3, [r7, #4]
 3786 0082 5A70     		strb	r2, [r3, #1]
2045:../Shared/Libraries/STM32F4xx_StdPeriph_Driver/src/stm32f4xx_rtc.c ****   RTC_StampDateStruct->RTC_Date = (uint8_t)(tmpdate & (RTC_DR_DT | RTC_DR_DU));
 3787              		.loc 1 2045 35
 3788 0084 3B69     		ldr	r3, [r7, #16]
 3789 0086 DBB2     		uxtb	r3, r3
 3790 0088 03F03F03 		and	r3, r3, #63
 3791 008c DAB2     		uxtb	r2, r3
 3792              		.loc 1 2045 33
 3793 008e 7B68     		ldr	r3, [r7, #4]
 3794 0090 9A70     		strb	r2, [r3, #2]
2046:../Shared/Libraries/STM32F4xx_StdPeriph_Driver/src/stm32f4xx_rtc.c ****   RTC_StampDateStruct->RTC_WeekDay = (uint8_t)((tmpdate & (RTC_DR_WDU)) >> 13);
 3795              		.loc 1 2046 73
 3796 0092 3B69     		ldr	r3, [r7, #16]
 3797 0094 5B0B     		lsrs	r3, r3, #13
 3798              		.loc 1 2046 38
 3799 0096 DBB2     		uxtb	r3, r3
 3800 0098 03F00703 		and	r3, r3, #7
 3801 009c DAB2     		uxtb	r2, r3
 3802              		.loc 1 2046 36
 3803 009e 7B68     		ldr	r3, [r7, #4]
 3804 00a0 1A70     		strb	r2, [r3]
2047:../Shared/Libraries/STM32F4xx_StdPeriph_Driver/src/stm32f4xx_rtc.c **** 
2048:../Shared/Libraries/STM32F4xx_StdPeriph_Driver/src/stm32f4xx_rtc.c ****   /* Check the input parameters format */
2049:../Shared/Libraries/STM32F4xx_StdPeriph_Driver/src/stm32f4xx_rtc.c ****   if (RTC_Format == RTC_Format_BIN)
ARM GAS  /tmp/cctIRrNQ.s 			page 103


 3805              		.loc 1 2049 6
 3806 00a2 FB68     		ldr	r3, [r7, #12]
 3807 00a4 002B     		cmp	r3, #0
 3808 00a6 35D1     		bne	.L206
2050:../Shared/Libraries/STM32F4xx_StdPeriph_Driver/src/stm32f4xx_rtc.c ****   {
2051:../Shared/Libraries/STM32F4xx_StdPeriph_Driver/src/stm32f4xx_rtc.c ****     /* Convert the Time structure parameters to Binary format */
2052:../Shared/Libraries/STM32F4xx_StdPeriph_Driver/src/stm32f4xx_rtc.c ****     RTC_StampTimeStruct->RTC_Hours = (uint8_t)RTC_Bcd2ToByte(RTC_StampTimeStruct->RTC_Hours);
 3809              		.loc 1 2052 47
 3810 00a8 BB68     		ldr	r3, [r7, #8]
 3811 00aa 1B78     		ldrb	r3, [r3]	@ zero_extendqisi2
 3812 00ac 1846     		mov	r0, r3
 3813 00ae FFF7FEFF 		bl	RTC_Bcd2ToByte
 3814 00b2 0346     		mov	r3, r0
 3815 00b4 1A46     		mov	r2, r3
 3816              		.loc 1 2052 36 discriminator 1
 3817 00b6 BB68     		ldr	r3, [r7, #8]
 3818 00b8 1A70     		strb	r2, [r3]
2053:../Shared/Libraries/STM32F4xx_StdPeriph_Driver/src/stm32f4xx_rtc.c ****     RTC_StampTimeStruct->RTC_Minutes = (uint8_t)RTC_Bcd2ToByte(RTC_StampTimeStruct->RTC_Minutes);
 3819              		.loc 1 2053 49
 3820 00ba BB68     		ldr	r3, [r7, #8]
 3821 00bc 5B78     		ldrb	r3, [r3, #1]	@ zero_extendqisi2
 3822 00be 1846     		mov	r0, r3
 3823 00c0 FFF7FEFF 		bl	RTC_Bcd2ToByte
 3824 00c4 0346     		mov	r3, r0
 3825 00c6 1A46     		mov	r2, r3
 3826              		.loc 1 2053 38 discriminator 1
 3827 00c8 BB68     		ldr	r3, [r7, #8]
 3828 00ca 5A70     		strb	r2, [r3, #1]
2054:../Shared/Libraries/STM32F4xx_StdPeriph_Driver/src/stm32f4xx_rtc.c ****     RTC_StampTimeStruct->RTC_Seconds = (uint8_t)RTC_Bcd2ToByte(RTC_StampTimeStruct->RTC_Seconds);
 3829              		.loc 1 2054 49
 3830 00cc BB68     		ldr	r3, [r7, #8]
 3831 00ce 9B78     		ldrb	r3, [r3, #2]	@ zero_extendqisi2
 3832 00d0 1846     		mov	r0, r3
 3833 00d2 FFF7FEFF 		bl	RTC_Bcd2ToByte
 3834 00d6 0346     		mov	r3, r0
 3835 00d8 1A46     		mov	r2, r3
 3836              		.loc 1 2054 38 discriminator 1
 3837 00da BB68     		ldr	r3, [r7, #8]
 3838 00dc 9A70     		strb	r2, [r3, #2]
2055:../Shared/Libraries/STM32F4xx_StdPeriph_Driver/src/stm32f4xx_rtc.c **** 
2056:../Shared/Libraries/STM32F4xx_StdPeriph_Driver/src/stm32f4xx_rtc.c ****     /* Convert the Date structure parameters to Binary format */
2057:../Shared/Libraries/STM32F4xx_StdPeriph_Driver/src/stm32f4xx_rtc.c ****     RTC_StampDateStruct->RTC_Month = (uint8_t)RTC_Bcd2ToByte(RTC_StampDateStruct->RTC_Month);
 3839              		.loc 1 2057 47
 3840 00de 7B68     		ldr	r3, [r7, #4]
 3841 00e0 5B78     		ldrb	r3, [r3, #1]	@ zero_extendqisi2
 3842 00e2 1846     		mov	r0, r3
 3843 00e4 FFF7FEFF 		bl	RTC_Bcd2ToByte
 3844 00e8 0346     		mov	r3, r0
 3845 00ea 1A46     		mov	r2, r3
 3846              		.loc 1 2057 36 discriminator 1
 3847 00ec 7B68     		ldr	r3, [r7, #4]
 3848 00ee 5A70     		strb	r2, [r3, #1]
2058:../Shared/Libraries/STM32F4xx_StdPeriph_Driver/src/stm32f4xx_rtc.c ****     RTC_StampDateStruct->RTC_Date = (uint8_t)RTC_Bcd2ToByte(RTC_StampDateStruct->RTC_Date);
 3849              		.loc 1 2058 46
 3850 00f0 7B68     		ldr	r3, [r7, #4]
 3851 00f2 9B78     		ldrb	r3, [r3, #2]	@ zero_extendqisi2
 3852 00f4 1846     		mov	r0, r3
ARM GAS  /tmp/cctIRrNQ.s 			page 104


 3853 00f6 FFF7FEFF 		bl	RTC_Bcd2ToByte
 3854 00fa 0346     		mov	r3, r0
 3855 00fc 1A46     		mov	r2, r3
 3856              		.loc 1 2058 35 discriminator 1
 3857 00fe 7B68     		ldr	r3, [r7, #4]
 3858 0100 9A70     		strb	r2, [r3, #2]
2059:../Shared/Libraries/STM32F4xx_StdPeriph_Driver/src/stm32f4xx_rtc.c ****     RTC_StampDateStruct->RTC_WeekDay = (uint8_t)RTC_Bcd2ToByte(RTC_StampDateStruct->RTC_WeekDay);
 3859              		.loc 1 2059 49
 3860 0102 7B68     		ldr	r3, [r7, #4]
 3861 0104 1B78     		ldrb	r3, [r3]	@ zero_extendqisi2
 3862 0106 1846     		mov	r0, r3
 3863 0108 FFF7FEFF 		bl	RTC_Bcd2ToByte
 3864 010c 0346     		mov	r3, r0
 3865 010e 1A46     		mov	r2, r3
 3866              		.loc 1 2059 38 discriminator 1
 3867 0110 7B68     		ldr	r3, [r7, #4]
 3868 0112 1A70     		strb	r2, [r3]
 3869              	.L206:
2060:../Shared/Libraries/STM32F4xx_StdPeriph_Driver/src/stm32f4xx_rtc.c ****   }
2061:../Shared/Libraries/STM32F4xx_StdPeriph_Driver/src/stm32f4xx_rtc.c **** }
 3870              		.loc 1 2061 1
 3871 0114 00BF     		nop
 3872 0116 1837     		adds	r7, r7, #24
 3873              	.LCFI196:
 3874              		.cfi_def_cfa_offset 8
 3875 0118 BD46     		mov	sp, r7
 3876              	.LCFI197:
 3877              		.cfi_def_cfa_register 13
 3878              		@ sp needed
 3879 011a 80BD     		pop	{r7, pc}
 3880              	.L208:
 3881              		.align	2
 3882              	.L207:
 3883 011c 00280040 		.word	1073752064
 3884              		.cfi_endproc
 3885              	.LFE145:
 3887              		.section	.text.RTC_GetTimeStampSubSecond,"ax",%progbits
 3888              		.align	1
 3889              		.global	RTC_GetTimeStampSubSecond
 3890              		.syntax unified
 3891              		.thumb
 3892              		.thumb_func
 3894              	RTC_GetTimeStampSubSecond:
 3895              	.LFB146:
2062:../Shared/Libraries/STM32F4xx_StdPeriph_Driver/src/stm32f4xx_rtc.c **** 
2063:../Shared/Libraries/STM32F4xx_StdPeriph_Driver/src/stm32f4xx_rtc.c **** /**
2064:../Shared/Libraries/STM32F4xx_StdPeriph_Driver/src/stm32f4xx_rtc.c ****   * @brief  Get the RTC timestamp Subseconds value.
2065:../Shared/Libraries/STM32F4xx_StdPeriph_Driver/src/stm32f4xx_rtc.c ****   * @param  None
2066:../Shared/Libraries/STM32F4xx_StdPeriph_Driver/src/stm32f4xx_rtc.c ****   * @retval RTC current timestamp Subseconds value.
2067:../Shared/Libraries/STM32F4xx_StdPeriph_Driver/src/stm32f4xx_rtc.c ****   */
2068:../Shared/Libraries/STM32F4xx_StdPeriph_Driver/src/stm32f4xx_rtc.c **** uint32_t RTC_GetTimeStampSubSecond(void)
2069:../Shared/Libraries/STM32F4xx_StdPeriph_Driver/src/stm32f4xx_rtc.c **** {
 3896              		.loc 1 2069 1
 3897              		.cfi_startproc
 3898              		@ args = 0, pretend = 0, frame = 0
 3899              		@ frame_needed = 1, uses_anonymous_args = 0
 3900              		@ link register save eliminated.
ARM GAS  /tmp/cctIRrNQ.s 			page 105


 3901 0000 80B4     		push	{r7}
 3902              	.LCFI198:
 3903              		.cfi_def_cfa_offset 4
 3904              		.cfi_offset 7, -4
 3905 0002 00AF     		add	r7, sp, #0
 3906              	.LCFI199:
 3907              		.cfi_def_cfa_register 7
2070:../Shared/Libraries/STM32F4xx_StdPeriph_Driver/src/stm32f4xx_rtc.c ****   /* Get timestamp subseconds values from the correspondent registers */
2071:../Shared/Libraries/STM32F4xx_StdPeriph_Driver/src/stm32f4xx_rtc.c ****   return (uint32_t)(RTC->TSSSR);
 3908              		.loc 1 2071 24
 3909 0004 034B     		ldr	r3, .L211
 3910              		.loc 1 2071 10
 3911 0006 9B6B     		ldr	r3, [r3, #56]
2072:../Shared/Libraries/STM32F4xx_StdPeriph_Driver/src/stm32f4xx_rtc.c **** }
 3912              		.loc 1 2072 1
 3913 0008 1846     		mov	r0, r3
 3914 000a BD46     		mov	sp, r7
 3915              	.LCFI200:
 3916              		.cfi_def_cfa_register 13
 3917              		@ sp needed
 3918 000c 5DF8047B 		ldr	r7, [sp], #4
 3919              	.LCFI201:
 3920              		.cfi_restore 7
 3921              		.cfi_def_cfa_offset 0
 3922 0010 7047     		bx	lr
 3923              	.L212:
 3924 0012 00BF     		.align	2
 3925              	.L211:
 3926 0014 00280040 		.word	1073752064
 3927              		.cfi_endproc
 3928              	.LFE146:
 3930              		.section	.text.RTC_TamperTriggerConfig,"ax",%progbits
 3931              		.align	1
 3932              		.global	RTC_TamperTriggerConfig
 3933              		.syntax unified
 3934              		.thumb
 3935              		.thumb_func
 3937              	RTC_TamperTriggerConfig:
 3938              	.LFB147:
2073:../Shared/Libraries/STM32F4xx_StdPeriph_Driver/src/stm32f4xx_rtc.c **** 
2074:../Shared/Libraries/STM32F4xx_StdPeriph_Driver/src/stm32f4xx_rtc.c **** /**
2075:../Shared/Libraries/STM32F4xx_StdPeriph_Driver/src/stm32f4xx_rtc.c ****   * @}
2076:../Shared/Libraries/STM32F4xx_StdPeriph_Driver/src/stm32f4xx_rtc.c ****   */
2077:../Shared/Libraries/STM32F4xx_StdPeriph_Driver/src/stm32f4xx_rtc.c **** 
2078:../Shared/Libraries/STM32F4xx_StdPeriph_Driver/src/stm32f4xx_rtc.c **** /** @defgroup RTC_Group9 Tampers configuration functions
2079:../Shared/Libraries/STM32F4xx_StdPeriph_Driver/src/stm32f4xx_rtc.c ****  *  @brief   Tampers configuration functions 
2080:../Shared/Libraries/STM32F4xx_StdPeriph_Driver/src/stm32f4xx_rtc.c ****  *
2081:../Shared/Libraries/STM32F4xx_StdPeriph_Driver/src/stm32f4xx_rtc.c **** @verbatim   
2082:../Shared/Libraries/STM32F4xx_StdPeriph_Driver/src/stm32f4xx_rtc.c ****  ===============================================================================
2083:../Shared/Libraries/STM32F4xx_StdPeriph_Driver/src/stm32f4xx_rtc.c ****                        Tampers configuration functions
2084:../Shared/Libraries/STM32F4xx_StdPeriph_Driver/src/stm32f4xx_rtc.c ****  ===============================================================================  
2085:../Shared/Libraries/STM32F4xx_StdPeriph_Driver/src/stm32f4xx_rtc.c **** 
2086:../Shared/Libraries/STM32F4xx_StdPeriph_Driver/src/stm32f4xx_rtc.c **** @endverbatim
2087:../Shared/Libraries/STM32F4xx_StdPeriph_Driver/src/stm32f4xx_rtc.c ****   * @{
2088:../Shared/Libraries/STM32F4xx_StdPeriph_Driver/src/stm32f4xx_rtc.c ****   */
2089:../Shared/Libraries/STM32F4xx_StdPeriph_Driver/src/stm32f4xx_rtc.c **** 
2090:../Shared/Libraries/STM32F4xx_StdPeriph_Driver/src/stm32f4xx_rtc.c **** /**
ARM GAS  /tmp/cctIRrNQ.s 			page 106


2091:../Shared/Libraries/STM32F4xx_StdPeriph_Driver/src/stm32f4xx_rtc.c ****   * @brief  Configures the select Tamper pin edge.
2092:../Shared/Libraries/STM32F4xx_StdPeriph_Driver/src/stm32f4xx_rtc.c ****   * @param  RTC_Tamper: Selected tamper pin.
2093:../Shared/Libraries/STM32F4xx_StdPeriph_Driver/src/stm32f4xx_rtc.c ****   *          This parameter can be RTC_Tamper_1.
2094:../Shared/Libraries/STM32F4xx_StdPeriph_Driver/src/stm32f4xx_rtc.c ****   * @param  RTC_TamperTrigger: Specifies the trigger on the tamper pin that 
2095:../Shared/Libraries/STM32F4xx_StdPeriph_Driver/src/stm32f4xx_rtc.c ****   *         stimulates tamper event. 
2096:../Shared/Libraries/STM32F4xx_StdPeriph_Driver/src/stm32f4xx_rtc.c ****   *   This parameter can be one of the following values:
2097:../Shared/Libraries/STM32F4xx_StdPeriph_Driver/src/stm32f4xx_rtc.c ****   *     @arg RTC_TamperTrigger_RisingEdge: Rising Edge of the tamper pin causes tamper event.
2098:../Shared/Libraries/STM32F4xx_StdPeriph_Driver/src/stm32f4xx_rtc.c ****   *     @arg RTC_TamperTrigger_FallingEdge: Falling Edge of the tamper pin causes tamper event.
2099:../Shared/Libraries/STM32F4xx_StdPeriph_Driver/src/stm32f4xx_rtc.c ****   *     @arg RTC_TamperTrigger_LowLevel: Low Level of the tamper pin causes tamper event.
2100:../Shared/Libraries/STM32F4xx_StdPeriph_Driver/src/stm32f4xx_rtc.c ****   *     @arg RTC_TamperTrigger_HighLevel: High Level of the tamper pin causes tamper event.
2101:../Shared/Libraries/STM32F4xx_StdPeriph_Driver/src/stm32f4xx_rtc.c ****   * @retval None
2102:../Shared/Libraries/STM32F4xx_StdPeriph_Driver/src/stm32f4xx_rtc.c ****   */
2103:../Shared/Libraries/STM32F4xx_StdPeriph_Driver/src/stm32f4xx_rtc.c **** void RTC_TamperTriggerConfig(uint32_t RTC_Tamper, uint32_t RTC_TamperTrigger)
2104:../Shared/Libraries/STM32F4xx_StdPeriph_Driver/src/stm32f4xx_rtc.c **** {
 3939              		.loc 1 2104 1
 3940              		.cfi_startproc
 3941              		@ args = 0, pretend = 0, frame = 8
 3942              		@ frame_needed = 1, uses_anonymous_args = 0
 3943              		@ link register save eliminated.
 3944 0000 80B4     		push	{r7}
 3945              	.LCFI202:
 3946              		.cfi_def_cfa_offset 4
 3947              		.cfi_offset 7, -4
 3948 0002 83B0     		sub	sp, sp, #12
 3949              	.LCFI203:
 3950              		.cfi_def_cfa_offset 16
 3951 0004 00AF     		add	r7, sp, #0
 3952              	.LCFI204:
 3953              		.cfi_def_cfa_register 7
 3954 0006 7860     		str	r0, [r7, #4]
 3955 0008 3960     		str	r1, [r7]
2105:../Shared/Libraries/STM32F4xx_StdPeriph_Driver/src/stm32f4xx_rtc.c ****   /* Check the parameters */
2106:../Shared/Libraries/STM32F4xx_StdPeriph_Driver/src/stm32f4xx_rtc.c ****   assert_param(IS_RTC_TAMPER(RTC_Tamper)); 
2107:../Shared/Libraries/STM32F4xx_StdPeriph_Driver/src/stm32f4xx_rtc.c ****   assert_param(IS_RTC_TAMPER_TRIGGER(RTC_TamperTrigger));
2108:../Shared/Libraries/STM32F4xx_StdPeriph_Driver/src/stm32f4xx_rtc.c ****  
2109:../Shared/Libraries/STM32F4xx_StdPeriph_Driver/src/stm32f4xx_rtc.c ****   if (RTC_TamperTrigger == RTC_TamperTrigger_RisingEdge)
 3956              		.loc 1 2109 6
 3957 000a 3B68     		ldr	r3, [r7]
 3958 000c 002B     		cmp	r3, #0
 3959 000e 08D1     		bne	.L214
2110:../Shared/Libraries/STM32F4xx_StdPeriph_Driver/src/stm32f4xx_rtc.c ****   {  
2111:../Shared/Libraries/STM32F4xx_StdPeriph_Driver/src/stm32f4xx_rtc.c ****     /* Configure the RTC_TAFCR register */
2112:../Shared/Libraries/STM32F4xx_StdPeriph_Driver/src/stm32f4xx_rtc.c ****     RTC->TAFCR &= (uint32_t)((uint32_t)~(RTC_Tamper << 1));	
 3960              		.loc 1 2112 8
 3961 0010 0A4B     		ldr	r3, .L217
 3962 0012 1A6C     		ldr	r2, [r3, #64]
 3963              		.loc 1 2112 53
 3964 0014 7B68     		ldr	r3, [r7, #4]
 3965 0016 5B00     		lsls	r3, r3, #1
 3966              		.loc 1 2112 40
 3967 0018 DB43     		mvns	r3, r3
 3968              		.loc 1 2112 8
 3969 001a 0849     		ldr	r1, .L217
 3970              		.loc 1 2112 16
 3971 001c 1340     		ands	r3, r3, r2
 3972 001e 0B64     		str	r3, [r1, #64]
2113:../Shared/Libraries/STM32F4xx_StdPeriph_Driver/src/stm32f4xx_rtc.c ****   }
ARM GAS  /tmp/cctIRrNQ.s 			page 107


2114:../Shared/Libraries/STM32F4xx_StdPeriph_Driver/src/stm32f4xx_rtc.c ****   else
2115:../Shared/Libraries/STM32F4xx_StdPeriph_Driver/src/stm32f4xx_rtc.c ****   { 
2116:../Shared/Libraries/STM32F4xx_StdPeriph_Driver/src/stm32f4xx_rtc.c ****     /* Configure the RTC_TAFCR register */
2117:../Shared/Libraries/STM32F4xx_StdPeriph_Driver/src/stm32f4xx_rtc.c ****     RTC->TAFCR |= (uint32_t)(RTC_Tamper << 1);  
2118:../Shared/Libraries/STM32F4xx_StdPeriph_Driver/src/stm32f4xx_rtc.c ****   }  
2119:../Shared/Libraries/STM32F4xx_StdPeriph_Driver/src/stm32f4xx_rtc.c **** }
 3973              		.loc 1 2119 1
 3974 0020 06E0     		b	.L216
 3975              	.L214:
2117:../Shared/Libraries/STM32F4xx_StdPeriph_Driver/src/stm32f4xx_rtc.c ****   }  
 3976              		.loc 1 2117 8
 3977 0022 064B     		ldr	r3, .L217
 3978 0024 1A6C     		ldr	r2, [r3, #64]
2117:../Shared/Libraries/STM32F4xx_StdPeriph_Driver/src/stm32f4xx_rtc.c ****   }  
 3979              		.loc 1 2117 19
 3980 0026 7B68     		ldr	r3, [r7, #4]
 3981 0028 5B00     		lsls	r3, r3, #1
2117:../Shared/Libraries/STM32F4xx_StdPeriph_Driver/src/stm32f4xx_rtc.c ****   }  
 3982              		.loc 1 2117 8
 3983 002a 0449     		ldr	r1, .L217
2117:../Shared/Libraries/STM32F4xx_StdPeriph_Driver/src/stm32f4xx_rtc.c ****   }  
 3984              		.loc 1 2117 16
 3985 002c 1343     		orrs	r3, r3, r2
 3986 002e 0B64     		str	r3, [r1, #64]
 3987              	.L216:
 3988              		.loc 1 2119 1
 3989 0030 00BF     		nop
 3990 0032 0C37     		adds	r7, r7, #12
 3991              	.LCFI205:
 3992              		.cfi_def_cfa_offset 4
 3993 0034 BD46     		mov	sp, r7
 3994              	.LCFI206:
 3995              		.cfi_def_cfa_register 13
 3996              		@ sp needed
 3997 0036 5DF8047B 		ldr	r7, [sp], #4
 3998              	.LCFI207:
 3999              		.cfi_restore 7
 4000              		.cfi_def_cfa_offset 0
 4001 003a 7047     		bx	lr
 4002              	.L218:
 4003              		.align	2
 4004              	.L217:
 4005 003c 00280040 		.word	1073752064
 4006              		.cfi_endproc
 4007              	.LFE147:
 4009              		.section	.text.RTC_TamperCmd,"ax",%progbits
 4010              		.align	1
 4011              		.global	RTC_TamperCmd
 4012              		.syntax unified
 4013              		.thumb
 4014              		.thumb_func
 4016              	RTC_TamperCmd:
 4017              	.LFB148:
2120:../Shared/Libraries/STM32F4xx_StdPeriph_Driver/src/stm32f4xx_rtc.c **** 
2121:../Shared/Libraries/STM32F4xx_StdPeriph_Driver/src/stm32f4xx_rtc.c **** /**
2122:../Shared/Libraries/STM32F4xx_StdPeriph_Driver/src/stm32f4xx_rtc.c ****   * @brief  Enables or Disables the Tamper detection.
2123:../Shared/Libraries/STM32F4xx_StdPeriph_Driver/src/stm32f4xx_rtc.c ****   * @param  RTC_Tamper: Selected tamper pin.
ARM GAS  /tmp/cctIRrNQ.s 			page 108


2124:../Shared/Libraries/STM32F4xx_StdPeriph_Driver/src/stm32f4xx_rtc.c ****   *          This parameter can be RTC_Tamper_1.
2125:../Shared/Libraries/STM32F4xx_StdPeriph_Driver/src/stm32f4xx_rtc.c ****   * @param  NewState: new state of the tamper pin.
2126:../Shared/Libraries/STM32F4xx_StdPeriph_Driver/src/stm32f4xx_rtc.c ****   *          This parameter can be: ENABLE or DISABLE.                   
2127:../Shared/Libraries/STM32F4xx_StdPeriph_Driver/src/stm32f4xx_rtc.c ****   * @retval None
2128:../Shared/Libraries/STM32F4xx_StdPeriph_Driver/src/stm32f4xx_rtc.c ****   */
2129:../Shared/Libraries/STM32F4xx_StdPeriph_Driver/src/stm32f4xx_rtc.c **** void RTC_TamperCmd(uint32_t RTC_Tamper, FunctionalState NewState)
2130:../Shared/Libraries/STM32F4xx_StdPeriph_Driver/src/stm32f4xx_rtc.c **** {
 4018              		.loc 1 2130 1
 4019              		.cfi_startproc
 4020              		@ args = 0, pretend = 0, frame = 8
 4021              		@ frame_needed = 1, uses_anonymous_args = 0
 4022              		@ link register save eliminated.
 4023 0000 80B4     		push	{r7}
 4024              	.LCFI208:
 4025              		.cfi_def_cfa_offset 4
 4026              		.cfi_offset 7, -4
 4027 0002 83B0     		sub	sp, sp, #12
 4028              	.LCFI209:
 4029              		.cfi_def_cfa_offset 16
 4030 0004 00AF     		add	r7, sp, #0
 4031              	.LCFI210:
 4032              		.cfi_def_cfa_register 7
 4033 0006 7860     		str	r0, [r7, #4]
 4034 0008 0B46     		mov	r3, r1
 4035 000a FB70     		strb	r3, [r7, #3]
2131:../Shared/Libraries/STM32F4xx_StdPeriph_Driver/src/stm32f4xx_rtc.c ****   /* Check the parameters */
2132:../Shared/Libraries/STM32F4xx_StdPeriph_Driver/src/stm32f4xx_rtc.c ****   assert_param(IS_RTC_TAMPER(RTC_Tamper));  
2133:../Shared/Libraries/STM32F4xx_StdPeriph_Driver/src/stm32f4xx_rtc.c ****   assert_param(IS_FUNCTIONAL_STATE(NewState));
2134:../Shared/Libraries/STM32F4xx_StdPeriph_Driver/src/stm32f4xx_rtc.c ****   
2135:../Shared/Libraries/STM32F4xx_StdPeriph_Driver/src/stm32f4xx_rtc.c ****   if (NewState != DISABLE)
 4036              		.loc 1 2135 6
 4037 000c FB78     		ldrb	r3, [r7, #3]	@ zero_extendqisi2
 4038 000e 002B     		cmp	r3, #0
 4039 0010 06D0     		beq	.L220
2136:../Shared/Libraries/STM32F4xx_StdPeriph_Driver/src/stm32f4xx_rtc.c ****   {
2137:../Shared/Libraries/STM32F4xx_StdPeriph_Driver/src/stm32f4xx_rtc.c ****     /* Enable the selected Tamper pin */
2138:../Shared/Libraries/STM32F4xx_StdPeriph_Driver/src/stm32f4xx_rtc.c ****     RTC->TAFCR |= (uint32_t)RTC_Tamper;
 4040              		.loc 1 2138 8
 4041 0012 0A4B     		ldr	r3, .L223
 4042 0014 1A6C     		ldr	r2, [r3, #64]
 4043 0016 0949     		ldr	r1, .L223
 4044              		.loc 1 2138 16
 4045 0018 7B68     		ldr	r3, [r7, #4]
 4046 001a 1343     		orrs	r3, r3, r2
 4047 001c 0B64     		str	r3, [r1, #64]
2139:../Shared/Libraries/STM32F4xx_StdPeriph_Driver/src/stm32f4xx_rtc.c ****   }
2140:../Shared/Libraries/STM32F4xx_StdPeriph_Driver/src/stm32f4xx_rtc.c ****   else
2141:../Shared/Libraries/STM32F4xx_StdPeriph_Driver/src/stm32f4xx_rtc.c ****   {
2142:../Shared/Libraries/STM32F4xx_StdPeriph_Driver/src/stm32f4xx_rtc.c ****     /* Disable the selected Tamper pin */
2143:../Shared/Libraries/STM32F4xx_StdPeriph_Driver/src/stm32f4xx_rtc.c ****     RTC->TAFCR &= (uint32_t)~RTC_Tamper;    
2144:../Shared/Libraries/STM32F4xx_StdPeriph_Driver/src/stm32f4xx_rtc.c ****   }  
2145:../Shared/Libraries/STM32F4xx_StdPeriph_Driver/src/stm32f4xx_rtc.c **** }
 4048              		.loc 1 2145 1
 4049 001e 06E0     		b	.L222
 4050              	.L220:
2143:../Shared/Libraries/STM32F4xx_StdPeriph_Driver/src/stm32f4xx_rtc.c ****   }  
 4051              		.loc 1 2143 8
ARM GAS  /tmp/cctIRrNQ.s 			page 109


 4052 0020 064B     		ldr	r3, .L223
 4053 0022 1A6C     		ldr	r2, [r3, #64]
2143:../Shared/Libraries/STM32F4xx_StdPeriph_Driver/src/stm32f4xx_rtc.c ****   }  
 4054              		.loc 1 2143 29
 4055 0024 7B68     		ldr	r3, [r7, #4]
 4056 0026 DB43     		mvns	r3, r3
2143:../Shared/Libraries/STM32F4xx_StdPeriph_Driver/src/stm32f4xx_rtc.c ****   }  
 4057              		.loc 1 2143 8
 4058 0028 0449     		ldr	r1, .L223
2143:../Shared/Libraries/STM32F4xx_StdPeriph_Driver/src/stm32f4xx_rtc.c ****   }  
 4059              		.loc 1 2143 16
 4060 002a 1340     		ands	r3, r3, r2
 4061 002c 0B64     		str	r3, [r1, #64]
 4062              	.L222:
 4063              		.loc 1 2145 1
 4064 002e 00BF     		nop
 4065 0030 0C37     		adds	r7, r7, #12
 4066              	.LCFI211:
 4067              		.cfi_def_cfa_offset 4
 4068 0032 BD46     		mov	sp, r7
 4069              	.LCFI212:
 4070              		.cfi_def_cfa_register 13
 4071              		@ sp needed
 4072 0034 5DF8047B 		ldr	r7, [sp], #4
 4073              	.LCFI213:
 4074              		.cfi_restore 7
 4075              		.cfi_def_cfa_offset 0
 4076 0038 7047     		bx	lr
 4077              	.L224:
 4078 003a 00BF     		.align	2
 4079              	.L223:
 4080 003c 00280040 		.word	1073752064
 4081              		.cfi_endproc
 4082              	.LFE148:
 4084              		.section	.text.RTC_TamperFilterConfig,"ax",%progbits
 4085              		.align	1
 4086              		.global	RTC_TamperFilterConfig
 4087              		.syntax unified
 4088              		.thumb
 4089              		.thumb_func
 4091              	RTC_TamperFilterConfig:
 4092              	.LFB149:
2146:../Shared/Libraries/STM32F4xx_StdPeriph_Driver/src/stm32f4xx_rtc.c **** 
2147:../Shared/Libraries/STM32F4xx_StdPeriph_Driver/src/stm32f4xx_rtc.c **** /**
2148:../Shared/Libraries/STM32F4xx_StdPeriph_Driver/src/stm32f4xx_rtc.c ****   * @brief  Configures the Tampers Filter.
2149:../Shared/Libraries/STM32F4xx_StdPeriph_Driver/src/stm32f4xx_rtc.c ****   * @param  RTC_TamperFilter: Specifies the tampers filter.
2150:../Shared/Libraries/STM32F4xx_StdPeriph_Driver/src/stm32f4xx_rtc.c ****   *   This parameter can be one of the following values:
2151:../Shared/Libraries/STM32F4xx_StdPeriph_Driver/src/stm32f4xx_rtc.c ****   *     @arg RTC_TamperFilter_Disable: Tamper filter is disabled.
2152:../Shared/Libraries/STM32F4xx_StdPeriph_Driver/src/stm32f4xx_rtc.c ****   *     @arg RTC_TamperFilter_2Sample: Tamper is activated after 2 consecutive 
2153:../Shared/Libraries/STM32F4xx_StdPeriph_Driver/src/stm32f4xx_rtc.c ****   *                                    samples at the active level 
2154:../Shared/Libraries/STM32F4xx_StdPeriph_Driver/src/stm32f4xx_rtc.c ****   *     @arg RTC_TamperFilter_4Sample: Tamper is activated after 4 consecutive 
2155:../Shared/Libraries/STM32F4xx_StdPeriph_Driver/src/stm32f4xx_rtc.c ****   *                                    samples at the active level
2156:../Shared/Libraries/STM32F4xx_StdPeriph_Driver/src/stm32f4xx_rtc.c ****   *     @arg RTC_TamperFilter_8Sample: Tamper is activated after 8 consecutive 
2157:../Shared/Libraries/STM32F4xx_StdPeriph_Driver/src/stm32f4xx_rtc.c ****   *                                    samples at the active level 
2158:../Shared/Libraries/STM32F4xx_StdPeriph_Driver/src/stm32f4xx_rtc.c ****   * @retval None
2159:../Shared/Libraries/STM32F4xx_StdPeriph_Driver/src/stm32f4xx_rtc.c ****   */
2160:../Shared/Libraries/STM32F4xx_StdPeriph_Driver/src/stm32f4xx_rtc.c **** void RTC_TamperFilterConfig(uint32_t RTC_TamperFilter)
ARM GAS  /tmp/cctIRrNQ.s 			page 110


2161:../Shared/Libraries/STM32F4xx_StdPeriph_Driver/src/stm32f4xx_rtc.c **** {
 4093              		.loc 1 2161 1
 4094              		.cfi_startproc
 4095              		@ args = 0, pretend = 0, frame = 8
 4096              		@ frame_needed = 1, uses_anonymous_args = 0
 4097              		@ link register save eliminated.
 4098 0000 80B4     		push	{r7}
 4099              	.LCFI214:
 4100              		.cfi_def_cfa_offset 4
 4101              		.cfi_offset 7, -4
 4102 0002 83B0     		sub	sp, sp, #12
 4103              	.LCFI215:
 4104              		.cfi_def_cfa_offset 16
 4105 0004 00AF     		add	r7, sp, #0
 4106              	.LCFI216:
 4107              		.cfi_def_cfa_register 7
 4108 0006 7860     		str	r0, [r7, #4]
2162:../Shared/Libraries/STM32F4xx_StdPeriph_Driver/src/stm32f4xx_rtc.c ****   /* Check the parameters */
2163:../Shared/Libraries/STM32F4xx_StdPeriph_Driver/src/stm32f4xx_rtc.c ****   assert_param(IS_RTC_TAMPER_FILTER(RTC_TamperFilter));
2164:../Shared/Libraries/STM32F4xx_StdPeriph_Driver/src/stm32f4xx_rtc.c ****    
2165:../Shared/Libraries/STM32F4xx_StdPeriph_Driver/src/stm32f4xx_rtc.c ****   /* Clear TAMPFLT[1:0] bits in the RTC_TAFCR register */
2166:../Shared/Libraries/STM32F4xx_StdPeriph_Driver/src/stm32f4xx_rtc.c ****   RTC->TAFCR &= (uint32_t)~(RTC_TAFCR_TAMPFLT);
 4109              		.loc 1 2166 6
 4110 0008 084B     		ldr	r3, .L226
 4111 000a 1B6C     		ldr	r3, [r3, #64]
 4112 000c 074A     		ldr	r2, .L226
 4113              		.loc 1 2166 14
 4114 000e 23F4C053 		bic	r3, r3, #6144
 4115 0012 1364     		str	r3, [r2, #64]
2167:../Shared/Libraries/STM32F4xx_StdPeriph_Driver/src/stm32f4xx_rtc.c **** 
2168:../Shared/Libraries/STM32F4xx_StdPeriph_Driver/src/stm32f4xx_rtc.c ****   /* Configure the RTC_TAFCR register */
2169:../Shared/Libraries/STM32F4xx_StdPeriph_Driver/src/stm32f4xx_rtc.c ****   RTC->TAFCR |= (uint32_t)RTC_TamperFilter;
 4116              		.loc 1 2169 6
 4117 0014 054B     		ldr	r3, .L226
 4118 0016 1A6C     		ldr	r2, [r3, #64]
 4119 0018 0449     		ldr	r1, .L226
 4120              		.loc 1 2169 14
 4121 001a 7B68     		ldr	r3, [r7, #4]
 4122 001c 1343     		orrs	r3, r3, r2
 4123 001e 0B64     		str	r3, [r1, #64]
2170:../Shared/Libraries/STM32F4xx_StdPeriph_Driver/src/stm32f4xx_rtc.c **** }
 4124              		.loc 1 2170 1
 4125 0020 00BF     		nop
 4126 0022 0C37     		adds	r7, r7, #12
 4127              	.LCFI217:
 4128              		.cfi_def_cfa_offset 4
 4129 0024 BD46     		mov	sp, r7
 4130              	.LCFI218:
 4131              		.cfi_def_cfa_register 13
 4132              		@ sp needed
 4133 0026 5DF8047B 		ldr	r7, [sp], #4
 4134              	.LCFI219:
 4135              		.cfi_restore 7
 4136              		.cfi_def_cfa_offset 0
 4137 002a 7047     		bx	lr
 4138              	.L227:
 4139              		.align	2
ARM GAS  /tmp/cctIRrNQ.s 			page 111


 4140              	.L226:
 4141 002c 00280040 		.word	1073752064
 4142              		.cfi_endproc
 4143              	.LFE149:
 4145              		.section	.text.RTC_TamperSamplingFreqConfig,"ax",%progbits
 4146              		.align	1
 4147              		.global	RTC_TamperSamplingFreqConfig
 4148              		.syntax unified
 4149              		.thumb
 4150              		.thumb_func
 4152              	RTC_TamperSamplingFreqConfig:
 4153              	.LFB150:
2171:../Shared/Libraries/STM32F4xx_StdPeriph_Driver/src/stm32f4xx_rtc.c **** 
2172:../Shared/Libraries/STM32F4xx_StdPeriph_Driver/src/stm32f4xx_rtc.c **** /**
2173:../Shared/Libraries/STM32F4xx_StdPeriph_Driver/src/stm32f4xx_rtc.c ****   * @brief  Configures the Tampers Sampling Frequency.
2174:../Shared/Libraries/STM32F4xx_StdPeriph_Driver/src/stm32f4xx_rtc.c ****   * @param  RTC_TamperSamplingFreq: Specifies the tampers Sampling Frequency.
2175:../Shared/Libraries/STM32F4xx_StdPeriph_Driver/src/stm32f4xx_rtc.c ****   *   This parameter can be one of the following values:
2176:../Shared/Libraries/STM32F4xx_StdPeriph_Driver/src/stm32f4xx_rtc.c ****   *     @arg RTC_TamperSamplingFreq_RTCCLK_Div32768: Each of the tamper inputs are sampled
2177:../Shared/Libraries/STM32F4xx_StdPeriph_Driver/src/stm32f4xx_rtc.c ****   *                                           with a frequency =  RTCCLK / 32768
2178:../Shared/Libraries/STM32F4xx_StdPeriph_Driver/src/stm32f4xx_rtc.c ****   *     @arg RTC_TamperSamplingFreq_RTCCLK_Div16384: Each of the tamper inputs are sampled
2179:../Shared/Libraries/STM32F4xx_StdPeriph_Driver/src/stm32f4xx_rtc.c ****   *                                           with a frequency =  RTCCLK / 16384
2180:../Shared/Libraries/STM32F4xx_StdPeriph_Driver/src/stm32f4xx_rtc.c ****   *     @arg RTC_TamperSamplingFreq_RTCCLK_Div8192: Each of the tamper inputs are sampled
2181:../Shared/Libraries/STM32F4xx_StdPeriph_Driver/src/stm32f4xx_rtc.c ****   *                                           with a frequency =  RTCCLK / 8192
2182:../Shared/Libraries/STM32F4xx_StdPeriph_Driver/src/stm32f4xx_rtc.c ****   *     @arg RTC_TamperSamplingFreq_RTCCLK_Div4096: Each of the tamper inputs are sampled
2183:../Shared/Libraries/STM32F4xx_StdPeriph_Driver/src/stm32f4xx_rtc.c ****   *                                           with a frequency =  RTCCLK / 4096
2184:../Shared/Libraries/STM32F4xx_StdPeriph_Driver/src/stm32f4xx_rtc.c ****   *     @arg RTC_TamperSamplingFreq_RTCCLK_Div2048: Each of the tamper inputs are sampled
2185:../Shared/Libraries/STM32F4xx_StdPeriph_Driver/src/stm32f4xx_rtc.c ****   *                                           with a frequency =  RTCCLK / 2048
2186:../Shared/Libraries/STM32F4xx_StdPeriph_Driver/src/stm32f4xx_rtc.c ****   *     @arg RTC_TamperSamplingFreq_RTCCLK_Div1024: Each of the tamper inputs are sampled
2187:../Shared/Libraries/STM32F4xx_StdPeriph_Driver/src/stm32f4xx_rtc.c ****   *                                           with a frequency =  RTCCLK / 1024
2188:../Shared/Libraries/STM32F4xx_StdPeriph_Driver/src/stm32f4xx_rtc.c ****   *     @arg RTC_TamperSamplingFreq_RTCCLK_Div512: Each of the tamper inputs are sampled
2189:../Shared/Libraries/STM32F4xx_StdPeriph_Driver/src/stm32f4xx_rtc.c ****   *                                           with a frequency =  RTCCLK / 512  
2190:../Shared/Libraries/STM32F4xx_StdPeriph_Driver/src/stm32f4xx_rtc.c ****   *     @arg RTC_TamperSamplingFreq_RTCCLK_Div256: Each of the tamper inputs are sampled
2191:../Shared/Libraries/STM32F4xx_StdPeriph_Driver/src/stm32f4xx_rtc.c ****   *                                           with a frequency =  RTCCLK / 256  
2192:../Shared/Libraries/STM32F4xx_StdPeriph_Driver/src/stm32f4xx_rtc.c ****   * @retval None
2193:../Shared/Libraries/STM32F4xx_StdPeriph_Driver/src/stm32f4xx_rtc.c ****   */
2194:../Shared/Libraries/STM32F4xx_StdPeriph_Driver/src/stm32f4xx_rtc.c **** void RTC_TamperSamplingFreqConfig(uint32_t RTC_TamperSamplingFreq)
2195:../Shared/Libraries/STM32F4xx_StdPeriph_Driver/src/stm32f4xx_rtc.c **** {
 4154              		.loc 1 2195 1
 4155              		.cfi_startproc
 4156              		@ args = 0, pretend = 0, frame = 8
 4157              		@ frame_needed = 1, uses_anonymous_args = 0
 4158              		@ link register save eliminated.
 4159 0000 80B4     		push	{r7}
 4160              	.LCFI220:
 4161              		.cfi_def_cfa_offset 4
 4162              		.cfi_offset 7, -4
 4163 0002 83B0     		sub	sp, sp, #12
 4164              	.LCFI221:
 4165              		.cfi_def_cfa_offset 16
 4166 0004 00AF     		add	r7, sp, #0
 4167              	.LCFI222:
 4168              		.cfi_def_cfa_register 7
 4169 0006 7860     		str	r0, [r7, #4]
2196:../Shared/Libraries/STM32F4xx_StdPeriph_Driver/src/stm32f4xx_rtc.c ****   /* Check the parameters */
2197:../Shared/Libraries/STM32F4xx_StdPeriph_Driver/src/stm32f4xx_rtc.c ****   assert_param(IS_RTC_TAMPER_SAMPLING_FREQ(RTC_TamperSamplingFreq));
2198:../Shared/Libraries/STM32F4xx_StdPeriph_Driver/src/stm32f4xx_rtc.c ****  
2199:../Shared/Libraries/STM32F4xx_StdPeriph_Driver/src/stm32f4xx_rtc.c ****   /* Clear TAMPFREQ[2:0] bits in the RTC_TAFCR register */
ARM GAS  /tmp/cctIRrNQ.s 			page 112


2200:../Shared/Libraries/STM32F4xx_StdPeriph_Driver/src/stm32f4xx_rtc.c ****   RTC->TAFCR &= (uint32_t)~(RTC_TAFCR_TAMPFREQ);
 4170              		.loc 1 2200 6
 4171 0008 084B     		ldr	r3, .L229
 4172 000a 1B6C     		ldr	r3, [r3, #64]
 4173 000c 074A     		ldr	r2, .L229
 4174              		.loc 1 2200 14
 4175 000e 23F4E063 		bic	r3, r3, #1792
 4176 0012 1364     		str	r3, [r2, #64]
2201:../Shared/Libraries/STM32F4xx_StdPeriph_Driver/src/stm32f4xx_rtc.c **** 
2202:../Shared/Libraries/STM32F4xx_StdPeriph_Driver/src/stm32f4xx_rtc.c ****   /* Configure the RTC_TAFCR register */
2203:../Shared/Libraries/STM32F4xx_StdPeriph_Driver/src/stm32f4xx_rtc.c ****   RTC->TAFCR |= (uint32_t)RTC_TamperSamplingFreq;
 4177              		.loc 1 2203 6
 4178 0014 054B     		ldr	r3, .L229
 4179 0016 1A6C     		ldr	r2, [r3, #64]
 4180 0018 0449     		ldr	r1, .L229
 4181              		.loc 1 2203 14
 4182 001a 7B68     		ldr	r3, [r7, #4]
 4183 001c 1343     		orrs	r3, r3, r2
 4184 001e 0B64     		str	r3, [r1, #64]
2204:../Shared/Libraries/STM32F4xx_StdPeriph_Driver/src/stm32f4xx_rtc.c **** }
 4185              		.loc 1 2204 1
 4186 0020 00BF     		nop
 4187 0022 0C37     		adds	r7, r7, #12
 4188              	.LCFI223:
 4189              		.cfi_def_cfa_offset 4
 4190 0024 BD46     		mov	sp, r7
 4191              	.LCFI224:
 4192              		.cfi_def_cfa_register 13
 4193              		@ sp needed
 4194 0026 5DF8047B 		ldr	r7, [sp], #4
 4195              	.LCFI225:
 4196              		.cfi_restore 7
 4197              		.cfi_def_cfa_offset 0
 4198 002a 7047     		bx	lr
 4199              	.L230:
 4200              		.align	2
 4201              	.L229:
 4202 002c 00280040 		.word	1073752064
 4203              		.cfi_endproc
 4204              	.LFE150:
 4206              		.section	.text.RTC_TamperPinsPrechargeDuration,"ax",%progbits
 4207              		.align	1
 4208              		.global	RTC_TamperPinsPrechargeDuration
 4209              		.syntax unified
 4210              		.thumb
 4211              		.thumb_func
 4213              	RTC_TamperPinsPrechargeDuration:
 4214              	.LFB151:
2205:../Shared/Libraries/STM32F4xx_StdPeriph_Driver/src/stm32f4xx_rtc.c **** 
2206:../Shared/Libraries/STM32F4xx_StdPeriph_Driver/src/stm32f4xx_rtc.c **** /**
2207:../Shared/Libraries/STM32F4xx_StdPeriph_Driver/src/stm32f4xx_rtc.c ****   * @brief  Configures the Tampers Pins input Precharge Duration.
2208:../Shared/Libraries/STM32F4xx_StdPeriph_Driver/src/stm32f4xx_rtc.c ****   * @param  RTC_TamperPrechargeDuration: Specifies the Tampers Pins input
2209:../Shared/Libraries/STM32F4xx_StdPeriph_Driver/src/stm32f4xx_rtc.c ****   *         Precharge Duration.
2210:../Shared/Libraries/STM32F4xx_StdPeriph_Driver/src/stm32f4xx_rtc.c ****   *   This parameter can be one of the following values:
2211:../Shared/Libraries/STM32F4xx_StdPeriph_Driver/src/stm32f4xx_rtc.c ****   *     @arg RTC_TamperPrechargeDuration_1RTCCLK: Tamper pins are pre-charged before sampling durin
2212:../Shared/Libraries/STM32F4xx_StdPeriph_Driver/src/stm32f4xx_rtc.c ****   *     @arg RTC_TamperPrechargeDuration_2RTCCLK: Tamper pins are pre-charged before sampling durin
2213:../Shared/Libraries/STM32F4xx_StdPeriph_Driver/src/stm32f4xx_rtc.c ****   *     @arg RTC_TamperPrechargeDuration_4RTCCLK: Tamper pins are pre-charged before sampling durin
ARM GAS  /tmp/cctIRrNQ.s 			page 113


2214:../Shared/Libraries/STM32F4xx_StdPeriph_Driver/src/stm32f4xx_rtc.c ****   *     @arg RTC_TamperPrechargeDuration_8RTCCLK: Tamper pins are pre-charged before sampling durin
2215:../Shared/Libraries/STM32F4xx_StdPeriph_Driver/src/stm32f4xx_rtc.c ****   * @retval None
2216:../Shared/Libraries/STM32F4xx_StdPeriph_Driver/src/stm32f4xx_rtc.c ****   */
2217:../Shared/Libraries/STM32F4xx_StdPeriph_Driver/src/stm32f4xx_rtc.c **** void RTC_TamperPinsPrechargeDuration(uint32_t RTC_TamperPrechargeDuration)
2218:../Shared/Libraries/STM32F4xx_StdPeriph_Driver/src/stm32f4xx_rtc.c **** {
 4215              		.loc 1 2218 1
 4216              		.cfi_startproc
 4217              		@ args = 0, pretend = 0, frame = 8
 4218              		@ frame_needed = 1, uses_anonymous_args = 0
 4219              		@ link register save eliminated.
 4220 0000 80B4     		push	{r7}
 4221              	.LCFI226:
 4222              		.cfi_def_cfa_offset 4
 4223              		.cfi_offset 7, -4
 4224 0002 83B0     		sub	sp, sp, #12
 4225              	.LCFI227:
 4226              		.cfi_def_cfa_offset 16
 4227 0004 00AF     		add	r7, sp, #0
 4228              	.LCFI228:
 4229              		.cfi_def_cfa_register 7
 4230 0006 7860     		str	r0, [r7, #4]
2219:../Shared/Libraries/STM32F4xx_StdPeriph_Driver/src/stm32f4xx_rtc.c ****   /* Check the parameters */
2220:../Shared/Libraries/STM32F4xx_StdPeriph_Driver/src/stm32f4xx_rtc.c ****   assert_param(IS_RTC_TAMPER_PRECHARGE_DURATION(RTC_TamperPrechargeDuration));
2221:../Shared/Libraries/STM32F4xx_StdPeriph_Driver/src/stm32f4xx_rtc.c ****    
2222:../Shared/Libraries/STM32F4xx_StdPeriph_Driver/src/stm32f4xx_rtc.c ****   /* Clear TAMPPRCH[1:0] bits in the RTC_TAFCR register */
2223:../Shared/Libraries/STM32F4xx_StdPeriph_Driver/src/stm32f4xx_rtc.c ****   RTC->TAFCR &= (uint32_t)~(RTC_TAFCR_TAMPPRCH);
 4231              		.loc 1 2223 6
 4232 0008 084B     		ldr	r3, .L232
 4233 000a 1B6C     		ldr	r3, [r3, #64]
 4234 000c 074A     		ldr	r2, .L232
 4235              		.loc 1 2223 14
 4236 000e 23F4C043 		bic	r3, r3, #24576
 4237 0012 1364     		str	r3, [r2, #64]
2224:../Shared/Libraries/STM32F4xx_StdPeriph_Driver/src/stm32f4xx_rtc.c **** 
2225:../Shared/Libraries/STM32F4xx_StdPeriph_Driver/src/stm32f4xx_rtc.c ****   /* Configure the RTC_TAFCR register */
2226:../Shared/Libraries/STM32F4xx_StdPeriph_Driver/src/stm32f4xx_rtc.c ****   RTC->TAFCR |= (uint32_t)RTC_TamperPrechargeDuration;
 4238              		.loc 1 2226 6
 4239 0014 054B     		ldr	r3, .L232
 4240 0016 1A6C     		ldr	r2, [r3, #64]
 4241 0018 0449     		ldr	r1, .L232
 4242              		.loc 1 2226 14
 4243 001a 7B68     		ldr	r3, [r7, #4]
 4244 001c 1343     		orrs	r3, r3, r2
 4245 001e 0B64     		str	r3, [r1, #64]
2227:../Shared/Libraries/STM32F4xx_StdPeriph_Driver/src/stm32f4xx_rtc.c **** }
 4246              		.loc 1 2227 1
 4247 0020 00BF     		nop
 4248 0022 0C37     		adds	r7, r7, #12
 4249              	.LCFI229:
 4250              		.cfi_def_cfa_offset 4
 4251 0024 BD46     		mov	sp, r7
 4252              	.LCFI230:
 4253              		.cfi_def_cfa_register 13
 4254              		@ sp needed
 4255 0026 5DF8047B 		ldr	r7, [sp], #4
 4256              	.LCFI231:
 4257              		.cfi_restore 7
ARM GAS  /tmp/cctIRrNQ.s 			page 114


 4258              		.cfi_def_cfa_offset 0
 4259 002a 7047     		bx	lr
 4260              	.L233:
 4261              		.align	2
 4262              	.L232:
 4263 002c 00280040 		.word	1073752064
 4264              		.cfi_endproc
 4265              	.LFE151:
 4267              		.section	.text.RTC_TimeStampOnTamperDetectionCmd,"ax",%progbits
 4268              		.align	1
 4269              		.global	RTC_TimeStampOnTamperDetectionCmd
 4270              		.syntax unified
 4271              		.thumb
 4272              		.thumb_func
 4274              	RTC_TimeStampOnTamperDetectionCmd:
 4275              	.LFB152:
2228:../Shared/Libraries/STM32F4xx_StdPeriph_Driver/src/stm32f4xx_rtc.c **** 
2229:../Shared/Libraries/STM32F4xx_StdPeriph_Driver/src/stm32f4xx_rtc.c **** /**
2230:../Shared/Libraries/STM32F4xx_StdPeriph_Driver/src/stm32f4xx_rtc.c ****   * @brief  Enables or Disables the TimeStamp on Tamper Detection Event.
2231:../Shared/Libraries/STM32F4xx_StdPeriph_Driver/src/stm32f4xx_rtc.c ****   * @note   The timestamp is valid even the TSE bit in tamper control register 
2232:../Shared/Libraries/STM32F4xx_StdPeriph_Driver/src/stm32f4xx_rtc.c ****   *         is reset.   
2233:../Shared/Libraries/STM32F4xx_StdPeriph_Driver/src/stm32f4xx_rtc.c ****   * @param  NewState: new state of the timestamp on tamper event.
2234:../Shared/Libraries/STM32F4xx_StdPeriph_Driver/src/stm32f4xx_rtc.c ****   *         This parameter can be: ENABLE or DISABLE.
2235:../Shared/Libraries/STM32F4xx_StdPeriph_Driver/src/stm32f4xx_rtc.c ****   * @retval None
2236:../Shared/Libraries/STM32F4xx_StdPeriph_Driver/src/stm32f4xx_rtc.c ****   */
2237:../Shared/Libraries/STM32F4xx_StdPeriph_Driver/src/stm32f4xx_rtc.c **** void RTC_TimeStampOnTamperDetectionCmd(FunctionalState NewState)
2238:../Shared/Libraries/STM32F4xx_StdPeriph_Driver/src/stm32f4xx_rtc.c **** {
 4276              		.loc 1 2238 1
 4277              		.cfi_startproc
 4278              		@ args = 0, pretend = 0, frame = 8
 4279              		@ frame_needed = 1, uses_anonymous_args = 0
 4280              		@ link register save eliminated.
 4281 0000 80B4     		push	{r7}
 4282              	.LCFI232:
 4283              		.cfi_def_cfa_offset 4
 4284              		.cfi_offset 7, -4
 4285 0002 83B0     		sub	sp, sp, #12
 4286              	.LCFI233:
 4287              		.cfi_def_cfa_offset 16
 4288 0004 00AF     		add	r7, sp, #0
 4289              	.LCFI234:
 4290              		.cfi_def_cfa_register 7
 4291 0006 0346     		mov	r3, r0
 4292 0008 FB71     		strb	r3, [r7, #7]
2239:../Shared/Libraries/STM32F4xx_StdPeriph_Driver/src/stm32f4xx_rtc.c ****   /* Check the parameters */
2240:../Shared/Libraries/STM32F4xx_StdPeriph_Driver/src/stm32f4xx_rtc.c ****   assert_param(IS_FUNCTIONAL_STATE(NewState));
2241:../Shared/Libraries/STM32F4xx_StdPeriph_Driver/src/stm32f4xx_rtc.c ****    
2242:../Shared/Libraries/STM32F4xx_StdPeriph_Driver/src/stm32f4xx_rtc.c ****   if (NewState != DISABLE)
 4293              		.loc 1 2242 6
 4294 000a FB79     		ldrb	r3, [r7, #7]	@ zero_extendqisi2
 4295 000c 002B     		cmp	r3, #0
 4296 000e 06D0     		beq	.L235
2243:../Shared/Libraries/STM32F4xx_StdPeriph_Driver/src/stm32f4xx_rtc.c ****   {
2244:../Shared/Libraries/STM32F4xx_StdPeriph_Driver/src/stm32f4xx_rtc.c ****     /* Save timestamp on tamper detection event */
2245:../Shared/Libraries/STM32F4xx_StdPeriph_Driver/src/stm32f4xx_rtc.c ****     RTC->TAFCR |= (uint32_t)RTC_TAFCR_TAMPTS;
 4297              		.loc 1 2245 8
 4298 0010 094B     		ldr	r3, .L238
ARM GAS  /tmp/cctIRrNQ.s 			page 115


 4299 0012 1B6C     		ldr	r3, [r3, #64]
 4300 0014 084A     		ldr	r2, .L238
 4301              		.loc 1 2245 16
 4302 0016 43F08003 		orr	r3, r3, #128
 4303 001a 1364     		str	r3, [r2, #64]
2246:../Shared/Libraries/STM32F4xx_StdPeriph_Driver/src/stm32f4xx_rtc.c ****   }
2247:../Shared/Libraries/STM32F4xx_StdPeriph_Driver/src/stm32f4xx_rtc.c ****   else
2248:../Shared/Libraries/STM32F4xx_StdPeriph_Driver/src/stm32f4xx_rtc.c ****   {
2249:../Shared/Libraries/STM32F4xx_StdPeriph_Driver/src/stm32f4xx_rtc.c ****     /* Tamper detection does not cause a timestamp to be saved */
2250:../Shared/Libraries/STM32F4xx_StdPeriph_Driver/src/stm32f4xx_rtc.c ****     RTC->TAFCR &= (uint32_t)~RTC_TAFCR_TAMPTS;    
2251:../Shared/Libraries/STM32F4xx_StdPeriph_Driver/src/stm32f4xx_rtc.c ****   }
2252:../Shared/Libraries/STM32F4xx_StdPeriph_Driver/src/stm32f4xx_rtc.c **** }
 4304              		.loc 1 2252 1
 4305 001c 05E0     		b	.L237
 4306              	.L235:
2250:../Shared/Libraries/STM32F4xx_StdPeriph_Driver/src/stm32f4xx_rtc.c ****   }
 4307              		.loc 1 2250 8
 4308 001e 064B     		ldr	r3, .L238
 4309 0020 1B6C     		ldr	r3, [r3, #64]
 4310 0022 054A     		ldr	r2, .L238
2250:../Shared/Libraries/STM32F4xx_StdPeriph_Driver/src/stm32f4xx_rtc.c ****   }
 4311              		.loc 1 2250 16
 4312 0024 23F08003 		bic	r3, r3, #128
 4313 0028 1364     		str	r3, [r2, #64]
 4314              	.L237:
 4315              		.loc 1 2252 1
 4316 002a 00BF     		nop
 4317 002c 0C37     		adds	r7, r7, #12
 4318              	.LCFI235:
 4319              		.cfi_def_cfa_offset 4
 4320 002e BD46     		mov	sp, r7
 4321              	.LCFI236:
 4322              		.cfi_def_cfa_register 13
 4323              		@ sp needed
 4324 0030 5DF8047B 		ldr	r7, [sp], #4
 4325              	.LCFI237:
 4326              		.cfi_restore 7
 4327              		.cfi_def_cfa_offset 0
 4328 0034 7047     		bx	lr
 4329              	.L239:
 4330 0036 00BF     		.align	2
 4331              	.L238:
 4332 0038 00280040 		.word	1073752064
 4333              		.cfi_endproc
 4334              	.LFE152:
 4336              		.section	.text.RTC_TamperPullUpCmd,"ax",%progbits
 4337              		.align	1
 4338              		.global	RTC_TamperPullUpCmd
 4339              		.syntax unified
 4340              		.thumb
 4341              		.thumb_func
 4343              	RTC_TamperPullUpCmd:
 4344              	.LFB153:
2253:../Shared/Libraries/STM32F4xx_StdPeriph_Driver/src/stm32f4xx_rtc.c **** 
2254:../Shared/Libraries/STM32F4xx_StdPeriph_Driver/src/stm32f4xx_rtc.c **** /**
2255:../Shared/Libraries/STM32F4xx_StdPeriph_Driver/src/stm32f4xx_rtc.c ****   * @brief  Enables or Disables the Precharge of Tamper pin.
2256:../Shared/Libraries/STM32F4xx_StdPeriph_Driver/src/stm32f4xx_rtc.c ****   * @param  NewState: new state of tamper pull up.
ARM GAS  /tmp/cctIRrNQ.s 			page 116


2257:../Shared/Libraries/STM32F4xx_StdPeriph_Driver/src/stm32f4xx_rtc.c ****   *   This parameter can be: ENABLE or DISABLE.                   
2258:../Shared/Libraries/STM32F4xx_StdPeriph_Driver/src/stm32f4xx_rtc.c ****   * @retval None
2259:../Shared/Libraries/STM32F4xx_StdPeriph_Driver/src/stm32f4xx_rtc.c ****   */
2260:../Shared/Libraries/STM32F4xx_StdPeriph_Driver/src/stm32f4xx_rtc.c **** void RTC_TamperPullUpCmd(FunctionalState NewState)
2261:../Shared/Libraries/STM32F4xx_StdPeriph_Driver/src/stm32f4xx_rtc.c **** {
 4345              		.loc 1 2261 1
 4346              		.cfi_startproc
 4347              		@ args = 0, pretend = 0, frame = 8
 4348              		@ frame_needed = 1, uses_anonymous_args = 0
 4349              		@ link register save eliminated.
 4350 0000 80B4     		push	{r7}
 4351              	.LCFI238:
 4352              		.cfi_def_cfa_offset 4
 4353              		.cfi_offset 7, -4
 4354 0002 83B0     		sub	sp, sp, #12
 4355              	.LCFI239:
 4356              		.cfi_def_cfa_offset 16
 4357 0004 00AF     		add	r7, sp, #0
 4358              	.LCFI240:
 4359              		.cfi_def_cfa_register 7
 4360 0006 0346     		mov	r3, r0
 4361 0008 FB71     		strb	r3, [r7, #7]
2262:../Shared/Libraries/STM32F4xx_StdPeriph_Driver/src/stm32f4xx_rtc.c ****   /* Check the parameters */
2263:../Shared/Libraries/STM32F4xx_StdPeriph_Driver/src/stm32f4xx_rtc.c ****   assert_param(IS_FUNCTIONAL_STATE(NewState));
2264:../Shared/Libraries/STM32F4xx_StdPeriph_Driver/src/stm32f4xx_rtc.c ****   
2265:../Shared/Libraries/STM32F4xx_StdPeriph_Driver/src/stm32f4xx_rtc.c ****  if (NewState != DISABLE)
 4362              		.loc 1 2265 5
 4363 000a FB79     		ldrb	r3, [r7, #7]	@ zero_extendqisi2
 4364 000c 002B     		cmp	r3, #0
 4365 000e 06D0     		beq	.L241
2266:../Shared/Libraries/STM32F4xx_StdPeriph_Driver/src/stm32f4xx_rtc.c ****   {
2267:../Shared/Libraries/STM32F4xx_StdPeriph_Driver/src/stm32f4xx_rtc.c ****     /* Enable precharge of the selected Tamper pin */
2268:../Shared/Libraries/STM32F4xx_StdPeriph_Driver/src/stm32f4xx_rtc.c ****     RTC->TAFCR &= (uint32_t)~RTC_TAFCR_TAMPPUDIS; 
 4366              		.loc 1 2268 8
 4367 0010 094B     		ldr	r3, .L244
 4368 0012 1B6C     		ldr	r3, [r3, #64]
 4369 0014 084A     		ldr	r2, .L244
 4370              		.loc 1 2268 16
 4371 0016 23F40043 		bic	r3, r3, #32768
 4372 001a 1364     		str	r3, [r2, #64]
2269:../Shared/Libraries/STM32F4xx_StdPeriph_Driver/src/stm32f4xx_rtc.c ****   }
2270:../Shared/Libraries/STM32F4xx_StdPeriph_Driver/src/stm32f4xx_rtc.c ****   else
2271:../Shared/Libraries/STM32F4xx_StdPeriph_Driver/src/stm32f4xx_rtc.c ****   {
2272:../Shared/Libraries/STM32F4xx_StdPeriph_Driver/src/stm32f4xx_rtc.c ****     /* Disable precharge of the selected Tamper pin */
2273:../Shared/Libraries/STM32F4xx_StdPeriph_Driver/src/stm32f4xx_rtc.c ****     RTC->TAFCR |= (uint32_t)RTC_TAFCR_TAMPPUDIS;    
2274:../Shared/Libraries/STM32F4xx_StdPeriph_Driver/src/stm32f4xx_rtc.c ****   } 
2275:../Shared/Libraries/STM32F4xx_StdPeriph_Driver/src/stm32f4xx_rtc.c **** }
 4373              		.loc 1 2275 1
 4374 001c 05E0     		b	.L243
 4375              	.L241:
2273:../Shared/Libraries/STM32F4xx_StdPeriph_Driver/src/stm32f4xx_rtc.c ****   } 
 4376              		.loc 1 2273 8
 4377 001e 064B     		ldr	r3, .L244
 4378 0020 1B6C     		ldr	r3, [r3, #64]
 4379 0022 054A     		ldr	r2, .L244
2273:../Shared/Libraries/STM32F4xx_StdPeriph_Driver/src/stm32f4xx_rtc.c ****   } 
 4380              		.loc 1 2273 16
ARM GAS  /tmp/cctIRrNQ.s 			page 117


 4381 0024 43F40043 		orr	r3, r3, #32768
 4382 0028 1364     		str	r3, [r2, #64]
 4383              	.L243:
 4384              		.loc 1 2275 1
 4385 002a 00BF     		nop
 4386 002c 0C37     		adds	r7, r7, #12
 4387              	.LCFI241:
 4388              		.cfi_def_cfa_offset 4
 4389 002e BD46     		mov	sp, r7
 4390              	.LCFI242:
 4391              		.cfi_def_cfa_register 13
 4392              		@ sp needed
 4393 0030 5DF8047B 		ldr	r7, [sp], #4
 4394              	.LCFI243:
 4395              		.cfi_restore 7
 4396              		.cfi_def_cfa_offset 0
 4397 0034 7047     		bx	lr
 4398              	.L245:
 4399 0036 00BF     		.align	2
 4400              	.L244:
 4401 0038 00280040 		.word	1073752064
 4402              		.cfi_endproc
 4403              	.LFE153:
 4405              		.section	.text.RTC_WriteBackupRegister,"ax",%progbits
 4406              		.align	1
 4407              		.global	RTC_WriteBackupRegister
 4408              		.syntax unified
 4409              		.thumb
 4410              		.thumb_func
 4412              	RTC_WriteBackupRegister:
 4413              	.LFB154:
2276:../Shared/Libraries/STM32F4xx_StdPeriph_Driver/src/stm32f4xx_rtc.c **** 
2277:../Shared/Libraries/STM32F4xx_StdPeriph_Driver/src/stm32f4xx_rtc.c **** /**
2278:../Shared/Libraries/STM32F4xx_StdPeriph_Driver/src/stm32f4xx_rtc.c ****   * @}
2279:../Shared/Libraries/STM32F4xx_StdPeriph_Driver/src/stm32f4xx_rtc.c ****   */
2280:../Shared/Libraries/STM32F4xx_StdPeriph_Driver/src/stm32f4xx_rtc.c **** 
2281:../Shared/Libraries/STM32F4xx_StdPeriph_Driver/src/stm32f4xx_rtc.c **** /** @defgroup RTC_Group10 Backup Data Registers configuration functions
2282:../Shared/Libraries/STM32F4xx_StdPeriph_Driver/src/stm32f4xx_rtc.c ****  *  @brief   Backup Data Registers configuration functions  
2283:../Shared/Libraries/STM32F4xx_StdPeriph_Driver/src/stm32f4xx_rtc.c ****  *
2284:../Shared/Libraries/STM32F4xx_StdPeriph_Driver/src/stm32f4xx_rtc.c **** @verbatim   
2285:../Shared/Libraries/STM32F4xx_StdPeriph_Driver/src/stm32f4xx_rtc.c ****  ===============================================================================
2286:../Shared/Libraries/STM32F4xx_StdPeriph_Driver/src/stm32f4xx_rtc.c ****                        Backup Data Registers configuration functions 
2287:../Shared/Libraries/STM32F4xx_StdPeriph_Driver/src/stm32f4xx_rtc.c ****  ===============================================================================  
2288:../Shared/Libraries/STM32F4xx_StdPeriph_Driver/src/stm32f4xx_rtc.c **** 
2289:../Shared/Libraries/STM32F4xx_StdPeriph_Driver/src/stm32f4xx_rtc.c **** @endverbatim
2290:../Shared/Libraries/STM32F4xx_StdPeriph_Driver/src/stm32f4xx_rtc.c ****   * @{
2291:../Shared/Libraries/STM32F4xx_StdPeriph_Driver/src/stm32f4xx_rtc.c ****   */
2292:../Shared/Libraries/STM32F4xx_StdPeriph_Driver/src/stm32f4xx_rtc.c **** 
2293:../Shared/Libraries/STM32F4xx_StdPeriph_Driver/src/stm32f4xx_rtc.c **** /**
2294:../Shared/Libraries/STM32F4xx_StdPeriph_Driver/src/stm32f4xx_rtc.c ****   * @brief  Writes a data in a specified RTC Backup data register.
2295:../Shared/Libraries/STM32F4xx_StdPeriph_Driver/src/stm32f4xx_rtc.c ****   * @param  RTC_BKP_DR: RTC Backup data Register number.
2296:../Shared/Libraries/STM32F4xx_StdPeriph_Driver/src/stm32f4xx_rtc.c ****   *          This parameter can be: RTC_BKP_DRx where x can be from 0 to 19 to 
2297:../Shared/Libraries/STM32F4xx_StdPeriph_Driver/src/stm32f4xx_rtc.c ****   *                          specify the register.
2298:../Shared/Libraries/STM32F4xx_StdPeriph_Driver/src/stm32f4xx_rtc.c ****   * @param  Data: Data to be written in the specified RTC Backup data register.                    
2299:../Shared/Libraries/STM32F4xx_StdPeriph_Driver/src/stm32f4xx_rtc.c ****   * @retval None
2300:../Shared/Libraries/STM32F4xx_StdPeriph_Driver/src/stm32f4xx_rtc.c ****   */
2301:../Shared/Libraries/STM32F4xx_StdPeriph_Driver/src/stm32f4xx_rtc.c **** void RTC_WriteBackupRegister(uint32_t RTC_BKP_DR, uint32_t Data)
ARM GAS  /tmp/cctIRrNQ.s 			page 118


2302:../Shared/Libraries/STM32F4xx_StdPeriph_Driver/src/stm32f4xx_rtc.c **** {
 4414              		.loc 1 2302 1
 4415              		.cfi_startproc
 4416              		@ args = 0, pretend = 0, frame = 16
 4417              		@ frame_needed = 1, uses_anonymous_args = 0
 4418              		@ link register save eliminated.
 4419 0000 80B4     		push	{r7}
 4420              	.LCFI244:
 4421              		.cfi_def_cfa_offset 4
 4422              		.cfi_offset 7, -4
 4423 0002 85B0     		sub	sp, sp, #20
 4424              	.LCFI245:
 4425              		.cfi_def_cfa_offset 24
 4426 0004 00AF     		add	r7, sp, #0
 4427              	.LCFI246:
 4428              		.cfi_def_cfa_register 7
 4429 0006 7860     		str	r0, [r7, #4]
 4430 0008 3960     		str	r1, [r7]
2303:../Shared/Libraries/STM32F4xx_StdPeriph_Driver/src/stm32f4xx_rtc.c ****   __IO uint32_t tmp = 0;
 4431              		.loc 1 2303 17
 4432 000a 0023     		movs	r3, #0
 4433 000c FB60     		str	r3, [r7, #12]
2304:../Shared/Libraries/STM32F4xx_StdPeriph_Driver/src/stm32f4xx_rtc.c ****   
2305:../Shared/Libraries/STM32F4xx_StdPeriph_Driver/src/stm32f4xx_rtc.c ****   /* Check the parameters */
2306:../Shared/Libraries/STM32F4xx_StdPeriph_Driver/src/stm32f4xx_rtc.c ****   assert_param(IS_RTC_BKP(RTC_BKP_DR));
2307:../Shared/Libraries/STM32F4xx_StdPeriph_Driver/src/stm32f4xx_rtc.c **** 
2308:../Shared/Libraries/STM32F4xx_StdPeriph_Driver/src/stm32f4xx_rtc.c ****   tmp = RTC_BASE + 0x50;
 4434              		.loc 1 2308 7
 4435 000e 084B     		ldr	r3, .L247
 4436 0010 FB60     		str	r3, [r7, #12]
2309:../Shared/Libraries/STM32F4xx_StdPeriph_Driver/src/stm32f4xx_rtc.c ****   tmp += (RTC_BKP_DR * 4);
 4437              		.loc 1 2309 22
 4438 0012 7B68     		ldr	r3, [r7, #4]
 4439 0014 9A00     		lsls	r2, r3, #2
 4440              		.loc 1 2309 7
 4441 0016 FB68     		ldr	r3, [r7, #12]
 4442 0018 1344     		add	r3, r3, r2
 4443 001a FB60     		str	r3, [r7, #12]
2310:../Shared/Libraries/STM32F4xx_StdPeriph_Driver/src/stm32f4xx_rtc.c **** 
2311:../Shared/Libraries/STM32F4xx_StdPeriph_Driver/src/stm32f4xx_rtc.c ****   /* Write the specified register */
2312:../Shared/Libraries/STM32F4xx_StdPeriph_Driver/src/stm32f4xx_rtc.c ****   *(__IO uint32_t *)tmp = (uint32_t)Data;
 4444              		.loc 1 2312 4
 4445 001c FB68     		ldr	r3, [r7, #12]
 4446 001e 1A46     		mov	r2, r3
 4447              		.loc 1 2312 25
 4448 0020 3B68     		ldr	r3, [r7]
 4449 0022 1360     		str	r3, [r2]
2313:../Shared/Libraries/STM32F4xx_StdPeriph_Driver/src/stm32f4xx_rtc.c **** }
 4450              		.loc 1 2313 1
 4451 0024 00BF     		nop
 4452 0026 1437     		adds	r7, r7, #20
 4453              	.LCFI247:
 4454              		.cfi_def_cfa_offset 4
 4455 0028 BD46     		mov	sp, r7
 4456              	.LCFI248:
 4457              		.cfi_def_cfa_register 13
 4458              		@ sp needed
ARM GAS  /tmp/cctIRrNQ.s 			page 119


 4459 002a 5DF8047B 		ldr	r7, [sp], #4
 4460              	.LCFI249:
 4461              		.cfi_restore 7
 4462              		.cfi_def_cfa_offset 0
 4463 002e 7047     		bx	lr
 4464              	.L248:
 4465              		.align	2
 4466              	.L247:
 4467 0030 50280040 		.word	1073752144
 4468              		.cfi_endproc
 4469              	.LFE154:
 4471              		.section	.text.RTC_ReadBackupRegister,"ax",%progbits
 4472              		.align	1
 4473              		.global	RTC_ReadBackupRegister
 4474              		.syntax unified
 4475              		.thumb
 4476              		.thumb_func
 4478              	RTC_ReadBackupRegister:
 4479              	.LFB155:
2314:../Shared/Libraries/STM32F4xx_StdPeriph_Driver/src/stm32f4xx_rtc.c **** 
2315:../Shared/Libraries/STM32F4xx_StdPeriph_Driver/src/stm32f4xx_rtc.c **** /**
2316:../Shared/Libraries/STM32F4xx_StdPeriph_Driver/src/stm32f4xx_rtc.c ****   * @brief  Reads data from the specified RTC Backup data Register.
2317:../Shared/Libraries/STM32F4xx_StdPeriph_Driver/src/stm32f4xx_rtc.c ****   * @param  RTC_BKP_DR: RTC Backup data Register number.
2318:../Shared/Libraries/STM32F4xx_StdPeriph_Driver/src/stm32f4xx_rtc.c ****   *          This parameter can be: RTC_BKP_DRx where x can be from 0 to 19 to 
2319:../Shared/Libraries/STM32F4xx_StdPeriph_Driver/src/stm32f4xx_rtc.c ****   *                          specify the register.                   
2320:../Shared/Libraries/STM32F4xx_StdPeriph_Driver/src/stm32f4xx_rtc.c ****   * @retval None
2321:../Shared/Libraries/STM32F4xx_StdPeriph_Driver/src/stm32f4xx_rtc.c ****   */
2322:../Shared/Libraries/STM32F4xx_StdPeriph_Driver/src/stm32f4xx_rtc.c **** uint32_t RTC_ReadBackupRegister(uint32_t RTC_BKP_DR)
2323:../Shared/Libraries/STM32F4xx_StdPeriph_Driver/src/stm32f4xx_rtc.c **** {
 4480              		.loc 1 2323 1
 4481              		.cfi_startproc
 4482              		@ args = 0, pretend = 0, frame = 16
 4483              		@ frame_needed = 1, uses_anonymous_args = 0
 4484              		@ link register save eliminated.
 4485 0000 80B4     		push	{r7}
 4486              	.LCFI250:
 4487              		.cfi_def_cfa_offset 4
 4488              		.cfi_offset 7, -4
 4489 0002 85B0     		sub	sp, sp, #20
 4490              	.LCFI251:
 4491              		.cfi_def_cfa_offset 24
 4492 0004 00AF     		add	r7, sp, #0
 4493              	.LCFI252:
 4494              		.cfi_def_cfa_register 7
 4495 0006 7860     		str	r0, [r7, #4]
2324:../Shared/Libraries/STM32F4xx_StdPeriph_Driver/src/stm32f4xx_rtc.c ****   __IO uint32_t tmp = 0;
 4496              		.loc 1 2324 17
 4497 0008 0023     		movs	r3, #0
 4498 000a FB60     		str	r3, [r7, #12]
2325:../Shared/Libraries/STM32F4xx_StdPeriph_Driver/src/stm32f4xx_rtc.c ****   
2326:../Shared/Libraries/STM32F4xx_StdPeriph_Driver/src/stm32f4xx_rtc.c ****   /* Check the parameters */
2327:../Shared/Libraries/STM32F4xx_StdPeriph_Driver/src/stm32f4xx_rtc.c ****   assert_param(IS_RTC_BKP(RTC_BKP_DR));
2328:../Shared/Libraries/STM32F4xx_StdPeriph_Driver/src/stm32f4xx_rtc.c **** 
2329:../Shared/Libraries/STM32F4xx_StdPeriph_Driver/src/stm32f4xx_rtc.c ****   tmp = RTC_BASE + 0x50;
 4499              		.loc 1 2329 7
 4500 000c 074B     		ldr	r3, .L251
 4501 000e FB60     		str	r3, [r7, #12]
ARM GAS  /tmp/cctIRrNQ.s 			page 120


2330:../Shared/Libraries/STM32F4xx_StdPeriph_Driver/src/stm32f4xx_rtc.c ****   tmp += (RTC_BKP_DR * 4);
 4502              		.loc 1 2330 22
 4503 0010 7B68     		ldr	r3, [r7, #4]
 4504 0012 9A00     		lsls	r2, r3, #2
 4505              		.loc 1 2330 7
 4506 0014 FB68     		ldr	r3, [r7, #12]
 4507 0016 1344     		add	r3, r3, r2
 4508 0018 FB60     		str	r3, [r7, #12]
2331:../Shared/Libraries/STM32F4xx_StdPeriph_Driver/src/stm32f4xx_rtc.c ****   
2332:../Shared/Libraries/STM32F4xx_StdPeriph_Driver/src/stm32f4xx_rtc.c ****   /* Read the specified register */
2333:../Shared/Libraries/STM32F4xx_StdPeriph_Driver/src/stm32f4xx_rtc.c ****   return (*(__IO uint32_t *)tmp);
 4509              		.loc 1 2333 12
 4510 001a FB68     		ldr	r3, [r7, #12]
 4511              		.loc 1 2333 11
 4512 001c 1B68     		ldr	r3, [r3]
2334:../Shared/Libraries/STM32F4xx_StdPeriph_Driver/src/stm32f4xx_rtc.c **** }
 4513              		.loc 1 2334 1
 4514 001e 1846     		mov	r0, r3
 4515 0020 1437     		adds	r7, r7, #20
 4516              	.LCFI253:
 4517              		.cfi_def_cfa_offset 4
 4518 0022 BD46     		mov	sp, r7
 4519              	.LCFI254:
 4520              		.cfi_def_cfa_register 13
 4521              		@ sp needed
 4522 0024 5DF8047B 		ldr	r7, [sp], #4
 4523              	.LCFI255:
 4524              		.cfi_restore 7
 4525              		.cfi_def_cfa_offset 0
 4526 0028 7047     		bx	lr
 4527              	.L252:
 4528 002a 00BF     		.align	2
 4529              	.L251:
 4530 002c 50280040 		.word	1073752144
 4531              		.cfi_endproc
 4532              	.LFE155:
 4534              		.section	.text.RTC_TamperPinSelection,"ax",%progbits
 4535              		.align	1
 4536              		.global	RTC_TamperPinSelection
 4537              		.syntax unified
 4538              		.thumb
 4539              		.thumb_func
 4541              	RTC_TamperPinSelection:
 4542              	.LFB156:
2335:../Shared/Libraries/STM32F4xx_StdPeriph_Driver/src/stm32f4xx_rtc.c **** 
2336:../Shared/Libraries/STM32F4xx_StdPeriph_Driver/src/stm32f4xx_rtc.c **** /**
2337:../Shared/Libraries/STM32F4xx_StdPeriph_Driver/src/stm32f4xx_rtc.c ****   * @}
2338:../Shared/Libraries/STM32F4xx_StdPeriph_Driver/src/stm32f4xx_rtc.c ****   */
2339:../Shared/Libraries/STM32F4xx_StdPeriph_Driver/src/stm32f4xx_rtc.c **** 
2340:../Shared/Libraries/STM32F4xx_StdPeriph_Driver/src/stm32f4xx_rtc.c **** /** @defgroup RTC_Group11 RTC Tamper and TimeStamp Pins Selection and Output Type Config configurat
2341:../Shared/Libraries/STM32F4xx_StdPeriph_Driver/src/stm32f4xx_rtc.c ****  *  @brief   RTC Tamper and TimeStamp Pins Selection and Output Type Config 
2342:../Shared/Libraries/STM32F4xx_StdPeriph_Driver/src/stm32f4xx_rtc.c ****  *           configuration functions  
2343:../Shared/Libraries/STM32F4xx_StdPeriph_Driver/src/stm32f4xx_rtc.c ****  *
2344:../Shared/Libraries/STM32F4xx_StdPeriph_Driver/src/stm32f4xx_rtc.c **** @verbatim   
2345:../Shared/Libraries/STM32F4xx_StdPeriph_Driver/src/stm32f4xx_rtc.c ****  ===============================================================================
2346:../Shared/Libraries/STM32F4xx_StdPeriph_Driver/src/stm32f4xx_rtc.c ****   RTC Tamper and TimeStamp Pins Selection and Output Type Config configuration 
2347:../Shared/Libraries/STM32F4xx_StdPeriph_Driver/src/stm32f4xx_rtc.c ****   functions 
ARM GAS  /tmp/cctIRrNQ.s 			page 121


2348:../Shared/Libraries/STM32F4xx_StdPeriph_Driver/src/stm32f4xx_rtc.c ****  ===============================================================================  
2349:../Shared/Libraries/STM32F4xx_StdPeriph_Driver/src/stm32f4xx_rtc.c **** 
2350:../Shared/Libraries/STM32F4xx_StdPeriph_Driver/src/stm32f4xx_rtc.c **** @endverbatim
2351:../Shared/Libraries/STM32F4xx_StdPeriph_Driver/src/stm32f4xx_rtc.c ****   * @{
2352:../Shared/Libraries/STM32F4xx_StdPeriph_Driver/src/stm32f4xx_rtc.c ****   */
2353:../Shared/Libraries/STM32F4xx_StdPeriph_Driver/src/stm32f4xx_rtc.c **** 
2354:../Shared/Libraries/STM32F4xx_StdPeriph_Driver/src/stm32f4xx_rtc.c **** /**
2355:../Shared/Libraries/STM32F4xx_StdPeriph_Driver/src/stm32f4xx_rtc.c ****   * @brief  Selects the RTC Tamper Pin.
2356:../Shared/Libraries/STM32F4xx_StdPeriph_Driver/src/stm32f4xx_rtc.c ****   * @param  RTC_TamperPin: specifies the RTC Tamper Pin.
2357:../Shared/Libraries/STM32F4xx_StdPeriph_Driver/src/stm32f4xx_rtc.c ****   *          This parameter can be one of the following values:
2358:../Shared/Libraries/STM32F4xx_StdPeriph_Driver/src/stm32f4xx_rtc.c ****   *            @arg RTC_TamperPin_PC13: PC13 is selected as RTC Tamper Pin.
2359:../Shared/Libraries/STM32F4xx_StdPeriph_Driver/src/stm32f4xx_rtc.c ****   *            @arg RTC_TamperPin_PI8: PI8 is selected as RTC Tamper Pin.    
2360:../Shared/Libraries/STM32F4xx_StdPeriph_Driver/src/stm32f4xx_rtc.c ****   * @retval None
2361:../Shared/Libraries/STM32F4xx_StdPeriph_Driver/src/stm32f4xx_rtc.c ****   */
2362:../Shared/Libraries/STM32F4xx_StdPeriph_Driver/src/stm32f4xx_rtc.c **** void RTC_TamperPinSelection(uint32_t RTC_TamperPin)
2363:../Shared/Libraries/STM32F4xx_StdPeriph_Driver/src/stm32f4xx_rtc.c **** {
 4543              		.loc 1 2363 1
 4544              		.cfi_startproc
 4545              		@ args = 0, pretend = 0, frame = 8
 4546              		@ frame_needed = 1, uses_anonymous_args = 0
 4547              		@ link register save eliminated.
 4548 0000 80B4     		push	{r7}
 4549              	.LCFI256:
 4550              		.cfi_def_cfa_offset 4
 4551              		.cfi_offset 7, -4
 4552 0002 83B0     		sub	sp, sp, #12
 4553              	.LCFI257:
 4554              		.cfi_def_cfa_offset 16
 4555 0004 00AF     		add	r7, sp, #0
 4556              	.LCFI258:
 4557              		.cfi_def_cfa_register 7
 4558 0006 7860     		str	r0, [r7, #4]
2364:../Shared/Libraries/STM32F4xx_StdPeriph_Driver/src/stm32f4xx_rtc.c ****   /* Check the parameters */
2365:../Shared/Libraries/STM32F4xx_StdPeriph_Driver/src/stm32f4xx_rtc.c ****   assert_param(IS_RTC_TAMPER_PIN(RTC_TamperPin));
2366:../Shared/Libraries/STM32F4xx_StdPeriph_Driver/src/stm32f4xx_rtc.c ****   
2367:../Shared/Libraries/STM32F4xx_StdPeriph_Driver/src/stm32f4xx_rtc.c ****   RTC->TAFCR &= (uint32_t)~(RTC_TAFCR_TAMPINSEL);
 4559              		.loc 1 2367 6
 4560 0008 084B     		ldr	r3, .L254
 4561 000a 1B6C     		ldr	r3, [r3, #64]
 4562 000c 074A     		ldr	r2, .L254
 4563              		.loc 1 2367 14
 4564 000e 23F48033 		bic	r3, r3, #65536
 4565 0012 1364     		str	r3, [r2, #64]
2368:../Shared/Libraries/STM32F4xx_StdPeriph_Driver/src/stm32f4xx_rtc.c ****   RTC->TAFCR |= (uint32_t)(RTC_TamperPin);  
 4566              		.loc 1 2368 6
 4567 0014 054B     		ldr	r3, .L254
 4568 0016 1A6C     		ldr	r2, [r3, #64]
 4569 0018 0449     		ldr	r1, .L254
 4570              		.loc 1 2368 14
 4571 001a 7B68     		ldr	r3, [r7, #4]
 4572 001c 1343     		orrs	r3, r3, r2
 4573 001e 0B64     		str	r3, [r1, #64]
2369:../Shared/Libraries/STM32F4xx_StdPeriph_Driver/src/stm32f4xx_rtc.c **** }
 4574              		.loc 1 2369 1
 4575 0020 00BF     		nop
 4576 0022 0C37     		adds	r7, r7, #12
 4577              	.LCFI259:
ARM GAS  /tmp/cctIRrNQ.s 			page 122


 4578              		.cfi_def_cfa_offset 4
 4579 0024 BD46     		mov	sp, r7
 4580              	.LCFI260:
 4581              		.cfi_def_cfa_register 13
 4582              		@ sp needed
 4583 0026 5DF8047B 		ldr	r7, [sp], #4
 4584              	.LCFI261:
 4585              		.cfi_restore 7
 4586              		.cfi_def_cfa_offset 0
 4587 002a 7047     		bx	lr
 4588              	.L255:
 4589              		.align	2
 4590              	.L254:
 4591 002c 00280040 		.word	1073752064
 4592              		.cfi_endproc
 4593              	.LFE156:
 4595              		.section	.text.RTC_TimeStampPinSelection,"ax",%progbits
 4596              		.align	1
 4597              		.global	RTC_TimeStampPinSelection
 4598              		.syntax unified
 4599              		.thumb
 4600              		.thumb_func
 4602              	RTC_TimeStampPinSelection:
 4603              	.LFB157:
2370:../Shared/Libraries/STM32F4xx_StdPeriph_Driver/src/stm32f4xx_rtc.c **** 
2371:../Shared/Libraries/STM32F4xx_StdPeriph_Driver/src/stm32f4xx_rtc.c **** /**
2372:../Shared/Libraries/STM32F4xx_StdPeriph_Driver/src/stm32f4xx_rtc.c ****   * @brief  Selects the RTC TimeStamp Pin.
2373:../Shared/Libraries/STM32F4xx_StdPeriph_Driver/src/stm32f4xx_rtc.c ****   * @param  RTC_TimeStampPin: specifies the RTC TimeStamp Pin.
2374:../Shared/Libraries/STM32F4xx_StdPeriph_Driver/src/stm32f4xx_rtc.c ****   *          This parameter can be one of the following values:
2375:../Shared/Libraries/STM32F4xx_StdPeriph_Driver/src/stm32f4xx_rtc.c ****   *            @arg RTC_TimeStampPin_PC13: PC13 is selected as RTC TimeStamp Pin.
2376:../Shared/Libraries/STM32F4xx_StdPeriph_Driver/src/stm32f4xx_rtc.c ****   *            @arg RTC_TimeStampPin_PI8: PI8 is selected as RTC TimeStamp Pin.    
2377:../Shared/Libraries/STM32F4xx_StdPeriph_Driver/src/stm32f4xx_rtc.c ****   * @retval None
2378:../Shared/Libraries/STM32F4xx_StdPeriph_Driver/src/stm32f4xx_rtc.c ****   */
2379:../Shared/Libraries/STM32F4xx_StdPeriph_Driver/src/stm32f4xx_rtc.c **** void RTC_TimeStampPinSelection(uint32_t RTC_TimeStampPin)
2380:../Shared/Libraries/STM32F4xx_StdPeriph_Driver/src/stm32f4xx_rtc.c **** {
 4604              		.loc 1 2380 1
 4605              		.cfi_startproc
 4606              		@ args = 0, pretend = 0, frame = 8
 4607              		@ frame_needed = 1, uses_anonymous_args = 0
 4608              		@ link register save eliminated.
 4609 0000 80B4     		push	{r7}
 4610              	.LCFI262:
 4611              		.cfi_def_cfa_offset 4
 4612              		.cfi_offset 7, -4
 4613 0002 83B0     		sub	sp, sp, #12
 4614              	.LCFI263:
 4615              		.cfi_def_cfa_offset 16
 4616 0004 00AF     		add	r7, sp, #0
 4617              	.LCFI264:
 4618              		.cfi_def_cfa_register 7
 4619 0006 7860     		str	r0, [r7, #4]
2381:../Shared/Libraries/STM32F4xx_StdPeriph_Driver/src/stm32f4xx_rtc.c ****   /* Check the parameters */
2382:../Shared/Libraries/STM32F4xx_StdPeriph_Driver/src/stm32f4xx_rtc.c ****   assert_param(IS_RTC_TIMESTAMP_PIN(RTC_TimeStampPin));
2383:../Shared/Libraries/STM32F4xx_StdPeriph_Driver/src/stm32f4xx_rtc.c ****   
2384:../Shared/Libraries/STM32F4xx_StdPeriph_Driver/src/stm32f4xx_rtc.c ****   RTC->TAFCR &= (uint32_t)~(RTC_TAFCR_TSINSEL);
 4620              		.loc 1 2384 6
 4621 0008 084B     		ldr	r3, .L257
ARM GAS  /tmp/cctIRrNQ.s 			page 123


 4622 000a 1B6C     		ldr	r3, [r3, #64]
 4623 000c 074A     		ldr	r2, .L257
 4624              		.loc 1 2384 14
 4625 000e 23F40033 		bic	r3, r3, #131072
 4626 0012 1364     		str	r3, [r2, #64]
2385:../Shared/Libraries/STM32F4xx_StdPeriph_Driver/src/stm32f4xx_rtc.c ****   RTC->TAFCR |= (uint32_t)(RTC_TimeStampPin);  
 4627              		.loc 1 2385 6
 4628 0014 054B     		ldr	r3, .L257
 4629 0016 1A6C     		ldr	r2, [r3, #64]
 4630 0018 0449     		ldr	r1, .L257
 4631              		.loc 1 2385 14
 4632 001a 7B68     		ldr	r3, [r7, #4]
 4633 001c 1343     		orrs	r3, r3, r2
 4634 001e 0B64     		str	r3, [r1, #64]
2386:../Shared/Libraries/STM32F4xx_StdPeriph_Driver/src/stm32f4xx_rtc.c **** }
 4635              		.loc 1 2386 1
 4636 0020 00BF     		nop
 4637 0022 0C37     		adds	r7, r7, #12
 4638              	.LCFI265:
 4639              		.cfi_def_cfa_offset 4
 4640 0024 BD46     		mov	sp, r7
 4641              	.LCFI266:
 4642              		.cfi_def_cfa_register 13
 4643              		@ sp needed
 4644 0026 5DF8047B 		ldr	r7, [sp], #4
 4645              	.LCFI267:
 4646              		.cfi_restore 7
 4647              		.cfi_def_cfa_offset 0
 4648 002a 7047     		bx	lr
 4649              	.L258:
 4650              		.align	2
 4651              	.L257:
 4652 002c 00280040 		.word	1073752064
 4653              		.cfi_endproc
 4654              	.LFE157:
 4656              		.section	.text.RTC_OutputTypeConfig,"ax",%progbits
 4657              		.align	1
 4658              		.global	RTC_OutputTypeConfig
 4659              		.syntax unified
 4660              		.thumb
 4661              		.thumb_func
 4663              	RTC_OutputTypeConfig:
 4664              	.LFB158:
2387:../Shared/Libraries/STM32F4xx_StdPeriph_Driver/src/stm32f4xx_rtc.c **** 
2388:../Shared/Libraries/STM32F4xx_StdPeriph_Driver/src/stm32f4xx_rtc.c **** /**
2389:../Shared/Libraries/STM32F4xx_StdPeriph_Driver/src/stm32f4xx_rtc.c ****   * @brief  Configures the RTC Output Pin mode. 
2390:../Shared/Libraries/STM32F4xx_StdPeriph_Driver/src/stm32f4xx_rtc.c ****   * @param  RTC_OutputType: specifies the RTC Output (PC13) pin mode.
2391:../Shared/Libraries/STM32F4xx_StdPeriph_Driver/src/stm32f4xx_rtc.c ****   *          This parameter can be one of the following values:
2392:../Shared/Libraries/STM32F4xx_StdPeriph_Driver/src/stm32f4xx_rtc.c ****   *            @arg RTC_OutputType_OpenDrain: RTC Output (PC13) is configured in 
2393:../Shared/Libraries/STM32F4xx_StdPeriph_Driver/src/stm32f4xx_rtc.c ****   *                                    Open Drain mode.
2394:../Shared/Libraries/STM32F4xx_StdPeriph_Driver/src/stm32f4xx_rtc.c ****   *            @arg RTC_OutputType_PushPull:  RTC Output (PC13) is configured in 
2395:../Shared/Libraries/STM32F4xx_StdPeriph_Driver/src/stm32f4xx_rtc.c ****   *                                    Push Pull mode.    
2396:../Shared/Libraries/STM32F4xx_StdPeriph_Driver/src/stm32f4xx_rtc.c ****   * @retval None
2397:../Shared/Libraries/STM32F4xx_StdPeriph_Driver/src/stm32f4xx_rtc.c ****   */
2398:../Shared/Libraries/STM32F4xx_StdPeriph_Driver/src/stm32f4xx_rtc.c **** void RTC_OutputTypeConfig(uint32_t RTC_OutputType)
2399:../Shared/Libraries/STM32F4xx_StdPeriph_Driver/src/stm32f4xx_rtc.c **** {
 4665              		.loc 1 2399 1
ARM GAS  /tmp/cctIRrNQ.s 			page 124


 4666              		.cfi_startproc
 4667              		@ args = 0, pretend = 0, frame = 8
 4668              		@ frame_needed = 1, uses_anonymous_args = 0
 4669              		@ link register save eliminated.
 4670 0000 80B4     		push	{r7}
 4671              	.LCFI268:
 4672              		.cfi_def_cfa_offset 4
 4673              		.cfi_offset 7, -4
 4674 0002 83B0     		sub	sp, sp, #12
 4675              	.LCFI269:
 4676              		.cfi_def_cfa_offset 16
 4677 0004 00AF     		add	r7, sp, #0
 4678              	.LCFI270:
 4679              		.cfi_def_cfa_register 7
 4680 0006 7860     		str	r0, [r7, #4]
2400:../Shared/Libraries/STM32F4xx_StdPeriph_Driver/src/stm32f4xx_rtc.c ****   /* Check the parameters */
2401:../Shared/Libraries/STM32F4xx_StdPeriph_Driver/src/stm32f4xx_rtc.c ****   assert_param(IS_RTC_OUTPUT_TYPE(RTC_OutputType));
2402:../Shared/Libraries/STM32F4xx_StdPeriph_Driver/src/stm32f4xx_rtc.c ****   
2403:../Shared/Libraries/STM32F4xx_StdPeriph_Driver/src/stm32f4xx_rtc.c ****   RTC->TAFCR &= (uint32_t)~(RTC_TAFCR_ALARMOUTTYPE);
 4681              		.loc 1 2403 6
 4682 0008 084B     		ldr	r3, .L260
 4683 000a 1B6C     		ldr	r3, [r3, #64]
 4684 000c 074A     		ldr	r2, .L260
 4685              		.loc 1 2403 14
 4686 000e 23F48023 		bic	r3, r3, #262144
 4687 0012 1364     		str	r3, [r2, #64]
2404:../Shared/Libraries/STM32F4xx_StdPeriph_Driver/src/stm32f4xx_rtc.c ****   RTC->TAFCR |= (uint32_t)(RTC_OutputType);  
 4688              		.loc 1 2404 6
 4689 0014 054B     		ldr	r3, .L260
 4690 0016 1A6C     		ldr	r2, [r3, #64]
 4691 0018 0449     		ldr	r1, .L260
 4692              		.loc 1 2404 14
 4693 001a 7B68     		ldr	r3, [r7, #4]
 4694 001c 1343     		orrs	r3, r3, r2
 4695 001e 0B64     		str	r3, [r1, #64]
2405:../Shared/Libraries/STM32F4xx_StdPeriph_Driver/src/stm32f4xx_rtc.c **** }
 4696              		.loc 1 2405 1
 4697 0020 00BF     		nop
 4698 0022 0C37     		adds	r7, r7, #12
 4699              	.LCFI271:
 4700              		.cfi_def_cfa_offset 4
 4701 0024 BD46     		mov	sp, r7
 4702              	.LCFI272:
 4703              		.cfi_def_cfa_register 13
 4704              		@ sp needed
 4705 0026 5DF8047B 		ldr	r7, [sp], #4
 4706              	.LCFI273:
 4707              		.cfi_restore 7
 4708              		.cfi_def_cfa_offset 0
 4709 002a 7047     		bx	lr
 4710              	.L261:
 4711              		.align	2
 4712              	.L260:
 4713 002c 00280040 		.word	1073752064
 4714              		.cfi_endproc
 4715              	.LFE158:
 4717              		.section	.text.RTC_SynchroShiftConfig,"ax",%progbits
ARM GAS  /tmp/cctIRrNQ.s 			page 125


 4718              		.align	1
 4719              		.global	RTC_SynchroShiftConfig
 4720              		.syntax unified
 4721              		.thumb
 4722              		.thumb_func
 4724              	RTC_SynchroShiftConfig:
 4725              	.LFB159:
2406:../Shared/Libraries/STM32F4xx_StdPeriph_Driver/src/stm32f4xx_rtc.c **** 
2407:../Shared/Libraries/STM32F4xx_StdPeriph_Driver/src/stm32f4xx_rtc.c **** /**
2408:../Shared/Libraries/STM32F4xx_StdPeriph_Driver/src/stm32f4xx_rtc.c ****   * @}
2409:../Shared/Libraries/STM32F4xx_StdPeriph_Driver/src/stm32f4xx_rtc.c ****   */
2410:../Shared/Libraries/STM32F4xx_StdPeriph_Driver/src/stm32f4xx_rtc.c **** 
2411:../Shared/Libraries/STM32F4xx_StdPeriph_Driver/src/stm32f4xx_rtc.c **** /** @defgroup RTC_Group12 Shift control synchronisation functions
2412:../Shared/Libraries/STM32F4xx_StdPeriph_Driver/src/stm32f4xx_rtc.c ****  *  @brief   Shift control synchronisation functions 
2413:../Shared/Libraries/STM32F4xx_StdPeriph_Driver/src/stm32f4xx_rtc.c ****  *
2414:../Shared/Libraries/STM32F4xx_StdPeriph_Driver/src/stm32f4xx_rtc.c **** @verbatim   
2415:../Shared/Libraries/STM32F4xx_StdPeriph_Driver/src/stm32f4xx_rtc.c ****  ===============================================================================
2416:../Shared/Libraries/STM32F4xx_StdPeriph_Driver/src/stm32f4xx_rtc.c ****                    Shift control synchronisation functions
2417:../Shared/Libraries/STM32F4xx_StdPeriph_Driver/src/stm32f4xx_rtc.c ****  ===============================================================================  
2418:../Shared/Libraries/STM32F4xx_StdPeriph_Driver/src/stm32f4xx_rtc.c **** 
2419:../Shared/Libraries/STM32F4xx_StdPeriph_Driver/src/stm32f4xx_rtc.c **** @endverbatim
2420:../Shared/Libraries/STM32F4xx_StdPeriph_Driver/src/stm32f4xx_rtc.c ****   * @{
2421:../Shared/Libraries/STM32F4xx_StdPeriph_Driver/src/stm32f4xx_rtc.c ****   */
2422:../Shared/Libraries/STM32F4xx_StdPeriph_Driver/src/stm32f4xx_rtc.c **** 
2423:../Shared/Libraries/STM32F4xx_StdPeriph_Driver/src/stm32f4xx_rtc.c **** /**
2424:../Shared/Libraries/STM32F4xx_StdPeriph_Driver/src/stm32f4xx_rtc.c ****   * @brief  Configures the Synchronization Shift Control Settings.
2425:../Shared/Libraries/STM32F4xx_StdPeriph_Driver/src/stm32f4xx_rtc.c ****   * @note   When REFCKON is set, firmware must not write to Shift control register 
2426:../Shared/Libraries/STM32F4xx_StdPeriph_Driver/src/stm32f4xx_rtc.c ****   * @param  RTC_ShiftAdd1S : Select to add or not 1 second to the time Calendar.
2427:../Shared/Libraries/STM32F4xx_StdPeriph_Driver/src/stm32f4xx_rtc.c ****   *   This parameter can be one of the following values :
2428:../Shared/Libraries/STM32F4xx_StdPeriph_Driver/src/stm32f4xx_rtc.c ****   *     @arg RTC_ShiftAdd1S_Set  : Add one second to the clock calendar. 
2429:../Shared/Libraries/STM32F4xx_StdPeriph_Driver/src/stm32f4xx_rtc.c ****   *     @arg RTC_ShiftAdd1S_Reset: No effect.
2430:../Shared/Libraries/STM32F4xx_StdPeriph_Driver/src/stm32f4xx_rtc.c ****   * @param  RTC_ShiftSubFS: Select the number of Second Fractions to Substitute.
2431:../Shared/Libraries/STM32F4xx_StdPeriph_Driver/src/stm32f4xx_rtc.c ****   *         This parameter can be one any value from 0 to 0x7FFF.
2432:../Shared/Libraries/STM32F4xx_StdPeriph_Driver/src/stm32f4xx_rtc.c ****   * @retval An ErrorStatus enumeration value:
2433:../Shared/Libraries/STM32F4xx_StdPeriph_Driver/src/stm32f4xx_rtc.c ****   *          - SUCCESS: RTC Shift registers are configured
2434:../Shared/Libraries/STM32F4xx_StdPeriph_Driver/src/stm32f4xx_rtc.c ****   *          - ERROR: RTC Shift registers are not configured
2435:../Shared/Libraries/STM32F4xx_StdPeriph_Driver/src/stm32f4xx_rtc.c **** */
2436:../Shared/Libraries/STM32F4xx_StdPeriph_Driver/src/stm32f4xx_rtc.c **** ErrorStatus RTC_SynchroShiftConfig(uint32_t RTC_ShiftAdd1S, uint32_t RTC_ShiftSubFS)
2437:../Shared/Libraries/STM32F4xx_StdPeriph_Driver/src/stm32f4xx_rtc.c **** {
 4726              		.loc 1 2437 1
 4727              		.cfi_startproc
 4728              		@ args = 0, pretend = 0, frame = 16
 4729              		@ frame_needed = 1, uses_anonymous_args = 0
 4730 0000 80B5     		push	{r7, lr}
 4731              	.LCFI274:
 4732              		.cfi_def_cfa_offset 8
 4733              		.cfi_offset 7, -8
 4734              		.cfi_offset 14, -4
 4735 0002 84B0     		sub	sp, sp, #16
 4736              	.LCFI275:
 4737              		.cfi_def_cfa_offset 24
 4738 0004 00AF     		add	r7, sp, #0
 4739              	.LCFI276:
 4740              		.cfi_def_cfa_register 7
 4741 0006 7860     		str	r0, [r7, #4]
 4742 0008 3960     		str	r1, [r7]
2438:../Shared/Libraries/STM32F4xx_StdPeriph_Driver/src/stm32f4xx_rtc.c ****   ErrorStatus status = ERROR;
ARM GAS  /tmp/cctIRrNQ.s 			page 126


 4743              		.loc 1 2438 15
 4744 000a 0023     		movs	r3, #0
 4745 000c FB73     		strb	r3, [r7, #15]
2439:../Shared/Libraries/STM32F4xx_StdPeriph_Driver/src/stm32f4xx_rtc.c ****   uint32_t shpfcount = 0;
 4746              		.loc 1 2439 12
 4747 000e 0023     		movs	r3, #0
 4748 0010 BB60     		str	r3, [r7, #8]
2440:../Shared/Libraries/STM32F4xx_StdPeriph_Driver/src/stm32f4xx_rtc.c **** 
2441:../Shared/Libraries/STM32F4xx_StdPeriph_Driver/src/stm32f4xx_rtc.c ****   /* Check the parameters */
2442:../Shared/Libraries/STM32F4xx_StdPeriph_Driver/src/stm32f4xx_rtc.c ****   assert_param(IS_RTC_SHIFT_ADD1S(RTC_ShiftAdd1S));
2443:../Shared/Libraries/STM32F4xx_StdPeriph_Driver/src/stm32f4xx_rtc.c ****   assert_param(IS_RTC_SHIFT_SUBFS(RTC_ShiftSubFS));
2444:../Shared/Libraries/STM32F4xx_StdPeriph_Driver/src/stm32f4xx_rtc.c **** 
2445:../Shared/Libraries/STM32F4xx_StdPeriph_Driver/src/stm32f4xx_rtc.c ****   /* Disable the write protection for RTC registers */
2446:../Shared/Libraries/STM32F4xx_StdPeriph_Driver/src/stm32f4xx_rtc.c ****   RTC->WPR = 0xCA;
 4749              		.loc 1 2446 6
 4750 0012 214B     		ldr	r3, .L271
 4751              		.loc 1 2446 12
 4752 0014 CA22     		movs	r2, #202
 4753 0016 5A62     		str	r2, [r3, #36]
2447:../Shared/Libraries/STM32F4xx_StdPeriph_Driver/src/stm32f4xx_rtc.c ****   RTC->WPR = 0x53;
 4754              		.loc 1 2447 6
 4755 0018 1F4B     		ldr	r3, .L271
 4756              		.loc 1 2447 12
 4757 001a 5322     		movs	r2, #83
 4758 001c 5A62     		str	r2, [r3, #36]
2448:../Shared/Libraries/STM32F4xx_StdPeriph_Driver/src/stm32f4xx_rtc.c ****   
2449:../Shared/Libraries/STM32F4xx_StdPeriph_Driver/src/stm32f4xx_rtc.c ****   /* Check if a Shift is pending*/
2450:../Shared/Libraries/STM32F4xx_StdPeriph_Driver/src/stm32f4xx_rtc.c ****   if ((RTC->ISR & RTC_ISR_SHPF) != RESET)
 4759              		.loc 1 2450 11
 4760 001e 1E4B     		ldr	r3, .L271
 4761 0020 DB68     		ldr	r3, [r3, #12]
 4762              		.loc 1 2450 17
 4763 0022 03F00803 		and	r3, r3, #8
 4764              		.loc 1 2450 6
 4765 0026 002B     		cmp	r3, #0
 4766 0028 0DD0     		beq	.L263
2451:../Shared/Libraries/STM32F4xx_StdPeriph_Driver/src/stm32f4xx_rtc.c ****   {
2452:../Shared/Libraries/STM32F4xx_StdPeriph_Driver/src/stm32f4xx_rtc.c ****     /* Wait until the shift is completed*/
2453:../Shared/Libraries/STM32F4xx_StdPeriph_Driver/src/stm32f4xx_rtc.c ****     while (((RTC->ISR & RTC_ISR_SHPF) != RESET) && (shpfcount != SHPF_TIMEOUT))
 4767              		.loc 1 2453 11
 4768 002a 02E0     		b	.L264
 4769              	.L265:
2454:../Shared/Libraries/STM32F4xx_StdPeriph_Driver/src/stm32f4xx_rtc.c ****     {
2455:../Shared/Libraries/STM32F4xx_StdPeriph_Driver/src/stm32f4xx_rtc.c ****       shpfcount++;
 4770              		.loc 1 2455 16
 4771 002c BB68     		ldr	r3, [r7, #8]
 4772 002e 0133     		adds	r3, r3, #1
 4773 0030 BB60     		str	r3, [r7, #8]
 4774              	.L264:
2453:../Shared/Libraries/STM32F4xx_StdPeriph_Driver/src/stm32f4xx_rtc.c ****     {
 4775              		.loc 1 2453 17
 4776 0032 194B     		ldr	r3, .L271
 4777 0034 DB68     		ldr	r3, [r3, #12]
2453:../Shared/Libraries/STM32F4xx_StdPeriph_Driver/src/stm32f4xx_rtc.c ****     {
 4778              		.loc 1 2453 23
 4779 0036 03F00803 		and	r3, r3, #8
2453:../Shared/Libraries/STM32F4xx_StdPeriph_Driver/src/stm32f4xx_rtc.c ****     {
ARM GAS  /tmp/cctIRrNQ.s 			page 127


 4780              		.loc 1 2453 49
 4781 003a 002B     		cmp	r3, #0
 4782 003c 03D0     		beq	.L263
2453:../Shared/Libraries/STM32F4xx_StdPeriph_Driver/src/stm32f4xx_rtc.c ****     {
 4783              		.loc 1 2453 49 is_stmt 0 discriminator 1
 4784 003e BB68     		ldr	r3, [r7, #8]
 4785 0040 B3F5805F 		cmp	r3, #4096
 4786 0044 F2D1     		bne	.L265
 4787              	.L263:
2456:../Shared/Libraries/STM32F4xx_StdPeriph_Driver/src/stm32f4xx_rtc.c ****     }
2457:../Shared/Libraries/STM32F4xx_StdPeriph_Driver/src/stm32f4xx_rtc.c ****   }
2458:../Shared/Libraries/STM32F4xx_StdPeriph_Driver/src/stm32f4xx_rtc.c **** 
2459:../Shared/Libraries/STM32F4xx_StdPeriph_Driver/src/stm32f4xx_rtc.c ****   /* Check if the Shift pending is completed or if there is no Shift operation at all*/
2460:../Shared/Libraries/STM32F4xx_StdPeriph_Driver/src/stm32f4xx_rtc.c ****   if ((RTC->ISR & RTC_ISR_SHPF) == RESET)
 4788              		.loc 1 2460 11 is_stmt 1
 4789 0046 144B     		ldr	r3, .L271
 4790 0048 DB68     		ldr	r3, [r3, #12]
 4791              		.loc 1 2460 17
 4792 004a 03F00803 		and	r3, r3, #8
 4793              		.loc 1 2460 6
 4794 004e 002B     		cmp	r3, #0
 4795 0050 18D1     		bne	.L266
2461:../Shared/Libraries/STM32F4xx_StdPeriph_Driver/src/stm32f4xx_rtc.c ****   {
2462:../Shared/Libraries/STM32F4xx_StdPeriph_Driver/src/stm32f4xx_rtc.c ****     /* check if the reference clock detection is disabled */
2463:../Shared/Libraries/STM32F4xx_StdPeriph_Driver/src/stm32f4xx_rtc.c ****     if((RTC->CR & RTC_CR_REFCKON) == RESET)
 4796              		.loc 1 2463 12
 4797 0052 114B     		ldr	r3, .L271
 4798 0054 9B68     		ldr	r3, [r3, #8]
 4799              		.loc 1 2463 17
 4800 0056 03F01003 		and	r3, r3, #16
 4801              		.loc 1 2463 7
 4802 005a 002B     		cmp	r3, #0
 4803 005c 0FD1     		bne	.L267
2464:../Shared/Libraries/STM32F4xx_StdPeriph_Driver/src/stm32f4xx_rtc.c ****     {
2465:../Shared/Libraries/STM32F4xx_StdPeriph_Driver/src/stm32f4xx_rtc.c ****       /* Configure the Shift settings */
2466:../Shared/Libraries/STM32F4xx_StdPeriph_Driver/src/stm32f4xx_rtc.c ****       RTC->SHIFTR = (uint32_t)(uint32_t)(RTC_ShiftSubFS) | (uint32_t)(RTC_ShiftAdd1S);
 4804              		.loc 1 2466 10
 4805 005e 0E49     		ldr	r1, .L271
 4806              		.loc 1 2466 58
 4807 0060 3A68     		ldr	r2, [r7]
 4808 0062 7B68     		ldr	r3, [r7, #4]
 4809 0064 1343     		orrs	r3, r3, r2
 4810              		.loc 1 2466 19
 4811 0066 CB62     		str	r3, [r1, #44]
2467:../Shared/Libraries/STM32F4xx_StdPeriph_Driver/src/stm32f4xx_rtc.c ****     
2468:../Shared/Libraries/STM32F4xx_StdPeriph_Driver/src/stm32f4xx_rtc.c ****       if(RTC_WaitForSynchro() == ERROR)
 4812              		.loc 1 2468 10
 4813 0068 FFF7FEFF 		bl	RTC_WaitForSynchro
 4814 006c 0346     		mov	r3, r0
 4815              		.loc 1 2468 9 discriminator 1
 4816 006e 002B     		cmp	r3, #0
 4817 0070 02D1     		bne	.L268
2469:../Shared/Libraries/STM32F4xx_StdPeriph_Driver/src/stm32f4xx_rtc.c ****       {
2470:../Shared/Libraries/STM32F4xx_StdPeriph_Driver/src/stm32f4xx_rtc.c ****         status = ERROR;
 4818              		.loc 1 2470 16
 4819 0072 0023     		movs	r3, #0
 4820 0074 FB73     		strb	r3, [r7, #15]
ARM GAS  /tmp/cctIRrNQ.s 			page 128


 4821 0076 07E0     		b	.L269
 4822              	.L268:
2471:../Shared/Libraries/STM32F4xx_StdPeriph_Driver/src/stm32f4xx_rtc.c ****       }
2472:../Shared/Libraries/STM32F4xx_StdPeriph_Driver/src/stm32f4xx_rtc.c ****       else
2473:../Shared/Libraries/STM32F4xx_StdPeriph_Driver/src/stm32f4xx_rtc.c ****       {
2474:../Shared/Libraries/STM32F4xx_StdPeriph_Driver/src/stm32f4xx_rtc.c ****         status = SUCCESS;
 4823              		.loc 1 2474 16
 4824 0078 0123     		movs	r3, #1
 4825 007a FB73     		strb	r3, [r7, #15]
 4826 007c 04E0     		b	.L269
 4827              	.L267:
2475:../Shared/Libraries/STM32F4xx_StdPeriph_Driver/src/stm32f4xx_rtc.c ****       }
2476:../Shared/Libraries/STM32F4xx_StdPeriph_Driver/src/stm32f4xx_rtc.c ****     }
2477:../Shared/Libraries/STM32F4xx_StdPeriph_Driver/src/stm32f4xx_rtc.c ****     else
2478:../Shared/Libraries/STM32F4xx_StdPeriph_Driver/src/stm32f4xx_rtc.c ****     {
2479:../Shared/Libraries/STM32F4xx_StdPeriph_Driver/src/stm32f4xx_rtc.c ****       status = ERROR;
 4828              		.loc 1 2479 14
 4829 007e 0023     		movs	r3, #0
 4830 0080 FB73     		strb	r3, [r7, #15]
 4831 0082 01E0     		b	.L269
 4832              	.L266:
2480:../Shared/Libraries/STM32F4xx_StdPeriph_Driver/src/stm32f4xx_rtc.c ****     }
2481:../Shared/Libraries/STM32F4xx_StdPeriph_Driver/src/stm32f4xx_rtc.c ****   }
2482:../Shared/Libraries/STM32F4xx_StdPeriph_Driver/src/stm32f4xx_rtc.c ****   else
2483:../Shared/Libraries/STM32F4xx_StdPeriph_Driver/src/stm32f4xx_rtc.c ****   {
2484:../Shared/Libraries/STM32F4xx_StdPeriph_Driver/src/stm32f4xx_rtc.c ****     status = ERROR;
 4833              		.loc 1 2484 12
 4834 0084 0023     		movs	r3, #0
 4835 0086 FB73     		strb	r3, [r7, #15]
 4836              	.L269:
2485:../Shared/Libraries/STM32F4xx_StdPeriph_Driver/src/stm32f4xx_rtc.c ****   }
2486:../Shared/Libraries/STM32F4xx_StdPeriph_Driver/src/stm32f4xx_rtc.c **** 
2487:../Shared/Libraries/STM32F4xx_StdPeriph_Driver/src/stm32f4xx_rtc.c ****   /* Enable the write protection for RTC registers */
2488:../Shared/Libraries/STM32F4xx_StdPeriph_Driver/src/stm32f4xx_rtc.c ****   RTC->WPR = 0xFF;
 4837              		.loc 1 2488 6
 4838 0088 034B     		ldr	r3, .L271
 4839              		.loc 1 2488 12
 4840 008a FF22     		movs	r2, #255
 4841 008c 5A62     		str	r2, [r3, #36]
2489:../Shared/Libraries/STM32F4xx_StdPeriph_Driver/src/stm32f4xx_rtc.c ****   
2490:../Shared/Libraries/STM32F4xx_StdPeriph_Driver/src/stm32f4xx_rtc.c ****   return (ErrorStatus)(status);
 4842              		.loc 1 2490 10
 4843 008e FB7B     		ldrb	r3, [r7, #15]	@ zero_extendqisi2
2491:../Shared/Libraries/STM32F4xx_StdPeriph_Driver/src/stm32f4xx_rtc.c **** }
 4844              		.loc 1 2491 1
 4845 0090 1846     		mov	r0, r3
 4846 0092 1037     		adds	r7, r7, #16
 4847              	.LCFI277:
 4848              		.cfi_def_cfa_offset 8
 4849 0094 BD46     		mov	sp, r7
 4850              	.LCFI278:
 4851              		.cfi_def_cfa_register 13
 4852              		@ sp needed
 4853 0096 80BD     		pop	{r7, pc}
 4854              	.L272:
 4855              		.align	2
 4856              	.L271:
ARM GAS  /tmp/cctIRrNQ.s 			page 129


 4857 0098 00280040 		.word	1073752064
 4858              		.cfi_endproc
 4859              	.LFE159:
 4861              		.section	.text.RTC_ITConfig,"ax",%progbits
 4862              		.align	1
 4863              		.global	RTC_ITConfig
 4864              		.syntax unified
 4865              		.thumb
 4866              		.thumb_func
 4868              	RTC_ITConfig:
 4869              	.LFB160:
2492:../Shared/Libraries/STM32F4xx_StdPeriph_Driver/src/stm32f4xx_rtc.c **** 
2493:../Shared/Libraries/STM32F4xx_StdPeriph_Driver/src/stm32f4xx_rtc.c **** /**
2494:../Shared/Libraries/STM32F4xx_StdPeriph_Driver/src/stm32f4xx_rtc.c ****   * @}
2495:../Shared/Libraries/STM32F4xx_StdPeriph_Driver/src/stm32f4xx_rtc.c ****   */
2496:../Shared/Libraries/STM32F4xx_StdPeriph_Driver/src/stm32f4xx_rtc.c **** 
2497:../Shared/Libraries/STM32F4xx_StdPeriph_Driver/src/stm32f4xx_rtc.c **** /** @defgroup RTC_Group13 Interrupts and flags management functions
2498:../Shared/Libraries/STM32F4xx_StdPeriph_Driver/src/stm32f4xx_rtc.c ****  *  @brief   Interrupts and flags management functions  
2499:../Shared/Libraries/STM32F4xx_StdPeriph_Driver/src/stm32f4xx_rtc.c ****  *
2500:../Shared/Libraries/STM32F4xx_StdPeriph_Driver/src/stm32f4xx_rtc.c **** @verbatim   
2501:../Shared/Libraries/STM32F4xx_StdPeriph_Driver/src/stm32f4xx_rtc.c ****  ===============================================================================
2502:../Shared/Libraries/STM32F4xx_StdPeriph_Driver/src/stm32f4xx_rtc.c ****                        Interrupts and flags management functions
2503:../Shared/Libraries/STM32F4xx_StdPeriph_Driver/src/stm32f4xx_rtc.c ****  ===============================================================================  
2504:../Shared/Libraries/STM32F4xx_StdPeriph_Driver/src/stm32f4xx_rtc.c ****  All RTC interrupts are connected to the EXTI controller.
2505:../Shared/Libraries/STM32F4xx_StdPeriph_Driver/src/stm32f4xx_rtc.c ****  
2506:../Shared/Libraries/STM32F4xx_StdPeriph_Driver/src/stm32f4xx_rtc.c ****  - To enable the RTC Alarm interrupt, the following sequence is required:
2507:../Shared/Libraries/STM32F4xx_StdPeriph_Driver/src/stm32f4xx_rtc.c ****    - Configure and enable the EXTI Line 17 in interrupt mode and select the rising 
2508:../Shared/Libraries/STM32F4xx_StdPeriph_Driver/src/stm32f4xx_rtc.c ****      edge sensitivity using the EXTI_Init() function.
2509:../Shared/Libraries/STM32F4xx_StdPeriph_Driver/src/stm32f4xx_rtc.c ****    - Configure and enable the RTC_Alarm IRQ channel in the NVIC using the NVIC_Init()
2510:../Shared/Libraries/STM32F4xx_StdPeriph_Driver/src/stm32f4xx_rtc.c ****      function.
2511:../Shared/Libraries/STM32F4xx_StdPeriph_Driver/src/stm32f4xx_rtc.c ****    - Configure the RTC to generate RTC alarms (Alarm A and/or Alarm B) using
2512:../Shared/Libraries/STM32F4xx_StdPeriph_Driver/src/stm32f4xx_rtc.c ****      the RTC_SetAlarm() and RTC_AlarmCmd() functions.
2513:../Shared/Libraries/STM32F4xx_StdPeriph_Driver/src/stm32f4xx_rtc.c **** 
2514:../Shared/Libraries/STM32F4xx_StdPeriph_Driver/src/stm32f4xx_rtc.c ****  - To enable the RTC Wakeup interrupt, the following sequence is required:
2515:../Shared/Libraries/STM32F4xx_StdPeriph_Driver/src/stm32f4xx_rtc.c ****    - Configure and enable the EXTI Line 22 in interrupt mode and select the rising 
2516:../Shared/Libraries/STM32F4xx_StdPeriph_Driver/src/stm32f4xx_rtc.c ****      edge sensitivity using the EXTI_Init() function.
2517:../Shared/Libraries/STM32F4xx_StdPeriph_Driver/src/stm32f4xx_rtc.c ****    - Configure and enable the RTC_WKUP IRQ channel in the NVIC using the NVIC_Init()
2518:../Shared/Libraries/STM32F4xx_StdPeriph_Driver/src/stm32f4xx_rtc.c ****      function.
2519:../Shared/Libraries/STM32F4xx_StdPeriph_Driver/src/stm32f4xx_rtc.c ****    - Configure the RTC to generate the RTC wakeup timer event using the 
2520:../Shared/Libraries/STM32F4xx_StdPeriph_Driver/src/stm32f4xx_rtc.c ****      RTC_WakeUpClockConfig(), RTC_SetWakeUpCounter() and RTC_WakeUpCmd() functions.
2521:../Shared/Libraries/STM32F4xx_StdPeriph_Driver/src/stm32f4xx_rtc.c **** 
2522:../Shared/Libraries/STM32F4xx_StdPeriph_Driver/src/stm32f4xx_rtc.c ****  - To enable the RTC Tamper interrupt, the following sequence is required:
2523:../Shared/Libraries/STM32F4xx_StdPeriph_Driver/src/stm32f4xx_rtc.c ****    - Configure and enable the EXTI Line 21 in interrupt mode and select the rising 
2524:../Shared/Libraries/STM32F4xx_StdPeriph_Driver/src/stm32f4xx_rtc.c ****      edge sensitivity using the EXTI_Init() function.
2525:../Shared/Libraries/STM32F4xx_StdPeriph_Driver/src/stm32f4xx_rtc.c ****    - Configure and enable the TAMP_STAMP IRQ channel in the NVIC using the NVIC_Init()
2526:../Shared/Libraries/STM32F4xx_StdPeriph_Driver/src/stm32f4xx_rtc.c ****      function.
2527:../Shared/Libraries/STM32F4xx_StdPeriph_Driver/src/stm32f4xx_rtc.c ****    - Configure the RTC to detect the RTC tamper event using the 
2528:../Shared/Libraries/STM32F4xx_StdPeriph_Driver/src/stm32f4xx_rtc.c ****      RTC_TamperTriggerConfig() and RTC_TamperCmd() functions.
2529:../Shared/Libraries/STM32F4xx_StdPeriph_Driver/src/stm32f4xx_rtc.c **** 
2530:../Shared/Libraries/STM32F4xx_StdPeriph_Driver/src/stm32f4xx_rtc.c ****  - To enable the RTC TimeStamp interrupt, the following sequence is required:
2531:../Shared/Libraries/STM32F4xx_StdPeriph_Driver/src/stm32f4xx_rtc.c ****    - Configure and enable the EXTI Line 21 in interrupt mode and select the rising 
2532:../Shared/Libraries/STM32F4xx_StdPeriph_Driver/src/stm32f4xx_rtc.c ****      edge sensitivity using the EXTI_Init() function.
2533:../Shared/Libraries/STM32F4xx_StdPeriph_Driver/src/stm32f4xx_rtc.c ****    - Configure and enable the TAMP_STAMP IRQ channel in the NVIC using the NVIC_Init()
2534:../Shared/Libraries/STM32F4xx_StdPeriph_Driver/src/stm32f4xx_rtc.c ****      function.
2535:../Shared/Libraries/STM32F4xx_StdPeriph_Driver/src/stm32f4xx_rtc.c ****    - Configure the RTC to detect the RTC time-stamp event using the 
2536:../Shared/Libraries/STM32F4xx_StdPeriph_Driver/src/stm32f4xx_rtc.c ****      RTC_TimeStampCmd() functions.
2537:../Shared/Libraries/STM32F4xx_StdPeriph_Driver/src/stm32f4xx_rtc.c **** 
ARM GAS  /tmp/cctIRrNQ.s 			page 130


2538:../Shared/Libraries/STM32F4xx_StdPeriph_Driver/src/stm32f4xx_rtc.c **** @endverbatim
2539:../Shared/Libraries/STM32F4xx_StdPeriph_Driver/src/stm32f4xx_rtc.c ****   * @{
2540:../Shared/Libraries/STM32F4xx_StdPeriph_Driver/src/stm32f4xx_rtc.c ****   */
2541:../Shared/Libraries/STM32F4xx_StdPeriph_Driver/src/stm32f4xx_rtc.c **** 
2542:../Shared/Libraries/STM32F4xx_StdPeriph_Driver/src/stm32f4xx_rtc.c **** /**
2543:../Shared/Libraries/STM32F4xx_StdPeriph_Driver/src/stm32f4xx_rtc.c ****   * @brief  Enables or disables the specified RTC interrupts.
2544:../Shared/Libraries/STM32F4xx_StdPeriph_Driver/src/stm32f4xx_rtc.c ****   * @param  RTC_IT: specifies the RTC interrupt sources to be enabled or disabled. 
2545:../Shared/Libraries/STM32F4xx_StdPeriph_Driver/src/stm32f4xx_rtc.c ****   *          This parameter can be any combination of the following values:
2546:../Shared/Libraries/STM32F4xx_StdPeriph_Driver/src/stm32f4xx_rtc.c ****   *            @arg RTC_IT_TS:  Time Stamp interrupt mask
2547:../Shared/Libraries/STM32F4xx_StdPeriph_Driver/src/stm32f4xx_rtc.c ****   *            @arg RTC_IT_WUT:  WakeUp Timer interrupt mask
2548:../Shared/Libraries/STM32F4xx_StdPeriph_Driver/src/stm32f4xx_rtc.c ****   *            @arg RTC_IT_ALRB:  Alarm B interrupt mask
2549:../Shared/Libraries/STM32F4xx_StdPeriph_Driver/src/stm32f4xx_rtc.c ****   *            @arg RTC_IT_ALRA:  Alarm A interrupt mask
2550:../Shared/Libraries/STM32F4xx_StdPeriph_Driver/src/stm32f4xx_rtc.c ****   *            @arg RTC_IT_TAMP: Tamper event interrupt mask
2551:../Shared/Libraries/STM32F4xx_StdPeriph_Driver/src/stm32f4xx_rtc.c ****   * @param  NewState: new state of the specified RTC interrupts.
2552:../Shared/Libraries/STM32F4xx_StdPeriph_Driver/src/stm32f4xx_rtc.c ****   *          This parameter can be: ENABLE or DISABLE.
2553:../Shared/Libraries/STM32F4xx_StdPeriph_Driver/src/stm32f4xx_rtc.c ****   * @retval None
2554:../Shared/Libraries/STM32F4xx_StdPeriph_Driver/src/stm32f4xx_rtc.c ****   */
2555:../Shared/Libraries/STM32F4xx_StdPeriph_Driver/src/stm32f4xx_rtc.c **** void RTC_ITConfig(uint32_t RTC_IT, FunctionalState NewState)
2556:../Shared/Libraries/STM32F4xx_StdPeriph_Driver/src/stm32f4xx_rtc.c **** {
 4870              		.loc 1 2556 1
 4871              		.cfi_startproc
 4872              		@ args = 0, pretend = 0, frame = 8
 4873              		@ frame_needed = 1, uses_anonymous_args = 0
 4874              		@ link register save eliminated.
 4875 0000 80B4     		push	{r7}
 4876              	.LCFI279:
 4877              		.cfi_def_cfa_offset 4
 4878              		.cfi_offset 7, -4
 4879 0002 83B0     		sub	sp, sp, #12
 4880              	.LCFI280:
 4881              		.cfi_def_cfa_offset 16
 4882 0004 00AF     		add	r7, sp, #0
 4883              	.LCFI281:
 4884              		.cfi_def_cfa_register 7
 4885 0006 7860     		str	r0, [r7, #4]
 4886 0008 0B46     		mov	r3, r1
 4887 000a FB70     		strb	r3, [r7, #3]
2557:../Shared/Libraries/STM32F4xx_StdPeriph_Driver/src/stm32f4xx_rtc.c ****   /* Check the parameters */
2558:../Shared/Libraries/STM32F4xx_StdPeriph_Driver/src/stm32f4xx_rtc.c ****   assert_param(IS_RTC_CONFIG_IT(RTC_IT));
2559:../Shared/Libraries/STM32F4xx_StdPeriph_Driver/src/stm32f4xx_rtc.c ****   assert_param(IS_FUNCTIONAL_STATE(NewState));
2560:../Shared/Libraries/STM32F4xx_StdPeriph_Driver/src/stm32f4xx_rtc.c **** 
2561:../Shared/Libraries/STM32F4xx_StdPeriph_Driver/src/stm32f4xx_rtc.c ****   /* Disable the write protection for RTC registers */
2562:../Shared/Libraries/STM32F4xx_StdPeriph_Driver/src/stm32f4xx_rtc.c ****   RTC->WPR = 0xCA;
 4888              		.loc 1 2562 6
 4889 000c 1A4B     		ldr	r3, .L276
 4890              		.loc 1 2562 12
 4891 000e CA22     		movs	r2, #202
 4892 0010 5A62     		str	r2, [r3, #36]
2563:../Shared/Libraries/STM32F4xx_StdPeriph_Driver/src/stm32f4xx_rtc.c ****   RTC->WPR = 0x53;
 4893              		.loc 1 2563 6
 4894 0012 194B     		ldr	r3, .L276
 4895              		.loc 1 2563 12
 4896 0014 5322     		movs	r2, #83
 4897 0016 5A62     		str	r2, [r3, #36]
2564:../Shared/Libraries/STM32F4xx_StdPeriph_Driver/src/stm32f4xx_rtc.c **** 
2565:../Shared/Libraries/STM32F4xx_StdPeriph_Driver/src/stm32f4xx_rtc.c ****   if (NewState != DISABLE)
 4898              		.loc 1 2565 6
ARM GAS  /tmp/cctIRrNQ.s 			page 131


 4899 0018 FB78     		ldrb	r3, [r7, #3]	@ zero_extendqisi2
 4900 001a 002B     		cmp	r3, #0
 4901 001c 10D0     		beq	.L274
2566:../Shared/Libraries/STM32F4xx_StdPeriph_Driver/src/stm32f4xx_rtc.c ****   {
2567:../Shared/Libraries/STM32F4xx_StdPeriph_Driver/src/stm32f4xx_rtc.c ****     /* Configure the Interrupts in the RTC_CR register */
2568:../Shared/Libraries/STM32F4xx_StdPeriph_Driver/src/stm32f4xx_rtc.c ****     RTC->CR |= (uint32_t)(RTC_IT & ~RTC_TAFCR_TAMPIE);
 4902              		.loc 1 2568 8
 4903 001e 164B     		ldr	r3, .L276
 4904 0020 9A68     		ldr	r2, [r3, #8]
 4905              		.loc 1 2568 16
 4906 0022 7B68     		ldr	r3, [r7, #4]
 4907 0024 23F00403 		bic	r3, r3, #4
 4908              		.loc 1 2568 8
 4909 0028 1349     		ldr	r1, .L276
 4910              		.loc 1 2568 13
 4911 002a 1343     		orrs	r3, r3, r2
 4912 002c 8B60     		str	r3, [r1, #8]
2569:../Shared/Libraries/STM32F4xx_StdPeriph_Driver/src/stm32f4xx_rtc.c ****     /* Configure the Tamper Interrupt in the RTC_TAFCR */
2570:../Shared/Libraries/STM32F4xx_StdPeriph_Driver/src/stm32f4xx_rtc.c ****     RTC->TAFCR |= (uint32_t)(RTC_IT & RTC_TAFCR_TAMPIE);
 4913              		.loc 1 2570 8
 4914 002e 124B     		ldr	r3, .L276
 4915 0030 1A6C     		ldr	r2, [r3, #64]
 4916              		.loc 1 2570 19
 4917 0032 7B68     		ldr	r3, [r7, #4]
 4918 0034 03F00403 		and	r3, r3, #4
 4919              		.loc 1 2570 8
 4920 0038 0F49     		ldr	r1, .L276
 4921              		.loc 1 2570 16
 4922 003a 1343     		orrs	r3, r3, r2
 4923 003c 0B64     		str	r3, [r1, #64]
 4924 003e 11E0     		b	.L275
 4925              	.L274:
2571:../Shared/Libraries/STM32F4xx_StdPeriph_Driver/src/stm32f4xx_rtc.c ****   }
2572:../Shared/Libraries/STM32F4xx_StdPeriph_Driver/src/stm32f4xx_rtc.c ****   else
2573:../Shared/Libraries/STM32F4xx_StdPeriph_Driver/src/stm32f4xx_rtc.c ****   {
2574:../Shared/Libraries/STM32F4xx_StdPeriph_Driver/src/stm32f4xx_rtc.c ****     /* Configure the Interrupts in the RTC_CR register */
2575:../Shared/Libraries/STM32F4xx_StdPeriph_Driver/src/stm32f4xx_rtc.c ****     RTC->CR &= (uint32_t)~(RTC_IT & (uint32_t)~RTC_TAFCR_TAMPIE);
 4926              		.loc 1 2575 8
 4927 0040 0D4B     		ldr	r3, .L276
 4928 0042 9A68     		ldr	r2, [r3, #8]
 4929              		.loc 1 2575 35
 4930 0044 7B68     		ldr	r3, [r7, #4]
 4931 0046 23F00403 		bic	r3, r3, #4
 4932              		.loc 1 2575 16
 4933 004a DB43     		mvns	r3, r3
 4934              		.loc 1 2575 8
 4935 004c 0A49     		ldr	r1, .L276
 4936              		.loc 1 2575 13
 4937 004e 1340     		ands	r3, r3, r2
 4938 0050 8B60     		str	r3, [r1, #8]
2576:../Shared/Libraries/STM32F4xx_StdPeriph_Driver/src/stm32f4xx_rtc.c ****     /* Configure the Tamper Interrupt in the RTC_TAFCR */
2577:../Shared/Libraries/STM32F4xx_StdPeriph_Driver/src/stm32f4xx_rtc.c ****     RTC->TAFCR &= (uint32_t)~(RTC_IT & RTC_TAFCR_TAMPIE);
 4939              		.loc 1 2577 8
 4940 0052 094B     		ldr	r3, .L276
 4941 0054 1A6C     		ldr	r2, [r3, #64]
 4942              		.loc 1 2577 38
 4943 0056 7B68     		ldr	r3, [r7, #4]
ARM GAS  /tmp/cctIRrNQ.s 			page 132


 4944 0058 03F00403 		and	r3, r3, #4
 4945              		.loc 1 2577 19
 4946 005c DB43     		mvns	r3, r3
 4947              		.loc 1 2577 8
 4948 005e 0649     		ldr	r1, .L276
 4949              		.loc 1 2577 16
 4950 0060 1340     		ands	r3, r3, r2
 4951 0062 0B64     		str	r3, [r1, #64]
 4952              	.L275:
2578:../Shared/Libraries/STM32F4xx_StdPeriph_Driver/src/stm32f4xx_rtc.c ****   }
2579:../Shared/Libraries/STM32F4xx_StdPeriph_Driver/src/stm32f4xx_rtc.c ****   /* Enable the write protection for RTC registers */
2580:../Shared/Libraries/STM32F4xx_StdPeriph_Driver/src/stm32f4xx_rtc.c ****   RTC->WPR = 0xFF; 
 4953              		.loc 1 2580 6
 4954 0064 044B     		ldr	r3, .L276
 4955              		.loc 1 2580 12
 4956 0066 FF22     		movs	r2, #255
 4957 0068 5A62     		str	r2, [r3, #36]
2581:../Shared/Libraries/STM32F4xx_StdPeriph_Driver/src/stm32f4xx_rtc.c **** }
 4958              		.loc 1 2581 1
 4959 006a 00BF     		nop
 4960 006c 0C37     		adds	r7, r7, #12
 4961              	.LCFI282:
 4962              		.cfi_def_cfa_offset 4
 4963 006e BD46     		mov	sp, r7
 4964              	.LCFI283:
 4965              		.cfi_def_cfa_register 13
 4966              		@ sp needed
 4967 0070 5DF8047B 		ldr	r7, [sp], #4
 4968              	.LCFI284:
 4969              		.cfi_restore 7
 4970              		.cfi_def_cfa_offset 0
 4971 0074 7047     		bx	lr
 4972              	.L277:
 4973 0076 00BF     		.align	2
 4974              	.L276:
 4975 0078 00280040 		.word	1073752064
 4976              		.cfi_endproc
 4977              	.LFE160:
 4979              		.section	.text.RTC_GetFlagStatus,"ax",%progbits
 4980              		.align	1
 4981              		.global	RTC_GetFlagStatus
 4982              		.syntax unified
 4983              		.thumb
 4984              		.thumb_func
 4986              	RTC_GetFlagStatus:
 4987              	.LFB161:
2582:../Shared/Libraries/STM32F4xx_StdPeriph_Driver/src/stm32f4xx_rtc.c **** 
2583:../Shared/Libraries/STM32F4xx_StdPeriph_Driver/src/stm32f4xx_rtc.c **** /**
2584:../Shared/Libraries/STM32F4xx_StdPeriph_Driver/src/stm32f4xx_rtc.c ****   * @brief  Checks whether the specified RTC flag is set or not.
2585:../Shared/Libraries/STM32F4xx_StdPeriph_Driver/src/stm32f4xx_rtc.c ****   * @param  RTC_FLAG: specifies the flag to check.
2586:../Shared/Libraries/STM32F4xx_StdPeriph_Driver/src/stm32f4xx_rtc.c ****   *          This parameter can be one of the following values:
2587:../Shared/Libraries/STM32F4xx_StdPeriph_Driver/src/stm32f4xx_rtc.c ****   *            @arg RTC_FLAG_RECALPF: RECALPF event flag.
2588:../Shared/Libraries/STM32F4xx_StdPeriph_Driver/src/stm32f4xx_rtc.c ****   *            @arg RTC_FLAG_TAMP1F: Tamper 1 event flag
2589:../Shared/Libraries/STM32F4xx_StdPeriph_Driver/src/stm32f4xx_rtc.c ****   *            @arg RTC_FLAG_TSOVF: Time Stamp OverFlow flag
2590:../Shared/Libraries/STM32F4xx_StdPeriph_Driver/src/stm32f4xx_rtc.c ****   *            @arg RTC_FLAG_TSF: Time Stamp event flag
2591:../Shared/Libraries/STM32F4xx_StdPeriph_Driver/src/stm32f4xx_rtc.c ****   *            @arg RTC_FLAG_WUTF: WakeUp Timer flag
2592:../Shared/Libraries/STM32F4xx_StdPeriph_Driver/src/stm32f4xx_rtc.c ****   *            @arg RTC_FLAG_ALRBF: Alarm B flag
ARM GAS  /tmp/cctIRrNQ.s 			page 133


2593:../Shared/Libraries/STM32F4xx_StdPeriph_Driver/src/stm32f4xx_rtc.c ****   *            @arg RTC_FLAG_ALRAF: Alarm A flag
2594:../Shared/Libraries/STM32F4xx_StdPeriph_Driver/src/stm32f4xx_rtc.c ****   *            @arg RTC_FLAG_INITF: Initialization mode flag
2595:../Shared/Libraries/STM32F4xx_StdPeriph_Driver/src/stm32f4xx_rtc.c ****   *            @arg RTC_FLAG_RSF: Registers Synchronized flag
2596:../Shared/Libraries/STM32F4xx_StdPeriph_Driver/src/stm32f4xx_rtc.c ****   *            @arg RTC_FLAG_INITS: Registers Configured flag
2597:../Shared/Libraries/STM32F4xx_StdPeriph_Driver/src/stm32f4xx_rtc.c ****   *            @arg RTC_FLAG_SHPF: Shift operation pending flag.
2598:../Shared/Libraries/STM32F4xx_StdPeriph_Driver/src/stm32f4xx_rtc.c ****   *            @arg RTC_FLAG_WUTWF: WakeUp Timer Write flag
2599:../Shared/Libraries/STM32F4xx_StdPeriph_Driver/src/stm32f4xx_rtc.c ****   *            @arg RTC_FLAG_ALRBWF: Alarm B Write flag
2600:../Shared/Libraries/STM32F4xx_StdPeriph_Driver/src/stm32f4xx_rtc.c ****   *            @arg RTC_FLAG_ALRAWF: Alarm A write flag
2601:../Shared/Libraries/STM32F4xx_StdPeriph_Driver/src/stm32f4xx_rtc.c ****   * @retval The new state of RTC_FLAG (SET or RESET).
2602:../Shared/Libraries/STM32F4xx_StdPeriph_Driver/src/stm32f4xx_rtc.c ****   */
2603:../Shared/Libraries/STM32F4xx_StdPeriph_Driver/src/stm32f4xx_rtc.c **** FlagStatus RTC_GetFlagStatus(uint32_t RTC_FLAG)
2604:../Shared/Libraries/STM32F4xx_StdPeriph_Driver/src/stm32f4xx_rtc.c **** {
 4988              		.loc 1 2604 1
 4989              		.cfi_startproc
 4990              		@ args = 0, pretend = 0, frame = 16
 4991              		@ frame_needed = 1, uses_anonymous_args = 0
 4992              		@ link register save eliminated.
 4993 0000 80B4     		push	{r7}
 4994              	.LCFI285:
 4995              		.cfi_def_cfa_offset 4
 4996              		.cfi_offset 7, -4
 4997 0002 85B0     		sub	sp, sp, #20
 4998              	.LCFI286:
 4999              		.cfi_def_cfa_offset 24
 5000 0004 00AF     		add	r7, sp, #0
 5001              	.LCFI287:
 5002              		.cfi_def_cfa_register 7
 5003 0006 7860     		str	r0, [r7, #4]
2605:../Shared/Libraries/STM32F4xx_StdPeriph_Driver/src/stm32f4xx_rtc.c ****   FlagStatus bitstatus = RESET;
 5004              		.loc 1 2605 14
 5005 0008 0023     		movs	r3, #0
 5006 000a FB73     		strb	r3, [r7, #15]
2606:../Shared/Libraries/STM32F4xx_StdPeriph_Driver/src/stm32f4xx_rtc.c ****   uint32_t tmpreg = 0;
 5007              		.loc 1 2606 12
 5008 000c 0023     		movs	r3, #0
 5009 000e BB60     		str	r3, [r7, #8]
2607:../Shared/Libraries/STM32F4xx_StdPeriph_Driver/src/stm32f4xx_rtc.c ****   
2608:../Shared/Libraries/STM32F4xx_StdPeriph_Driver/src/stm32f4xx_rtc.c ****   /* Check the parameters */
2609:../Shared/Libraries/STM32F4xx_StdPeriph_Driver/src/stm32f4xx_rtc.c ****   assert_param(IS_RTC_GET_FLAG(RTC_FLAG));
2610:../Shared/Libraries/STM32F4xx_StdPeriph_Driver/src/stm32f4xx_rtc.c ****   
2611:../Shared/Libraries/STM32F4xx_StdPeriph_Driver/src/stm32f4xx_rtc.c ****   /* Get all the flags */
2612:../Shared/Libraries/STM32F4xx_StdPeriph_Driver/src/stm32f4xx_rtc.c ****   tmpreg = (uint32_t)(RTC->ISR & RTC_FLAGS_MASK);
 5010              		.loc 1 2612 26
 5011 0010 0A4B     		ldr	r3, .L282
 5012 0012 DA68     		ldr	r2, [r3, #12]
 5013              		.loc 1 2612 10
 5014 0014 0A4B     		ldr	r3, .L282+4
 5015 0016 1340     		ands	r3, r3, r2
 5016 0018 BB60     		str	r3, [r7, #8]
2613:../Shared/Libraries/STM32F4xx_StdPeriph_Driver/src/stm32f4xx_rtc.c ****   
2614:../Shared/Libraries/STM32F4xx_StdPeriph_Driver/src/stm32f4xx_rtc.c ****   /* Return the status of the flag */
2615:../Shared/Libraries/STM32F4xx_StdPeriph_Driver/src/stm32f4xx_rtc.c ****   if ((tmpreg & RTC_FLAG) != (uint32_t)RESET)
 5017              		.loc 1 2615 15
 5018 001a BA68     		ldr	r2, [r7, #8]
 5019 001c 7B68     		ldr	r3, [r7, #4]
 5020 001e 1340     		ands	r3, r3, r2
 5021              		.loc 1 2615 6
ARM GAS  /tmp/cctIRrNQ.s 			page 134


 5022 0020 002B     		cmp	r3, #0
 5023 0022 02D0     		beq	.L279
2616:../Shared/Libraries/STM32F4xx_StdPeriph_Driver/src/stm32f4xx_rtc.c ****   {
2617:../Shared/Libraries/STM32F4xx_StdPeriph_Driver/src/stm32f4xx_rtc.c ****     bitstatus = SET;
 5024              		.loc 1 2617 15
 5025 0024 0123     		movs	r3, #1
 5026 0026 FB73     		strb	r3, [r7, #15]
 5027 0028 01E0     		b	.L280
 5028              	.L279:
2618:../Shared/Libraries/STM32F4xx_StdPeriph_Driver/src/stm32f4xx_rtc.c ****   }
2619:../Shared/Libraries/STM32F4xx_StdPeriph_Driver/src/stm32f4xx_rtc.c ****   else
2620:../Shared/Libraries/STM32F4xx_StdPeriph_Driver/src/stm32f4xx_rtc.c ****   {
2621:../Shared/Libraries/STM32F4xx_StdPeriph_Driver/src/stm32f4xx_rtc.c ****     bitstatus = RESET;
 5029              		.loc 1 2621 15
 5030 002a 0023     		movs	r3, #0
 5031 002c FB73     		strb	r3, [r7, #15]
 5032              	.L280:
2622:../Shared/Libraries/STM32F4xx_StdPeriph_Driver/src/stm32f4xx_rtc.c ****   }
2623:../Shared/Libraries/STM32F4xx_StdPeriph_Driver/src/stm32f4xx_rtc.c ****   return bitstatus;
 5033              		.loc 1 2623 10
 5034 002e FB7B     		ldrb	r3, [r7, #15]	@ zero_extendqisi2
2624:../Shared/Libraries/STM32F4xx_StdPeriph_Driver/src/stm32f4xx_rtc.c **** }
 5035              		.loc 1 2624 1
 5036 0030 1846     		mov	r0, r3
 5037 0032 1437     		adds	r7, r7, #20
 5038              	.LCFI288:
 5039              		.cfi_def_cfa_offset 4
 5040 0034 BD46     		mov	sp, r7
 5041              	.LCFI289:
 5042              		.cfi_def_cfa_register 13
 5043              		@ sp needed
 5044 0036 5DF8047B 		ldr	r7, [sp], #4
 5045              	.LCFI290:
 5046              		.cfi_restore 7
 5047              		.cfi_def_cfa_offset 0
 5048 003a 7047     		bx	lr
 5049              	.L283:
 5050              		.align	2
 5051              	.L282:
 5052 003c 00280040 		.word	1073752064
 5053 0040 7F3F0100 		.word	81791
 5054              		.cfi_endproc
 5055              	.LFE161:
 5057              		.section	.text.RTC_ClearFlag,"ax",%progbits
 5058              		.align	1
 5059              		.global	RTC_ClearFlag
 5060              		.syntax unified
 5061              		.thumb
 5062              		.thumb_func
 5064              	RTC_ClearFlag:
 5065              	.LFB162:
2625:../Shared/Libraries/STM32F4xx_StdPeriph_Driver/src/stm32f4xx_rtc.c **** 
2626:../Shared/Libraries/STM32F4xx_StdPeriph_Driver/src/stm32f4xx_rtc.c **** /**
2627:../Shared/Libraries/STM32F4xx_StdPeriph_Driver/src/stm32f4xx_rtc.c ****   * @brief  Clears the RTC's pending flags.
2628:../Shared/Libraries/STM32F4xx_StdPeriph_Driver/src/stm32f4xx_rtc.c ****   * @param  RTC_FLAG: specifies the RTC flag to clear.
2629:../Shared/Libraries/STM32F4xx_StdPeriph_Driver/src/stm32f4xx_rtc.c ****   *          This parameter can be any combination of the following values:
2630:../Shared/Libraries/STM32F4xx_StdPeriph_Driver/src/stm32f4xx_rtc.c ****   *            @arg RTC_FLAG_TAMP1F: Tamper 1 event flag
ARM GAS  /tmp/cctIRrNQ.s 			page 135


2631:../Shared/Libraries/STM32F4xx_StdPeriph_Driver/src/stm32f4xx_rtc.c ****   *            @arg RTC_FLAG_TSOVF: Time Stamp Overflow flag 
2632:../Shared/Libraries/STM32F4xx_StdPeriph_Driver/src/stm32f4xx_rtc.c ****   *            @arg RTC_FLAG_TSF: Time Stamp event flag
2633:../Shared/Libraries/STM32F4xx_StdPeriph_Driver/src/stm32f4xx_rtc.c ****   *            @arg RTC_FLAG_WUTF: WakeUp Timer flag
2634:../Shared/Libraries/STM32F4xx_StdPeriph_Driver/src/stm32f4xx_rtc.c ****   *            @arg RTC_FLAG_ALRBF: Alarm B flag
2635:../Shared/Libraries/STM32F4xx_StdPeriph_Driver/src/stm32f4xx_rtc.c ****   *            @arg RTC_FLAG_ALRAF: Alarm A flag
2636:../Shared/Libraries/STM32F4xx_StdPeriph_Driver/src/stm32f4xx_rtc.c ****   *            @arg RTC_FLAG_RSF: Registers Synchronized flag
2637:../Shared/Libraries/STM32F4xx_StdPeriph_Driver/src/stm32f4xx_rtc.c ****   * @retval None
2638:../Shared/Libraries/STM32F4xx_StdPeriph_Driver/src/stm32f4xx_rtc.c ****   */
2639:../Shared/Libraries/STM32F4xx_StdPeriph_Driver/src/stm32f4xx_rtc.c **** void RTC_ClearFlag(uint32_t RTC_FLAG)
2640:../Shared/Libraries/STM32F4xx_StdPeriph_Driver/src/stm32f4xx_rtc.c **** {
 5066              		.loc 1 2640 1
 5067              		.cfi_startproc
 5068              		@ args = 0, pretend = 0, frame = 8
 5069              		@ frame_needed = 1, uses_anonymous_args = 0
 5070              		@ link register save eliminated.
 5071 0000 80B4     		push	{r7}
 5072              	.LCFI291:
 5073              		.cfi_def_cfa_offset 4
 5074              		.cfi_offset 7, -4
 5075 0002 83B0     		sub	sp, sp, #12
 5076              	.LCFI292:
 5077              		.cfi_def_cfa_offset 16
 5078 0004 00AF     		add	r7, sp, #0
 5079              	.LCFI293:
 5080              		.cfi_def_cfa_register 7
 5081 0006 7860     		str	r0, [r7, #4]
2641:../Shared/Libraries/STM32F4xx_StdPeriph_Driver/src/stm32f4xx_rtc.c ****   /* Check the parameters */
2642:../Shared/Libraries/STM32F4xx_StdPeriph_Driver/src/stm32f4xx_rtc.c ****   assert_param(IS_RTC_CLEAR_FLAG(RTC_FLAG));
2643:../Shared/Libraries/STM32F4xx_StdPeriph_Driver/src/stm32f4xx_rtc.c **** 
2644:../Shared/Libraries/STM32F4xx_StdPeriph_Driver/src/stm32f4xx_rtc.c ****   /* Clear the Flags in the RTC_ISR register */
2645:../Shared/Libraries/STM32F4xx_StdPeriph_Driver/src/stm32f4xx_rtc.c ****   RTC->ISR = (uint32_t)((uint32_t)(~((RTC_FLAG | RTC_ISR_INIT)& 0x0000FFFF) | (uint32_t)(RTC->ISR &
 5082              		.loc 1 2645 63
 5083 0008 7B68     		ldr	r3, [r7, #4]
 5084 000a 9BB2     		uxth	r3, r3
 5085 000c 43F08003 		orr	r3, r3, #128
 5086              		.loc 1 2645 36
 5087 0010 DA43     		mvns	r2, r3
 5088              		.loc 1 2645 93
 5089 0012 064B     		ldr	r3, .L285
 5090 0014 DB68     		ldr	r3, [r3, #12]
 5091              		.loc 1 2645 79
 5092 0016 03F08003 		and	r3, r3, #128
 5093              		.loc 1 2645 6
 5094 001a 0449     		ldr	r1, .L285
 5095              		.loc 1 2645 14
 5096 001c 1343     		orrs	r3, r3, r2
 5097              		.loc 1 2645 12
 5098 001e CB60     		str	r3, [r1, #12]
2646:../Shared/Libraries/STM32F4xx_StdPeriph_Driver/src/stm32f4xx_rtc.c **** }
 5099              		.loc 1 2646 1
 5100 0020 00BF     		nop
 5101 0022 0C37     		adds	r7, r7, #12
 5102              	.LCFI294:
 5103              		.cfi_def_cfa_offset 4
 5104 0024 BD46     		mov	sp, r7
 5105              	.LCFI295:
 5106              		.cfi_def_cfa_register 13
ARM GAS  /tmp/cctIRrNQ.s 			page 136


 5107              		@ sp needed
 5108 0026 5DF8047B 		ldr	r7, [sp], #4
 5109              	.LCFI296:
 5110              		.cfi_restore 7
 5111              		.cfi_def_cfa_offset 0
 5112 002a 7047     		bx	lr
 5113              	.L286:
 5114              		.align	2
 5115              	.L285:
 5116 002c 00280040 		.word	1073752064
 5117              		.cfi_endproc
 5118              	.LFE162:
 5120              		.section	.text.RTC_GetITStatus,"ax",%progbits
 5121              		.align	1
 5122              		.global	RTC_GetITStatus
 5123              		.syntax unified
 5124              		.thumb
 5125              		.thumb_func
 5127              	RTC_GetITStatus:
 5128              	.LFB163:
2647:../Shared/Libraries/STM32F4xx_StdPeriph_Driver/src/stm32f4xx_rtc.c **** 
2648:../Shared/Libraries/STM32F4xx_StdPeriph_Driver/src/stm32f4xx_rtc.c **** /**
2649:../Shared/Libraries/STM32F4xx_StdPeriph_Driver/src/stm32f4xx_rtc.c ****   * @brief  Checks whether the specified RTC interrupt has occurred or not.
2650:../Shared/Libraries/STM32F4xx_StdPeriph_Driver/src/stm32f4xx_rtc.c ****   * @param  RTC_IT: specifies the RTC interrupt source to check.
2651:../Shared/Libraries/STM32F4xx_StdPeriph_Driver/src/stm32f4xx_rtc.c ****   *          This parameter can be one of the following values:
2652:../Shared/Libraries/STM32F4xx_StdPeriph_Driver/src/stm32f4xx_rtc.c ****   *            @arg RTC_IT_TS: Time Stamp interrupt 
2653:../Shared/Libraries/STM32F4xx_StdPeriph_Driver/src/stm32f4xx_rtc.c ****   *            @arg RTC_IT_WUT: WakeUp Timer interrupt 
2654:../Shared/Libraries/STM32F4xx_StdPeriph_Driver/src/stm32f4xx_rtc.c ****   *            @arg RTC_IT_ALRB: Alarm B interrupt 
2655:../Shared/Libraries/STM32F4xx_StdPeriph_Driver/src/stm32f4xx_rtc.c ****   *            @arg RTC_IT_ALRA: Alarm A interrupt 
2656:../Shared/Libraries/STM32F4xx_StdPeriph_Driver/src/stm32f4xx_rtc.c ****   *            @arg RTC_IT_TAMP1: Tamper 1 event interrupt 
2657:../Shared/Libraries/STM32F4xx_StdPeriph_Driver/src/stm32f4xx_rtc.c ****   * @retval The new state of RTC_IT (SET or RESET).
2658:../Shared/Libraries/STM32F4xx_StdPeriph_Driver/src/stm32f4xx_rtc.c ****   */
2659:../Shared/Libraries/STM32F4xx_StdPeriph_Driver/src/stm32f4xx_rtc.c **** ITStatus RTC_GetITStatus(uint32_t RTC_IT)
2660:../Shared/Libraries/STM32F4xx_StdPeriph_Driver/src/stm32f4xx_rtc.c **** {
 5129              		.loc 1 2660 1
 5130              		.cfi_startproc
 5131              		@ args = 0, pretend = 0, frame = 24
 5132              		@ frame_needed = 1, uses_anonymous_args = 0
 5133              		@ link register save eliminated.
 5134 0000 80B4     		push	{r7}
 5135              	.LCFI297:
 5136              		.cfi_def_cfa_offset 4
 5137              		.cfi_offset 7, -4
 5138 0002 87B0     		sub	sp, sp, #28
 5139              	.LCFI298:
 5140              		.cfi_def_cfa_offset 32
 5141 0004 00AF     		add	r7, sp, #0
 5142              	.LCFI299:
 5143              		.cfi_def_cfa_register 7
 5144 0006 7860     		str	r0, [r7, #4]
2661:../Shared/Libraries/STM32F4xx_StdPeriph_Driver/src/stm32f4xx_rtc.c ****   ITStatus bitstatus = RESET;
 5145              		.loc 1 2661 12
 5146 0008 0023     		movs	r3, #0
 5147 000a FB75     		strb	r3, [r7, #23]
2662:../Shared/Libraries/STM32F4xx_StdPeriph_Driver/src/stm32f4xx_rtc.c ****   uint32_t tmpreg = 0, enablestatus = 0;
 5148              		.loc 1 2662 12
 5149 000c 0023     		movs	r3, #0
ARM GAS  /tmp/cctIRrNQ.s 			page 137


 5150 000e 3B61     		str	r3, [r7, #16]
 5151              		.loc 1 2662 24
 5152 0010 0023     		movs	r3, #0
 5153 0012 FB60     		str	r3, [r7, #12]
2663:../Shared/Libraries/STM32F4xx_StdPeriph_Driver/src/stm32f4xx_rtc.c ****  
2664:../Shared/Libraries/STM32F4xx_StdPeriph_Driver/src/stm32f4xx_rtc.c ****   /* Check the parameters */
2665:../Shared/Libraries/STM32F4xx_StdPeriph_Driver/src/stm32f4xx_rtc.c ****   assert_param(IS_RTC_GET_IT(RTC_IT));
2666:../Shared/Libraries/STM32F4xx_StdPeriph_Driver/src/stm32f4xx_rtc.c ****   
2667:../Shared/Libraries/STM32F4xx_StdPeriph_Driver/src/stm32f4xx_rtc.c ****   /* Get the TAMPER Interrupt enable bit and pending bit */
2668:../Shared/Libraries/STM32F4xx_StdPeriph_Driver/src/stm32f4xx_rtc.c ****   tmpreg = (uint32_t)(RTC->TAFCR & (RTC_TAFCR_TAMPIE));
 5154              		.loc 1 2668 26
 5155 0014 134B     		ldr	r3, .L291
 5156 0016 1B6C     		ldr	r3, [r3, #64]
 5157              		.loc 1 2668 10
 5158 0018 03F00403 		and	r3, r3, #4
 5159 001c 3B61     		str	r3, [r7, #16]
2669:../Shared/Libraries/STM32F4xx_StdPeriph_Driver/src/stm32f4xx_rtc.c ****  
2670:../Shared/Libraries/STM32F4xx_StdPeriph_Driver/src/stm32f4xx_rtc.c ****   /* Get the Interrupt enable Status */
2671:../Shared/Libraries/STM32F4xx_StdPeriph_Driver/src/stm32f4xx_rtc.c ****   enablestatus = (uint32_t)((RTC->CR & RTC_IT) | (tmpreg & (RTC_IT >> 15)));
 5160              		.loc 1 2671 33
 5161 001e 114B     		ldr	r3, .L291
 5162 0020 9A68     		ldr	r2, [r3, #8]
 5163              		.loc 1 2671 38
 5164 0022 7B68     		ldr	r3, [r7, #4]
 5165 0024 1A40     		ands	r2, r2, r3
 5166              		.loc 1 2671 68
 5167 0026 7B68     		ldr	r3, [r7, #4]
 5168 0028 D90B     		lsrs	r1, r3, #15
 5169              		.loc 1 2671 58
 5170 002a 3B69     		ldr	r3, [r7, #16]
 5171 002c 0B40     		ands	r3, r3, r1
 5172              		.loc 1 2671 16
 5173 002e 1343     		orrs	r3, r3, r2
 5174 0030 FB60     		str	r3, [r7, #12]
2672:../Shared/Libraries/STM32F4xx_StdPeriph_Driver/src/stm32f4xx_rtc.c ****   
2673:../Shared/Libraries/STM32F4xx_StdPeriph_Driver/src/stm32f4xx_rtc.c ****   /* Get the Interrupt pending bit */
2674:../Shared/Libraries/STM32F4xx_StdPeriph_Driver/src/stm32f4xx_rtc.c ****   tmpreg = (uint32_t)((RTC->ISR & (uint32_t)(RTC_IT >> 4)));
 5175              		.loc 1 2674 27
 5176 0032 0C4B     		ldr	r3, .L291
 5177 0034 DA68     		ldr	r2, [r3, #12]
 5178              		.loc 1 2674 53
 5179 0036 7B68     		ldr	r3, [r7, #4]
 5180 0038 1B09     		lsrs	r3, r3, #4
 5181              		.loc 1 2674 10
 5182 003a 1340     		ands	r3, r3, r2
 5183 003c 3B61     		str	r3, [r7, #16]
2675:../Shared/Libraries/STM32F4xx_StdPeriph_Driver/src/stm32f4xx_rtc.c ****   
2676:../Shared/Libraries/STM32F4xx_StdPeriph_Driver/src/stm32f4xx_rtc.c ****   /* Get the status of the Interrupt */
2677:../Shared/Libraries/STM32F4xx_StdPeriph_Driver/src/stm32f4xx_rtc.c ****   if ((enablestatus != (uint32_t)RESET) && ((tmpreg & 0x0000FFFF) != (uint32_t)RESET))
 5184              		.loc 1 2677 6
 5185 003e FB68     		ldr	r3, [r7, #12]
 5186 0040 002B     		cmp	r3, #0
 5187 0042 06D0     		beq	.L288
 5188              		.loc 1 2677 53 discriminator 1
 5189 0044 3B69     		ldr	r3, [r7, #16]
 5190 0046 9BB2     		uxth	r3, r3
 5191              		.loc 1 2677 41 discriminator 1
ARM GAS  /tmp/cctIRrNQ.s 			page 138


 5192 0048 002B     		cmp	r3, #0
 5193 004a 02D0     		beq	.L288
2678:../Shared/Libraries/STM32F4xx_StdPeriph_Driver/src/stm32f4xx_rtc.c ****   {
2679:../Shared/Libraries/STM32F4xx_StdPeriph_Driver/src/stm32f4xx_rtc.c ****     bitstatus = SET;
 5194              		.loc 1 2679 15
 5195 004c 0123     		movs	r3, #1
 5196 004e FB75     		strb	r3, [r7, #23]
 5197 0050 01E0     		b	.L289
 5198              	.L288:
2680:../Shared/Libraries/STM32F4xx_StdPeriph_Driver/src/stm32f4xx_rtc.c ****   }
2681:../Shared/Libraries/STM32F4xx_StdPeriph_Driver/src/stm32f4xx_rtc.c ****   else
2682:../Shared/Libraries/STM32F4xx_StdPeriph_Driver/src/stm32f4xx_rtc.c ****   {
2683:../Shared/Libraries/STM32F4xx_StdPeriph_Driver/src/stm32f4xx_rtc.c ****     bitstatus = RESET;
 5199              		.loc 1 2683 15
 5200 0052 0023     		movs	r3, #0
 5201 0054 FB75     		strb	r3, [r7, #23]
 5202              	.L289:
2684:../Shared/Libraries/STM32F4xx_StdPeriph_Driver/src/stm32f4xx_rtc.c ****   }
2685:../Shared/Libraries/STM32F4xx_StdPeriph_Driver/src/stm32f4xx_rtc.c ****   return bitstatus;
 5203              		.loc 1 2685 10
 5204 0056 FB7D     		ldrb	r3, [r7, #23]	@ zero_extendqisi2
2686:../Shared/Libraries/STM32F4xx_StdPeriph_Driver/src/stm32f4xx_rtc.c **** }
 5205              		.loc 1 2686 1
 5206 0058 1846     		mov	r0, r3
 5207 005a 1C37     		adds	r7, r7, #28
 5208              	.LCFI300:
 5209              		.cfi_def_cfa_offset 4
 5210 005c BD46     		mov	sp, r7
 5211              	.LCFI301:
 5212              		.cfi_def_cfa_register 13
 5213              		@ sp needed
 5214 005e 5DF8047B 		ldr	r7, [sp], #4
 5215              	.LCFI302:
 5216              		.cfi_restore 7
 5217              		.cfi_def_cfa_offset 0
 5218 0062 7047     		bx	lr
 5219              	.L292:
 5220              		.align	2
 5221              	.L291:
 5222 0064 00280040 		.word	1073752064
 5223              		.cfi_endproc
 5224              	.LFE163:
 5226              		.section	.text.RTC_ClearITPendingBit,"ax",%progbits
 5227              		.align	1
 5228              		.global	RTC_ClearITPendingBit
 5229              		.syntax unified
 5230              		.thumb
 5231              		.thumb_func
 5233              	RTC_ClearITPendingBit:
 5234              	.LFB164:
2687:../Shared/Libraries/STM32F4xx_StdPeriph_Driver/src/stm32f4xx_rtc.c **** 
2688:../Shared/Libraries/STM32F4xx_StdPeriph_Driver/src/stm32f4xx_rtc.c **** /**
2689:../Shared/Libraries/STM32F4xx_StdPeriph_Driver/src/stm32f4xx_rtc.c ****   * @brief  Clears the RTC's interrupt pending bits.
2690:../Shared/Libraries/STM32F4xx_StdPeriph_Driver/src/stm32f4xx_rtc.c ****   * @param  RTC_IT: specifies the RTC interrupt pending bit to clear.
2691:../Shared/Libraries/STM32F4xx_StdPeriph_Driver/src/stm32f4xx_rtc.c ****   *          This parameter can be any combination of the following values:
2692:../Shared/Libraries/STM32F4xx_StdPeriph_Driver/src/stm32f4xx_rtc.c ****   *            @arg RTC_IT_TS: Time Stamp interrupt 
2693:../Shared/Libraries/STM32F4xx_StdPeriph_Driver/src/stm32f4xx_rtc.c ****   *            @arg RTC_IT_WUT: WakeUp Timer interrupt 
ARM GAS  /tmp/cctIRrNQ.s 			page 139


2694:../Shared/Libraries/STM32F4xx_StdPeriph_Driver/src/stm32f4xx_rtc.c ****   *            @arg RTC_IT_ALRB: Alarm B interrupt 
2695:../Shared/Libraries/STM32F4xx_StdPeriph_Driver/src/stm32f4xx_rtc.c ****   *            @arg RTC_IT_ALRA: Alarm A interrupt 
2696:../Shared/Libraries/STM32F4xx_StdPeriph_Driver/src/stm32f4xx_rtc.c ****   *            @arg RTC_IT_TAMP1: Tamper 1 event interrupt 
2697:../Shared/Libraries/STM32F4xx_StdPeriph_Driver/src/stm32f4xx_rtc.c ****   * @retval None
2698:../Shared/Libraries/STM32F4xx_StdPeriph_Driver/src/stm32f4xx_rtc.c ****   */
2699:../Shared/Libraries/STM32F4xx_StdPeriph_Driver/src/stm32f4xx_rtc.c **** void RTC_ClearITPendingBit(uint32_t RTC_IT)
2700:../Shared/Libraries/STM32F4xx_StdPeriph_Driver/src/stm32f4xx_rtc.c **** {
 5235              		.loc 1 2700 1
 5236              		.cfi_startproc
 5237              		@ args = 0, pretend = 0, frame = 16
 5238              		@ frame_needed = 1, uses_anonymous_args = 0
 5239              		@ link register save eliminated.
 5240 0000 80B4     		push	{r7}
 5241              	.LCFI303:
 5242              		.cfi_def_cfa_offset 4
 5243              		.cfi_offset 7, -4
 5244 0002 85B0     		sub	sp, sp, #20
 5245              	.LCFI304:
 5246              		.cfi_def_cfa_offset 24
 5247 0004 00AF     		add	r7, sp, #0
 5248              	.LCFI305:
 5249              		.cfi_def_cfa_register 7
 5250 0006 7860     		str	r0, [r7, #4]
2701:../Shared/Libraries/STM32F4xx_StdPeriph_Driver/src/stm32f4xx_rtc.c ****   uint32_t tmpreg = 0;
 5251              		.loc 1 2701 12
 5252 0008 0023     		movs	r3, #0
 5253 000a FB60     		str	r3, [r7, #12]
2702:../Shared/Libraries/STM32F4xx_StdPeriph_Driver/src/stm32f4xx_rtc.c **** 
2703:../Shared/Libraries/STM32F4xx_StdPeriph_Driver/src/stm32f4xx_rtc.c ****   /* Check the parameters */
2704:../Shared/Libraries/STM32F4xx_StdPeriph_Driver/src/stm32f4xx_rtc.c ****   assert_param(IS_RTC_CLEAR_IT(RTC_IT));
2705:../Shared/Libraries/STM32F4xx_StdPeriph_Driver/src/stm32f4xx_rtc.c **** 
2706:../Shared/Libraries/STM32F4xx_StdPeriph_Driver/src/stm32f4xx_rtc.c ****   /* Get the RTC_ISR Interrupt pending bits mask */
2707:../Shared/Libraries/STM32F4xx_StdPeriph_Driver/src/stm32f4xx_rtc.c ****   tmpreg = (uint32_t)(RTC_IT >> 4);
 5254              		.loc 1 2707 10
 5255 000c 7B68     		ldr	r3, [r7, #4]
 5256 000e 1B09     		lsrs	r3, r3, #4
 5257 0010 FB60     		str	r3, [r7, #12]
2708:../Shared/Libraries/STM32F4xx_StdPeriph_Driver/src/stm32f4xx_rtc.c **** 
2709:../Shared/Libraries/STM32F4xx_StdPeriph_Driver/src/stm32f4xx_rtc.c ****   /* Clear the interrupt pending bits in the RTC_ISR register */
2710:../Shared/Libraries/STM32F4xx_StdPeriph_Driver/src/stm32f4xx_rtc.c ****   RTC->ISR = (uint32_t)((uint32_t)(~((tmpreg | RTC_ISR_INIT)& 0x0000FFFF) | (uint32_t)(RTC->ISR & R
 5258              		.loc 1 2710 61
 5259 0012 FB68     		ldr	r3, [r7, #12]
 5260 0014 9BB2     		uxth	r3, r3
 5261 0016 43F08003 		orr	r3, r3, #128
 5262              		.loc 1 2710 36
 5263 001a DA43     		mvns	r2, r3
 5264              		.loc 1 2710 91
 5265 001c 064B     		ldr	r3, .L294
 5266 001e DB68     		ldr	r3, [r3, #12]
 5267              		.loc 1 2710 77
 5268 0020 03F08003 		and	r3, r3, #128
 5269              		.loc 1 2710 6
 5270 0024 0449     		ldr	r1, .L294
 5271              		.loc 1 2710 14
 5272 0026 1343     		orrs	r3, r3, r2
 5273              		.loc 1 2710 12
 5274 0028 CB60     		str	r3, [r1, #12]
ARM GAS  /tmp/cctIRrNQ.s 			page 140


2711:../Shared/Libraries/STM32F4xx_StdPeriph_Driver/src/stm32f4xx_rtc.c **** }
 5275              		.loc 1 2711 1
 5276 002a 00BF     		nop
 5277 002c 1437     		adds	r7, r7, #20
 5278              	.LCFI306:
 5279              		.cfi_def_cfa_offset 4
 5280 002e BD46     		mov	sp, r7
 5281              	.LCFI307:
 5282              		.cfi_def_cfa_register 13
 5283              		@ sp needed
 5284 0030 5DF8047B 		ldr	r7, [sp], #4
 5285              	.LCFI308:
 5286              		.cfi_restore 7
 5287              		.cfi_def_cfa_offset 0
 5288 0034 7047     		bx	lr
 5289              	.L295:
 5290 0036 00BF     		.align	2
 5291              	.L294:
 5292 0038 00280040 		.word	1073752064
 5293              		.cfi_endproc
 5294              	.LFE164:
 5296              		.section	.text.RTC_ByteToBcd2,"ax",%progbits
 5297              		.align	1
 5298              		.syntax unified
 5299              		.thumb
 5300              		.thumb_func
 5302              	RTC_ByteToBcd2:
 5303              	.LFB165:
2712:../Shared/Libraries/STM32F4xx_StdPeriph_Driver/src/stm32f4xx_rtc.c **** 
2713:../Shared/Libraries/STM32F4xx_StdPeriph_Driver/src/stm32f4xx_rtc.c **** /**
2714:../Shared/Libraries/STM32F4xx_StdPeriph_Driver/src/stm32f4xx_rtc.c ****   * @}
2715:../Shared/Libraries/STM32F4xx_StdPeriph_Driver/src/stm32f4xx_rtc.c ****   */
2716:../Shared/Libraries/STM32F4xx_StdPeriph_Driver/src/stm32f4xx_rtc.c **** 
2717:../Shared/Libraries/STM32F4xx_StdPeriph_Driver/src/stm32f4xx_rtc.c **** /**
2718:../Shared/Libraries/STM32F4xx_StdPeriph_Driver/src/stm32f4xx_rtc.c ****   * @brief  Converts a 2 digit decimal to BCD format.
2719:../Shared/Libraries/STM32F4xx_StdPeriph_Driver/src/stm32f4xx_rtc.c ****   * @param  Value: Byte to be converted.
2720:../Shared/Libraries/STM32F4xx_StdPeriph_Driver/src/stm32f4xx_rtc.c ****   * @retval Converted byte
2721:../Shared/Libraries/STM32F4xx_StdPeriph_Driver/src/stm32f4xx_rtc.c ****   */
2722:../Shared/Libraries/STM32F4xx_StdPeriph_Driver/src/stm32f4xx_rtc.c **** static uint8_t RTC_ByteToBcd2(uint8_t Value)
2723:../Shared/Libraries/STM32F4xx_StdPeriph_Driver/src/stm32f4xx_rtc.c **** {
 5304              		.loc 1 2723 1
 5305              		.cfi_startproc
 5306              		@ args = 0, pretend = 0, frame = 16
 5307              		@ frame_needed = 1, uses_anonymous_args = 0
 5308              		@ link register save eliminated.
 5309 0000 80B4     		push	{r7}
 5310              	.LCFI309:
 5311              		.cfi_def_cfa_offset 4
 5312              		.cfi_offset 7, -4
 5313 0002 85B0     		sub	sp, sp, #20
 5314              	.LCFI310:
 5315              		.cfi_def_cfa_offset 24
 5316 0004 00AF     		add	r7, sp, #0
 5317              	.LCFI311:
 5318              		.cfi_def_cfa_register 7
 5319 0006 0346     		mov	r3, r0
 5320 0008 FB71     		strb	r3, [r7, #7]
ARM GAS  /tmp/cctIRrNQ.s 			page 141


2724:../Shared/Libraries/STM32F4xx_StdPeriph_Driver/src/stm32f4xx_rtc.c ****   uint8_t bcdhigh = 0;
 5321              		.loc 1 2724 11
 5322 000a 0023     		movs	r3, #0
 5323 000c FB73     		strb	r3, [r7, #15]
2725:../Shared/Libraries/STM32F4xx_StdPeriph_Driver/src/stm32f4xx_rtc.c ****   
2726:../Shared/Libraries/STM32F4xx_StdPeriph_Driver/src/stm32f4xx_rtc.c ****   while (Value >= 10)
 5324              		.loc 1 2726 9
 5325 000e 05E0     		b	.L297
 5326              	.L298:
2727:../Shared/Libraries/STM32F4xx_StdPeriph_Driver/src/stm32f4xx_rtc.c ****   {
2728:../Shared/Libraries/STM32F4xx_StdPeriph_Driver/src/stm32f4xx_rtc.c ****     bcdhigh++;
 5327              		.loc 1 2728 12
 5328 0010 FB7B     		ldrb	r3, [r7, #15]	@ zero_extendqisi2
 5329 0012 0133     		adds	r3, r3, #1
 5330 0014 FB73     		strb	r3, [r7, #15]
2729:../Shared/Libraries/STM32F4xx_StdPeriph_Driver/src/stm32f4xx_rtc.c ****     Value -= 10;
 5331              		.loc 1 2729 11
 5332 0016 FB79     		ldrb	r3, [r7, #7]
 5333 0018 0A3B     		subs	r3, r3, #10
 5334 001a FB71     		strb	r3, [r7, #7]
 5335              	.L297:
2726:../Shared/Libraries/STM32F4xx_StdPeriph_Driver/src/stm32f4xx_rtc.c ****   {
 5336              		.loc 1 2726 16
 5337 001c FB79     		ldrb	r3, [r7, #7]	@ zero_extendqisi2
 5338 001e 092B     		cmp	r3, #9
 5339 0020 F6D8     		bhi	.L298
2730:../Shared/Libraries/STM32F4xx_StdPeriph_Driver/src/stm32f4xx_rtc.c ****   }
2731:../Shared/Libraries/STM32F4xx_StdPeriph_Driver/src/stm32f4xx_rtc.c ****   
2732:../Shared/Libraries/STM32F4xx_StdPeriph_Driver/src/stm32f4xx_rtc.c ****   return  ((uint8_t)(bcdhigh << 4) | Value);
 5340              		.loc 1 2732 12
 5341 0022 FB7B     		ldrb	r3, [r7, #15]
 5342 0024 1B01     		lsls	r3, r3, #4
 5343 0026 DAB2     		uxtb	r2, r3
 5344              		.loc 1 2732 36
 5345 0028 FB79     		ldrb	r3, [r7, #7]
 5346 002a 1343     		orrs	r3, r3, r2
 5347 002c DBB2     		uxtb	r3, r3
2733:../Shared/Libraries/STM32F4xx_StdPeriph_Driver/src/stm32f4xx_rtc.c **** }
 5348              		.loc 1 2733 1
 5349 002e 1846     		mov	r0, r3
 5350 0030 1437     		adds	r7, r7, #20
 5351              	.LCFI312:
 5352              		.cfi_def_cfa_offset 4
 5353 0032 BD46     		mov	sp, r7
 5354              	.LCFI313:
 5355              		.cfi_def_cfa_register 13
 5356              		@ sp needed
 5357 0034 5DF8047B 		ldr	r7, [sp], #4
 5358              	.LCFI314:
 5359              		.cfi_restore 7
 5360              		.cfi_def_cfa_offset 0
 5361 0038 7047     		bx	lr
 5362              		.cfi_endproc
 5363              	.LFE165:
 5365              		.section	.text.RTC_Bcd2ToByte,"ax",%progbits
 5366              		.align	1
 5367              		.syntax unified
ARM GAS  /tmp/cctIRrNQ.s 			page 142


 5368              		.thumb
 5369              		.thumb_func
 5371              	RTC_Bcd2ToByte:
 5372              	.LFB166:
2734:../Shared/Libraries/STM32F4xx_StdPeriph_Driver/src/stm32f4xx_rtc.c **** 
2735:../Shared/Libraries/STM32F4xx_StdPeriph_Driver/src/stm32f4xx_rtc.c **** /**
2736:../Shared/Libraries/STM32F4xx_StdPeriph_Driver/src/stm32f4xx_rtc.c ****   * @brief  Convert from 2 digit BCD to Binary.
2737:../Shared/Libraries/STM32F4xx_StdPeriph_Driver/src/stm32f4xx_rtc.c ****   * @param  Value: BCD value to be converted.
2738:../Shared/Libraries/STM32F4xx_StdPeriph_Driver/src/stm32f4xx_rtc.c ****   * @retval Converted word
2739:../Shared/Libraries/STM32F4xx_StdPeriph_Driver/src/stm32f4xx_rtc.c ****   */
2740:../Shared/Libraries/STM32F4xx_StdPeriph_Driver/src/stm32f4xx_rtc.c **** static uint8_t RTC_Bcd2ToByte(uint8_t Value)
2741:../Shared/Libraries/STM32F4xx_StdPeriph_Driver/src/stm32f4xx_rtc.c **** {
 5373              		.loc 1 2741 1
 5374              		.cfi_startproc
 5375              		@ args = 0, pretend = 0, frame = 16
 5376              		@ frame_needed = 1, uses_anonymous_args = 0
 5377              		@ link register save eliminated.
 5378 0000 80B4     		push	{r7}
 5379              	.LCFI315:
 5380              		.cfi_def_cfa_offset 4
 5381              		.cfi_offset 7, -4
 5382 0002 85B0     		sub	sp, sp, #20
 5383              	.LCFI316:
 5384              		.cfi_def_cfa_offset 24
 5385 0004 00AF     		add	r7, sp, #0
 5386              	.LCFI317:
 5387              		.cfi_def_cfa_register 7
 5388 0006 0346     		mov	r3, r0
 5389 0008 FB71     		strb	r3, [r7, #7]
2742:../Shared/Libraries/STM32F4xx_StdPeriph_Driver/src/stm32f4xx_rtc.c ****   uint8_t tmp = 0;
 5390              		.loc 1 2742 11
 5391 000a 0023     		movs	r3, #0
 5392 000c FB73     		strb	r3, [r7, #15]
2743:../Shared/Libraries/STM32F4xx_StdPeriph_Driver/src/stm32f4xx_rtc.c ****   tmp = ((uint8_t)(Value & (uint8_t)0xF0) >> (uint8_t)0x4) * 10;
 5393              		.loc 1 2743 43
 5394 000e FB79     		ldrb	r3, [r7, #7]	@ zero_extendqisi2
 5395 0010 1B09     		lsrs	r3, r3, #4
 5396 0012 DBB2     		uxtb	r3, r3
 5397              		.loc 1 2743 7
 5398 0014 1A46     		mov	r2, r3
 5399 0016 9200     		lsls	r2, r2, #2
 5400 0018 1344     		add	r3, r3, r2
 5401 001a 5B00     		lsls	r3, r3, #1
 5402 001c FB73     		strb	r3, [r7, #15]
2744:../Shared/Libraries/STM32F4xx_StdPeriph_Driver/src/stm32f4xx_rtc.c ****   return (tmp + (Value & (uint8_t)0x0F));
 5403              		.loc 1 2744 24
 5404 001e FB79     		ldrb	r3, [r7, #7]
 5405 0020 03F00F03 		and	r3, r3, #15
 5406 0024 DAB2     		uxtb	r2, r3
 5407              		.loc 1 2744 15
 5408 0026 FB7B     		ldrb	r3, [r7, #15]
 5409 0028 1344     		add	r3, r3, r2
 5410 002a DBB2     		uxtb	r3, r3
2745:../Shared/Libraries/STM32F4xx_StdPeriph_Driver/src/stm32f4xx_rtc.c **** }
 5411              		.loc 1 2745 1
 5412 002c 1846     		mov	r0, r3
 5413 002e 1437     		adds	r7, r7, #20
ARM GAS  /tmp/cctIRrNQ.s 			page 143


 5414              	.LCFI318:
 5415              		.cfi_def_cfa_offset 4
 5416 0030 BD46     		mov	sp, r7
 5417              	.LCFI319:
 5418              		.cfi_def_cfa_register 13
 5419              		@ sp needed
 5420 0032 5DF8047B 		ldr	r7, [sp], #4
 5421              	.LCFI320:
 5422              		.cfi_restore 7
 5423              		.cfi_def_cfa_offset 0
 5424 0036 7047     		bx	lr
 5425              		.cfi_endproc
 5426              	.LFE166:
 5428              		.text
 5429              	.Letext0:
 5430              		.file 2 "/usr/arm-none-eabi/include/machine/_default_types.h"
 5431              		.file 3 "/usr/arm-none-eabi/include/sys/_stdint.h"
 5432              		.file 4 "../Shared/Libraries/CMSIS/Device/ST/STM32F4xx/Include/stm32f4xx.h"
 5433              		.file 5 "../Shared/Libraries/STM32F4xx_StdPeriph_Driver/inc/stm32f4xx_rtc.h"
ARM GAS  /tmp/cctIRrNQ.s 			page 144


DEFINED SYMBOLS
                            *ABS*:00000000 stm32f4xx_rtc.c
     /tmp/cctIRrNQ.s:21     .text.RTC_DeInit:00000000 $t
     /tmp/cctIRrNQ.s:27     .text.RTC_DeInit:00000000 RTC_DeInit
     /tmp/cctIRrNQ.s:475    .text.RTC_EnterInitMode:00000000 RTC_EnterInitMode
     /tmp/cctIRrNQ.s:633    .text.RTC_WaitForSynchro:00000000 RTC_WaitForSynchro
     /tmp/cctIRrNQ.s:222    .text.RTC_DeInit:000000ec $d
     /tmp/cctIRrNQ.s:228    .text.RTC_Init:00000000 $t
     /tmp/cctIRrNQ.s:234    .text.RTC_Init:00000000 RTC_Init
     /tmp/cctIRrNQ.s:587    .text.RTC_ExitInitMode:00000000 RTC_ExitInitMode
     /tmp/cctIRrNQ.s:340    .text.RTC_Init:00000074 $d
     /tmp/cctIRrNQ.s:345    .text.RTC_StructInit:00000000 $t
     /tmp/cctIRrNQ.s:351    .text.RTC_StructInit:00000000 RTC_StructInit
     /tmp/cctIRrNQ.s:399    .text.RTC_WriteProtectionCmd:00000000 $t
     /tmp/cctIRrNQ.s:405    .text.RTC_WriteProtectionCmd:00000000 RTC_WriteProtectionCmd
     /tmp/cctIRrNQ.s:464    .text.RTC_WriteProtectionCmd:00000030 $d
     /tmp/cctIRrNQ.s:469    .text.RTC_EnterInitMode:00000000 $t
     /tmp/cctIRrNQ.s:576    .text.RTC_EnterInitMode:00000070 $d
     /tmp/cctIRrNQ.s:581    .text.RTC_ExitInitMode:00000000 $t
     /tmp/cctIRrNQ.s:622    .text.RTC_ExitInitMode:0000001c $d
     /tmp/cctIRrNQ.s:627    .text.RTC_WaitForSynchro:00000000 $t
     /tmp/cctIRrNQ.s:738    .text.RTC_WaitForSynchro:00000074 $d
     /tmp/cctIRrNQ.s:743    .text.RTC_RefClockCmd:00000000 $t
     /tmp/cctIRrNQ.s:749    .text.RTC_RefClockCmd:00000000 RTC_RefClockCmd
     /tmp/cctIRrNQ.s:839    .text.RTC_RefClockCmd:00000064 $d
     /tmp/cctIRrNQ.s:844    .text.RTC_BypassShadowCmd:00000000 $t
     /tmp/cctIRrNQ.s:850    .text.RTC_BypassShadowCmd:00000000 RTC_BypassShadowCmd
     /tmp/cctIRrNQ.s:922    .text.RTC_BypassShadowCmd:00000048 $d
     /tmp/cctIRrNQ.s:927    .text.RTC_SetTime:00000000 $t
     /tmp/cctIRrNQ.s:933    .text.RTC_SetTime:00000000 RTC_SetTime
     /tmp/cctIRrNQ.s:5371   .text.RTC_Bcd2ToByte:00000000 RTC_Bcd2ToByte
     /tmp/cctIRrNQ.s:5302   .text.RTC_ByteToBcd2:00000000 RTC_ByteToBcd2
     /tmp/cctIRrNQ.s:1145   .text.RTC_SetTime:00000110 $d
     /tmp/cctIRrNQ.s:1150   .text.RTC_TimeStructInit:00000000 $t
     /tmp/cctIRrNQ.s:1156   .text.RTC_TimeStructInit:00000000 RTC_TimeStructInit
     /tmp/cctIRrNQ.s:1208   .text.RTC_GetTime:00000000 $t
     /tmp/cctIRrNQ.s:1214   .text.RTC_GetTime:00000000 RTC_GetTime
     /tmp/cctIRrNQ.s:1329   .text.RTC_GetTime:000000a0 $d
     /tmp/cctIRrNQ.s:1334   .text.RTC_GetSubSecond:00000000 $t
     /tmp/cctIRrNQ.s:1340   .text.RTC_GetSubSecond:00000000 RTC_GetSubSecond
     /tmp/cctIRrNQ.s:1388   .text.RTC_GetSubSecond:00000024 $d
     /tmp/cctIRrNQ.s:1393   .text.RTC_SetDate:00000000 $t
     /tmp/cctIRrNQ.s:1399   .text.RTC_SetDate:00000000 RTC_SetDate
     /tmp/cctIRrNQ.s:1616   .text.RTC_SetDate:0000011c $d
     /tmp/cctIRrNQ.s:1621   .text.RTC_DateStructInit:00000000 $t
     /tmp/cctIRrNQ.s:1627   .text.RTC_DateStructInit:00000000 RTC_DateStructInit
     /tmp/cctIRrNQ.s:1679   .text.RTC_GetDate:00000000 $t
     /tmp/cctIRrNQ.s:1685   .text.RTC_GetDate:00000000 RTC_GetDate
     /tmp/cctIRrNQ.s:1798   .text.RTC_GetDate:00000098 $d
     /tmp/cctIRrNQ.s:1803   .text.RTC_SetAlarm:00000000 $t
     /tmp/cctIRrNQ.s:1809   .text.RTC_SetAlarm:00000000 RTC_SetAlarm
     /tmp/cctIRrNQ.s:2047   .text.RTC_SetAlarm:00000134 $d
     /tmp/cctIRrNQ.s:2052   .text.RTC_AlarmStructInit:00000000 $t
     /tmp/cctIRrNQ.s:2058   .text.RTC_AlarmStructInit:00000000 RTC_AlarmStructInit
     /tmp/cctIRrNQ.s:2122   .text.RTC_GetAlarm:00000000 $t
     /tmp/cctIRrNQ.s:2128   .text.RTC_GetAlarm:00000000 RTC_GetAlarm
     /tmp/cctIRrNQ.s:2282   .text.RTC_GetAlarm:000000e0 $d
ARM GAS  /tmp/cctIRrNQ.s 			page 145


     /tmp/cctIRrNQ.s:2287   .text.RTC_AlarmCmd:00000000 $t
     /tmp/cctIRrNQ.s:2293   .text.RTC_AlarmCmd:00000000 RTC_AlarmCmd
     /tmp/cctIRrNQ.s:2428   .text.RTC_AlarmCmd:00000098 $d
     /tmp/cctIRrNQ.s:2433   .text.RTC_AlarmSubSecondConfig:00000000 $t
     /tmp/cctIRrNQ.s:2439   .text.RTC_AlarmSubSecondConfig:00000000 RTC_AlarmSubSecondConfig
     /tmp/cctIRrNQ.s:2516   .text.RTC_AlarmSubSecondConfig:0000004c $d
     /tmp/cctIRrNQ.s:2521   .text.RTC_GetAlarmSubSecond:00000000 $t
     /tmp/cctIRrNQ.s:2527   .text.RTC_GetAlarmSubSecond:00000000 RTC_GetAlarmSubSecond
     /tmp/cctIRrNQ.s:2586   .text.RTC_GetAlarmSubSecond:00000038 $d
     /tmp/cctIRrNQ.s:2591   .text.RTC_WakeUpClockConfig:00000000 $t
     /tmp/cctIRrNQ.s:2597   .text.RTC_WakeUpClockConfig:00000000 RTC_WakeUpClockConfig
     /tmp/cctIRrNQ.s:2662   .text.RTC_WakeUpClockConfig:00000040 $d
     /tmp/cctIRrNQ.s:2667   .text.RTC_SetWakeUpCounter:00000000 $t
     /tmp/cctIRrNQ.s:2673   .text.RTC_SetWakeUpCounter:00000000 RTC_SetWakeUpCounter
     /tmp/cctIRrNQ.s:2728   .text.RTC_SetWakeUpCounter:0000002c $d
     /tmp/cctIRrNQ.s:2733   .text.RTC_GetWakeUpCounter:00000000 $t
     /tmp/cctIRrNQ.s:2739   .text.RTC_GetWakeUpCounter:00000000 RTC_GetWakeUpCounter
     /tmp/cctIRrNQ.s:2772   .text.RTC_GetWakeUpCounter:00000014 $d
     /tmp/cctIRrNQ.s:2777   .text.RTC_WakeUpCmd:00000000 $t
     /tmp/cctIRrNQ.s:2783   .text.RTC_WakeUpCmd:00000000 RTC_WakeUpCmd
     /tmp/cctIRrNQ.s:2906   .text.RTC_WakeUpCmd:00000090 $d
     /tmp/cctIRrNQ.s:2911   .text.RTC_DayLightSavingConfig:00000000 $t
     /tmp/cctIRrNQ.s:2917   .text.RTC_DayLightSavingConfig:00000000 RTC_DayLightSavingConfig
     /tmp/cctIRrNQ.s:2987   .text.RTC_DayLightSavingConfig:00000044 $d
     /tmp/cctIRrNQ.s:2992   .text.RTC_GetStoreOperation:00000000 $t
     /tmp/cctIRrNQ.s:2998   .text.RTC_GetStoreOperation:00000000 RTC_GetStoreOperation
     /tmp/cctIRrNQ.s:3031   .text.RTC_GetStoreOperation:00000018 $d
     /tmp/cctIRrNQ.s:3036   .text.RTC_OutputConfig:00000000 $t
     /tmp/cctIRrNQ.s:3042   .text.RTC_OutputConfig:00000000 RTC_OutputConfig
     /tmp/cctIRrNQ.s:3112   .text.RTC_OutputConfig:00000044 $d
     /tmp/cctIRrNQ.s:3117   .text.RTC_CoarseCalibConfig:00000000 $t
     /tmp/cctIRrNQ.s:3123   .text.RTC_CoarseCalibConfig:00000000 RTC_CoarseCalibConfig
     /tmp/cctIRrNQ.s:3200   .text.RTC_CoarseCalibConfig:0000004c $d
     /tmp/cctIRrNQ.s:3205   .text.RTC_CoarseCalibCmd:00000000 $t
     /tmp/cctIRrNQ.s:3211   .text.RTC_CoarseCalibCmd:00000000 RTC_CoarseCalibCmd
     /tmp/cctIRrNQ.s:3301   .text.RTC_CoarseCalibCmd:00000064 $d
     /tmp/cctIRrNQ.s:3306   .text.RTC_CalibOutputCmd:00000000 $t
     /tmp/cctIRrNQ.s:3312   .text.RTC_CalibOutputCmd:00000000 RTC_CalibOutputCmd
     /tmp/cctIRrNQ.s:3384   .text.RTC_CalibOutputCmd:00000048 $d
     /tmp/cctIRrNQ.s:3389   .text.RTC_CalibOutputConfig:00000000 $t
     /tmp/cctIRrNQ.s:3395   .text.RTC_CalibOutputConfig:00000000 RTC_CalibOutputConfig
     /tmp/cctIRrNQ.s:3460   .text.RTC_CalibOutputConfig:00000040 $d
     /tmp/cctIRrNQ.s:3465   .text.RTC_SmoothCalibConfig:00000000 $t
     /tmp/cctIRrNQ.s:3471   .text.RTC_SmoothCalibConfig:00000000 RTC_SmoothCalibConfig
     /tmp/cctIRrNQ.s:3588   .text.RTC_SmoothCalibConfig:00000080 $d
     /tmp/cctIRrNQ.s:3593   .text.RTC_TimeStampCmd:00000000 $t
     /tmp/cctIRrNQ.s:3599   .text.RTC_TimeStampCmd:00000000 RTC_TimeStampCmd
     /tmp/cctIRrNQ.s:3684   .text.RTC_TimeStampCmd:00000060 $d
     /tmp/cctIRrNQ.s:3689   .text.RTC_GetTimeStamp:00000000 $t
     /tmp/cctIRrNQ.s:3695   .text.RTC_GetTimeStamp:00000000 RTC_GetTimeStamp
     /tmp/cctIRrNQ.s:3883   .text.RTC_GetTimeStamp:0000011c $d
     /tmp/cctIRrNQ.s:3888   .text.RTC_GetTimeStampSubSecond:00000000 $t
     /tmp/cctIRrNQ.s:3894   .text.RTC_GetTimeStampSubSecond:00000000 RTC_GetTimeStampSubSecond
     /tmp/cctIRrNQ.s:3926   .text.RTC_GetTimeStampSubSecond:00000014 $d
     /tmp/cctIRrNQ.s:3931   .text.RTC_TamperTriggerConfig:00000000 $t
     /tmp/cctIRrNQ.s:3937   .text.RTC_TamperTriggerConfig:00000000 RTC_TamperTriggerConfig
     /tmp/cctIRrNQ.s:4005   .text.RTC_TamperTriggerConfig:0000003c $d
ARM GAS  /tmp/cctIRrNQ.s 			page 146


     /tmp/cctIRrNQ.s:4010   .text.RTC_TamperCmd:00000000 $t
     /tmp/cctIRrNQ.s:4016   .text.RTC_TamperCmd:00000000 RTC_TamperCmd
     /tmp/cctIRrNQ.s:4080   .text.RTC_TamperCmd:0000003c $d
     /tmp/cctIRrNQ.s:4085   .text.RTC_TamperFilterConfig:00000000 $t
     /tmp/cctIRrNQ.s:4091   .text.RTC_TamperFilterConfig:00000000 RTC_TamperFilterConfig
     /tmp/cctIRrNQ.s:4141   .text.RTC_TamperFilterConfig:0000002c $d
     /tmp/cctIRrNQ.s:4146   .text.RTC_TamperSamplingFreqConfig:00000000 $t
     /tmp/cctIRrNQ.s:4152   .text.RTC_TamperSamplingFreqConfig:00000000 RTC_TamperSamplingFreqConfig
     /tmp/cctIRrNQ.s:4202   .text.RTC_TamperSamplingFreqConfig:0000002c $d
     /tmp/cctIRrNQ.s:4207   .text.RTC_TamperPinsPrechargeDuration:00000000 $t
     /tmp/cctIRrNQ.s:4213   .text.RTC_TamperPinsPrechargeDuration:00000000 RTC_TamperPinsPrechargeDuration
     /tmp/cctIRrNQ.s:4263   .text.RTC_TamperPinsPrechargeDuration:0000002c $d
     /tmp/cctIRrNQ.s:4268   .text.RTC_TimeStampOnTamperDetectionCmd:00000000 $t
     /tmp/cctIRrNQ.s:4274   .text.RTC_TimeStampOnTamperDetectionCmd:00000000 RTC_TimeStampOnTamperDetectionCmd
     /tmp/cctIRrNQ.s:4332   .text.RTC_TimeStampOnTamperDetectionCmd:00000038 $d
     /tmp/cctIRrNQ.s:4337   .text.RTC_TamperPullUpCmd:00000000 $t
     /tmp/cctIRrNQ.s:4343   .text.RTC_TamperPullUpCmd:00000000 RTC_TamperPullUpCmd
     /tmp/cctIRrNQ.s:4401   .text.RTC_TamperPullUpCmd:00000038 $d
     /tmp/cctIRrNQ.s:4406   .text.RTC_WriteBackupRegister:00000000 $t
     /tmp/cctIRrNQ.s:4412   .text.RTC_WriteBackupRegister:00000000 RTC_WriteBackupRegister
     /tmp/cctIRrNQ.s:4467   .text.RTC_WriteBackupRegister:00000030 $d
     /tmp/cctIRrNQ.s:4472   .text.RTC_ReadBackupRegister:00000000 $t
     /tmp/cctIRrNQ.s:4478   .text.RTC_ReadBackupRegister:00000000 RTC_ReadBackupRegister
     /tmp/cctIRrNQ.s:4530   .text.RTC_ReadBackupRegister:0000002c $d
     /tmp/cctIRrNQ.s:4535   .text.RTC_TamperPinSelection:00000000 $t
     /tmp/cctIRrNQ.s:4541   .text.RTC_TamperPinSelection:00000000 RTC_TamperPinSelection
     /tmp/cctIRrNQ.s:4591   .text.RTC_TamperPinSelection:0000002c $d
     /tmp/cctIRrNQ.s:4596   .text.RTC_TimeStampPinSelection:00000000 $t
     /tmp/cctIRrNQ.s:4602   .text.RTC_TimeStampPinSelection:00000000 RTC_TimeStampPinSelection
     /tmp/cctIRrNQ.s:4652   .text.RTC_TimeStampPinSelection:0000002c $d
     /tmp/cctIRrNQ.s:4657   .text.RTC_OutputTypeConfig:00000000 $t
     /tmp/cctIRrNQ.s:4663   .text.RTC_OutputTypeConfig:00000000 RTC_OutputTypeConfig
     /tmp/cctIRrNQ.s:4713   .text.RTC_OutputTypeConfig:0000002c $d
     /tmp/cctIRrNQ.s:4718   .text.RTC_SynchroShiftConfig:00000000 $t
     /tmp/cctIRrNQ.s:4724   .text.RTC_SynchroShiftConfig:00000000 RTC_SynchroShiftConfig
     /tmp/cctIRrNQ.s:4857   .text.RTC_SynchroShiftConfig:00000098 $d
     /tmp/cctIRrNQ.s:4862   .text.RTC_ITConfig:00000000 $t
     /tmp/cctIRrNQ.s:4868   .text.RTC_ITConfig:00000000 RTC_ITConfig
     /tmp/cctIRrNQ.s:4975   .text.RTC_ITConfig:00000078 $d
     /tmp/cctIRrNQ.s:4980   .text.RTC_GetFlagStatus:00000000 $t
     /tmp/cctIRrNQ.s:4986   .text.RTC_GetFlagStatus:00000000 RTC_GetFlagStatus
     /tmp/cctIRrNQ.s:5052   .text.RTC_GetFlagStatus:0000003c $d
     /tmp/cctIRrNQ.s:5058   .text.RTC_ClearFlag:00000000 $t
     /tmp/cctIRrNQ.s:5064   .text.RTC_ClearFlag:00000000 RTC_ClearFlag
     /tmp/cctIRrNQ.s:5116   .text.RTC_ClearFlag:0000002c $d
     /tmp/cctIRrNQ.s:5121   .text.RTC_GetITStatus:00000000 $t
     /tmp/cctIRrNQ.s:5127   .text.RTC_GetITStatus:00000000 RTC_GetITStatus
     /tmp/cctIRrNQ.s:5222   .text.RTC_GetITStatus:00000064 $d
     /tmp/cctIRrNQ.s:5227   .text.RTC_ClearITPendingBit:00000000 $t
     /tmp/cctIRrNQ.s:5233   .text.RTC_ClearITPendingBit:00000000 RTC_ClearITPendingBit
     /tmp/cctIRrNQ.s:5292   .text.RTC_ClearITPendingBit:00000038 $d
     /tmp/cctIRrNQ.s:5297   .text.RTC_ByteToBcd2:00000000 $t
     /tmp/cctIRrNQ.s:5366   .text.RTC_Bcd2ToByte:00000000 $t
                           .group:00000000 wm4.0.62e24ee945655210df7a12269291771b
                           .group:00000000 wm4.stm32f4xx.h.54.f84a67a8e71ba9719846fdff1868826c
                           .group:00000000 wm4.core_cm4.h.32.5f62939b60122629d60d85d0c4a14709
                           .group:00000000 wm4._newlib_version.h.4.411db44ea2338a62eca2f0777f81481b
ARM GAS  /tmp/cctIRrNQ.s 			page 147


                           .group:00000000 wm4.features.h.33.2eefb68b261e70563a8ac654e712169f
                           .group:00000000 wm4._default_types.h.15.247e5cd201eca3442cbf5404108c4935
                           .group:00000000 wm4._intsup.h.10.48bafbb683905c4daa4565a85aeeb264
                           .group:00000000 wm4._stdint.h.10.c24fa3af3bc1706662bb5593a907e841
                           .group:00000000 wm4.stdint.h.23.d53047a68f4a85177f80b422d52785ed
                           .group:00000000 wm4.core_cmInstr.h.25.f50f886f2edf670cf199b35fd96f5c91
                           .group:00000000 wm4.core_cm4_simd.h.29.b4a3fdfb606cb3b26119424324d4b963
                           .group:00000000 wm4.core_cm4.h.153.5393ef7e6cebf34dd51ca528f9218ab3
                           .group:00000000 wm4.stm32f4xx.h.289.fa68dcae75666a037ce29b5a1b57e3b3
                           .group:00000000 wm4.stm32f4xx_conf.h.3.bc52e76ab6b5c9037500dbf5bb8f9be4
                           .group:00000000 wm4.misc.h.86.a3996e7f17199502fad3c7f62e5cdb3f
                           .group:00000000 wm4.stm32f4xx_adc.h.31.d96d805acd0f0c0392ec4633757dead3
                           .group:00000000 wm4.stm32f4xx_can.h.31.3bb56c6436c7a6e6af1611046e81f48c
                           .group:00000000 wm4.stm32f4xx_cryp.h.31.94bbbb19b99df10306f31e78c333a77b
                           .group:00000000 wm4.stm32f4xx_dac.h.31.b8d45e7eaf71ee4bf01c1317dbc06f77
                           .group:00000000 wm4.stm32f4xx_dbgmcu.h.30.70a81ec54c2707baa9fca77391eeeaaa
                           .group:00000000 wm4.stm32f4xx_dcmi.h.30.9d0942d58c357d2eed15e044bf9b4a77
                           .group:00000000 wm4.stm32f4xx_dma.h.31.815bb924b30b1c776b3cd51113fdfe60
                           .group:00000000 wm4.stm32f4xx_exti.h.31.86bd18e979f97217bb1d3b80fde0231e
                           .group:00000000 wm4.stm32f4xx_flash.h.31.74f2ed42d890f144ca7eb5ae8172f0d0
                           .group:00000000 wm4.stm32f4xx_fsmc.h.31.ff58629e0c603fb2f9b3f00c0657fdfa
                           .group:00000000 wm4.stm32f4xx_gpio.h.31.d9aeae10cfa353d85d475c0d4900c452
                           .group:00000000 wm4.stm32f4xx_hash.h.31.5c109425d30f0b9cc0a26ad38182d91f
                           .group:00000000 wm4.stm32f4xx_i2c.h.31.edf5baa611075c49ae13f56be9040be3
                           .group:00000000 wm4.stm32f4xx_iwdg.h.31.30e376e6d8d424aab7fddd66cf691c7b
                           .group:00000000 wm4.stm32f4xx_pwr.h.31.bb774fc1b632cb8d2ecaec8c6524d2c0
                           .group:00000000 wm4.stm32f4xx_rcc.h.30.820e94551583d2b835c8cf3ad722e16c
                           .group:00000000 wm4.stm32f4xx_rng.h.31.1ec493d56b7a8e5a71238519cae6dea7
                           .group:00000000 wm4.stm32f4xx_sdio.h.31.8c6dff42ffa718b444c3420717601ff2
                           .group:00000000 wm4.stm32f4xx_spi.h.31.fb1b2c8214b87a47d4457633b7c31c3c
                           .group:00000000 wm4.stm32f4xx_syscfg.h.31.5a680f88d55b7816ae613c20f199cbd9
                           .group:00000000 wm4.stm32f4xx_tim.h.31.b1d608fbde729347e4ccf70799e654d2
                           .group:00000000 wm4.stm32f4xx_usart.h.31.f8d29b14aa4d39de5495adcc92749d3c
                           .group:00000000 wm4.stm32f4xx_wwdg.h.31.b45a80fa1ec64984adf786f7e489f31b
                           .group:00000000 wm4.stm32f4xx.h.6975.cdbdae9d5de06f1ba6b770f59cbe4d6c
                           .group:00000000 wm4.stm32f4xx_rtc.h.133.164fac1a3524598ad8dc1934bac49883

NO UNDEFINED SYMBOLS
