ARM GAS  /tmp/cc2zcHeL.s 			page 1


   1              		.cpu cortex-m4
   2              		.arch armv7e-m
   3              		.fpu fpv4-sp-d16
   4              		.eabi_attribute 27, 1
   5              		.eabi_attribute 28, 1
   6              		.eabi_attribute 20, 1
   7              		.eabi_attribute 21, 1
   8              		.eabi_attribute 23, 3
   9              		.eabi_attribute 24, 1
  10              		.eabi_attribute 25, 1
  11              		.eabi_attribute 26, 1
  12              		.eabi_attribute 30, 6
  13              		.eabi_attribute 34, 1
  14              		.eabi_attribute 18, 4
  15              		.file	"stm32f4xx_tim.c"
  16              		.text
  17              	.Ltext0:
  18              		.cfi_sections	.debug_frame
  19              		.file 1 "../Shared/Libraries/STM32F4xx_StdPeriph_Driver/src/stm32f4xx_tim.c"
  20              		.section	.text.TIM_DeInit,"ax",%progbits
  21              		.align	1
  22              		.global	TIM_DeInit
  23              		.syntax unified
  24              		.thumb
  25              		.thumb_func
  27              	TIM_DeInit:
  28              	.LFB110:
   1:../Shared/Libraries/STM32F4xx_StdPeriph_Driver/src/stm32f4xx_tim.c **** /**
   2:../Shared/Libraries/STM32F4xx_StdPeriph_Driver/src/stm32f4xx_tim.c ****   ******************************************************************************
   3:../Shared/Libraries/STM32F4xx_StdPeriph_Driver/src/stm32f4xx_tim.c ****   * @file    stm32f4xx_tim.c
   4:../Shared/Libraries/STM32F4xx_StdPeriph_Driver/src/stm32f4xx_tim.c ****   * @author  MCD Application Team
   5:../Shared/Libraries/STM32F4xx_StdPeriph_Driver/src/stm32f4xx_tim.c ****   * @version V1.0.2
   6:../Shared/Libraries/STM32F4xx_StdPeriph_Driver/src/stm32f4xx_tim.c ****   * @date    05-March-2012
   7:../Shared/Libraries/STM32F4xx_StdPeriph_Driver/src/stm32f4xx_tim.c ****   * @brief   This file provides firmware functions to manage the following 
   8:../Shared/Libraries/STM32F4xx_StdPeriph_Driver/src/stm32f4xx_tim.c ****   *          functionalities of the TIM peripheral:
   9:../Shared/Libraries/STM32F4xx_StdPeriph_Driver/src/stm32f4xx_tim.c ****   *            - TimeBase management
  10:../Shared/Libraries/STM32F4xx_StdPeriph_Driver/src/stm32f4xx_tim.c ****   *            - Output Compare management
  11:../Shared/Libraries/STM32F4xx_StdPeriph_Driver/src/stm32f4xx_tim.c ****   *            - Input Capture management
  12:../Shared/Libraries/STM32F4xx_StdPeriph_Driver/src/stm32f4xx_tim.c ****   *            - Advanced-control timers (TIM1 and TIM8) specific features  
  13:../Shared/Libraries/STM32F4xx_StdPeriph_Driver/src/stm32f4xx_tim.c ****   *            - Interrupts, DMA and flags management
  14:../Shared/Libraries/STM32F4xx_StdPeriph_Driver/src/stm32f4xx_tim.c ****   *            - Clocks management
  15:../Shared/Libraries/STM32F4xx_StdPeriph_Driver/src/stm32f4xx_tim.c ****   *            - Synchronization management
  16:../Shared/Libraries/STM32F4xx_StdPeriph_Driver/src/stm32f4xx_tim.c ****   *            - Specific interface management
  17:../Shared/Libraries/STM32F4xx_StdPeriph_Driver/src/stm32f4xx_tim.c ****   *            - Specific remapping management      
  18:../Shared/Libraries/STM32F4xx_StdPeriph_Driver/src/stm32f4xx_tim.c ****   *              
  19:../Shared/Libraries/STM32F4xx_StdPeriph_Driver/src/stm32f4xx_tim.c ****   *  @verbatim
  20:../Shared/Libraries/STM32F4xx_StdPeriph_Driver/src/stm32f4xx_tim.c ****   *  
  21:../Shared/Libraries/STM32F4xx_StdPeriph_Driver/src/stm32f4xx_tim.c ****   *          ===================================================================
  22:../Shared/Libraries/STM32F4xx_StdPeriph_Driver/src/stm32f4xx_tim.c ****   *                                 How to use this driver
  23:../Shared/Libraries/STM32F4xx_StdPeriph_Driver/src/stm32f4xx_tim.c ****   *          ===================================================================
  24:../Shared/Libraries/STM32F4xx_StdPeriph_Driver/src/stm32f4xx_tim.c ****   *          This driver provides functions to configure and program the TIM 
  25:../Shared/Libraries/STM32F4xx_StdPeriph_Driver/src/stm32f4xx_tim.c ****   *          of all STM32F4xx devices.
  26:../Shared/Libraries/STM32F4xx_StdPeriph_Driver/src/stm32f4xx_tim.c ****   *          These functions are split in 9 groups: 
  27:../Shared/Libraries/STM32F4xx_StdPeriph_Driver/src/stm32f4xx_tim.c ****   *   
  28:../Shared/Libraries/STM32F4xx_StdPeriph_Driver/src/stm32f4xx_tim.c ****   *          1. TIM TimeBase management: this group includes all needed functions 
  29:../Shared/Libraries/STM32F4xx_StdPeriph_Driver/src/stm32f4xx_tim.c ****   *             to configure the TM Timebase unit:
  30:../Shared/Libraries/STM32F4xx_StdPeriph_Driver/src/stm32f4xx_tim.c ****   *                   - Set/Get Prescaler
ARM GAS  /tmp/cc2zcHeL.s 			page 2


  31:../Shared/Libraries/STM32F4xx_StdPeriph_Driver/src/stm32f4xx_tim.c ****   *                   - Set/Get Autoreload  
  32:../Shared/Libraries/STM32F4xx_StdPeriph_Driver/src/stm32f4xx_tim.c ****   *                   - Counter modes configuration
  33:../Shared/Libraries/STM32F4xx_StdPeriph_Driver/src/stm32f4xx_tim.c ****   *                   - Set Clock division  
  34:../Shared/Libraries/STM32F4xx_StdPeriph_Driver/src/stm32f4xx_tim.c ****   *                   - Select the One Pulse mode
  35:../Shared/Libraries/STM32F4xx_StdPeriph_Driver/src/stm32f4xx_tim.c ****   *                   - Update Request Configuration
  36:../Shared/Libraries/STM32F4xx_StdPeriph_Driver/src/stm32f4xx_tim.c ****   *                   - Update Disable Configuration
  37:../Shared/Libraries/STM32F4xx_StdPeriph_Driver/src/stm32f4xx_tim.c ****   *                   - Auto-Preload Configuration 
  38:../Shared/Libraries/STM32F4xx_StdPeriph_Driver/src/stm32f4xx_tim.c ****   *                   - Enable/Disable the counter     
  39:../Shared/Libraries/STM32F4xx_StdPeriph_Driver/src/stm32f4xx_tim.c ****   *                 
  40:../Shared/Libraries/STM32F4xx_StdPeriph_Driver/src/stm32f4xx_tim.c ****   *          2. TIM Output Compare management: this group includes all needed 
  41:../Shared/Libraries/STM32F4xx_StdPeriph_Driver/src/stm32f4xx_tim.c ****   *             functions to configure the Capture/Compare unit used in Output 
  42:../Shared/Libraries/STM32F4xx_StdPeriph_Driver/src/stm32f4xx_tim.c ****   *             compare mode: 
  43:../Shared/Libraries/STM32F4xx_StdPeriph_Driver/src/stm32f4xx_tim.c ****   *                   - Configure each channel, independently, in Output Compare mode
  44:../Shared/Libraries/STM32F4xx_StdPeriph_Driver/src/stm32f4xx_tim.c ****   *                   - Select the output compare modes
  45:../Shared/Libraries/STM32F4xx_StdPeriph_Driver/src/stm32f4xx_tim.c ****   *                   - Select the Polarities of each channel
  46:../Shared/Libraries/STM32F4xx_StdPeriph_Driver/src/stm32f4xx_tim.c ****   *                   - Set/Get the Capture/Compare register values
  47:../Shared/Libraries/STM32F4xx_StdPeriph_Driver/src/stm32f4xx_tim.c ****   *                   - Select the Output Compare Fast mode 
  48:../Shared/Libraries/STM32F4xx_StdPeriph_Driver/src/stm32f4xx_tim.c ****   *                   - Select the Output Compare Forced mode  
  49:../Shared/Libraries/STM32F4xx_StdPeriph_Driver/src/stm32f4xx_tim.c ****   *                   - Output Compare-Preload Configuration 
  50:../Shared/Libraries/STM32F4xx_StdPeriph_Driver/src/stm32f4xx_tim.c ****   *                   - Clear Output Compare Reference
  51:../Shared/Libraries/STM32F4xx_StdPeriph_Driver/src/stm32f4xx_tim.c ****   *                   - Select the OCREF Clear signal
  52:../Shared/Libraries/STM32F4xx_StdPeriph_Driver/src/stm32f4xx_tim.c ****   *                   - Enable/Disable the Capture/Compare Channels    
  53:../Shared/Libraries/STM32F4xx_StdPeriph_Driver/src/stm32f4xx_tim.c ****   *                   
  54:../Shared/Libraries/STM32F4xx_StdPeriph_Driver/src/stm32f4xx_tim.c ****   *          3. TIM Input Capture management: this group includes all needed 
  55:../Shared/Libraries/STM32F4xx_StdPeriph_Driver/src/stm32f4xx_tim.c ****   *             functions to configure the Capture/Compare unit used in 
  56:../Shared/Libraries/STM32F4xx_StdPeriph_Driver/src/stm32f4xx_tim.c ****   *             Input Capture mode:
  57:../Shared/Libraries/STM32F4xx_StdPeriph_Driver/src/stm32f4xx_tim.c ****   *                   - Configure each channel in input capture mode
  58:../Shared/Libraries/STM32F4xx_StdPeriph_Driver/src/stm32f4xx_tim.c ****   *                   - Configure Channel1/2 in PWM Input mode
  59:../Shared/Libraries/STM32F4xx_StdPeriph_Driver/src/stm32f4xx_tim.c ****   *                   - Set the Input Capture Prescaler
  60:../Shared/Libraries/STM32F4xx_StdPeriph_Driver/src/stm32f4xx_tim.c ****   *                   - Get the Capture/Compare values      
  61:../Shared/Libraries/STM32F4xx_StdPeriph_Driver/src/stm32f4xx_tim.c ****   *                   
  62:../Shared/Libraries/STM32F4xx_StdPeriph_Driver/src/stm32f4xx_tim.c ****   *          4. Advanced-control timers (TIM1 and TIM8) specific features
  63:../Shared/Libraries/STM32F4xx_StdPeriph_Driver/src/stm32f4xx_tim.c ****   *                   - Configures the Break input, dead time, Lock level, the OSSI,
  64:../Shared/Libraries/STM32F4xx_StdPeriph_Driver/src/stm32f4xx_tim.c ****   *                      the OSSR State and the AOE(automatic output enable)
  65:../Shared/Libraries/STM32F4xx_StdPeriph_Driver/src/stm32f4xx_tim.c ****   *                   - Enable/Disable the TIM peripheral Main Outputs
  66:../Shared/Libraries/STM32F4xx_StdPeriph_Driver/src/stm32f4xx_tim.c ****   *                   - Select the Commutation event
  67:../Shared/Libraries/STM32F4xx_StdPeriph_Driver/src/stm32f4xx_tim.c ****   *                   - Set/Reset the Capture Compare Preload Control bit
  68:../Shared/Libraries/STM32F4xx_StdPeriph_Driver/src/stm32f4xx_tim.c ****   *                              
  69:../Shared/Libraries/STM32F4xx_StdPeriph_Driver/src/stm32f4xx_tim.c ****   *          5. TIM interrupts, DMA and flags management
  70:../Shared/Libraries/STM32F4xx_StdPeriph_Driver/src/stm32f4xx_tim.c ****   *                   - Enable/Disable interrupt sources
  71:../Shared/Libraries/STM32F4xx_StdPeriph_Driver/src/stm32f4xx_tim.c ****   *                   - Get flags status
  72:../Shared/Libraries/STM32F4xx_StdPeriph_Driver/src/stm32f4xx_tim.c ****   *                   - Clear flags/ Pending bits
  73:../Shared/Libraries/STM32F4xx_StdPeriph_Driver/src/stm32f4xx_tim.c ****   *                   - Enable/Disable DMA requests 
  74:../Shared/Libraries/STM32F4xx_StdPeriph_Driver/src/stm32f4xx_tim.c ****   *                   - Configure DMA burst mode
  75:../Shared/Libraries/STM32F4xx_StdPeriph_Driver/src/stm32f4xx_tim.c ****   *                   - Select CaptureCompare DMA request  
  76:../Shared/Libraries/STM32F4xx_StdPeriph_Driver/src/stm32f4xx_tim.c ****   *              
  77:../Shared/Libraries/STM32F4xx_StdPeriph_Driver/src/stm32f4xx_tim.c ****   *          6. TIM clocks management: this group includes all needed functions 
  78:../Shared/Libraries/STM32F4xx_StdPeriph_Driver/src/stm32f4xx_tim.c ****   *             to configure the clock controller unit:
  79:../Shared/Libraries/STM32F4xx_StdPeriph_Driver/src/stm32f4xx_tim.c ****   *                   - Select internal/External clock
  80:../Shared/Libraries/STM32F4xx_StdPeriph_Driver/src/stm32f4xx_tim.c ****   *                   - Select the external clock mode: ETR(Mode1/Mode2), TIx or ITRx
  81:../Shared/Libraries/STM32F4xx_StdPeriph_Driver/src/stm32f4xx_tim.c ****   *         
  82:../Shared/Libraries/STM32F4xx_StdPeriph_Driver/src/stm32f4xx_tim.c ****   *          7. TIM synchronization management: this group includes all needed 
  83:../Shared/Libraries/STM32F4xx_StdPeriph_Driver/src/stm32f4xx_tim.c ****   *             functions to configure the Synchronization unit:
  84:../Shared/Libraries/STM32F4xx_StdPeriph_Driver/src/stm32f4xx_tim.c ****   *                   - Select Input Trigger  
  85:../Shared/Libraries/STM32F4xx_StdPeriph_Driver/src/stm32f4xx_tim.c ****   *                   - Select Output Trigger  
  86:../Shared/Libraries/STM32F4xx_StdPeriph_Driver/src/stm32f4xx_tim.c ****   *                   - Select Master Slave Mode 
  87:../Shared/Libraries/STM32F4xx_StdPeriph_Driver/src/stm32f4xx_tim.c ****   *                   - ETR Configuration when used as external trigger   
ARM GAS  /tmp/cc2zcHeL.s 			page 3


  88:../Shared/Libraries/STM32F4xx_StdPeriph_Driver/src/stm32f4xx_tim.c ****   *     
  89:../Shared/Libraries/STM32F4xx_StdPeriph_Driver/src/stm32f4xx_tim.c ****   *          8. TIM specific interface management, this group includes all 
  90:../Shared/Libraries/STM32F4xx_StdPeriph_Driver/src/stm32f4xx_tim.c ****   *             needed functions to use the specific TIM interface:
  91:../Shared/Libraries/STM32F4xx_StdPeriph_Driver/src/stm32f4xx_tim.c ****   *                   - Encoder Interface Configuration
  92:../Shared/Libraries/STM32F4xx_StdPeriph_Driver/src/stm32f4xx_tim.c ****   *                   - Select Hall Sensor   
  93:../Shared/Libraries/STM32F4xx_StdPeriph_Driver/src/stm32f4xx_tim.c ****   *         
  94:../Shared/Libraries/STM32F4xx_StdPeriph_Driver/src/stm32f4xx_tim.c ****   *          9. TIM specific remapping management includes the Remapping 
  95:../Shared/Libraries/STM32F4xx_StdPeriph_Driver/src/stm32f4xx_tim.c ****   *             configuration of specific timers               
  96:../Shared/Libraries/STM32F4xx_StdPeriph_Driver/src/stm32f4xx_tim.c ****   *   
  97:../Shared/Libraries/STM32F4xx_StdPeriph_Driver/src/stm32f4xx_tim.c ****   *  @endverbatim
  98:../Shared/Libraries/STM32F4xx_StdPeriph_Driver/src/stm32f4xx_tim.c ****   *    
  99:../Shared/Libraries/STM32F4xx_StdPeriph_Driver/src/stm32f4xx_tim.c ****   ******************************************************************************
 100:../Shared/Libraries/STM32F4xx_StdPeriph_Driver/src/stm32f4xx_tim.c ****   * @attention
 101:../Shared/Libraries/STM32F4xx_StdPeriph_Driver/src/stm32f4xx_tim.c ****   *
 102:../Shared/Libraries/STM32F4xx_StdPeriph_Driver/src/stm32f4xx_tim.c ****   * <h2><center>&copy; COPYRIGHT 2012 STMicroelectronics</center></h2>
 103:../Shared/Libraries/STM32F4xx_StdPeriph_Driver/src/stm32f4xx_tim.c ****   *
 104:../Shared/Libraries/STM32F4xx_StdPeriph_Driver/src/stm32f4xx_tim.c ****   * Licensed under MCD-ST Liberty SW License Agreement V2, (the "License");
 105:../Shared/Libraries/STM32F4xx_StdPeriph_Driver/src/stm32f4xx_tim.c ****   * You may not use this file except in compliance with the License.
 106:../Shared/Libraries/STM32F4xx_StdPeriph_Driver/src/stm32f4xx_tim.c ****   * You may obtain a copy of the License at:
 107:../Shared/Libraries/STM32F4xx_StdPeriph_Driver/src/stm32f4xx_tim.c ****   *
 108:../Shared/Libraries/STM32F4xx_StdPeriph_Driver/src/stm32f4xx_tim.c ****   *        http://www.st.com/software_license_agreement_liberty_v2
 109:../Shared/Libraries/STM32F4xx_StdPeriph_Driver/src/stm32f4xx_tim.c ****   *
 110:../Shared/Libraries/STM32F4xx_StdPeriph_Driver/src/stm32f4xx_tim.c ****   * Unless required by applicable law or agreed to in writing, software 
 111:../Shared/Libraries/STM32F4xx_StdPeriph_Driver/src/stm32f4xx_tim.c ****   * distributed under the License is distributed on an "AS IS" BASIS, 
 112:../Shared/Libraries/STM32F4xx_StdPeriph_Driver/src/stm32f4xx_tim.c ****   * WITHOUT WARRANTIES OR CONDITIONS OF ANY KIND, either express or implied.
 113:../Shared/Libraries/STM32F4xx_StdPeriph_Driver/src/stm32f4xx_tim.c ****   * See the License for the specific language governing permissions and
 114:../Shared/Libraries/STM32F4xx_StdPeriph_Driver/src/stm32f4xx_tim.c ****   * limitations under the License.
 115:../Shared/Libraries/STM32F4xx_StdPeriph_Driver/src/stm32f4xx_tim.c ****   *
 116:../Shared/Libraries/STM32F4xx_StdPeriph_Driver/src/stm32f4xx_tim.c ****   ******************************************************************************
 117:../Shared/Libraries/STM32F4xx_StdPeriph_Driver/src/stm32f4xx_tim.c ****   */
 118:../Shared/Libraries/STM32F4xx_StdPeriph_Driver/src/stm32f4xx_tim.c **** 
 119:../Shared/Libraries/STM32F4xx_StdPeriph_Driver/src/stm32f4xx_tim.c **** /* Includes ------------------------------------------------------------------*/
 120:../Shared/Libraries/STM32F4xx_StdPeriph_Driver/src/stm32f4xx_tim.c **** #include "stm32f4xx_tim.h"
 121:../Shared/Libraries/STM32F4xx_StdPeriph_Driver/src/stm32f4xx_tim.c **** #include "stm32f4xx_rcc.h"
 122:../Shared/Libraries/STM32F4xx_StdPeriph_Driver/src/stm32f4xx_tim.c **** 
 123:../Shared/Libraries/STM32F4xx_StdPeriph_Driver/src/stm32f4xx_tim.c **** /** @addtogroup STM32F4xx_StdPeriph_Driver
 124:../Shared/Libraries/STM32F4xx_StdPeriph_Driver/src/stm32f4xx_tim.c ****   * @{
 125:../Shared/Libraries/STM32F4xx_StdPeriph_Driver/src/stm32f4xx_tim.c ****   */
 126:../Shared/Libraries/STM32F4xx_StdPeriph_Driver/src/stm32f4xx_tim.c **** 
 127:../Shared/Libraries/STM32F4xx_StdPeriph_Driver/src/stm32f4xx_tim.c **** /** @defgroup TIM 
 128:../Shared/Libraries/STM32F4xx_StdPeriph_Driver/src/stm32f4xx_tim.c ****   * @brief TIM driver modules
 129:../Shared/Libraries/STM32F4xx_StdPeriph_Driver/src/stm32f4xx_tim.c ****   * @{
 130:../Shared/Libraries/STM32F4xx_StdPeriph_Driver/src/stm32f4xx_tim.c ****   */
 131:../Shared/Libraries/STM32F4xx_StdPeriph_Driver/src/stm32f4xx_tim.c **** 
 132:../Shared/Libraries/STM32F4xx_StdPeriph_Driver/src/stm32f4xx_tim.c **** /* Private typedef -----------------------------------------------------------*/
 133:../Shared/Libraries/STM32F4xx_StdPeriph_Driver/src/stm32f4xx_tim.c **** /* Private define ------------------------------------------------------------*/
 134:../Shared/Libraries/STM32F4xx_StdPeriph_Driver/src/stm32f4xx_tim.c **** 
 135:../Shared/Libraries/STM32F4xx_StdPeriph_Driver/src/stm32f4xx_tim.c **** /* ---------------------- TIM registers bit mask ------------------------ */
 136:../Shared/Libraries/STM32F4xx_StdPeriph_Driver/src/stm32f4xx_tim.c **** #define SMCR_ETR_MASK      ((uint16_t)0x00FF) 
 137:../Shared/Libraries/STM32F4xx_StdPeriph_Driver/src/stm32f4xx_tim.c **** #define CCMR_OFFSET        ((uint16_t)0x0018)
 138:../Shared/Libraries/STM32F4xx_StdPeriph_Driver/src/stm32f4xx_tim.c **** #define CCER_CCE_SET       ((uint16_t)0x0001)  
 139:../Shared/Libraries/STM32F4xx_StdPeriph_Driver/src/stm32f4xx_tim.c **** #define	CCER_CCNE_SET      ((uint16_t)0x0004) 
 140:../Shared/Libraries/STM32F4xx_StdPeriph_Driver/src/stm32f4xx_tim.c **** #define CCMR_OC13M_MASK    ((uint16_t)0xFF8F)
 141:../Shared/Libraries/STM32F4xx_StdPeriph_Driver/src/stm32f4xx_tim.c **** #define CCMR_OC24M_MASK    ((uint16_t)0x8FFF) 
 142:../Shared/Libraries/STM32F4xx_StdPeriph_Driver/src/stm32f4xx_tim.c **** 
 143:../Shared/Libraries/STM32F4xx_StdPeriph_Driver/src/stm32f4xx_tim.c **** /* Private macro -------------------------------------------------------------*/
 144:../Shared/Libraries/STM32F4xx_StdPeriph_Driver/src/stm32f4xx_tim.c **** /* Private variables ---------------------------------------------------------*/
ARM GAS  /tmp/cc2zcHeL.s 			page 4


 145:../Shared/Libraries/STM32F4xx_StdPeriph_Driver/src/stm32f4xx_tim.c **** /* Private function prototypes -----------------------------------------------*/
 146:../Shared/Libraries/STM32F4xx_StdPeriph_Driver/src/stm32f4xx_tim.c **** static void TI1_Config(TIM_TypeDef* TIMx, uint16_t TIM_ICPolarity, uint16_t TIM_ICSelection,
 147:../Shared/Libraries/STM32F4xx_StdPeriph_Driver/src/stm32f4xx_tim.c ****                        uint16_t TIM_ICFilter);
 148:../Shared/Libraries/STM32F4xx_StdPeriph_Driver/src/stm32f4xx_tim.c **** static void TI2_Config(TIM_TypeDef* TIMx, uint16_t TIM_ICPolarity, uint16_t TIM_ICSelection,
 149:../Shared/Libraries/STM32F4xx_StdPeriph_Driver/src/stm32f4xx_tim.c ****                        uint16_t TIM_ICFilter);
 150:../Shared/Libraries/STM32F4xx_StdPeriph_Driver/src/stm32f4xx_tim.c **** static void TI3_Config(TIM_TypeDef* TIMx, uint16_t TIM_ICPolarity, uint16_t TIM_ICSelection,
 151:../Shared/Libraries/STM32F4xx_StdPeriph_Driver/src/stm32f4xx_tim.c ****                        uint16_t TIM_ICFilter);
 152:../Shared/Libraries/STM32F4xx_StdPeriph_Driver/src/stm32f4xx_tim.c **** static void TI4_Config(TIM_TypeDef* TIMx, uint16_t TIM_ICPolarity, uint16_t TIM_ICSelection,
 153:../Shared/Libraries/STM32F4xx_StdPeriph_Driver/src/stm32f4xx_tim.c ****                        uint16_t TIM_ICFilter);
 154:../Shared/Libraries/STM32F4xx_StdPeriph_Driver/src/stm32f4xx_tim.c **** 
 155:../Shared/Libraries/STM32F4xx_StdPeriph_Driver/src/stm32f4xx_tim.c **** /* Private functions ---------------------------------------------------------*/
 156:../Shared/Libraries/STM32F4xx_StdPeriph_Driver/src/stm32f4xx_tim.c **** 
 157:../Shared/Libraries/STM32F4xx_StdPeriph_Driver/src/stm32f4xx_tim.c **** /** @defgroup TIM_Private_Functions
 158:../Shared/Libraries/STM32F4xx_StdPeriph_Driver/src/stm32f4xx_tim.c ****   * @{
 159:../Shared/Libraries/STM32F4xx_StdPeriph_Driver/src/stm32f4xx_tim.c ****   */
 160:../Shared/Libraries/STM32F4xx_StdPeriph_Driver/src/stm32f4xx_tim.c **** 
 161:../Shared/Libraries/STM32F4xx_StdPeriph_Driver/src/stm32f4xx_tim.c **** /** @defgroup TIM_Group1 TimeBase management functions
 162:../Shared/Libraries/STM32F4xx_StdPeriph_Driver/src/stm32f4xx_tim.c ****  *  @brief   TimeBase management functions 
 163:../Shared/Libraries/STM32F4xx_StdPeriph_Driver/src/stm32f4xx_tim.c ****  *
 164:../Shared/Libraries/STM32F4xx_StdPeriph_Driver/src/stm32f4xx_tim.c **** @verbatim   
 165:../Shared/Libraries/STM32F4xx_StdPeriph_Driver/src/stm32f4xx_tim.c ****  ===============================================================================
 166:../Shared/Libraries/STM32F4xx_StdPeriph_Driver/src/stm32f4xx_tim.c ****                        TimeBase management functions
 167:../Shared/Libraries/STM32F4xx_StdPeriph_Driver/src/stm32f4xx_tim.c ****  ===============================================================================  
 168:../Shared/Libraries/STM32F4xx_StdPeriph_Driver/src/stm32f4xx_tim.c ****   
 169:../Shared/Libraries/STM32F4xx_StdPeriph_Driver/src/stm32f4xx_tim.c ****        ===================================================================      
 170:../Shared/Libraries/STM32F4xx_StdPeriph_Driver/src/stm32f4xx_tim.c ****               TIM Driver: how to use it in Timing(Time base) Mode
 171:../Shared/Libraries/STM32F4xx_StdPeriph_Driver/src/stm32f4xx_tim.c ****        =================================================================== 
 172:../Shared/Libraries/STM32F4xx_StdPeriph_Driver/src/stm32f4xx_tim.c ****        To use the Timer in Timing(Time base) mode, the following steps are mandatory:
 173:../Shared/Libraries/STM32F4xx_StdPeriph_Driver/src/stm32f4xx_tim.c ****        
 174:../Shared/Libraries/STM32F4xx_StdPeriph_Driver/src/stm32f4xx_tim.c ****        1. Enable TIM clock using RCC_APBxPeriphClockCmd(RCC_APBxPeriph_TIMx, ENABLE) function
 175:../Shared/Libraries/STM32F4xx_StdPeriph_Driver/src/stm32f4xx_tim.c ****                     
 176:../Shared/Libraries/STM32F4xx_StdPeriph_Driver/src/stm32f4xx_tim.c ****        2. Fill the TIM_TimeBaseInitStruct with the desired parameters.
 177:../Shared/Libraries/STM32F4xx_StdPeriph_Driver/src/stm32f4xx_tim.c ****        
 178:../Shared/Libraries/STM32F4xx_StdPeriph_Driver/src/stm32f4xx_tim.c ****        3. Call TIM_TimeBaseInit(TIMx, &TIM_TimeBaseInitStruct) to configure the Time Base unit
 179:../Shared/Libraries/STM32F4xx_StdPeriph_Driver/src/stm32f4xx_tim.c ****           with the corresponding configuration
 180:../Shared/Libraries/STM32F4xx_StdPeriph_Driver/src/stm32f4xx_tim.c ****           
 181:../Shared/Libraries/STM32F4xx_StdPeriph_Driver/src/stm32f4xx_tim.c ****        4. Enable the NVIC if you need to generate the update interrupt. 
 182:../Shared/Libraries/STM32F4xx_StdPeriph_Driver/src/stm32f4xx_tim.c ****           
 183:../Shared/Libraries/STM32F4xx_StdPeriph_Driver/src/stm32f4xx_tim.c ****        5. Enable the corresponding interrupt using the function TIM_ITConfig(TIMx, TIM_IT_Update) 
 184:../Shared/Libraries/STM32F4xx_StdPeriph_Driver/src/stm32f4xx_tim.c ****        
 185:../Shared/Libraries/STM32F4xx_StdPeriph_Driver/src/stm32f4xx_tim.c ****        6. Call the TIM_Cmd(ENABLE) function to enable the TIM counter.
 186:../Shared/Libraries/STM32F4xx_StdPeriph_Driver/src/stm32f4xx_tim.c ****              
 187:../Shared/Libraries/STM32F4xx_StdPeriph_Driver/src/stm32f4xx_tim.c ****        Note1: All other functions can be used separately to modify, if needed,
 188:../Shared/Libraries/STM32F4xx_StdPeriph_Driver/src/stm32f4xx_tim.c ****           a specific feature of the Timer. 
 189:../Shared/Libraries/STM32F4xx_StdPeriph_Driver/src/stm32f4xx_tim.c **** 
 190:../Shared/Libraries/STM32F4xx_StdPeriph_Driver/src/stm32f4xx_tim.c **** @endverbatim
 191:../Shared/Libraries/STM32F4xx_StdPeriph_Driver/src/stm32f4xx_tim.c ****   * @{
 192:../Shared/Libraries/STM32F4xx_StdPeriph_Driver/src/stm32f4xx_tim.c ****   */
 193:../Shared/Libraries/STM32F4xx_StdPeriph_Driver/src/stm32f4xx_tim.c ****   
 194:../Shared/Libraries/STM32F4xx_StdPeriph_Driver/src/stm32f4xx_tim.c **** /**
 195:../Shared/Libraries/STM32F4xx_StdPeriph_Driver/src/stm32f4xx_tim.c ****   * @brief  Deinitializes the TIMx peripheral registers to their default reset values.
 196:../Shared/Libraries/STM32F4xx_StdPeriph_Driver/src/stm32f4xx_tim.c ****   * @param  TIMx: where x can be 1 to 14 to select the TIM peripheral.
 197:../Shared/Libraries/STM32F4xx_StdPeriph_Driver/src/stm32f4xx_tim.c ****   * @retval None
 198:../Shared/Libraries/STM32F4xx_StdPeriph_Driver/src/stm32f4xx_tim.c **** 
 199:../Shared/Libraries/STM32F4xx_StdPeriph_Driver/src/stm32f4xx_tim.c ****   */
 200:../Shared/Libraries/STM32F4xx_StdPeriph_Driver/src/stm32f4xx_tim.c **** void TIM_DeInit(TIM_TypeDef* TIMx)
 201:../Shared/Libraries/STM32F4xx_StdPeriph_Driver/src/stm32f4xx_tim.c **** {
ARM GAS  /tmp/cc2zcHeL.s 			page 5


  29              		.loc 1 201 1
  30              		.cfi_startproc
  31              		@ args = 0, pretend = 0, frame = 8
  32              		@ frame_needed = 1, uses_anonymous_args = 0
  33 0000 80B5     		push	{r7, lr}
  34              	.LCFI0:
  35              		.cfi_def_cfa_offset 8
  36              		.cfi_offset 7, -8
  37              		.cfi_offset 14, -4
  38 0002 82B0     		sub	sp, sp, #8
  39              	.LCFI1:
  40              		.cfi_def_cfa_offset 16
  41 0004 00AF     		add	r7, sp, #0
  42              	.LCFI2:
  43              		.cfi_def_cfa_register 7
  44 0006 7860     		str	r0, [r7, #4]
 202:../Shared/Libraries/STM32F4xx_StdPeriph_Driver/src/stm32f4xx_tim.c ****   /* Check the parameters */
 203:../Shared/Libraries/STM32F4xx_StdPeriph_Driver/src/stm32f4xx_tim.c ****   assert_param(IS_TIM_ALL_PERIPH(TIMx)); 
 204:../Shared/Libraries/STM32F4xx_StdPeriph_Driver/src/stm32f4xx_tim.c ****  
 205:../Shared/Libraries/STM32F4xx_StdPeriph_Driver/src/stm32f4xx_tim.c ****   if (TIMx == TIM1)
  45              		.loc 1 205 6
  46 0008 7B68     		ldr	r3, [r7, #4]
  47 000a 604A     		ldr	r2, .L17
  48 000c 9342     		cmp	r3, r2
  49 000e 08D1     		bne	.L2
 206:../Shared/Libraries/STM32F4xx_StdPeriph_Driver/src/stm32f4xx_tim.c ****   {
 207:../Shared/Libraries/STM32F4xx_StdPeriph_Driver/src/stm32f4xx_tim.c ****     RCC_APB2PeriphResetCmd(RCC_APB2Periph_TIM1, ENABLE);
  50              		.loc 1 207 5
  51 0010 0121     		movs	r1, #1
  52 0012 0120     		movs	r0, #1
  53 0014 FFF7FEFF 		bl	RCC_APB2PeriphResetCmd
 208:../Shared/Libraries/STM32F4xx_StdPeriph_Driver/src/stm32f4xx_tim.c ****     RCC_APB2PeriphResetCmd(RCC_APB2Periph_TIM1, DISABLE);  
  54              		.loc 1 208 5
  55 0018 0021     		movs	r1, #0
  56 001a 0120     		movs	r0, #1
  57 001c FFF7FEFF 		bl	RCC_APB2PeriphResetCmd
 209:../Shared/Libraries/STM32F4xx_StdPeriph_Driver/src/stm32f4xx_tim.c ****   } 
 210:../Shared/Libraries/STM32F4xx_StdPeriph_Driver/src/stm32f4xx_tim.c ****   else if (TIMx == TIM2) 
 211:../Shared/Libraries/STM32F4xx_StdPeriph_Driver/src/stm32f4xx_tim.c ****   {     
 212:../Shared/Libraries/STM32F4xx_StdPeriph_Driver/src/stm32f4xx_tim.c ****     RCC_APB1PeriphResetCmd(RCC_APB1Periph_TIM2, ENABLE);
 213:../Shared/Libraries/STM32F4xx_StdPeriph_Driver/src/stm32f4xx_tim.c ****     RCC_APB1PeriphResetCmd(RCC_APB1Periph_TIM2, DISABLE);
 214:../Shared/Libraries/STM32F4xx_StdPeriph_Driver/src/stm32f4xx_tim.c ****   }  
 215:../Shared/Libraries/STM32F4xx_StdPeriph_Driver/src/stm32f4xx_tim.c ****   else if (TIMx == TIM3)
 216:../Shared/Libraries/STM32F4xx_StdPeriph_Driver/src/stm32f4xx_tim.c ****   { 
 217:../Shared/Libraries/STM32F4xx_StdPeriph_Driver/src/stm32f4xx_tim.c ****     RCC_APB1PeriphResetCmd(RCC_APB1Periph_TIM3, ENABLE);
 218:../Shared/Libraries/STM32F4xx_StdPeriph_Driver/src/stm32f4xx_tim.c ****     RCC_APB1PeriphResetCmd(RCC_APB1Periph_TIM3, DISABLE);
 219:../Shared/Libraries/STM32F4xx_StdPeriph_Driver/src/stm32f4xx_tim.c ****   }  
 220:../Shared/Libraries/STM32F4xx_StdPeriph_Driver/src/stm32f4xx_tim.c ****   else if (TIMx == TIM4)
 221:../Shared/Libraries/STM32F4xx_StdPeriph_Driver/src/stm32f4xx_tim.c ****   { 
 222:../Shared/Libraries/STM32F4xx_StdPeriph_Driver/src/stm32f4xx_tim.c ****     RCC_APB1PeriphResetCmd(RCC_APB1Periph_TIM4, ENABLE);
 223:../Shared/Libraries/STM32F4xx_StdPeriph_Driver/src/stm32f4xx_tim.c ****     RCC_APB1PeriphResetCmd(RCC_APB1Periph_TIM4, DISABLE);
 224:../Shared/Libraries/STM32F4xx_StdPeriph_Driver/src/stm32f4xx_tim.c ****   }  
 225:../Shared/Libraries/STM32F4xx_StdPeriph_Driver/src/stm32f4xx_tim.c ****   else if (TIMx == TIM5)
 226:../Shared/Libraries/STM32F4xx_StdPeriph_Driver/src/stm32f4xx_tim.c ****   {      
 227:../Shared/Libraries/STM32F4xx_StdPeriph_Driver/src/stm32f4xx_tim.c ****     RCC_APB1PeriphResetCmd(RCC_APB1Periph_TIM5, ENABLE);
 228:../Shared/Libraries/STM32F4xx_StdPeriph_Driver/src/stm32f4xx_tim.c ****     RCC_APB1PeriphResetCmd(RCC_APB1Periph_TIM5, DISABLE);
 229:../Shared/Libraries/STM32F4xx_StdPeriph_Driver/src/stm32f4xx_tim.c ****   }  
ARM GAS  /tmp/cc2zcHeL.s 			page 6


 230:../Shared/Libraries/STM32F4xx_StdPeriph_Driver/src/stm32f4xx_tim.c ****   else if (TIMx == TIM6)  
 231:../Shared/Libraries/STM32F4xx_StdPeriph_Driver/src/stm32f4xx_tim.c ****   {    
 232:../Shared/Libraries/STM32F4xx_StdPeriph_Driver/src/stm32f4xx_tim.c ****     RCC_APB1PeriphResetCmd(RCC_APB1Periph_TIM6, ENABLE);
 233:../Shared/Libraries/STM32F4xx_StdPeriph_Driver/src/stm32f4xx_tim.c ****     RCC_APB1PeriphResetCmd(RCC_APB1Periph_TIM6, DISABLE);
 234:../Shared/Libraries/STM32F4xx_StdPeriph_Driver/src/stm32f4xx_tim.c ****   }  
 235:../Shared/Libraries/STM32F4xx_StdPeriph_Driver/src/stm32f4xx_tim.c ****   else if (TIMx == TIM7)
 236:../Shared/Libraries/STM32F4xx_StdPeriph_Driver/src/stm32f4xx_tim.c ****   {      
 237:../Shared/Libraries/STM32F4xx_StdPeriph_Driver/src/stm32f4xx_tim.c ****     RCC_APB1PeriphResetCmd(RCC_APB1Periph_TIM7, ENABLE);
 238:../Shared/Libraries/STM32F4xx_StdPeriph_Driver/src/stm32f4xx_tim.c ****     RCC_APB1PeriphResetCmd(RCC_APB1Periph_TIM7, DISABLE);
 239:../Shared/Libraries/STM32F4xx_StdPeriph_Driver/src/stm32f4xx_tim.c ****   }  
 240:../Shared/Libraries/STM32F4xx_StdPeriph_Driver/src/stm32f4xx_tim.c ****   else if (TIMx == TIM8)
 241:../Shared/Libraries/STM32F4xx_StdPeriph_Driver/src/stm32f4xx_tim.c ****   {      
 242:../Shared/Libraries/STM32F4xx_StdPeriph_Driver/src/stm32f4xx_tim.c ****     RCC_APB2PeriphResetCmd(RCC_APB2Periph_TIM8, ENABLE);
 243:../Shared/Libraries/STM32F4xx_StdPeriph_Driver/src/stm32f4xx_tim.c ****     RCC_APB2PeriphResetCmd(RCC_APB2Periph_TIM8, DISABLE);  
 244:../Shared/Libraries/STM32F4xx_StdPeriph_Driver/src/stm32f4xx_tim.c ****   }  
 245:../Shared/Libraries/STM32F4xx_StdPeriph_Driver/src/stm32f4xx_tim.c ****   else if (TIMx == TIM9)
 246:../Shared/Libraries/STM32F4xx_StdPeriph_Driver/src/stm32f4xx_tim.c ****   {      
 247:../Shared/Libraries/STM32F4xx_StdPeriph_Driver/src/stm32f4xx_tim.c ****     RCC_APB2PeriphResetCmd(RCC_APB2Periph_TIM9, ENABLE);
 248:../Shared/Libraries/STM32F4xx_StdPeriph_Driver/src/stm32f4xx_tim.c ****     RCC_APB2PeriphResetCmd(RCC_APB2Periph_TIM9, DISABLE);  
 249:../Shared/Libraries/STM32F4xx_StdPeriph_Driver/src/stm32f4xx_tim.c ****    }  
 250:../Shared/Libraries/STM32F4xx_StdPeriph_Driver/src/stm32f4xx_tim.c ****   else if (TIMx == TIM10)
 251:../Shared/Libraries/STM32F4xx_StdPeriph_Driver/src/stm32f4xx_tim.c ****   {      
 252:../Shared/Libraries/STM32F4xx_StdPeriph_Driver/src/stm32f4xx_tim.c ****     RCC_APB2PeriphResetCmd(RCC_APB2Periph_TIM10, ENABLE);
 253:../Shared/Libraries/STM32F4xx_StdPeriph_Driver/src/stm32f4xx_tim.c ****     RCC_APB2PeriphResetCmd(RCC_APB2Periph_TIM10, DISABLE);  
 254:../Shared/Libraries/STM32F4xx_StdPeriph_Driver/src/stm32f4xx_tim.c ****   }  
 255:../Shared/Libraries/STM32F4xx_StdPeriph_Driver/src/stm32f4xx_tim.c ****   else if (TIMx == TIM11) 
 256:../Shared/Libraries/STM32F4xx_StdPeriph_Driver/src/stm32f4xx_tim.c ****   {     
 257:../Shared/Libraries/STM32F4xx_StdPeriph_Driver/src/stm32f4xx_tim.c ****     RCC_APB2PeriphResetCmd(RCC_APB2Periph_TIM11, ENABLE);
 258:../Shared/Libraries/STM32F4xx_StdPeriph_Driver/src/stm32f4xx_tim.c ****     RCC_APB2PeriphResetCmd(RCC_APB2Periph_TIM11, DISABLE);  
 259:../Shared/Libraries/STM32F4xx_StdPeriph_Driver/src/stm32f4xx_tim.c ****   }  
 260:../Shared/Libraries/STM32F4xx_StdPeriph_Driver/src/stm32f4xx_tim.c ****   else if (TIMx == TIM12)
 261:../Shared/Libraries/STM32F4xx_StdPeriph_Driver/src/stm32f4xx_tim.c ****   {      
 262:../Shared/Libraries/STM32F4xx_StdPeriph_Driver/src/stm32f4xx_tim.c ****     RCC_APB1PeriphResetCmd(RCC_APB1Periph_TIM12, ENABLE);
 263:../Shared/Libraries/STM32F4xx_StdPeriph_Driver/src/stm32f4xx_tim.c ****     RCC_APB1PeriphResetCmd(RCC_APB1Periph_TIM12, DISABLE);  
 264:../Shared/Libraries/STM32F4xx_StdPeriph_Driver/src/stm32f4xx_tim.c ****   }  
 265:../Shared/Libraries/STM32F4xx_StdPeriph_Driver/src/stm32f4xx_tim.c ****   else if (TIMx == TIM13) 
 266:../Shared/Libraries/STM32F4xx_StdPeriph_Driver/src/stm32f4xx_tim.c ****   {       
 267:../Shared/Libraries/STM32F4xx_StdPeriph_Driver/src/stm32f4xx_tim.c ****     RCC_APB1PeriphResetCmd(RCC_APB1Periph_TIM13, ENABLE);
 268:../Shared/Libraries/STM32F4xx_StdPeriph_Driver/src/stm32f4xx_tim.c ****     RCC_APB1PeriphResetCmd(RCC_APB1Periph_TIM13, DISABLE);  
 269:../Shared/Libraries/STM32F4xx_StdPeriph_Driver/src/stm32f4xx_tim.c ****   }  
 270:../Shared/Libraries/STM32F4xx_StdPeriph_Driver/src/stm32f4xx_tim.c ****   else
 271:../Shared/Libraries/STM32F4xx_StdPeriph_Driver/src/stm32f4xx_tim.c ****   { 
 272:../Shared/Libraries/STM32F4xx_StdPeriph_Driver/src/stm32f4xx_tim.c ****     if (TIMx == TIM14) 
 273:../Shared/Libraries/STM32F4xx_StdPeriph_Driver/src/stm32f4xx_tim.c ****     {     
 274:../Shared/Libraries/STM32F4xx_StdPeriph_Driver/src/stm32f4xx_tim.c ****       RCC_APB1PeriphResetCmd(RCC_APB1Periph_TIM14, ENABLE);
 275:../Shared/Libraries/STM32F4xx_StdPeriph_Driver/src/stm32f4xx_tim.c ****       RCC_APB1PeriphResetCmd(RCC_APB1Periph_TIM14, DISABLE); 
 276:../Shared/Libraries/STM32F4xx_StdPeriph_Driver/src/stm32f4xx_tim.c ****     }   
 277:../Shared/Libraries/STM32F4xx_StdPeriph_Driver/src/stm32f4xx_tim.c ****   }
 278:../Shared/Libraries/STM32F4xx_StdPeriph_Driver/src/stm32f4xx_tim.c **** }
  58              		.loc 1 278 1
  59 0020 AFE0     		b	.L16
  60              	.L2:
 210:../Shared/Libraries/STM32F4xx_StdPeriph_Driver/src/stm32f4xx_tim.c ****   {     
  61              		.loc 1 210 11
  62 0022 7B68     		ldr	r3, [r7, #4]
  63 0024 B3F1804F 		cmp	r3, #1073741824
  64 0028 08D1     		bne	.L4
ARM GAS  /tmp/cc2zcHeL.s 			page 7


 212:../Shared/Libraries/STM32F4xx_StdPeriph_Driver/src/stm32f4xx_tim.c ****     RCC_APB1PeriphResetCmd(RCC_APB1Periph_TIM2, DISABLE);
  65              		.loc 1 212 5
  66 002a 0121     		movs	r1, #1
  67 002c 0120     		movs	r0, #1
  68 002e FFF7FEFF 		bl	RCC_APB1PeriphResetCmd
 213:../Shared/Libraries/STM32F4xx_StdPeriph_Driver/src/stm32f4xx_tim.c ****   }  
  69              		.loc 1 213 5
  70 0032 0021     		movs	r1, #0
  71 0034 0120     		movs	r0, #1
  72 0036 FFF7FEFF 		bl	RCC_APB1PeriphResetCmd
  73              		.loc 1 278 1
  74 003a A2E0     		b	.L16
  75              	.L4:
 215:../Shared/Libraries/STM32F4xx_StdPeriph_Driver/src/stm32f4xx_tim.c ****   { 
  76              		.loc 1 215 11
  77 003c 7B68     		ldr	r3, [r7, #4]
  78 003e 544A     		ldr	r2, .L17+4
  79 0040 9342     		cmp	r3, r2
  80 0042 08D1     		bne	.L5
 217:../Shared/Libraries/STM32F4xx_StdPeriph_Driver/src/stm32f4xx_tim.c ****     RCC_APB1PeriphResetCmd(RCC_APB1Periph_TIM3, DISABLE);
  81              		.loc 1 217 5
  82 0044 0121     		movs	r1, #1
  83 0046 0220     		movs	r0, #2
  84 0048 FFF7FEFF 		bl	RCC_APB1PeriphResetCmd
 218:../Shared/Libraries/STM32F4xx_StdPeriph_Driver/src/stm32f4xx_tim.c ****   }  
  85              		.loc 1 218 5
  86 004c 0021     		movs	r1, #0
  87 004e 0220     		movs	r0, #2
  88 0050 FFF7FEFF 		bl	RCC_APB1PeriphResetCmd
  89              		.loc 1 278 1
  90 0054 95E0     		b	.L16
  91              	.L5:
 220:../Shared/Libraries/STM32F4xx_StdPeriph_Driver/src/stm32f4xx_tim.c ****   { 
  92              		.loc 1 220 11
  93 0056 7B68     		ldr	r3, [r7, #4]
  94 0058 4E4A     		ldr	r2, .L17+8
  95 005a 9342     		cmp	r3, r2
  96 005c 08D1     		bne	.L6
 222:../Shared/Libraries/STM32F4xx_StdPeriph_Driver/src/stm32f4xx_tim.c ****     RCC_APB1PeriphResetCmd(RCC_APB1Periph_TIM4, DISABLE);
  97              		.loc 1 222 5
  98 005e 0121     		movs	r1, #1
  99 0060 0420     		movs	r0, #4
 100 0062 FFF7FEFF 		bl	RCC_APB1PeriphResetCmd
 223:../Shared/Libraries/STM32F4xx_StdPeriph_Driver/src/stm32f4xx_tim.c ****   }  
 101              		.loc 1 223 5
 102 0066 0021     		movs	r1, #0
 103 0068 0420     		movs	r0, #4
 104 006a FFF7FEFF 		bl	RCC_APB1PeriphResetCmd
 105              		.loc 1 278 1
 106 006e 88E0     		b	.L16
 107              	.L6:
 225:../Shared/Libraries/STM32F4xx_StdPeriph_Driver/src/stm32f4xx_tim.c ****   {      
 108              		.loc 1 225 11
 109 0070 7B68     		ldr	r3, [r7, #4]
 110 0072 494A     		ldr	r2, .L17+12
 111 0074 9342     		cmp	r3, r2
 112 0076 08D1     		bne	.L7
ARM GAS  /tmp/cc2zcHeL.s 			page 8


 227:../Shared/Libraries/STM32F4xx_StdPeriph_Driver/src/stm32f4xx_tim.c ****     RCC_APB1PeriphResetCmd(RCC_APB1Periph_TIM5, DISABLE);
 113              		.loc 1 227 5
 114 0078 0121     		movs	r1, #1
 115 007a 0820     		movs	r0, #8
 116 007c FFF7FEFF 		bl	RCC_APB1PeriphResetCmd
 228:../Shared/Libraries/STM32F4xx_StdPeriph_Driver/src/stm32f4xx_tim.c ****   }  
 117              		.loc 1 228 5
 118 0080 0021     		movs	r1, #0
 119 0082 0820     		movs	r0, #8
 120 0084 FFF7FEFF 		bl	RCC_APB1PeriphResetCmd
 121              		.loc 1 278 1
 122 0088 7BE0     		b	.L16
 123              	.L7:
 230:../Shared/Libraries/STM32F4xx_StdPeriph_Driver/src/stm32f4xx_tim.c ****   {    
 124              		.loc 1 230 11
 125 008a 7B68     		ldr	r3, [r7, #4]
 126 008c 434A     		ldr	r2, .L17+16
 127 008e 9342     		cmp	r3, r2
 128 0090 08D1     		bne	.L8
 232:../Shared/Libraries/STM32F4xx_StdPeriph_Driver/src/stm32f4xx_tim.c ****     RCC_APB1PeriphResetCmd(RCC_APB1Periph_TIM6, DISABLE);
 129              		.loc 1 232 5
 130 0092 0121     		movs	r1, #1
 131 0094 1020     		movs	r0, #16
 132 0096 FFF7FEFF 		bl	RCC_APB1PeriphResetCmd
 233:../Shared/Libraries/STM32F4xx_StdPeriph_Driver/src/stm32f4xx_tim.c ****   }  
 133              		.loc 1 233 5
 134 009a 0021     		movs	r1, #0
 135 009c 1020     		movs	r0, #16
 136 009e FFF7FEFF 		bl	RCC_APB1PeriphResetCmd
 137              		.loc 1 278 1
 138 00a2 6EE0     		b	.L16
 139              	.L8:
 235:../Shared/Libraries/STM32F4xx_StdPeriph_Driver/src/stm32f4xx_tim.c ****   {      
 140              		.loc 1 235 11
 141 00a4 7B68     		ldr	r3, [r7, #4]
 142 00a6 3E4A     		ldr	r2, .L17+20
 143 00a8 9342     		cmp	r3, r2
 144 00aa 08D1     		bne	.L9
 237:../Shared/Libraries/STM32F4xx_StdPeriph_Driver/src/stm32f4xx_tim.c ****     RCC_APB1PeriphResetCmd(RCC_APB1Periph_TIM7, DISABLE);
 145              		.loc 1 237 5
 146 00ac 0121     		movs	r1, #1
 147 00ae 2020     		movs	r0, #32
 148 00b0 FFF7FEFF 		bl	RCC_APB1PeriphResetCmd
 238:../Shared/Libraries/STM32F4xx_StdPeriph_Driver/src/stm32f4xx_tim.c ****   }  
 149              		.loc 1 238 5
 150 00b4 0021     		movs	r1, #0
 151 00b6 2020     		movs	r0, #32
 152 00b8 FFF7FEFF 		bl	RCC_APB1PeriphResetCmd
 153              		.loc 1 278 1
 154 00bc 61E0     		b	.L16
 155              	.L9:
 240:../Shared/Libraries/STM32F4xx_StdPeriph_Driver/src/stm32f4xx_tim.c ****   {      
 156              		.loc 1 240 11
 157 00be 7B68     		ldr	r3, [r7, #4]
 158 00c0 384A     		ldr	r2, .L17+24
 159 00c2 9342     		cmp	r3, r2
 160 00c4 08D1     		bne	.L10
ARM GAS  /tmp/cc2zcHeL.s 			page 9


 242:../Shared/Libraries/STM32F4xx_StdPeriph_Driver/src/stm32f4xx_tim.c ****     RCC_APB2PeriphResetCmd(RCC_APB2Periph_TIM8, DISABLE);  
 161              		.loc 1 242 5
 162 00c6 0121     		movs	r1, #1
 163 00c8 0220     		movs	r0, #2
 164 00ca FFF7FEFF 		bl	RCC_APB2PeriphResetCmd
 243:../Shared/Libraries/STM32F4xx_StdPeriph_Driver/src/stm32f4xx_tim.c ****   }  
 165              		.loc 1 243 5
 166 00ce 0021     		movs	r1, #0
 167 00d0 0220     		movs	r0, #2
 168 00d2 FFF7FEFF 		bl	RCC_APB2PeriphResetCmd
 169              		.loc 1 278 1
 170 00d6 54E0     		b	.L16
 171              	.L10:
 245:../Shared/Libraries/STM32F4xx_StdPeriph_Driver/src/stm32f4xx_tim.c ****   {      
 172              		.loc 1 245 11
 173 00d8 7B68     		ldr	r3, [r7, #4]
 174 00da 334A     		ldr	r2, .L17+28
 175 00dc 9342     		cmp	r3, r2
 176 00de 0AD1     		bne	.L11
 247:../Shared/Libraries/STM32F4xx_StdPeriph_Driver/src/stm32f4xx_tim.c ****     RCC_APB2PeriphResetCmd(RCC_APB2Periph_TIM9, DISABLE);  
 177              		.loc 1 247 5
 178 00e0 0121     		movs	r1, #1
 179 00e2 4FF48030 		mov	r0, #65536
 180 00e6 FFF7FEFF 		bl	RCC_APB2PeriphResetCmd
 248:../Shared/Libraries/STM32F4xx_StdPeriph_Driver/src/stm32f4xx_tim.c ****    }  
 181              		.loc 1 248 5
 182 00ea 0021     		movs	r1, #0
 183 00ec 4FF48030 		mov	r0, #65536
 184 00f0 FFF7FEFF 		bl	RCC_APB2PeriphResetCmd
 185              		.loc 1 278 1
 186 00f4 45E0     		b	.L16
 187              	.L11:
 250:../Shared/Libraries/STM32F4xx_StdPeriph_Driver/src/stm32f4xx_tim.c ****   {      
 188              		.loc 1 250 11
 189 00f6 7B68     		ldr	r3, [r7, #4]
 190 00f8 2C4A     		ldr	r2, .L17+32
 191 00fa 9342     		cmp	r3, r2
 192 00fc 0AD1     		bne	.L12
 252:../Shared/Libraries/STM32F4xx_StdPeriph_Driver/src/stm32f4xx_tim.c ****     RCC_APB2PeriphResetCmd(RCC_APB2Periph_TIM10, DISABLE);  
 193              		.loc 1 252 5
 194 00fe 0121     		movs	r1, #1
 195 0100 4FF40030 		mov	r0, #131072
 196 0104 FFF7FEFF 		bl	RCC_APB2PeriphResetCmd
 253:../Shared/Libraries/STM32F4xx_StdPeriph_Driver/src/stm32f4xx_tim.c ****   }  
 197              		.loc 1 253 5
 198 0108 0021     		movs	r1, #0
 199 010a 4FF40030 		mov	r0, #131072
 200 010e FFF7FEFF 		bl	RCC_APB2PeriphResetCmd
 201              		.loc 1 278 1
 202 0112 36E0     		b	.L16
 203              	.L12:
 255:../Shared/Libraries/STM32F4xx_StdPeriph_Driver/src/stm32f4xx_tim.c ****   {     
 204              		.loc 1 255 11
 205 0114 7B68     		ldr	r3, [r7, #4]
 206 0116 264A     		ldr	r2, .L17+36
 207 0118 9342     		cmp	r3, r2
 208 011a 0AD1     		bne	.L13
ARM GAS  /tmp/cc2zcHeL.s 			page 10


 257:../Shared/Libraries/STM32F4xx_StdPeriph_Driver/src/stm32f4xx_tim.c ****     RCC_APB2PeriphResetCmd(RCC_APB2Periph_TIM11, DISABLE);  
 209              		.loc 1 257 5
 210 011c 0121     		movs	r1, #1
 211 011e 4FF48020 		mov	r0, #262144
 212 0122 FFF7FEFF 		bl	RCC_APB2PeriphResetCmd
 258:../Shared/Libraries/STM32F4xx_StdPeriph_Driver/src/stm32f4xx_tim.c ****   }  
 213              		.loc 1 258 5
 214 0126 0021     		movs	r1, #0
 215 0128 4FF48020 		mov	r0, #262144
 216 012c FFF7FEFF 		bl	RCC_APB2PeriphResetCmd
 217              		.loc 1 278 1
 218 0130 27E0     		b	.L16
 219              	.L13:
 260:../Shared/Libraries/STM32F4xx_StdPeriph_Driver/src/stm32f4xx_tim.c ****   {      
 220              		.loc 1 260 11
 221 0132 7B68     		ldr	r3, [r7, #4]
 222 0134 1F4A     		ldr	r2, .L17+40
 223 0136 9342     		cmp	r3, r2
 224 0138 08D1     		bne	.L14
 262:../Shared/Libraries/STM32F4xx_StdPeriph_Driver/src/stm32f4xx_tim.c ****     RCC_APB1PeriphResetCmd(RCC_APB1Periph_TIM12, DISABLE);  
 225              		.loc 1 262 5
 226 013a 0121     		movs	r1, #1
 227 013c 4020     		movs	r0, #64
 228 013e FFF7FEFF 		bl	RCC_APB1PeriphResetCmd
 263:../Shared/Libraries/STM32F4xx_StdPeriph_Driver/src/stm32f4xx_tim.c ****   }  
 229              		.loc 1 263 5
 230 0142 0021     		movs	r1, #0
 231 0144 4020     		movs	r0, #64
 232 0146 FFF7FEFF 		bl	RCC_APB1PeriphResetCmd
 233              		.loc 1 278 1
 234 014a 1AE0     		b	.L16
 235              	.L14:
 265:../Shared/Libraries/STM32F4xx_StdPeriph_Driver/src/stm32f4xx_tim.c ****   {       
 236              		.loc 1 265 11
 237 014c 7B68     		ldr	r3, [r7, #4]
 238 014e 1A4A     		ldr	r2, .L17+44
 239 0150 9342     		cmp	r3, r2
 240 0152 08D1     		bne	.L15
 267:../Shared/Libraries/STM32F4xx_StdPeriph_Driver/src/stm32f4xx_tim.c ****     RCC_APB1PeriphResetCmd(RCC_APB1Periph_TIM13, DISABLE);  
 241              		.loc 1 267 5
 242 0154 0121     		movs	r1, #1
 243 0156 8020     		movs	r0, #128
 244 0158 FFF7FEFF 		bl	RCC_APB1PeriphResetCmd
 268:../Shared/Libraries/STM32F4xx_StdPeriph_Driver/src/stm32f4xx_tim.c ****   }  
 245              		.loc 1 268 5
 246 015c 0021     		movs	r1, #0
 247 015e 8020     		movs	r0, #128
 248 0160 FFF7FEFF 		bl	RCC_APB1PeriphResetCmd
 249              		.loc 1 278 1
 250 0164 0DE0     		b	.L16
 251              	.L15:
 272:../Shared/Libraries/STM32F4xx_StdPeriph_Driver/src/stm32f4xx_tim.c ****     {     
 252              		.loc 1 272 8
 253 0166 7B68     		ldr	r3, [r7, #4]
 254 0168 144A     		ldr	r2, .L17+48
 255 016a 9342     		cmp	r3, r2
 256 016c 09D1     		bne	.L16
ARM GAS  /tmp/cc2zcHeL.s 			page 11


 274:../Shared/Libraries/STM32F4xx_StdPeriph_Driver/src/stm32f4xx_tim.c ****       RCC_APB1PeriphResetCmd(RCC_APB1Periph_TIM14, DISABLE); 
 257              		.loc 1 274 7
 258 016e 0121     		movs	r1, #1
 259 0170 4FF48070 		mov	r0, #256
 260 0174 FFF7FEFF 		bl	RCC_APB1PeriphResetCmd
 275:../Shared/Libraries/STM32F4xx_StdPeriph_Driver/src/stm32f4xx_tim.c ****     }   
 261              		.loc 1 275 7
 262 0178 0021     		movs	r1, #0
 263 017a 4FF48070 		mov	r0, #256
 264 017e FFF7FEFF 		bl	RCC_APB1PeriphResetCmd
 265              	.L16:
 266              		.loc 1 278 1
 267 0182 00BF     		nop
 268 0184 0837     		adds	r7, r7, #8
 269              	.LCFI3:
 270              		.cfi_def_cfa_offset 8
 271 0186 BD46     		mov	sp, r7
 272              	.LCFI4:
 273              		.cfi_def_cfa_register 13
 274              		@ sp needed
 275 0188 80BD     		pop	{r7, pc}
 276              	.L18:
 277 018a 00BF     		.align	2
 278              	.L17:
 279 018c 00000140 		.word	1073807360
 280 0190 00040040 		.word	1073742848
 281 0194 00080040 		.word	1073743872
 282 0198 000C0040 		.word	1073744896
 283 019c 00100040 		.word	1073745920
 284 01a0 00140040 		.word	1073746944
 285 01a4 00040140 		.word	1073808384
 286 01a8 00400140 		.word	1073823744
 287 01ac 00440140 		.word	1073824768
 288 01b0 00480140 		.word	1073825792
 289 01b4 00180040 		.word	1073747968
 290 01b8 001C0040 		.word	1073748992
 291 01bc 00200040 		.word	1073750016
 292              		.cfi_endproc
 293              	.LFE110:
 295              		.section	.text.TIM_TimeBaseInit,"ax",%progbits
 296              		.align	1
 297              		.global	TIM_TimeBaseInit
 298              		.syntax unified
 299              		.thumb
 300              		.thumb_func
 302              	TIM_TimeBaseInit:
 303              	.LFB111:
 279:../Shared/Libraries/STM32F4xx_StdPeriph_Driver/src/stm32f4xx_tim.c **** 
 280:../Shared/Libraries/STM32F4xx_StdPeriph_Driver/src/stm32f4xx_tim.c **** /**
 281:../Shared/Libraries/STM32F4xx_StdPeriph_Driver/src/stm32f4xx_tim.c ****   * @brief  Initializes the TIMx Time Base Unit peripheral according to 
 282:../Shared/Libraries/STM32F4xx_StdPeriph_Driver/src/stm32f4xx_tim.c ****   *         the specified parameters in the TIM_TimeBaseInitStruct.
 283:../Shared/Libraries/STM32F4xx_StdPeriph_Driver/src/stm32f4xx_tim.c ****   * @param  TIMx: where x can be  1 to 14 to select the TIM peripheral.
 284:../Shared/Libraries/STM32F4xx_StdPeriph_Driver/src/stm32f4xx_tim.c ****   * @param  TIM_TimeBaseInitStruct: pointer to a TIM_TimeBaseInitTypeDef structure
 285:../Shared/Libraries/STM32F4xx_StdPeriph_Driver/src/stm32f4xx_tim.c ****   *         that contains the configuration information for the specified TIM peripheral.
 286:../Shared/Libraries/STM32F4xx_StdPeriph_Driver/src/stm32f4xx_tim.c ****   * @retval None
 287:../Shared/Libraries/STM32F4xx_StdPeriph_Driver/src/stm32f4xx_tim.c ****   */
 288:../Shared/Libraries/STM32F4xx_StdPeriph_Driver/src/stm32f4xx_tim.c **** void TIM_TimeBaseInit(TIM_TypeDef* TIMx, TIM_TimeBaseInitTypeDef* TIM_TimeBaseInitStruct)
ARM GAS  /tmp/cc2zcHeL.s 			page 12


 289:../Shared/Libraries/STM32F4xx_StdPeriph_Driver/src/stm32f4xx_tim.c **** {
 304              		.loc 1 289 1
 305              		.cfi_startproc
 306              		@ args = 0, pretend = 0, frame = 16
 307              		@ frame_needed = 1, uses_anonymous_args = 0
 308              		@ link register save eliminated.
 309 0000 80B4     		push	{r7}
 310              	.LCFI5:
 311              		.cfi_def_cfa_offset 4
 312              		.cfi_offset 7, -4
 313 0002 85B0     		sub	sp, sp, #20
 314              	.LCFI6:
 315              		.cfi_def_cfa_offset 24
 316 0004 00AF     		add	r7, sp, #0
 317              	.LCFI7:
 318              		.cfi_def_cfa_register 7
 319 0006 7860     		str	r0, [r7, #4]
 320 0008 3960     		str	r1, [r7]
 290:../Shared/Libraries/STM32F4xx_StdPeriph_Driver/src/stm32f4xx_tim.c ****   uint16_t tmpcr1 = 0;
 321              		.loc 1 290 12
 322 000a 0023     		movs	r3, #0
 323 000c FB81     		strh	r3, [r7, #14]	@ movhi
 291:../Shared/Libraries/STM32F4xx_StdPeriph_Driver/src/stm32f4xx_tim.c **** 
 292:../Shared/Libraries/STM32F4xx_StdPeriph_Driver/src/stm32f4xx_tim.c ****   /* Check the parameters */
 293:../Shared/Libraries/STM32F4xx_StdPeriph_Driver/src/stm32f4xx_tim.c ****   assert_param(IS_TIM_ALL_PERIPH(TIMx)); 
 294:../Shared/Libraries/STM32F4xx_StdPeriph_Driver/src/stm32f4xx_tim.c ****   assert_param(IS_TIM_COUNTER_MODE(TIM_TimeBaseInitStruct->TIM_CounterMode));
 295:../Shared/Libraries/STM32F4xx_StdPeriph_Driver/src/stm32f4xx_tim.c ****   assert_param(IS_TIM_CKD_DIV(TIM_TimeBaseInitStruct->TIM_ClockDivision));
 296:../Shared/Libraries/STM32F4xx_StdPeriph_Driver/src/stm32f4xx_tim.c **** 
 297:../Shared/Libraries/STM32F4xx_StdPeriph_Driver/src/stm32f4xx_tim.c ****   tmpcr1 = TIMx->CR1;  
 324              		.loc 1 297 10
 325 000e 7B68     		ldr	r3, [r7, #4]
 326 0010 1B88     		ldrh	r3, [r3]	@ movhi
 327 0012 FB81     		strh	r3, [r7, #14]	@ movhi
 298:../Shared/Libraries/STM32F4xx_StdPeriph_Driver/src/stm32f4xx_tim.c **** 
 299:../Shared/Libraries/STM32F4xx_StdPeriph_Driver/src/stm32f4xx_tim.c ****   if((TIMx == TIM1) || (TIMx == TIM8)||
 328              		.loc 1 299 5
 329 0014 7B68     		ldr	r3, [r7, #4]
 330 0016 294A     		ldr	r2, .L25
 331 0018 9342     		cmp	r3, r2
 332 001a 13D0     		beq	.L20
 333              		.loc 1 299 21 discriminator 1
 334 001c 7B68     		ldr	r3, [r7, #4]
 335 001e 284A     		ldr	r2, .L25+4
 336 0020 9342     		cmp	r3, r2
 337 0022 0FD0     		beq	.L20
 338              		.loc 1 299 38 discriminator 2
 339 0024 7B68     		ldr	r3, [r7, #4]
 340 0026 B3F1804F 		cmp	r3, #1073741824
 341 002a 0BD0     		beq	.L20
 300:../Shared/Libraries/STM32F4xx_StdPeriph_Driver/src/stm32f4xx_tim.c ****      (TIMx == TIM2) || (TIMx == TIM3)||
 342              		.loc 1 300 21
 343 002c 7B68     		ldr	r3, [r7, #4]
 344 002e 254A     		ldr	r2, .L25+8
 345 0030 9342     		cmp	r3, r2
 346 0032 07D0     		beq	.L20
 347              		.loc 1 300 38 discriminator 1
 348 0034 7B68     		ldr	r3, [r7, #4]
ARM GAS  /tmp/cc2zcHeL.s 			page 13


 349 0036 244A     		ldr	r2, .L25+12
 350 0038 9342     		cmp	r3, r2
 351 003a 03D0     		beq	.L20
 301:../Shared/Libraries/STM32F4xx_StdPeriph_Driver/src/stm32f4xx_tim.c ****      (TIMx == TIM4) || (TIMx == TIM5)) 
 352              		.loc 1 301 21
 353 003c 7B68     		ldr	r3, [r7, #4]
 354 003e 234A     		ldr	r2, .L25+16
 355 0040 9342     		cmp	r3, r2
 356 0042 08D1     		bne	.L21
 357              	.L20:
 302:../Shared/Libraries/STM32F4xx_StdPeriph_Driver/src/stm32f4xx_tim.c ****   {
 303:../Shared/Libraries/STM32F4xx_StdPeriph_Driver/src/stm32f4xx_tim.c ****     /* Select the Counter Mode */
 304:../Shared/Libraries/STM32F4xx_StdPeriph_Driver/src/stm32f4xx_tim.c ****     tmpcr1 &= (uint16_t)(~(TIM_CR1_DIR | TIM_CR1_CMS));
 358              		.loc 1 304 12
 359 0044 FB89     		ldrh	r3, [r7, #14]	@ movhi
 360 0046 23F07003 		bic	r3, r3, #112
 361 004a FB81     		strh	r3, [r7, #14]	@ movhi
 305:../Shared/Libraries/STM32F4xx_StdPeriph_Driver/src/stm32f4xx_tim.c ****     tmpcr1 |= (uint32_t)TIM_TimeBaseInitStruct->TIM_CounterMode;
 362              		.loc 1 305 47
 363 004c 3B68     		ldr	r3, [r7]
 364 004e 5A88     		ldrh	r2, [r3, #2]
 365              		.loc 1 305 12
 366 0050 FB89     		ldrh	r3, [r7, #14]	@ movhi
 367 0052 1343     		orrs	r3, r3, r2
 368 0054 FB81     		strh	r3, [r7, #14]	@ movhi
 369              	.L21:
 306:../Shared/Libraries/STM32F4xx_StdPeriph_Driver/src/stm32f4xx_tim.c ****   }
 307:../Shared/Libraries/STM32F4xx_StdPeriph_Driver/src/stm32f4xx_tim.c ****  
 308:../Shared/Libraries/STM32F4xx_StdPeriph_Driver/src/stm32f4xx_tim.c ****   if((TIMx != TIM6) && (TIMx != TIM7))
 370              		.loc 1 308 5
 371 0056 7B68     		ldr	r3, [r7, #4]
 372 0058 1D4A     		ldr	r2, .L25+20
 373 005a 9342     		cmp	r3, r2
 374 005c 0CD0     		beq	.L22
 375              		.loc 1 308 21 discriminator 1
 376 005e 7B68     		ldr	r3, [r7, #4]
 377 0060 1C4A     		ldr	r2, .L25+24
 378 0062 9342     		cmp	r3, r2
 379 0064 08D0     		beq	.L22
 309:../Shared/Libraries/STM32F4xx_StdPeriph_Driver/src/stm32f4xx_tim.c ****   {
 310:../Shared/Libraries/STM32F4xx_StdPeriph_Driver/src/stm32f4xx_tim.c ****     /* Set the clock division */
 311:../Shared/Libraries/STM32F4xx_StdPeriph_Driver/src/stm32f4xx_tim.c ****     tmpcr1 &=  (uint16_t)(~TIM_CR1_CKD);
 380              		.loc 1 311 12
 381 0066 FB89     		ldrh	r3, [r7, #14]	@ movhi
 382 0068 23F44073 		bic	r3, r3, #768
 383 006c FB81     		strh	r3, [r7, #14]	@ movhi
 312:../Shared/Libraries/STM32F4xx_StdPeriph_Driver/src/stm32f4xx_tim.c ****     tmpcr1 |= (uint32_t)TIM_TimeBaseInitStruct->TIM_ClockDivision;
 384              		.loc 1 312 47
 385 006e 3B68     		ldr	r3, [r7]
 386 0070 1A89     		ldrh	r2, [r3, #8]
 387              		.loc 1 312 12
 388 0072 FB89     		ldrh	r3, [r7, #14]	@ movhi
 389 0074 1343     		orrs	r3, r3, r2
 390 0076 FB81     		strh	r3, [r7, #14]	@ movhi
 391              	.L22:
 313:../Shared/Libraries/STM32F4xx_StdPeriph_Driver/src/stm32f4xx_tim.c ****   }
 314:../Shared/Libraries/STM32F4xx_StdPeriph_Driver/src/stm32f4xx_tim.c **** 
ARM GAS  /tmp/cc2zcHeL.s 			page 14


 315:../Shared/Libraries/STM32F4xx_StdPeriph_Driver/src/stm32f4xx_tim.c ****   TIMx->CR1 = tmpcr1;
 392              		.loc 1 315 13
 393 0078 7B68     		ldr	r3, [r7, #4]
 394 007a FA89     		ldrh	r2, [r7, #14]	@ movhi
 395 007c 1A80     		strh	r2, [r3]	@ movhi
 316:../Shared/Libraries/STM32F4xx_StdPeriph_Driver/src/stm32f4xx_tim.c **** 
 317:../Shared/Libraries/STM32F4xx_StdPeriph_Driver/src/stm32f4xx_tim.c ****   /* Set the Autoreload value */
 318:../Shared/Libraries/STM32F4xx_StdPeriph_Driver/src/stm32f4xx_tim.c ****   TIMx->ARR = TIM_TimeBaseInitStruct->TIM_Period ;
 396              		.loc 1 318 37
 397 007e 3B68     		ldr	r3, [r7]
 398 0080 5A68     		ldr	r2, [r3, #4]
 399              		.loc 1 318 13
 400 0082 7B68     		ldr	r3, [r7, #4]
 401 0084 DA62     		str	r2, [r3, #44]
 319:../Shared/Libraries/STM32F4xx_StdPeriph_Driver/src/stm32f4xx_tim.c ****  
 320:../Shared/Libraries/STM32F4xx_StdPeriph_Driver/src/stm32f4xx_tim.c ****   /* Set the Prescaler value */
 321:../Shared/Libraries/STM32F4xx_StdPeriph_Driver/src/stm32f4xx_tim.c ****   TIMx->PSC = TIM_TimeBaseInitStruct->TIM_Prescaler;
 402              		.loc 1 321 37
 403 0086 3B68     		ldr	r3, [r7]
 404 0088 1A88     		ldrh	r2, [r3]
 405              		.loc 1 321 13
 406 008a 7B68     		ldr	r3, [r7, #4]
 407 008c 1A85     		strh	r2, [r3, #40]	@ movhi
 322:../Shared/Libraries/STM32F4xx_StdPeriph_Driver/src/stm32f4xx_tim.c ****     
 323:../Shared/Libraries/STM32F4xx_StdPeriph_Driver/src/stm32f4xx_tim.c ****   if ((TIMx == TIM1) || (TIMx == TIM8))  
 408              		.loc 1 323 6
 409 008e 7B68     		ldr	r3, [r7, #4]
 410 0090 0A4A     		ldr	r2, .L25
 411 0092 9342     		cmp	r3, r2
 412 0094 03D0     		beq	.L23
 413              		.loc 1 323 22 discriminator 1
 414 0096 7B68     		ldr	r3, [r7, #4]
 415 0098 094A     		ldr	r2, .L25+4
 416 009a 9342     		cmp	r3, r2
 417 009c 04D1     		bne	.L24
 418              	.L23:
 324:../Shared/Libraries/STM32F4xx_StdPeriph_Driver/src/stm32f4xx_tim.c ****   {
 325:../Shared/Libraries/STM32F4xx_StdPeriph_Driver/src/stm32f4xx_tim.c ****     /* Set the Repetition Counter value */
 326:../Shared/Libraries/STM32F4xx_StdPeriph_Driver/src/stm32f4xx_tim.c ****     TIMx->RCR = TIM_TimeBaseInitStruct->TIM_RepetitionCounter;
 419              		.loc 1 326 39
 420 009e 3B68     		ldr	r3, [r7]
 421 00a0 9B7A     		ldrb	r3, [r3, #10]	@ zero_extendqisi2
 422 00a2 1A46     		mov	r2, r3
 423              		.loc 1 326 15
 424 00a4 7B68     		ldr	r3, [r7, #4]
 425 00a6 1A86     		strh	r2, [r3, #48]	@ movhi
 426              	.L24:
 327:../Shared/Libraries/STM32F4xx_StdPeriph_Driver/src/stm32f4xx_tim.c ****   }
 328:../Shared/Libraries/STM32F4xx_StdPeriph_Driver/src/stm32f4xx_tim.c **** 
 329:../Shared/Libraries/STM32F4xx_StdPeriph_Driver/src/stm32f4xx_tim.c ****   /* Generate an update event to reload the Prescaler 
 330:../Shared/Libraries/STM32F4xx_StdPeriph_Driver/src/stm32f4xx_tim.c ****      and the repetition counter(only for TIM1 and TIM8) value immediatly */
 331:../Shared/Libraries/STM32F4xx_StdPeriph_Driver/src/stm32f4xx_tim.c ****   TIMx->EGR = TIM_PSCReloadMode_Immediate;          
 427              		.loc 1 331 13
 428 00a8 7B68     		ldr	r3, [r7, #4]
 429 00aa 0122     		movs	r2, #1
 430 00ac 9A82     		strh	r2, [r3, #20]	@ movhi
 332:../Shared/Libraries/STM32F4xx_StdPeriph_Driver/src/stm32f4xx_tim.c **** }
ARM GAS  /tmp/cc2zcHeL.s 			page 15


 431              		.loc 1 332 1
 432 00ae 00BF     		nop
 433 00b0 1437     		adds	r7, r7, #20
 434              	.LCFI8:
 435              		.cfi_def_cfa_offset 4
 436 00b2 BD46     		mov	sp, r7
 437              	.LCFI9:
 438              		.cfi_def_cfa_register 13
 439              		@ sp needed
 440 00b4 5DF8047B 		ldr	r7, [sp], #4
 441              	.LCFI10:
 442              		.cfi_restore 7
 443              		.cfi_def_cfa_offset 0
 444 00b8 7047     		bx	lr
 445              	.L26:
 446 00ba 00BF     		.align	2
 447              	.L25:
 448 00bc 00000140 		.word	1073807360
 449 00c0 00040140 		.word	1073808384
 450 00c4 00040040 		.word	1073742848
 451 00c8 00080040 		.word	1073743872
 452 00cc 000C0040 		.word	1073744896
 453 00d0 00100040 		.word	1073745920
 454 00d4 00140040 		.word	1073746944
 455              		.cfi_endproc
 456              	.LFE111:
 458              		.section	.text.TIM_TimeBaseStructInit,"ax",%progbits
 459              		.align	1
 460              		.global	TIM_TimeBaseStructInit
 461              		.syntax unified
 462              		.thumb
 463              		.thumb_func
 465              	TIM_TimeBaseStructInit:
 466              	.LFB112:
 333:../Shared/Libraries/STM32F4xx_StdPeriph_Driver/src/stm32f4xx_tim.c **** 
 334:../Shared/Libraries/STM32F4xx_StdPeriph_Driver/src/stm32f4xx_tim.c **** /**
 335:../Shared/Libraries/STM32F4xx_StdPeriph_Driver/src/stm32f4xx_tim.c ****   * @brief  Fills each TIM_TimeBaseInitStruct member with its default value.
 336:../Shared/Libraries/STM32F4xx_StdPeriph_Driver/src/stm32f4xx_tim.c ****   * @param  TIM_TimeBaseInitStruct : pointer to a TIM_TimeBaseInitTypeDef
 337:../Shared/Libraries/STM32F4xx_StdPeriph_Driver/src/stm32f4xx_tim.c ****   *         structure which will be initialized.
 338:../Shared/Libraries/STM32F4xx_StdPeriph_Driver/src/stm32f4xx_tim.c ****   * @retval None
 339:../Shared/Libraries/STM32F4xx_StdPeriph_Driver/src/stm32f4xx_tim.c ****   */
 340:../Shared/Libraries/STM32F4xx_StdPeriph_Driver/src/stm32f4xx_tim.c **** void TIM_TimeBaseStructInit(TIM_TimeBaseInitTypeDef* TIM_TimeBaseInitStruct)
 341:../Shared/Libraries/STM32F4xx_StdPeriph_Driver/src/stm32f4xx_tim.c **** {
 467              		.loc 1 341 1
 468              		.cfi_startproc
 469              		@ args = 0, pretend = 0, frame = 8
 470              		@ frame_needed = 1, uses_anonymous_args = 0
 471              		@ link register save eliminated.
 472 0000 80B4     		push	{r7}
 473              	.LCFI11:
 474              		.cfi_def_cfa_offset 4
 475              		.cfi_offset 7, -4
 476 0002 83B0     		sub	sp, sp, #12
 477              	.LCFI12:
 478              		.cfi_def_cfa_offset 16
 479 0004 00AF     		add	r7, sp, #0
 480              	.LCFI13:
ARM GAS  /tmp/cc2zcHeL.s 			page 16


 481              		.cfi_def_cfa_register 7
 482 0006 7860     		str	r0, [r7, #4]
 342:../Shared/Libraries/STM32F4xx_StdPeriph_Driver/src/stm32f4xx_tim.c ****   /* Set the default configuration */
 343:../Shared/Libraries/STM32F4xx_StdPeriph_Driver/src/stm32f4xx_tim.c ****   TIM_TimeBaseInitStruct->TIM_Period = 0xFFFFFFFF;
 483              		.loc 1 343 38
 484 0008 7B68     		ldr	r3, [r7, #4]
 485 000a 4FF0FF32 		mov	r2, #-1
 486 000e 5A60     		str	r2, [r3, #4]
 344:../Shared/Libraries/STM32F4xx_StdPeriph_Driver/src/stm32f4xx_tim.c ****   TIM_TimeBaseInitStruct->TIM_Prescaler = 0x0000;
 487              		.loc 1 344 41
 488 0010 7B68     		ldr	r3, [r7, #4]
 489 0012 0022     		movs	r2, #0
 490 0014 1A80     		strh	r2, [r3]	@ movhi
 345:../Shared/Libraries/STM32F4xx_StdPeriph_Driver/src/stm32f4xx_tim.c ****   TIM_TimeBaseInitStruct->TIM_ClockDivision = TIM_CKD_DIV1;
 491              		.loc 1 345 45
 492 0016 7B68     		ldr	r3, [r7, #4]
 493 0018 0022     		movs	r2, #0
 494 001a 1A81     		strh	r2, [r3, #8]	@ movhi
 346:../Shared/Libraries/STM32F4xx_StdPeriph_Driver/src/stm32f4xx_tim.c ****   TIM_TimeBaseInitStruct->TIM_CounterMode = TIM_CounterMode_Up;
 495              		.loc 1 346 43
 496 001c 7B68     		ldr	r3, [r7, #4]
 497 001e 0022     		movs	r2, #0
 498 0020 5A80     		strh	r2, [r3, #2]	@ movhi
 347:../Shared/Libraries/STM32F4xx_StdPeriph_Driver/src/stm32f4xx_tim.c ****   TIM_TimeBaseInitStruct->TIM_RepetitionCounter = 0x0000;
 499              		.loc 1 347 49
 500 0022 7B68     		ldr	r3, [r7, #4]
 501 0024 0022     		movs	r2, #0
 502 0026 9A72     		strb	r2, [r3, #10]
 348:../Shared/Libraries/STM32F4xx_StdPeriph_Driver/src/stm32f4xx_tim.c **** }
 503              		.loc 1 348 1
 504 0028 00BF     		nop
 505 002a 0C37     		adds	r7, r7, #12
 506              	.LCFI14:
 507              		.cfi_def_cfa_offset 4
 508 002c BD46     		mov	sp, r7
 509              	.LCFI15:
 510              		.cfi_def_cfa_register 13
 511              		@ sp needed
 512 002e 5DF8047B 		ldr	r7, [sp], #4
 513              	.LCFI16:
 514              		.cfi_restore 7
 515              		.cfi_def_cfa_offset 0
 516 0032 7047     		bx	lr
 517              		.cfi_endproc
 518              	.LFE112:
 520              		.section	.text.TIM_PrescalerConfig,"ax",%progbits
 521              		.align	1
 522              		.global	TIM_PrescalerConfig
 523              		.syntax unified
 524              		.thumb
 525              		.thumb_func
 527              	TIM_PrescalerConfig:
 528              	.LFB113:
 349:../Shared/Libraries/STM32F4xx_StdPeriph_Driver/src/stm32f4xx_tim.c **** 
 350:../Shared/Libraries/STM32F4xx_StdPeriph_Driver/src/stm32f4xx_tim.c **** /**
 351:../Shared/Libraries/STM32F4xx_StdPeriph_Driver/src/stm32f4xx_tim.c ****   * @brief  Configures the TIMx Prescaler.
 352:../Shared/Libraries/STM32F4xx_StdPeriph_Driver/src/stm32f4xx_tim.c ****   * @param  TIMx: where x can be  1 to 14 to select the TIM peripheral.
ARM GAS  /tmp/cc2zcHeL.s 			page 17


 353:../Shared/Libraries/STM32F4xx_StdPeriph_Driver/src/stm32f4xx_tim.c ****   * @param  Prescaler: specifies the Prescaler Register value
 354:../Shared/Libraries/STM32F4xx_StdPeriph_Driver/src/stm32f4xx_tim.c ****   * @param  TIM_PSCReloadMode: specifies the TIM Prescaler Reload mode
 355:../Shared/Libraries/STM32F4xx_StdPeriph_Driver/src/stm32f4xx_tim.c ****   *          This parameter can be one of the following values:
 356:../Shared/Libraries/STM32F4xx_StdPeriph_Driver/src/stm32f4xx_tim.c ****   *            @arg TIM_PSCReloadMode_Update: The Prescaler is loaded at the update event.
 357:../Shared/Libraries/STM32F4xx_StdPeriph_Driver/src/stm32f4xx_tim.c ****   *            @arg TIM_PSCReloadMode_Immediate: The Prescaler is loaded immediatly.
 358:../Shared/Libraries/STM32F4xx_StdPeriph_Driver/src/stm32f4xx_tim.c ****   * @retval None
 359:../Shared/Libraries/STM32F4xx_StdPeriph_Driver/src/stm32f4xx_tim.c ****   */
 360:../Shared/Libraries/STM32F4xx_StdPeriph_Driver/src/stm32f4xx_tim.c **** void TIM_PrescalerConfig(TIM_TypeDef* TIMx, uint16_t Prescaler, uint16_t TIM_PSCReloadMode)
 361:../Shared/Libraries/STM32F4xx_StdPeriph_Driver/src/stm32f4xx_tim.c **** {
 529              		.loc 1 361 1
 530              		.cfi_startproc
 531              		@ args = 0, pretend = 0, frame = 8
 532              		@ frame_needed = 1, uses_anonymous_args = 0
 533              		@ link register save eliminated.
 534 0000 80B4     		push	{r7}
 535              	.LCFI17:
 536              		.cfi_def_cfa_offset 4
 537              		.cfi_offset 7, -4
 538 0002 83B0     		sub	sp, sp, #12
 539              	.LCFI18:
 540              		.cfi_def_cfa_offset 16
 541 0004 00AF     		add	r7, sp, #0
 542              	.LCFI19:
 543              		.cfi_def_cfa_register 7
 544 0006 7860     		str	r0, [r7, #4]
 545 0008 0B46     		mov	r3, r1
 546 000a 7B80     		strh	r3, [r7, #2]	@ movhi
 547 000c 1346     		mov	r3, r2	@ movhi
 548 000e 3B80     		strh	r3, [r7]	@ movhi
 362:../Shared/Libraries/STM32F4xx_StdPeriph_Driver/src/stm32f4xx_tim.c ****   /* Check the parameters */
 363:../Shared/Libraries/STM32F4xx_StdPeriph_Driver/src/stm32f4xx_tim.c ****   assert_param(IS_TIM_ALL_PERIPH(TIMx));
 364:../Shared/Libraries/STM32F4xx_StdPeriph_Driver/src/stm32f4xx_tim.c ****   assert_param(IS_TIM_PRESCALER_RELOAD(TIM_PSCReloadMode));
 365:../Shared/Libraries/STM32F4xx_StdPeriph_Driver/src/stm32f4xx_tim.c ****   /* Set the Prescaler value */
 366:../Shared/Libraries/STM32F4xx_StdPeriph_Driver/src/stm32f4xx_tim.c ****   TIMx->PSC = Prescaler;
 549              		.loc 1 366 13
 550 0010 7B68     		ldr	r3, [r7, #4]
 551 0012 7A88     		ldrh	r2, [r7, #2]	@ movhi
 552 0014 1A85     		strh	r2, [r3, #40]	@ movhi
 367:../Shared/Libraries/STM32F4xx_StdPeriph_Driver/src/stm32f4xx_tim.c ****   /* Set or reset the UG Bit */
 368:../Shared/Libraries/STM32F4xx_StdPeriph_Driver/src/stm32f4xx_tim.c ****   TIMx->EGR = TIM_PSCReloadMode;
 553              		.loc 1 368 13
 554 0016 7B68     		ldr	r3, [r7, #4]
 555 0018 3A88     		ldrh	r2, [r7]	@ movhi
 556 001a 9A82     		strh	r2, [r3, #20]	@ movhi
 369:../Shared/Libraries/STM32F4xx_StdPeriph_Driver/src/stm32f4xx_tim.c **** }
 557              		.loc 1 369 1
 558 001c 00BF     		nop
 559 001e 0C37     		adds	r7, r7, #12
 560              	.LCFI20:
 561              		.cfi_def_cfa_offset 4
 562 0020 BD46     		mov	sp, r7
 563              	.LCFI21:
 564              		.cfi_def_cfa_register 13
 565              		@ sp needed
 566 0022 5DF8047B 		ldr	r7, [sp], #4
 567              	.LCFI22:
 568              		.cfi_restore 7
ARM GAS  /tmp/cc2zcHeL.s 			page 18


 569              		.cfi_def_cfa_offset 0
 570 0026 7047     		bx	lr
 571              		.cfi_endproc
 572              	.LFE113:
 574              		.section	.text.TIM_CounterModeConfig,"ax",%progbits
 575              		.align	1
 576              		.global	TIM_CounterModeConfig
 577              		.syntax unified
 578              		.thumb
 579              		.thumb_func
 581              	TIM_CounterModeConfig:
 582              	.LFB114:
 370:../Shared/Libraries/STM32F4xx_StdPeriph_Driver/src/stm32f4xx_tim.c **** 
 371:../Shared/Libraries/STM32F4xx_StdPeriph_Driver/src/stm32f4xx_tim.c **** /**
 372:../Shared/Libraries/STM32F4xx_StdPeriph_Driver/src/stm32f4xx_tim.c ****   * @brief  Specifies the TIMx Counter Mode to be used.
 373:../Shared/Libraries/STM32F4xx_StdPeriph_Driver/src/stm32f4xx_tim.c ****   * @param  TIMx: where x can be  1, 2, 3, 4, 5 or 8 to select the TIM peripheral.
 374:../Shared/Libraries/STM32F4xx_StdPeriph_Driver/src/stm32f4xx_tim.c ****   * @param  TIM_CounterMode: specifies the Counter Mode to be used
 375:../Shared/Libraries/STM32F4xx_StdPeriph_Driver/src/stm32f4xx_tim.c ****   *          This parameter can be one of the following values:
 376:../Shared/Libraries/STM32F4xx_StdPeriph_Driver/src/stm32f4xx_tim.c ****   *            @arg TIM_CounterMode_Up: TIM Up Counting Mode
 377:../Shared/Libraries/STM32F4xx_StdPeriph_Driver/src/stm32f4xx_tim.c ****   *            @arg TIM_CounterMode_Down: TIM Down Counting Mode
 378:../Shared/Libraries/STM32F4xx_StdPeriph_Driver/src/stm32f4xx_tim.c ****   *            @arg TIM_CounterMode_CenterAligned1: TIM Center Aligned Mode1
 379:../Shared/Libraries/STM32F4xx_StdPeriph_Driver/src/stm32f4xx_tim.c ****   *            @arg TIM_CounterMode_CenterAligned2: TIM Center Aligned Mode2
 380:../Shared/Libraries/STM32F4xx_StdPeriph_Driver/src/stm32f4xx_tim.c ****   *            @arg TIM_CounterMode_CenterAligned3: TIM Center Aligned Mode3
 381:../Shared/Libraries/STM32F4xx_StdPeriph_Driver/src/stm32f4xx_tim.c ****   * @retval None
 382:../Shared/Libraries/STM32F4xx_StdPeriph_Driver/src/stm32f4xx_tim.c ****   */
 383:../Shared/Libraries/STM32F4xx_StdPeriph_Driver/src/stm32f4xx_tim.c **** void TIM_CounterModeConfig(TIM_TypeDef* TIMx, uint16_t TIM_CounterMode)
 384:../Shared/Libraries/STM32F4xx_StdPeriph_Driver/src/stm32f4xx_tim.c **** {
 583              		.loc 1 384 1
 584              		.cfi_startproc
 585              		@ args = 0, pretend = 0, frame = 16
 586              		@ frame_needed = 1, uses_anonymous_args = 0
 587              		@ link register save eliminated.
 588 0000 80B4     		push	{r7}
 589              	.LCFI23:
 590              		.cfi_def_cfa_offset 4
 591              		.cfi_offset 7, -4
 592 0002 85B0     		sub	sp, sp, #20
 593              	.LCFI24:
 594              		.cfi_def_cfa_offset 24
 595 0004 00AF     		add	r7, sp, #0
 596              	.LCFI25:
 597              		.cfi_def_cfa_register 7
 598 0006 7860     		str	r0, [r7, #4]
 599 0008 0B46     		mov	r3, r1
 600 000a 7B80     		strh	r3, [r7, #2]	@ movhi
 385:../Shared/Libraries/STM32F4xx_StdPeriph_Driver/src/stm32f4xx_tim.c ****   uint16_t tmpcr1 = 0;
 601              		.loc 1 385 12
 602 000c 0023     		movs	r3, #0
 603 000e FB81     		strh	r3, [r7, #14]	@ movhi
 386:../Shared/Libraries/STM32F4xx_StdPeriph_Driver/src/stm32f4xx_tim.c **** 
 387:../Shared/Libraries/STM32F4xx_StdPeriph_Driver/src/stm32f4xx_tim.c ****   /* Check the parameters */
 388:../Shared/Libraries/STM32F4xx_StdPeriph_Driver/src/stm32f4xx_tim.c ****   assert_param(IS_TIM_LIST3_PERIPH(TIMx));
 389:../Shared/Libraries/STM32F4xx_StdPeriph_Driver/src/stm32f4xx_tim.c ****   assert_param(IS_TIM_COUNTER_MODE(TIM_CounterMode));
 390:../Shared/Libraries/STM32F4xx_StdPeriph_Driver/src/stm32f4xx_tim.c **** 
 391:../Shared/Libraries/STM32F4xx_StdPeriph_Driver/src/stm32f4xx_tim.c ****   tmpcr1 = TIMx->CR1;
 604              		.loc 1 391 10
 605 0010 7B68     		ldr	r3, [r7, #4]
ARM GAS  /tmp/cc2zcHeL.s 			page 19


 606 0012 1B88     		ldrh	r3, [r3]	@ movhi
 607 0014 FB81     		strh	r3, [r7, #14]	@ movhi
 392:../Shared/Libraries/STM32F4xx_StdPeriph_Driver/src/stm32f4xx_tim.c **** 
 393:../Shared/Libraries/STM32F4xx_StdPeriph_Driver/src/stm32f4xx_tim.c ****   /* Reset the CMS and DIR Bits */
 394:../Shared/Libraries/STM32F4xx_StdPeriph_Driver/src/stm32f4xx_tim.c ****   tmpcr1 &= (uint16_t)~(TIM_CR1_DIR | TIM_CR1_CMS);
 608              		.loc 1 394 10
 609 0016 FB89     		ldrh	r3, [r7, #14]	@ movhi
 610 0018 23F07003 		bic	r3, r3, #112
 611 001c FB81     		strh	r3, [r7, #14]	@ movhi
 395:../Shared/Libraries/STM32F4xx_StdPeriph_Driver/src/stm32f4xx_tim.c **** 
 396:../Shared/Libraries/STM32F4xx_StdPeriph_Driver/src/stm32f4xx_tim.c ****   /* Set the Counter Mode */
 397:../Shared/Libraries/STM32F4xx_StdPeriph_Driver/src/stm32f4xx_tim.c ****   tmpcr1 |= TIM_CounterMode;
 612              		.loc 1 397 10
 613 001e FA89     		ldrh	r2, [r7, #14]	@ movhi
 614 0020 7B88     		ldrh	r3, [r7, #2]	@ movhi
 615 0022 1343     		orrs	r3, r3, r2
 616 0024 FB81     		strh	r3, [r7, #14]	@ movhi
 398:../Shared/Libraries/STM32F4xx_StdPeriph_Driver/src/stm32f4xx_tim.c **** 
 399:../Shared/Libraries/STM32F4xx_StdPeriph_Driver/src/stm32f4xx_tim.c ****   /* Write to TIMx CR1 register */
 400:../Shared/Libraries/STM32F4xx_StdPeriph_Driver/src/stm32f4xx_tim.c ****   TIMx->CR1 = tmpcr1;
 617              		.loc 1 400 13
 618 0026 7B68     		ldr	r3, [r7, #4]
 619 0028 FA89     		ldrh	r2, [r7, #14]	@ movhi
 620 002a 1A80     		strh	r2, [r3]	@ movhi
 401:../Shared/Libraries/STM32F4xx_StdPeriph_Driver/src/stm32f4xx_tim.c **** }
 621              		.loc 1 401 1
 622 002c 00BF     		nop
 623 002e 1437     		adds	r7, r7, #20
 624              	.LCFI26:
 625              		.cfi_def_cfa_offset 4
 626 0030 BD46     		mov	sp, r7
 627              	.LCFI27:
 628              		.cfi_def_cfa_register 13
 629              		@ sp needed
 630 0032 5DF8047B 		ldr	r7, [sp], #4
 631              	.LCFI28:
 632              		.cfi_restore 7
 633              		.cfi_def_cfa_offset 0
 634 0036 7047     		bx	lr
 635              		.cfi_endproc
 636              	.LFE114:
 638              		.section	.text.TIM_SetCounter,"ax",%progbits
 639              		.align	1
 640              		.global	TIM_SetCounter
 641              		.syntax unified
 642              		.thumb
 643              		.thumb_func
 645              	TIM_SetCounter:
 646              	.LFB115:
 402:../Shared/Libraries/STM32F4xx_StdPeriph_Driver/src/stm32f4xx_tim.c **** 
 403:../Shared/Libraries/STM32F4xx_StdPeriph_Driver/src/stm32f4xx_tim.c **** /**
 404:../Shared/Libraries/STM32F4xx_StdPeriph_Driver/src/stm32f4xx_tim.c ****   * @brief  Sets the TIMx Counter Register value
 405:../Shared/Libraries/STM32F4xx_StdPeriph_Driver/src/stm32f4xx_tim.c ****   * @param  TIMx: where x can be 1 to 14 to select the TIM peripheral.
 406:../Shared/Libraries/STM32F4xx_StdPeriph_Driver/src/stm32f4xx_tim.c ****   * @param  Counter: specifies the Counter register new value.
 407:../Shared/Libraries/STM32F4xx_StdPeriph_Driver/src/stm32f4xx_tim.c ****   * @retval None
 408:../Shared/Libraries/STM32F4xx_StdPeriph_Driver/src/stm32f4xx_tim.c ****   */
 409:../Shared/Libraries/STM32F4xx_StdPeriph_Driver/src/stm32f4xx_tim.c **** void TIM_SetCounter(TIM_TypeDef* TIMx, uint32_t Counter)
ARM GAS  /tmp/cc2zcHeL.s 			page 20


 410:../Shared/Libraries/STM32F4xx_StdPeriph_Driver/src/stm32f4xx_tim.c **** {
 647              		.loc 1 410 1
 648              		.cfi_startproc
 649              		@ args = 0, pretend = 0, frame = 8
 650              		@ frame_needed = 1, uses_anonymous_args = 0
 651              		@ link register save eliminated.
 652 0000 80B4     		push	{r7}
 653              	.LCFI29:
 654              		.cfi_def_cfa_offset 4
 655              		.cfi_offset 7, -4
 656 0002 83B0     		sub	sp, sp, #12
 657              	.LCFI30:
 658              		.cfi_def_cfa_offset 16
 659 0004 00AF     		add	r7, sp, #0
 660              	.LCFI31:
 661              		.cfi_def_cfa_register 7
 662 0006 7860     		str	r0, [r7, #4]
 663 0008 3960     		str	r1, [r7]
 411:../Shared/Libraries/STM32F4xx_StdPeriph_Driver/src/stm32f4xx_tim.c ****   /* Check the parameters */
 412:../Shared/Libraries/STM32F4xx_StdPeriph_Driver/src/stm32f4xx_tim.c ****    assert_param(IS_TIM_ALL_PERIPH(TIMx));
 413:../Shared/Libraries/STM32F4xx_StdPeriph_Driver/src/stm32f4xx_tim.c **** 
 414:../Shared/Libraries/STM32F4xx_StdPeriph_Driver/src/stm32f4xx_tim.c ****   /* Set the Counter Register value */
 415:../Shared/Libraries/STM32F4xx_StdPeriph_Driver/src/stm32f4xx_tim.c ****   TIMx->CNT = Counter;
 664              		.loc 1 415 13
 665 000a 7B68     		ldr	r3, [r7, #4]
 666 000c 3A68     		ldr	r2, [r7]
 667 000e 5A62     		str	r2, [r3, #36]
 416:../Shared/Libraries/STM32F4xx_StdPeriph_Driver/src/stm32f4xx_tim.c **** }
 668              		.loc 1 416 1
 669 0010 00BF     		nop
 670 0012 0C37     		adds	r7, r7, #12
 671              	.LCFI32:
 672              		.cfi_def_cfa_offset 4
 673 0014 BD46     		mov	sp, r7
 674              	.LCFI33:
 675              		.cfi_def_cfa_register 13
 676              		@ sp needed
 677 0016 5DF8047B 		ldr	r7, [sp], #4
 678              	.LCFI34:
 679              		.cfi_restore 7
 680              		.cfi_def_cfa_offset 0
 681 001a 7047     		bx	lr
 682              		.cfi_endproc
 683              	.LFE115:
 685              		.section	.text.TIM_SetAutoreload,"ax",%progbits
 686              		.align	1
 687              		.global	TIM_SetAutoreload
 688              		.syntax unified
 689              		.thumb
 690              		.thumb_func
 692              	TIM_SetAutoreload:
 693              	.LFB116:
 417:../Shared/Libraries/STM32F4xx_StdPeriph_Driver/src/stm32f4xx_tim.c **** 
 418:../Shared/Libraries/STM32F4xx_StdPeriph_Driver/src/stm32f4xx_tim.c **** /**
 419:../Shared/Libraries/STM32F4xx_StdPeriph_Driver/src/stm32f4xx_tim.c ****   * @brief  Sets the TIMx Autoreload Register value
 420:../Shared/Libraries/STM32F4xx_StdPeriph_Driver/src/stm32f4xx_tim.c ****   * @param  TIMx: where x can be 1 to 14 to select the TIM peripheral.
 421:../Shared/Libraries/STM32F4xx_StdPeriph_Driver/src/stm32f4xx_tim.c ****   * @param  Autoreload: specifies the Autoreload register new value.
ARM GAS  /tmp/cc2zcHeL.s 			page 21


 422:../Shared/Libraries/STM32F4xx_StdPeriph_Driver/src/stm32f4xx_tim.c ****   * @retval None
 423:../Shared/Libraries/STM32F4xx_StdPeriph_Driver/src/stm32f4xx_tim.c ****   */
 424:../Shared/Libraries/STM32F4xx_StdPeriph_Driver/src/stm32f4xx_tim.c **** void TIM_SetAutoreload(TIM_TypeDef* TIMx, uint32_t Autoreload)
 425:../Shared/Libraries/STM32F4xx_StdPeriph_Driver/src/stm32f4xx_tim.c **** {
 694              		.loc 1 425 1
 695              		.cfi_startproc
 696              		@ args = 0, pretend = 0, frame = 8
 697              		@ frame_needed = 1, uses_anonymous_args = 0
 698              		@ link register save eliminated.
 699 0000 80B4     		push	{r7}
 700              	.LCFI35:
 701              		.cfi_def_cfa_offset 4
 702              		.cfi_offset 7, -4
 703 0002 83B0     		sub	sp, sp, #12
 704              	.LCFI36:
 705              		.cfi_def_cfa_offset 16
 706 0004 00AF     		add	r7, sp, #0
 707              	.LCFI37:
 708              		.cfi_def_cfa_register 7
 709 0006 7860     		str	r0, [r7, #4]
 710 0008 3960     		str	r1, [r7]
 426:../Shared/Libraries/STM32F4xx_StdPeriph_Driver/src/stm32f4xx_tim.c ****   /* Check the parameters */
 427:../Shared/Libraries/STM32F4xx_StdPeriph_Driver/src/stm32f4xx_tim.c ****   assert_param(IS_TIM_ALL_PERIPH(TIMx));
 428:../Shared/Libraries/STM32F4xx_StdPeriph_Driver/src/stm32f4xx_tim.c ****   
 429:../Shared/Libraries/STM32F4xx_StdPeriph_Driver/src/stm32f4xx_tim.c ****   /* Set the Autoreload Register value */
 430:../Shared/Libraries/STM32F4xx_StdPeriph_Driver/src/stm32f4xx_tim.c ****   TIMx->ARR = Autoreload;
 711              		.loc 1 430 13
 712 000a 7B68     		ldr	r3, [r7, #4]
 713 000c 3A68     		ldr	r2, [r7]
 714 000e DA62     		str	r2, [r3, #44]
 431:../Shared/Libraries/STM32F4xx_StdPeriph_Driver/src/stm32f4xx_tim.c **** }
 715              		.loc 1 431 1
 716 0010 00BF     		nop
 717 0012 0C37     		adds	r7, r7, #12
 718              	.LCFI38:
 719              		.cfi_def_cfa_offset 4
 720 0014 BD46     		mov	sp, r7
 721              	.LCFI39:
 722              		.cfi_def_cfa_register 13
 723              		@ sp needed
 724 0016 5DF8047B 		ldr	r7, [sp], #4
 725              	.LCFI40:
 726              		.cfi_restore 7
 727              		.cfi_def_cfa_offset 0
 728 001a 7047     		bx	lr
 729              		.cfi_endproc
 730              	.LFE116:
 732              		.section	.text.TIM_GetCounter,"ax",%progbits
 733              		.align	1
 734              		.global	TIM_GetCounter
 735              		.syntax unified
 736              		.thumb
 737              		.thumb_func
 739              	TIM_GetCounter:
 740              	.LFB117:
 432:../Shared/Libraries/STM32F4xx_StdPeriph_Driver/src/stm32f4xx_tim.c **** 
 433:../Shared/Libraries/STM32F4xx_StdPeriph_Driver/src/stm32f4xx_tim.c **** /**
ARM GAS  /tmp/cc2zcHeL.s 			page 22


 434:../Shared/Libraries/STM32F4xx_StdPeriph_Driver/src/stm32f4xx_tim.c ****   * @brief  Gets the TIMx Counter value.
 435:../Shared/Libraries/STM32F4xx_StdPeriph_Driver/src/stm32f4xx_tim.c ****   * @param  TIMx: where x can be 1 to 14 to select the TIM peripheral.
 436:../Shared/Libraries/STM32F4xx_StdPeriph_Driver/src/stm32f4xx_tim.c ****   * @retval Counter Register value
 437:../Shared/Libraries/STM32F4xx_StdPeriph_Driver/src/stm32f4xx_tim.c ****   */
 438:../Shared/Libraries/STM32F4xx_StdPeriph_Driver/src/stm32f4xx_tim.c **** uint32_t TIM_GetCounter(TIM_TypeDef* TIMx)
 439:../Shared/Libraries/STM32F4xx_StdPeriph_Driver/src/stm32f4xx_tim.c **** {
 741              		.loc 1 439 1
 742              		.cfi_startproc
 743              		@ args = 0, pretend = 0, frame = 8
 744              		@ frame_needed = 1, uses_anonymous_args = 0
 745              		@ link register save eliminated.
 746 0000 80B4     		push	{r7}
 747              	.LCFI41:
 748              		.cfi_def_cfa_offset 4
 749              		.cfi_offset 7, -4
 750 0002 83B0     		sub	sp, sp, #12
 751              	.LCFI42:
 752              		.cfi_def_cfa_offset 16
 753 0004 00AF     		add	r7, sp, #0
 754              	.LCFI43:
 755              		.cfi_def_cfa_register 7
 756 0006 7860     		str	r0, [r7, #4]
 440:../Shared/Libraries/STM32F4xx_StdPeriph_Driver/src/stm32f4xx_tim.c ****   /* Check the parameters */
 441:../Shared/Libraries/STM32F4xx_StdPeriph_Driver/src/stm32f4xx_tim.c ****   assert_param(IS_TIM_ALL_PERIPH(TIMx));
 442:../Shared/Libraries/STM32F4xx_StdPeriph_Driver/src/stm32f4xx_tim.c **** 
 443:../Shared/Libraries/STM32F4xx_StdPeriph_Driver/src/stm32f4xx_tim.c ****   /* Get the Counter Register value */
 444:../Shared/Libraries/STM32F4xx_StdPeriph_Driver/src/stm32f4xx_tim.c ****   return TIMx->CNT;
 757              		.loc 1 444 14
 758 0008 7B68     		ldr	r3, [r7, #4]
 759 000a 5B6A     		ldr	r3, [r3, #36]
 445:../Shared/Libraries/STM32F4xx_StdPeriph_Driver/src/stm32f4xx_tim.c **** }
 760              		.loc 1 445 1
 761 000c 1846     		mov	r0, r3
 762 000e 0C37     		adds	r7, r7, #12
 763              	.LCFI44:
 764              		.cfi_def_cfa_offset 4
 765 0010 BD46     		mov	sp, r7
 766              	.LCFI45:
 767              		.cfi_def_cfa_register 13
 768              		@ sp needed
 769 0012 5DF8047B 		ldr	r7, [sp], #4
 770              	.LCFI46:
 771              		.cfi_restore 7
 772              		.cfi_def_cfa_offset 0
 773 0016 7047     		bx	lr
 774              		.cfi_endproc
 775              	.LFE117:
 777              		.section	.text.TIM_GetPrescaler,"ax",%progbits
 778              		.align	1
 779              		.global	TIM_GetPrescaler
 780              		.syntax unified
 781              		.thumb
 782              		.thumb_func
 784              	TIM_GetPrescaler:
 785              	.LFB118:
 446:../Shared/Libraries/STM32F4xx_StdPeriph_Driver/src/stm32f4xx_tim.c **** 
 447:../Shared/Libraries/STM32F4xx_StdPeriph_Driver/src/stm32f4xx_tim.c **** /**
ARM GAS  /tmp/cc2zcHeL.s 			page 23


 448:../Shared/Libraries/STM32F4xx_StdPeriph_Driver/src/stm32f4xx_tim.c ****   * @brief  Gets the TIMx Prescaler value.
 449:../Shared/Libraries/STM32F4xx_StdPeriph_Driver/src/stm32f4xx_tim.c ****   * @param  TIMx: where x can be 1 to 14 to select the TIM peripheral.
 450:../Shared/Libraries/STM32F4xx_StdPeriph_Driver/src/stm32f4xx_tim.c ****   * @retval Prescaler Register value.
 451:../Shared/Libraries/STM32F4xx_StdPeriph_Driver/src/stm32f4xx_tim.c ****   */
 452:../Shared/Libraries/STM32F4xx_StdPeriph_Driver/src/stm32f4xx_tim.c **** uint16_t TIM_GetPrescaler(TIM_TypeDef* TIMx)
 453:../Shared/Libraries/STM32F4xx_StdPeriph_Driver/src/stm32f4xx_tim.c **** {
 786              		.loc 1 453 1
 787              		.cfi_startproc
 788              		@ args = 0, pretend = 0, frame = 8
 789              		@ frame_needed = 1, uses_anonymous_args = 0
 790              		@ link register save eliminated.
 791 0000 80B4     		push	{r7}
 792              	.LCFI47:
 793              		.cfi_def_cfa_offset 4
 794              		.cfi_offset 7, -4
 795 0002 83B0     		sub	sp, sp, #12
 796              	.LCFI48:
 797              		.cfi_def_cfa_offset 16
 798 0004 00AF     		add	r7, sp, #0
 799              	.LCFI49:
 800              		.cfi_def_cfa_register 7
 801 0006 7860     		str	r0, [r7, #4]
 454:../Shared/Libraries/STM32F4xx_StdPeriph_Driver/src/stm32f4xx_tim.c ****   /* Check the parameters */
 455:../Shared/Libraries/STM32F4xx_StdPeriph_Driver/src/stm32f4xx_tim.c ****   assert_param(IS_TIM_ALL_PERIPH(TIMx));
 456:../Shared/Libraries/STM32F4xx_StdPeriph_Driver/src/stm32f4xx_tim.c **** 
 457:../Shared/Libraries/STM32F4xx_StdPeriph_Driver/src/stm32f4xx_tim.c ****   /* Get the Prescaler Register value */
 458:../Shared/Libraries/STM32F4xx_StdPeriph_Driver/src/stm32f4xx_tim.c ****   return TIMx->PSC;
 802              		.loc 1 458 14
 803 0008 7B68     		ldr	r3, [r7, #4]
 804 000a 1B8D     		ldrh	r3, [r3, #40]	@ movhi
 805 000c 9BB2     		uxth	r3, r3
 459:../Shared/Libraries/STM32F4xx_StdPeriph_Driver/src/stm32f4xx_tim.c **** }
 806              		.loc 1 459 1
 807 000e 1846     		mov	r0, r3
 808 0010 0C37     		adds	r7, r7, #12
 809              	.LCFI50:
 810              		.cfi_def_cfa_offset 4
 811 0012 BD46     		mov	sp, r7
 812              	.LCFI51:
 813              		.cfi_def_cfa_register 13
 814              		@ sp needed
 815 0014 5DF8047B 		ldr	r7, [sp], #4
 816              	.LCFI52:
 817              		.cfi_restore 7
 818              		.cfi_def_cfa_offset 0
 819 0018 7047     		bx	lr
 820              		.cfi_endproc
 821              	.LFE118:
 823              		.section	.text.TIM_UpdateDisableConfig,"ax",%progbits
 824              		.align	1
 825              		.global	TIM_UpdateDisableConfig
 826              		.syntax unified
 827              		.thumb
 828              		.thumb_func
 830              	TIM_UpdateDisableConfig:
 831              	.LFB119:
 460:../Shared/Libraries/STM32F4xx_StdPeriph_Driver/src/stm32f4xx_tim.c **** 
ARM GAS  /tmp/cc2zcHeL.s 			page 24


 461:../Shared/Libraries/STM32F4xx_StdPeriph_Driver/src/stm32f4xx_tim.c **** /**
 462:../Shared/Libraries/STM32F4xx_StdPeriph_Driver/src/stm32f4xx_tim.c ****   * @brief  Enables or Disables the TIMx Update event.
 463:../Shared/Libraries/STM32F4xx_StdPeriph_Driver/src/stm32f4xx_tim.c ****   * @param  TIMx: where x can be 1 to 14 to select the TIM peripheral.
 464:../Shared/Libraries/STM32F4xx_StdPeriph_Driver/src/stm32f4xx_tim.c ****   * @param  NewState: new state of the TIMx UDIS bit
 465:../Shared/Libraries/STM32F4xx_StdPeriph_Driver/src/stm32f4xx_tim.c ****   *          This parameter can be: ENABLE or DISABLE.
 466:../Shared/Libraries/STM32F4xx_StdPeriph_Driver/src/stm32f4xx_tim.c ****   * @retval None
 467:../Shared/Libraries/STM32F4xx_StdPeriph_Driver/src/stm32f4xx_tim.c ****   */
 468:../Shared/Libraries/STM32F4xx_StdPeriph_Driver/src/stm32f4xx_tim.c **** void TIM_UpdateDisableConfig(TIM_TypeDef* TIMx, FunctionalState NewState)
 469:../Shared/Libraries/STM32F4xx_StdPeriph_Driver/src/stm32f4xx_tim.c **** {
 832              		.loc 1 469 1
 833              		.cfi_startproc
 834              		@ args = 0, pretend = 0, frame = 8
 835              		@ frame_needed = 1, uses_anonymous_args = 0
 836              		@ link register save eliminated.
 837 0000 80B4     		push	{r7}
 838              	.LCFI53:
 839              		.cfi_def_cfa_offset 4
 840              		.cfi_offset 7, -4
 841 0002 83B0     		sub	sp, sp, #12
 842              	.LCFI54:
 843              		.cfi_def_cfa_offset 16
 844 0004 00AF     		add	r7, sp, #0
 845              	.LCFI55:
 846              		.cfi_def_cfa_register 7
 847 0006 7860     		str	r0, [r7, #4]
 848 0008 0B46     		mov	r3, r1
 849 000a FB70     		strb	r3, [r7, #3]
 470:../Shared/Libraries/STM32F4xx_StdPeriph_Driver/src/stm32f4xx_tim.c ****   /* Check the parameters */
 471:../Shared/Libraries/STM32F4xx_StdPeriph_Driver/src/stm32f4xx_tim.c ****   assert_param(IS_TIM_ALL_PERIPH(TIMx));
 472:../Shared/Libraries/STM32F4xx_StdPeriph_Driver/src/stm32f4xx_tim.c ****   assert_param(IS_FUNCTIONAL_STATE(NewState));
 473:../Shared/Libraries/STM32F4xx_StdPeriph_Driver/src/stm32f4xx_tim.c **** 
 474:../Shared/Libraries/STM32F4xx_StdPeriph_Driver/src/stm32f4xx_tim.c ****   if (NewState != DISABLE)
 850              		.loc 1 474 6
 851 000c FB78     		ldrb	r3, [r7, #3]	@ zero_extendqisi2
 852 000e 002B     		cmp	r3, #0
 853 0010 08D0     		beq	.L37
 475:../Shared/Libraries/STM32F4xx_StdPeriph_Driver/src/stm32f4xx_tim.c ****   {
 476:../Shared/Libraries/STM32F4xx_StdPeriph_Driver/src/stm32f4xx_tim.c ****     /* Set the Update Disable Bit */
 477:../Shared/Libraries/STM32F4xx_StdPeriph_Driver/src/stm32f4xx_tim.c ****     TIMx->CR1 |= TIM_CR1_UDIS;
 854              		.loc 1 477 9
 855 0012 7B68     		ldr	r3, [r7, #4]
 856 0014 1B88     		ldrh	r3, [r3]	@ movhi
 857 0016 9BB2     		uxth	r3, r3
 858              		.loc 1 477 15
 859 0018 43F00203 		orr	r3, r3, #2
 860 001c 9AB2     		uxth	r2, r3
 861 001e 7B68     		ldr	r3, [r7, #4]
 862 0020 1A80     		strh	r2, [r3]	@ movhi
 478:../Shared/Libraries/STM32F4xx_StdPeriph_Driver/src/stm32f4xx_tim.c ****   }
 479:../Shared/Libraries/STM32F4xx_StdPeriph_Driver/src/stm32f4xx_tim.c ****   else
 480:../Shared/Libraries/STM32F4xx_StdPeriph_Driver/src/stm32f4xx_tim.c ****   {
 481:../Shared/Libraries/STM32F4xx_StdPeriph_Driver/src/stm32f4xx_tim.c ****     /* Reset the Update Disable Bit */
 482:../Shared/Libraries/STM32F4xx_StdPeriph_Driver/src/stm32f4xx_tim.c ****     TIMx->CR1 &= (uint16_t)~TIM_CR1_UDIS;
 483:../Shared/Libraries/STM32F4xx_StdPeriph_Driver/src/stm32f4xx_tim.c ****   }
 484:../Shared/Libraries/STM32F4xx_StdPeriph_Driver/src/stm32f4xx_tim.c **** }
 863              		.loc 1 484 1
 864 0022 07E0     		b	.L39
ARM GAS  /tmp/cc2zcHeL.s 			page 25


 865              	.L37:
 482:../Shared/Libraries/STM32F4xx_StdPeriph_Driver/src/stm32f4xx_tim.c ****   }
 866              		.loc 1 482 9
 867 0024 7B68     		ldr	r3, [r7, #4]
 868 0026 1B88     		ldrh	r3, [r3]	@ movhi
 869 0028 9BB2     		uxth	r3, r3
 482:../Shared/Libraries/STM32F4xx_StdPeriph_Driver/src/stm32f4xx_tim.c ****   }
 870              		.loc 1 482 15
 871 002a 23F00203 		bic	r3, r3, #2
 872 002e 9AB2     		uxth	r2, r3
 873 0030 7B68     		ldr	r3, [r7, #4]
 874 0032 1A80     		strh	r2, [r3]	@ movhi
 875              	.L39:
 876              		.loc 1 484 1
 877 0034 00BF     		nop
 878 0036 0C37     		adds	r7, r7, #12
 879              	.LCFI56:
 880              		.cfi_def_cfa_offset 4
 881 0038 BD46     		mov	sp, r7
 882              	.LCFI57:
 883              		.cfi_def_cfa_register 13
 884              		@ sp needed
 885 003a 5DF8047B 		ldr	r7, [sp], #4
 886              	.LCFI58:
 887              		.cfi_restore 7
 888              		.cfi_def_cfa_offset 0
 889 003e 7047     		bx	lr
 890              		.cfi_endproc
 891              	.LFE119:
 893              		.section	.text.TIM_UpdateRequestConfig,"ax",%progbits
 894              		.align	1
 895              		.global	TIM_UpdateRequestConfig
 896              		.syntax unified
 897              		.thumb
 898              		.thumb_func
 900              	TIM_UpdateRequestConfig:
 901              	.LFB120:
 485:../Shared/Libraries/STM32F4xx_StdPeriph_Driver/src/stm32f4xx_tim.c **** 
 486:../Shared/Libraries/STM32F4xx_StdPeriph_Driver/src/stm32f4xx_tim.c **** /**
 487:../Shared/Libraries/STM32F4xx_StdPeriph_Driver/src/stm32f4xx_tim.c ****   * @brief  Configures the TIMx Update Request Interrupt source.
 488:../Shared/Libraries/STM32F4xx_StdPeriph_Driver/src/stm32f4xx_tim.c ****   * @param  TIMx: where x can be 1 to 14 to select the TIM peripheral.
 489:../Shared/Libraries/STM32F4xx_StdPeriph_Driver/src/stm32f4xx_tim.c ****   * @param  TIM_UpdateSource: specifies the Update source.
 490:../Shared/Libraries/STM32F4xx_StdPeriph_Driver/src/stm32f4xx_tim.c ****   *          This parameter can be one of the following values:
 491:../Shared/Libraries/STM32F4xx_StdPeriph_Driver/src/stm32f4xx_tim.c ****   *            @arg TIM_UpdateSource_Global: Source of update is the counter
 492:../Shared/Libraries/STM32F4xx_StdPeriph_Driver/src/stm32f4xx_tim.c ****   *                 overflow/underflow or the setting of UG bit, or an update
 493:../Shared/Libraries/STM32F4xx_StdPeriph_Driver/src/stm32f4xx_tim.c ****   *                 generation through the slave mode controller.
 494:../Shared/Libraries/STM32F4xx_StdPeriph_Driver/src/stm32f4xx_tim.c ****   *            @arg TIM_UpdateSource_Regular: Source of update is counter overflow/underflow.
 495:../Shared/Libraries/STM32F4xx_StdPeriph_Driver/src/stm32f4xx_tim.c ****   * @retval None
 496:../Shared/Libraries/STM32F4xx_StdPeriph_Driver/src/stm32f4xx_tim.c ****   */
 497:../Shared/Libraries/STM32F4xx_StdPeriph_Driver/src/stm32f4xx_tim.c **** void TIM_UpdateRequestConfig(TIM_TypeDef* TIMx, uint16_t TIM_UpdateSource)
 498:../Shared/Libraries/STM32F4xx_StdPeriph_Driver/src/stm32f4xx_tim.c **** {
 902              		.loc 1 498 1
 903              		.cfi_startproc
 904              		@ args = 0, pretend = 0, frame = 8
 905              		@ frame_needed = 1, uses_anonymous_args = 0
 906              		@ link register save eliminated.
 907 0000 80B4     		push	{r7}
ARM GAS  /tmp/cc2zcHeL.s 			page 26


 908              	.LCFI59:
 909              		.cfi_def_cfa_offset 4
 910              		.cfi_offset 7, -4
 911 0002 83B0     		sub	sp, sp, #12
 912              	.LCFI60:
 913              		.cfi_def_cfa_offset 16
 914 0004 00AF     		add	r7, sp, #0
 915              	.LCFI61:
 916              		.cfi_def_cfa_register 7
 917 0006 7860     		str	r0, [r7, #4]
 918 0008 0B46     		mov	r3, r1
 919 000a 7B80     		strh	r3, [r7, #2]	@ movhi
 499:../Shared/Libraries/STM32F4xx_StdPeriph_Driver/src/stm32f4xx_tim.c ****   /* Check the parameters */
 500:../Shared/Libraries/STM32F4xx_StdPeriph_Driver/src/stm32f4xx_tim.c ****   assert_param(IS_TIM_ALL_PERIPH(TIMx));
 501:../Shared/Libraries/STM32F4xx_StdPeriph_Driver/src/stm32f4xx_tim.c ****   assert_param(IS_TIM_UPDATE_SOURCE(TIM_UpdateSource));
 502:../Shared/Libraries/STM32F4xx_StdPeriph_Driver/src/stm32f4xx_tim.c **** 
 503:../Shared/Libraries/STM32F4xx_StdPeriph_Driver/src/stm32f4xx_tim.c ****   if (TIM_UpdateSource != TIM_UpdateSource_Global)
 920              		.loc 1 503 6
 921 000c 7B88     		ldrh	r3, [r7, #2]
 922 000e 002B     		cmp	r3, #0
 923 0010 08D0     		beq	.L41
 504:../Shared/Libraries/STM32F4xx_StdPeriph_Driver/src/stm32f4xx_tim.c ****   {
 505:../Shared/Libraries/STM32F4xx_StdPeriph_Driver/src/stm32f4xx_tim.c ****     /* Set the URS Bit */
 506:../Shared/Libraries/STM32F4xx_StdPeriph_Driver/src/stm32f4xx_tim.c ****     TIMx->CR1 |= TIM_CR1_URS;
 924              		.loc 1 506 9
 925 0012 7B68     		ldr	r3, [r7, #4]
 926 0014 1B88     		ldrh	r3, [r3]	@ movhi
 927 0016 9BB2     		uxth	r3, r3
 928              		.loc 1 506 15
 929 0018 43F00403 		orr	r3, r3, #4
 930 001c 9AB2     		uxth	r2, r3
 931 001e 7B68     		ldr	r3, [r7, #4]
 932 0020 1A80     		strh	r2, [r3]	@ movhi
 507:../Shared/Libraries/STM32F4xx_StdPeriph_Driver/src/stm32f4xx_tim.c ****   }
 508:../Shared/Libraries/STM32F4xx_StdPeriph_Driver/src/stm32f4xx_tim.c ****   else
 509:../Shared/Libraries/STM32F4xx_StdPeriph_Driver/src/stm32f4xx_tim.c ****   {
 510:../Shared/Libraries/STM32F4xx_StdPeriph_Driver/src/stm32f4xx_tim.c ****     /* Reset the URS Bit */
 511:../Shared/Libraries/STM32F4xx_StdPeriph_Driver/src/stm32f4xx_tim.c ****     TIMx->CR1 &= (uint16_t)~TIM_CR1_URS;
 512:../Shared/Libraries/STM32F4xx_StdPeriph_Driver/src/stm32f4xx_tim.c ****   }
 513:../Shared/Libraries/STM32F4xx_StdPeriph_Driver/src/stm32f4xx_tim.c **** }
 933              		.loc 1 513 1
 934 0022 07E0     		b	.L43
 935              	.L41:
 511:../Shared/Libraries/STM32F4xx_StdPeriph_Driver/src/stm32f4xx_tim.c ****   }
 936              		.loc 1 511 9
 937 0024 7B68     		ldr	r3, [r7, #4]
 938 0026 1B88     		ldrh	r3, [r3]	@ movhi
 939 0028 9BB2     		uxth	r3, r3
 511:../Shared/Libraries/STM32F4xx_StdPeriph_Driver/src/stm32f4xx_tim.c ****   }
 940              		.loc 1 511 15
 941 002a 23F00403 		bic	r3, r3, #4
 942 002e 9AB2     		uxth	r2, r3
 943 0030 7B68     		ldr	r3, [r7, #4]
 944 0032 1A80     		strh	r2, [r3]	@ movhi
 945              	.L43:
 946              		.loc 1 513 1
 947 0034 00BF     		nop
ARM GAS  /tmp/cc2zcHeL.s 			page 27


 948 0036 0C37     		adds	r7, r7, #12
 949              	.LCFI62:
 950              		.cfi_def_cfa_offset 4
 951 0038 BD46     		mov	sp, r7
 952              	.LCFI63:
 953              		.cfi_def_cfa_register 13
 954              		@ sp needed
 955 003a 5DF8047B 		ldr	r7, [sp], #4
 956              	.LCFI64:
 957              		.cfi_restore 7
 958              		.cfi_def_cfa_offset 0
 959 003e 7047     		bx	lr
 960              		.cfi_endproc
 961              	.LFE120:
 963              		.section	.text.TIM_ARRPreloadConfig,"ax",%progbits
 964              		.align	1
 965              		.global	TIM_ARRPreloadConfig
 966              		.syntax unified
 967              		.thumb
 968              		.thumb_func
 970              	TIM_ARRPreloadConfig:
 971              	.LFB121:
 514:../Shared/Libraries/STM32F4xx_StdPeriph_Driver/src/stm32f4xx_tim.c **** 
 515:../Shared/Libraries/STM32F4xx_StdPeriph_Driver/src/stm32f4xx_tim.c **** /**
 516:../Shared/Libraries/STM32F4xx_StdPeriph_Driver/src/stm32f4xx_tim.c ****   * @brief  Enables or disables TIMx peripheral Preload register on ARR.
 517:../Shared/Libraries/STM32F4xx_StdPeriph_Driver/src/stm32f4xx_tim.c ****   * @param  TIMx: where x can be 1 to 14 to select the TIM peripheral.
 518:../Shared/Libraries/STM32F4xx_StdPeriph_Driver/src/stm32f4xx_tim.c ****   * @param  NewState: new state of the TIMx peripheral Preload register
 519:../Shared/Libraries/STM32F4xx_StdPeriph_Driver/src/stm32f4xx_tim.c ****   *          This parameter can be: ENABLE or DISABLE.
 520:../Shared/Libraries/STM32F4xx_StdPeriph_Driver/src/stm32f4xx_tim.c ****   * @retval None
 521:../Shared/Libraries/STM32F4xx_StdPeriph_Driver/src/stm32f4xx_tim.c ****   */
 522:../Shared/Libraries/STM32F4xx_StdPeriph_Driver/src/stm32f4xx_tim.c **** void TIM_ARRPreloadConfig(TIM_TypeDef* TIMx, FunctionalState NewState)
 523:../Shared/Libraries/STM32F4xx_StdPeriph_Driver/src/stm32f4xx_tim.c **** {
 972              		.loc 1 523 1
 973              		.cfi_startproc
 974              		@ args = 0, pretend = 0, frame = 8
 975              		@ frame_needed = 1, uses_anonymous_args = 0
 976              		@ link register save eliminated.
 977 0000 80B4     		push	{r7}
 978              	.LCFI65:
 979              		.cfi_def_cfa_offset 4
 980              		.cfi_offset 7, -4
 981 0002 83B0     		sub	sp, sp, #12
 982              	.LCFI66:
 983              		.cfi_def_cfa_offset 16
 984 0004 00AF     		add	r7, sp, #0
 985              	.LCFI67:
 986              		.cfi_def_cfa_register 7
 987 0006 7860     		str	r0, [r7, #4]
 988 0008 0B46     		mov	r3, r1
 989 000a FB70     		strb	r3, [r7, #3]
 524:../Shared/Libraries/STM32F4xx_StdPeriph_Driver/src/stm32f4xx_tim.c ****   /* Check the parameters */
 525:../Shared/Libraries/STM32F4xx_StdPeriph_Driver/src/stm32f4xx_tim.c ****   assert_param(IS_TIM_ALL_PERIPH(TIMx));
 526:../Shared/Libraries/STM32F4xx_StdPeriph_Driver/src/stm32f4xx_tim.c ****   assert_param(IS_FUNCTIONAL_STATE(NewState));
 527:../Shared/Libraries/STM32F4xx_StdPeriph_Driver/src/stm32f4xx_tim.c **** 
 528:../Shared/Libraries/STM32F4xx_StdPeriph_Driver/src/stm32f4xx_tim.c ****   if (NewState != DISABLE)
 990              		.loc 1 528 6
 991 000c FB78     		ldrb	r3, [r7, #3]	@ zero_extendqisi2
ARM GAS  /tmp/cc2zcHeL.s 			page 28


 992 000e 002B     		cmp	r3, #0
 993 0010 08D0     		beq	.L45
 529:../Shared/Libraries/STM32F4xx_StdPeriph_Driver/src/stm32f4xx_tim.c ****   {
 530:../Shared/Libraries/STM32F4xx_StdPeriph_Driver/src/stm32f4xx_tim.c ****     /* Set the ARR Preload Bit */
 531:../Shared/Libraries/STM32F4xx_StdPeriph_Driver/src/stm32f4xx_tim.c ****     TIMx->CR1 |= TIM_CR1_ARPE;
 994              		.loc 1 531 9
 995 0012 7B68     		ldr	r3, [r7, #4]
 996 0014 1B88     		ldrh	r3, [r3]	@ movhi
 997 0016 9BB2     		uxth	r3, r3
 998              		.loc 1 531 15
 999 0018 43F08003 		orr	r3, r3, #128
 1000 001c 9AB2     		uxth	r2, r3
 1001 001e 7B68     		ldr	r3, [r7, #4]
 1002 0020 1A80     		strh	r2, [r3]	@ movhi
 532:../Shared/Libraries/STM32F4xx_StdPeriph_Driver/src/stm32f4xx_tim.c ****   }
 533:../Shared/Libraries/STM32F4xx_StdPeriph_Driver/src/stm32f4xx_tim.c ****   else
 534:../Shared/Libraries/STM32F4xx_StdPeriph_Driver/src/stm32f4xx_tim.c ****   {
 535:../Shared/Libraries/STM32F4xx_StdPeriph_Driver/src/stm32f4xx_tim.c ****     /* Reset the ARR Preload Bit */
 536:../Shared/Libraries/STM32F4xx_StdPeriph_Driver/src/stm32f4xx_tim.c ****     TIMx->CR1 &= (uint16_t)~TIM_CR1_ARPE;
 537:../Shared/Libraries/STM32F4xx_StdPeriph_Driver/src/stm32f4xx_tim.c ****   }
 538:../Shared/Libraries/STM32F4xx_StdPeriph_Driver/src/stm32f4xx_tim.c **** }
 1003              		.loc 1 538 1
 1004 0022 07E0     		b	.L47
 1005              	.L45:
 536:../Shared/Libraries/STM32F4xx_StdPeriph_Driver/src/stm32f4xx_tim.c ****   }
 1006              		.loc 1 536 9
 1007 0024 7B68     		ldr	r3, [r7, #4]
 1008 0026 1B88     		ldrh	r3, [r3]	@ movhi
 1009 0028 9BB2     		uxth	r3, r3
 536:../Shared/Libraries/STM32F4xx_StdPeriph_Driver/src/stm32f4xx_tim.c ****   }
 1010              		.loc 1 536 15
 1011 002a 23F08003 		bic	r3, r3, #128
 1012 002e 9AB2     		uxth	r2, r3
 1013 0030 7B68     		ldr	r3, [r7, #4]
 1014 0032 1A80     		strh	r2, [r3]	@ movhi
 1015              	.L47:
 1016              		.loc 1 538 1
 1017 0034 00BF     		nop
 1018 0036 0C37     		adds	r7, r7, #12
 1019              	.LCFI68:
 1020              		.cfi_def_cfa_offset 4
 1021 0038 BD46     		mov	sp, r7
 1022              	.LCFI69:
 1023              		.cfi_def_cfa_register 13
 1024              		@ sp needed
 1025 003a 5DF8047B 		ldr	r7, [sp], #4
 1026              	.LCFI70:
 1027              		.cfi_restore 7
 1028              		.cfi_def_cfa_offset 0
 1029 003e 7047     		bx	lr
 1030              		.cfi_endproc
 1031              	.LFE121:
 1033              		.section	.text.TIM_SelectOnePulseMode,"ax",%progbits
 1034              		.align	1
 1035              		.global	TIM_SelectOnePulseMode
 1036              		.syntax unified
 1037              		.thumb
ARM GAS  /tmp/cc2zcHeL.s 			page 29


 1038              		.thumb_func
 1040              	TIM_SelectOnePulseMode:
 1041              	.LFB122:
 539:../Shared/Libraries/STM32F4xx_StdPeriph_Driver/src/stm32f4xx_tim.c **** 
 540:../Shared/Libraries/STM32F4xx_StdPeriph_Driver/src/stm32f4xx_tim.c **** /**
 541:../Shared/Libraries/STM32F4xx_StdPeriph_Driver/src/stm32f4xx_tim.c ****   * @brief  Selects the TIMx's One Pulse Mode.
 542:../Shared/Libraries/STM32F4xx_StdPeriph_Driver/src/stm32f4xx_tim.c ****   * @param  TIMx: where x can be 1 to 14 to select the TIM peripheral.
 543:../Shared/Libraries/STM32F4xx_StdPeriph_Driver/src/stm32f4xx_tim.c ****   * @param  TIM_OPMode: specifies the OPM Mode to be used.
 544:../Shared/Libraries/STM32F4xx_StdPeriph_Driver/src/stm32f4xx_tim.c ****   *          This parameter can be one of the following values:
 545:../Shared/Libraries/STM32F4xx_StdPeriph_Driver/src/stm32f4xx_tim.c ****   *            @arg TIM_OPMode_Single
 546:../Shared/Libraries/STM32F4xx_StdPeriph_Driver/src/stm32f4xx_tim.c ****   *            @arg TIM_OPMode_Repetitive
 547:../Shared/Libraries/STM32F4xx_StdPeriph_Driver/src/stm32f4xx_tim.c ****   * @retval None
 548:../Shared/Libraries/STM32F4xx_StdPeriph_Driver/src/stm32f4xx_tim.c ****   */
 549:../Shared/Libraries/STM32F4xx_StdPeriph_Driver/src/stm32f4xx_tim.c **** void TIM_SelectOnePulseMode(TIM_TypeDef* TIMx, uint16_t TIM_OPMode)
 550:../Shared/Libraries/STM32F4xx_StdPeriph_Driver/src/stm32f4xx_tim.c **** {
 1042              		.loc 1 550 1
 1043              		.cfi_startproc
 1044              		@ args = 0, pretend = 0, frame = 8
 1045              		@ frame_needed = 1, uses_anonymous_args = 0
 1046              		@ link register save eliminated.
 1047 0000 80B4     		push	{r7}
 1048              	.LCFI71:
 1049              		.cfi_def_cfa_offset 4
 1050              		.cfi_offset 7, -4
 1051 0002 83B0     		sub	sp, sp, #12
 1052              	.LCFI72:
 1053              		.cfi_def_cfa_offset 16
 1054 0004 00AF     		add	r7, sp, #0
 1055              	.LCFI73:
 1056              		.cfi_def_cfa_register 7
 1057 0006 7860     		str	r0, [r7, #4]
 1058 0008 0B46     		mov	r3, r1
 1059 000a 7B80     		strh	r3, [r7, #2]	@ movhi
 551:../Shared/Libraries/STM32F4xx_StdPeriph_Driver/src/stm32f4xx_tim.c ****   /* Check the parameters */
 552:../Shared/Libraries/STM32F4xx_StdPeriph_Driver/src/stm32f4xx_tim.c ****   assert_param(IS_TIM_ALL_PERIPH(TIMx));
 553:../Shared/Libraries/STM32F4xx_StdPeriph_Driver/src/stm32f4xx_tim.c ****   assert_param(IS_TIM_OPM_MODE(TIM_OPMode));
 554:../Shared/Libraries/STM32F4xx_StdPeriph_Driver/src/stm32f4xx_tim.c **** 
 555:../Shared/Libraries/STM32F4xx_StdPeriph_Driver/src/stm32f4xx_tim.c ****   /* Reset the OPM Bit */
 556:../Shared/Libraries/STM32F4xx_StdPeriph_Driver/src/stm32f4xx_tim.c ****   TIMx->CR1 &= (uint16_t)~TIM_CR1_OPM;
 1060              		.loc 1 556 7
 1061 000c 7B68     		ldr	r3, [r7, #4]
 1062 000e 1B88     		ldrh	r3, [r3]	@ movhi
 1063 0010 9BB2     		uxth	r3, r3
 1064              		.loc 1 556 13
 1065 0012 23F00803 		bic	r3, r3, #8
 1066 0016 9AB2     		uxth	r2, r3
 1067 0018 7B68     		ldr	r3, [r7, #4]
 1068 001a 1A80     		strh	r2, [r3]	@ movhi
 557:../Shared/Libraries/STM32F4xx_StdPeriph_Driver/src/stm32f4xx_tim.c **** 
 558:../Shared/Libraries/STM32F4xx_StdPeriph_Driver/src/stm32f4xx_tim.c ****   /* Configure the OPM Mode */
 559:../Shared/Libraries/STM32F4xx_StdPeriph_Driver/src/stm32f4xx_tim.c ****   TIMx->CR1 |= TIM_OPMode;
 1069              		.loc 1 559 7
 1070 001c 7B68     		ldr	r3, [r7, #4]
 1071 001e 1B88     		ldrh	r3, [r3]	@ movhi
 1072 0020 9AB2     		uxth	r2, r3
 1073              		.loc 1 559 13
 1074 0022 7B88     		ldrh	r3, [r7, #2]	@ movhi
ARM GAS  /tmp/cc2zcHeL.s 			page 30


 1075 0024 1343     		orrs	r3, r3, r2
 1076 0026 9AB2     		uxth	r2, r3
 1077 0028 7B68     		ldr	r3, [r7, #4]
 1078 002a 1A80     		strh	r2, [r3]	@ movhi
 560:../Shared/Libraries/STM32F4xx_StdPeriph_Driver/src/stm32f4xx_tim.c **** }
 1079              		.loc 1 560 1
 1080 002c 00BF     		nop
 1081 002e 0C37     		adds	r7, r7, #12
 1082              	.LCFI74:
 1083              		.cfi_def_cfa_offset 4
 1084 0030 BD46     		mov	sp, r7
 1085              	.LCFI75:
 1086              		.cfi_def_cfa_register 13
 1087              		@ sp needed
 1088 0032 5DF8047B 		ldr	r7, [sp], #4
 1089              	.LCFI76:
 1090              		.cfi_restore 7
 1091              		.cfi_def_cfa_offset 0
 1092 0036 7047     		bx	lr
 1093              		.cfi_endproc
 1094              	.LFE122:
 1096              		.section	.text.TIM_SetClockDivision,"ax",%progbits
 1097              		.align	1
 1098              		.global	TIM_SetClockDivision
 1099              		.syntax unified
 1100              		.thumb
 1101              		.thumb_func
 1103              	TIM_SetClockDivision:
 1104              	.LFB123:
 561:../Shared/Libraries/STM32F4xx_StdPeriph_Driver/src/stm32f4xx_tim.c **** 
 562:../Shared/Libraries/STM32F4xx_StdPeriph_Driver/src/stm32f4xx_tim.c **** /**
 563:../Shared/Libraries/STM32F4xx_StdPeriph_Driver/src/stm32f4xx_tim.c ****   * @brief  Sets the TIMx Clock Division value.
 564:../Shared/Libraries/STM32F4xx_StdPeriph_Driver/src/stm32f4xx_tim.c ****   * @param  TIMx: where x can be 1 to 14 except 6 and 7, to select the TIM peripheral.
 565:../Shared/Libraries/STM32F4xx_StdPeriph_Driver/src/stm32f4xx_tim.c ****   * @param  TIM_CKD: specifies the clock division value.
 566:../Shared/Libraries/STM32F4xx_StdPeriph_Driver/src/stm32f4xx_tim.c ****   *          This parameter can be one of the following value:
 567:../Shared/Libraries/STM32F4xx_StdPeriph_Driver/src/stm32f4xx_tim.c ****   *            @arg TIM_CKD_DIV1: TDTS = Tck_tim
 568:../Shared/Libraries/STM32F4xx_StdPeriph_Driver/src/stm32f4xx_tim.c ****   *            @arg TIM_CKD_DIV2: TDTS = 2*Tck_tim
 569:../Shared/Libraries/STM32F4xx_StdPeriph_Driver/src/stm32f4xx_tim.c ****   *            @arg TIM_CKD_DIV4: TDTS = 4*Tck_tim
 570:../Shared/Libraries/STM32F4xx_StdPeriph_Driver/src/stm32f4xx_tim.c ****   * @retval None
 571:../Shared/Libraries/STM32F4xx_StdPeriph_Driver/src/stm32f4xx_tim.c ****   */
 572:../Shared/Libraries/STM32F4xx_StdPeriph_Driver/src/stm32f4xx_tim.c **** void TIM_SetClockDivision(TIM_TypeDef* TIMx, uint16_t TIM_CKD)
 573:../Shared/Libraries/STM32F4xx_StdPeriph_Driver/src/stm32f4xx_tim.c **** {
 1105              		.loc 1 573 1
 1106              		.cfi_startproc
 1107              		@ args = 0, pretend = 0, frame = 8
 1108              		@ frame_needed = 1, uses_anonymous_args = 0
 1109              		@ link register save eliminated.
 1110 0000 80B4     		push	{r7}
 1111              	.LCFI77:
 1112              		.cfi_def_cfa_offset 4
 1113              		.cfi_offset 7, -4
 1114 0002 83B0     		sub	sp, sp, #12
 1115              	.LCFI78:
 1116              		.cfi_def_cfa_offset 16
 1117 0004 00AF     		add	r7, sp, #0
 1118              	.LCFI79:
 1119              		.cfi_def_cfa_register 7
ARM GAS  /tmp/cc2zcHeL.s 			page 31


 1120 0006 7860     		str	r0, [r7, #4]
 1121 0008 0B46     		mov	r3, r1
 1122 000a 7B80     		strh	r3, [r7, #2]	@ movhi
 574:../Shared/Libraries/STM32F4xx_StdPeriph_Driver/src/stm32f4xx_tim.c ****   /* Check the parameters */
 575:../Shared/Libraries/STM32F4xx_StdPeriph_Driver/src/stm32f4xx_tim.c ****   assert_param(IS_TIM_LIST1_PERIPH(TIMx));
 576:../Shared/Libraries/STM32F4xx_StdPeriph_Driver/src/stm32f4xx_tim.c ****   assert_param(IS_TIM_CKD_DIV(TIM_CKD));
 577:../Shared/Libraries/STM32F4xx_StdPeriph_Driver/src/stm32f4xx_tim.c **** 
 578:../Shared/Libraries/STM32F4xx_StdPeriph_Driver/src/stm32f4xx_tim.c ****   /* Reset the CKD Bits */
 579:../Shared/Libraries/STM32F4xx_StdPeriph_Driver/src/stm32f4xx_tim.c ****   TIMx->CR1 &= (uint16_t)(~TIM_CR1_CKD);
 1123              		.loc 1 579 7
 1124 000c 7B68     		ldr	r3, [r7, #4]
 1125 000e 1B88     		ldrh	r3, [r3]	@ movhi
 1126 0010 9BB2     		uxth	r3, r3
 1127              		.loc 1 579 13
 1128 0012 23F44073 		bic	r3, r3, #768
 1129 0016 9AB2     		uxth	r2, r3
 1130 0018 7B68     		ldr	r3, [r7, #4]
 1131 001a 1A80     		strh	r2, [r3]	@ movhi
 580:../Shared/Libraries/STM32F4xx_StdPeriph_Driver/src/stm32f4xx_tim.c **** 
 581:../Shared/Libraries/STM32F4xx_StdPeriph_Driver/src/stm32f4xx_tim.c ****   /* Set the CKD value */
 582:../Shared/Libraries/STM32F4xx_StdPeriph_Driver/src/stm32f4xx_tim.c ****   TIMx->CR1 |= TIM_CKD;
 1132              		.loc 1 582 7
 1133 001c 7B68     		ldr	r3, [r7, #4]
 1134 001e 1B88     		ldrh	r3, [r3]	@ movhi
 1135 0020 9AB2     		uxth	r2, r3
 1136              		.loc 1 582 13
 1137 0022 7B88     		ldrh	r3, [r7, #2]	@ movhi
 1138 0024 1343     		orrs	r3, r3, r2
 1139 0026 9AB2     		uxth	r2, r3
 1140 0028 7B68     		ldr	r3, [r7, #4]
 1141 002a 1A80     		strh	r2, [r3]	@ movhi
 583:../Shared/Libraries/STM32F4xx_StdPeriph_Driver/src/stm32f4xx_tim.c **** }
 1142              		.loc 1 583 1
 1143 002c 00BF     		nop
 1144 002e 0C37     		adds	r7, r7, #12
 1145              	.LCFI80:
 1146              		.cfi_def_cfa_offset 4
 1147 0030 BD46     		mov	sp, r7
 1148              	.LCFI81:
 1149              		.cfi_def_cfa_register 13
 1150              		@ sp needed
 1151 0032 5DF8047B 		ldr	r7, [sp], #4
 1152              	.LCFI82:
 1153              		.cfi_restore 7
 1154              		.cfi_def_cfa_offset 0
 1155 0036 7047     		bx	lr
 1156              		.cfi_endproc
 1157              	.LFE123:
 1159              		.section	.text.TIM_Cmd,"ax",%progbits
 1160              		.align	1
 1161              		.global	TIM_Cmd
 1162              		.syntax unified
 1163              		.thumb
 1164              		.thumb_func
 1166              	TIM_Cmd:
 1167              	.LFB124:
 584:../Shared/Libraries/STM32F4xx_StdPeriph_Driver/src/stm32f4xx_tim.c **** 
ARM GAS  /tmp/cc2zcHeL.s 			page 32


 585:../Shared/Libraries/STM32F4xx_StdPeriph_Driver/src/stm32f4xx_tim.c **** /**
 586:../Shared/Libraries/STM32F4xx_StdPeriph_Driver/src/stm32f4xx_tim.c ****   * @brief  Enables or disables the specified TIM peripheral.
 587:../Shared/Libraries/STM32F4xx_StdPeriph_Driver/src/stm32f4xx_tim.c ****   * @param  TIMx: where x can be 1 to 14 to select the TIMx peripheral.
 588:../Shared/Libraries/STM32F4xx_StdPeriph_Driver/src/stm32f4xx_tim.c ****   * @param  NewState: new state of the TIMx peripheral.
 589:../Shared/Libraries/STM32F4xx_StdPeriph_Driver/src/stm32f4xx_tim.c ****   *          This parameter can be: ENABLE or DISABLE.
 590:../Shared/Libraries/STM32F4xx_StdPeriph_Driver/src/stm32f4xx_tim.c ****   * @retval None
 591:../Shared/Libraries/STM32F4xx_StdPeriph_Driver/src/stm32f4xx_tim.c ****   */
 592:../Shared/Libraries/STM32F4xx_StdPeriph_Driver/src/stm32f4xx_tim.c **** void TIM_Cmd(TIM_TypeDef* TIMx, FunctionalState NewState)
 593:../Shared/Libraries/STM32F4xx_StdPeriph_Driver/src/stm32f4xx_tim.c **** {
 1168              		.loc 1 593 1
 1169              		.cfi_startproc
 1170              		@ args = 0, pretend = 0, frame = 8
 1171              		@ frame_needed = 1, uses_anonymous_args = 0
 1172              		@ link register save eliminated.
 1173 0000 80B4     		push	{r7}
 1174              	.LCFI83:
 1175              		.cfi_def_cfa_offset 4
 1176              		.cfi_offset 7, -4
 1177 0002 83B0     		sub	sp, sp, #12
 1178              	.LCFI84:
 1179              		.cfi_def_cfa_offset 16
 1180 0004 00AF     		add	r7, sp, #0
 1181              	.LCFI85:
 1182              		.cfi_def_cfa_register 7
 1183 0006 7860     		str	r0, [r7, #4]
 1184 0008 0B46     		mov	r3, r1
 1185 000a FB70     		strb	r3, [r7, #3]
 594:../Shared/Libraries/STM32F4xx_StdPeriph_Driver/src/stm32f4xx_tim.c ****   /* Check the parameters */
 595:../Shared/Libraries/STM32F4xx_StdPeriph_Driver/src/stm32f4xx_tim.c ****   assert_param(IS_TIM_ALL_PERIPH(TIMx)); 
 596:../Shared/Libraries/STM32F4xx_StdPeriph_Driver/src/stm32f4xx_tim.c ****   assert_param(IS_FUNCTIONAL_STATE(NewState));
 597:../Shared/Libraries/STM32F4xx_StdPeriph_Driver/src/stm32f4xx_tim.c ****   
 598:../Shared/Libraries/STM32F4xx_StdPeriph_Driver/src/stm32f4xx_tim.c ****   if (NewState != DISABLE)
 1186              		.loc 1 598 6
 1187 000c FB78     		ldrb	r3, [r7, #3]	@ zero_extendqisi2
 1188 000e 002B     		cmp	r3, #0
 1189 0010 08D0     		beq	.L51
 599:../Shared/Libraries/STM32F4xx_StdPeriph_Driver/src/stm32f4xx_tim.c ****   {
 600:../Shared/Libraries/STM32F4xx_StdPeriph_Driver/src/stm32f4xx_tim.c ****     /* Enable the TIM Counter */
 601:../Shared/Libraries/STM32F4xx_StdPeriph_Driver/src/stm32f4xx_tim.c ****     TIMx->CR1 |= TIM_CR1_CEN;
 1190              		.loc 1 601 9
 1191 0012 7B68     		ldr	r3, [r7, #4]
 1192 0014 1B88     		ldrh	r3, [r3]	@ movhi
 1193 0016 9BB2     		uxth	r3, r3
 1194              		.loc 1 601 15
 1195 0018 43F00103 		orr	r3, r3, #1
 1196 001c 9AB2     		uxth	r2, r3
 1197 001e 7B68     		ldr	r3, [r7, #4]
 1198 0020 1A80     		strh	r2, [r3]	@ movhi
 602:../Shared/Libraries/STM32F4xx_StdPeriph_Driver/src/stm32f4xx_tim.c ****   }
 603:../Shared/Libraries/STM32F4xx_StdPeriph_Driver/src/stm32f4xx_tim.c ****   else
 604:../Shared/Libraries/STM32F4xx_StdPeriph_Driver/src/stm32f4xx_tim.c ****   {
 605:../Shared/Libraries/STM32F4xx_StdPeriph_Driver/src/stm32f4xx_tim.c ****     /* Disable the TIM Counter */
 606:../Shared/Libraries/STM32F4xx_StdPeriph_Driver/src/stm32f4xx_tim.c ****     TIMx->CR1 &= (uint16_t)~TIM_CR1_CEN;
 607:../Shared/Libraries/STM32F4xx_StdPeriph_Driver/src/stm32f4xx_tim.c ****   }
 608:../Shared/Libraries/STM32F4xx_StdPeriph_Driver/src/stm32f4xx_tim.c **** }
 1199              		.loc 1 608 1
 1200 0022 07E0     		b	.L53
ARM GAS  /tmp/cc2zcHeL.s 			page 33


 1201              	.L51:
 606:../Shared/Libraries/STM32F4xx_StdPeriph_Driver/src/stm32f4xx_tim.c ****   }
 1202              		.loc 1 606 9
 1203 0024 7B68     		ldr	r3, [r7, #4]
 1204 0026 1B88     		ldrh	r3, [r3]	@ movhi
 1205 0028 9BB2     		uxth	r3, r3
 606:../Shared/Libraries/STM32F4xx_StdPeriph_Driver/src/stm32f4xx_tim.c ****   }
 1206              		.loc 1 606 15
 1207 002a 23F00103 		bic	r3, r3, #1
 1208 002e 9AB2     		uxth	r2, r3
 1209 0030 7B68     		ldr	r3, [r7, #4]
 1210 0032 1A80     		strh	r2, [r3]	@ movhi
 1211              	.L53:
 1212              		.loc 1 608 1
 1213 0034 00BF     		nop
 1214 0036 0C37     		adds	r7, r7, #12
 1215              	.LCFI86:
 1216              		.cfi_def_cfa_offset 4
 1217 0038 BD46     		mov	sp, r7
 1218              	.LCFI87:
 1219              		.cfi_def_cfa_register 13
 1220              		@ sp needed
 1221 003a 5DF8047B 		ldr	r7, [sp], #4
 1222              	.LCFI88:
 1223              		.cfi_restore 7
 1224              		.cfi_def_cfa_offset 0
 1225 003e 7047     		bx	lr
 1226              		.cfi_endproc
 1227              	.LFE124:
 1229              		.section	.text.TIM_OC1Init,"ax",%progbits
 1230              		.align	1
 1231              		.global	TIM_OC1Init
 1232              		.syntax unified
 1233              		.thumb
 1234              		.thumb_func
 1236              	TIM_OC1Init:
 1237              	.LFB125:
 609:../Shared/Libraries/STM32F4xx_StdPeriph_Driver/src/stm32f4xx_tim.c **** /**
 610:../Shared/Libraries/STM32F4xx_StdPeriph_Driver/src/stm32f4xx_tim.c ****   * @}
 611:../Shared/Libraries/STM32F4xx_StdPeriph_Driver/src/stm32f4xx_tim.c ****   */
 612:../Shared/Libraries/STM32F4xx_StdPeriph_Driver/src/stm32f4xx_tim.c **** 
 613:../Shared/Libraries/STM32F4xx_StdPeriph_Driver/src/stm32f4xx_tim.c **** /** @defgroup TIM_Group2 Output Compare management functions
 614:../Shared/Libraries/STM32F4xx_StdPeriph_Driver/src/stm32f4xx_tim.c ****  *  @brief    Output Compare management functions 
 615:../Shared/Libraries/STM32F4xx_StdPeriph_Driver/src/stm32f4xx_tim.c ****  *
 616:../Shared/Libraries/STM32F4xx_StdPeriph_Driver/src/stm32f4xx_tim.c **** @verbatim   
 617:../Shared/Libraries/STM32F4xx_StdPeriph_Driver/src/stm32f4xx_tim.c ****  ===============================================================================
 618:../Shared/Libraries/STM32F4xx_StdPeriph_Driver/src/stm32f4xx_tim.c ****                         Output Compare management functions
 619:../Shared/Libraries/STM32F4xx_StdPeriph_Driver/src/stm32f4xx_tim.c ****  ===============================================================================  
 620:../Shared/Libraries/STM32F4xx_StdPeriph_Driver/src/stm32f4xx_tim.c ****    
 621:../Shared/Libraries/STM32F4xx_StdPeriph_Driver/src/stm32f4xx_tim.c ****        ===================================================================      
 622:../Shared/Libraries/STM32F4xx_StdPeriph_Driver/src/stm32f4xx_tim.c ****               TIM Driver: how to use it in Output Compare Mode
 623:../Shared/Libraries/STM32F4xx_StdPeriph_Driver/src/stm32f4xx_tim.c ****        =================================================================== 
 624:../Shared/Libraries/STM32F4xx_StdPeriph_Driver/src/stm32f4xx_tim.c ****        To use the Timer in Output Compare mode, the following steps are mandatory:
 625:../Shared/Libraries/STM32F4xx_StdPeriph_Driver/src/stm32f4xx_tim.c ****        
 626:../Shared/Libraries/STM32F4xx_StdPeriph_Driver/src/stm32f4xx_tim.c ****        1. Enable TIM clock using RCC_APBxPeriphClockCmd(RCC_APBxPeriph_TIMx, ENABLE) function
 627:../Shared/Libraries/STM32F4xx_StdPeriph_Driver/src/stm32f4xx_tim.c ****        
 628:../Shared/Libraries/STM32F4xx_StdPeriph_Driver/src/stm32f4xx_tim.c ****        2. Configure the TIM pins by configuring the corresponding GPIO pins
ARM GAS  /tmp/cc2zcHeL.s 			page 34


 629:../Shared/Libraries/STM32F4xx_StdPeriph_Driver/src/stm32f4xx_tim.c ****        
 630:../Shared/Libraries/STM32F4xx_StdPeriph_Driver/src/stm32f4xx_tim.c ****        2. Configure the Time base unit as described in the first part of this driver, 
 631:../Shared/Libraries/STM32F4xx_StdPeriph_Driver/src/stm32f4xx_tim.c ****           if needed, else the Timer will run with the default configuration:
 632:../Shared/Libraries/STM32F4xx_StdPeriph_Driver/src/stm32f4xx_tim.c ****           - Autoreload value = 0xFFFF
 633:../Shared/Libraries/STM32F4xx_StdPeriph_Driver/src/stm32f4xx_tim.c ****           - Prescaler value = 0x0000
 634:../Shared/Libraries/STM32F4xx_StdPeriph_Driver/src/stm32f4xx_tim.c ****           - Counter mode = Up counting
 635:../Shared/Libraries/STM32F4xx_StdPeriph_Driver/src/stm32f4xx_tim.c ****           - Clock Division = TIM_CKD_DIV1
 636:../Shared/Libraries/STM32F4xx_StdPeriph_Driver/src/stm32f4xx_tim.c ****           
 637:../Shared/Libraries/STM32F4xx_StdPeriph_Driver/src/stm32f4xx_tim.c ****        3. Fill the TIM_OCInitStruct with the desired parameters including:
 638:../Shared/Libraries/STM32F4xx_StdPeriph_Driver/src/stm32f4xx_tim.c ****           - The TIM Output Compare mode: TIM_OCMode
 639:../Shared/Libraries/STM32F4xx_StdPeriph_Driver/src/stm32f4xx_tim.c ****           - TIM Output State: TIM_OutputState
 640:../Shared/Libraries/STM32F4xx_StdPeriph_Driver/src/stm32f4xx_tim.c ****           - TIM Pulse value: TIM_Pulse
 641:../Shared/Libraries/STM32F4xx_StdPeriph_Driver/src/stm32f4xx_tim.c ****           - TIM Output Compare Polarity : TIM_OCPolarity
 642:../Shared/Libraries/STM32F4xx_StdPeriph_Driver/src/stm32f4xx_tim.c ****        
 643:../Shared/Libraries/STM32F4xx_StdPeriph_Driver/src/stm32f4xx_tim.c ****        4. Call TIM_OCxInit(TIMx, &TIM_OCInitStruct) to configure the desired channel with the 
 644:../Shared/Libraries/STM32F4xx_StdPeriph_Driver/src/stm32f4xx_tim.c ****           corresponding configuration
 645:../Shared/Libraries/STM32F4xx_StdPeriph_Driver/src/stm32f4xx_tim.c ****        
 646:../Shared/Libraries/STM32F4xx_StdPeriph_Driver/src/stm32f4xx_tim.c ****        5. Call the TIM_Cmd(ENABLE) function to enable the TIM counter.
 647:../Shared/Libraries/STM32F4xx_StdPeriph_Driver/src/stm32f4xx_tim.c ****        
 648:../Shared/Libraries/STM32F4xx_StdPeriph_Driver/src/stm32f4xx_tim.c ****        Note1: All other functions can be used separately to modify, if needed,
 649:../Shared/Libraries/STM32F4xx_StdPeriph_Driver/src/stm32f4xx_tim.c ****               a specific feature of the Timer. 
 650:../Shared/Libraries/STM32F4xx_StdPeriph_Driver/src/stm32f4xx_tim.c ****           
 651:../Shared/Libraries/STM32F4xx_StdPeriph_Driver/src/stm32f4xx_tim.c ****        Note2: In case of PWM mode, this function is mandatory:
 652:../Shared/Libraries/STM32F4xx_StdPeriph_Driver/src/stm32f4xx_tim.c ****               TIM_OCxPreloadConfig(TIMx, TIM_OCPreload_ENABLE); 
 653:../Shared/Libraries/STM32F4xx_StdPeriph_Driver/src/stm32f4xx_tim.c ****               
 654:../Shared/Libraries/STM32F4xx_StdPeriph_Driver/src/stm32f4xx_tim.c ****        Note3: If the corresponding interrupt or DMA request are needed, the user should:
 655:../Shared/Libraries/STM32F4xx_StdPeriph_Driver/src/stm32f4xx_tim.c ****                 1. Enable the NVIC (or the DMA) to use the TIM interrupts (or DMA requests). 
 656:../Shared/Libraries/STM32F4xx_StdPeriph_Driver/src/stm32f4xx_tim.c ****                 2. Enable the corresponding interrupt (or DMA request) using the function 
 657:../Shared/Libraries/STM32F4xx_StdPeriph_Driver/src/stm32f4xx_tim.c ****                    TIM_ITConfig(TIMx, TIM_IT_CCx) (or TIM_DMA_Cmd(TIMx, TIM_DMA_CCx))   
 658:../Shared/Libraries/STM32F4xx_StdPeriph_Driver/src/stm32f4xx_tim.c **** 
 659:../Shared/Libraries/STM32F4xx_StdPeriph_Driver/src/stm32f4xx_tim.c **** @endverbatim
 660:../Shared/Libraries/STM32F4xx_StdPeriph_Driver/src/stm32f4xx_tim.c ****   * @{
 661:../Shared/Libraries/STM32F4xx_StdPeriph_Driver/src/stm32f4xx_tim.c ****   */
 662:../Shared/Libraries/STM32F4xx_StdPeriph_Driver/src/stm32f4xx_tim.c **** 
 663:../Shared/Libraries/STM32F4xx_StdPeriph_Driver/src/stm32f4xx_tim.c **** /**
 664:../Shared/Libraries/STM32F4xx_StdPeriph_Driver/src/stm32f4xx_tim.c ****   * @brief  Initializes the TIMx Channel1 according to the specified parameters in
 665:../Shared/Libraries/STM32F4xx_StdPeriph_Driver/src/stm32f4xx_tim.c ****   *         the TIM_OCInitStruct.
 666:../Shared/Libraries/STM32F4xx_StdPeriph_Driver/src/stm32f4xx_tim.c ****   * @param  TIMx: where x can be 1 to 14 except 6 and 7, to select the TIM peripheral.
 667:../Shared/Libraries/STM32F4xx_StdPeriph_Driver/src/stm32f4xx_tim.c ****   * @param  TIM_OCInitStruct: pointer to a TIM_OCInitTypeDef structure that contains
 668:../Shared/Libraries/STM32F4xx_StdPeriph_Driver/src/stm32f4xx_tim.c ****   *         the configuration information for the specified TIM peripheral.
 669:../Shared/Libraries/STM32F4xx_StdPeriph_Driver/src/stm32f4xx_tim.c ****   * @retval None
 670:../Shared/Libraries/STM32F4xx_StdPeriph_Driver/src/stm32f4xx_tim.c ****   */
 671:../Shared/Libraries/STM32F4xx_StdPeriph_Driver/src/stm32f4xx_tim.c **** void TIM_OC1Init(TIM_TypeDef* TIMx, TIM_OCInitTypeDef* TIM_OCInitStruct)
 672:../Shared/Libraries/STM32F4xx_StdPeriph_Driver/src/stm32f4xx_tim.c **** {
 1238              		.loc 1 672 1
 1239              		.cfi_startproc
 1240              		@ args = 0, pretend = 0, frame = 16
 1241              		@ frame_needed = 1, uses_anonymous_args = 0
 1242              		@ link register save eliminated.
 1243 0000 80B4     		push	{r7}
 1244              	.LCFI89:
 1245              		.cfi_def_cfa_offset 4
 1246              		.cfi_offset 7, -4
 1247 0002 85B0     		sub	sp, sp, #20
 1248              	.LCFI90:
 1249              		.cfi_def_cfa_offset 24
 1250 0004 00AF     		add	r7, sp, #0
ARM GAS  /tmp/cc2zcHeL.s 			page 35


 1251              	.LCFI91:
 1252              		.cfi_def_cfa_register 7
 1253 0006 7860     		str	r0, [r7, #4]
 1254 0008 3960     		str	r1, [r7]
 673:../Shared/Libraries/STM32F4xx_StdPeriph_Driver/src/stm32f4xx_tim.c ****   uint16_t tmpccmrx = 0, tmpccer = 0, tmpcr2 = 0;
 1255              		.loc 1 673 12
 1256 000a 0023     		movs	r3, #0
 1257 000c 7B81     		strh	r3, [r7, #10]	@ movhi
 1258              		.loc 1 673 26
 1259 000e 0023     		movs	r3, #0
 1260 0010 FB81     		strh	r3, [r7, #14]	@ movhi
 1261              		.loc 1 673 39
 1262 0012 0023     		movs	r3, #0
 1263 0014 BB81     		strh	r3, [r7, #12]	@ movhi
 674:../Shared/Libraries/STM32F4xx_StdPeriph_Driver/src/stm32f4xx_tim.c ****    
 675:../Shared/Libraries/STM32F4xx_StdPeriph_Driver/src/stm32f4xx_tim.c ****   /* Check the parameters */
 676:../Shared/Libraries/STM32F4xx_StdPeriph_Driver/src/stm32f4xx_tim.c ****   assert_param(IS_TIM_LIST1_PERIPH(TIMx)); 
 677:../Shared/Libraries/STM32F4xx_StdPeriph_Driver/src/stm32f4xx_tim.c ****   assert_param(IS_TIM_OC_MODE(TIM_OCInitStruct->TIM_OCMode));
 678:../Shared/Libraries/STM32F4xx_StdPeriph_Driver/src/stm32f4xx_tim.c ****   assert_param(IS_TIM_OUTPUT_STATE(TIM_OCInitStruct->TIM_OutputState));
 679:../Shared/Libraries/STM32F4xx_StdPeriph_Driver/src/stm32f4xx_tim.c ****   assert_param(IS_TIM_OC_POLARITY(TIM_OCInitStruct->TIM_OCPolarity));   
 680:../Shared/Libraries/STM32F4xx_StdPeriph_Driver/src/stm32f4xx_tim.c **** 
 681:../Shared/Libraries/STM32F4xx_StdPeriph_Driver/src/stm32f4xx_tim.c ****   /* Disable the Channel 1: Reset the CC1E Bit */
 682:../Shared/Libraries/STM32F4xx_StdPeriph_Driver/src/stm32f4xx_tim.c ****   TIMx->CCER &= (uint16_t)~TIM_CCER_CC1E;
 1264              		.loc 1 682 7
 1265 0016 7B68     		ldr	r3, [r7, #4]
 1266 0018 1B8C     		ldrh	r3, [r3, #32]	@ movhi
 1267 001a 9BB2     		uxth	r3, r3
 1268              		.loc 1 682 14
 1269 001c 23F00103 		bic	r3, r3, #1
 1270 0020 9AB2     		uxth	r2, r3
 1271 0022 7B68     		ldr	r3, [r7, #4]
 1272 0024 1A84     		strh	r2, [r3, #32]	@ movhi
 683:../Shared/Libraries/STM32F4xx_StdPeriph_Driver/src/stm32f4xx_tim.c ****   
 684:../Shared/Libraries/STM32F4xx_StdPeriph_Driver/src/stm32f4xx_tim.c ****   /* Get the TIMx CCER register value */
 685:../Shared/Libraries/STM32F4xx_StdPeriph_Driver/src/stm32f4xx_tim.c ****   tmpccer = TIMx->CCER;
 1273              		.loc 1 685 11
 1274 0026 7B68     		ldr	r3, [r7, #4]
 1275 0028 1B8C     		ldrh	r3, [r3, #32]	@ movhi
 1276 002a FB81     		strh	r3, [r7, #14]	@ movhi
 686:../Shared/Libraries/STM32F4xx_StdPeriph_Driver/src/stm32f4xx_tim.c ****   /* Get the TIMx CR2 register value */
 687:../Shared/Libraries/STM32F4xx_StdPeriph_Driver/src/stm32f4xx_tim.c ****   tmpcr2 =  TIMx->CR2;
 1277              		.loc 1 687 10
 1278 002c 7B68     		ldr	r3, [r7, #4]
 1279 002e 9B88     		ldrh	r3, [r3, #4]	@ movhi
 1280 0030 BB81     		strh	r3, [r7, #12]	@ movhi
 688:../Shared/Libraries/STM32F4xx_StdPeriph_Driver/src/stm32f4xx_tim.c ****   
 689:../Shared/Libraries/STM32F4xx_StdPeriph_Driver/src/stm32f4xx_tim.c ****   /* Get the TIMx CCMR1 register value */
 690:../Shared/Libraries/STM32F4xx_StdPeriph_Driver/src/stm32f4xx_tim.c ****   tmpccmrx = TIMx->CCMR1;
 1281              		.loc 1 690 12
 1282 0032 7B68     		ldr	r3, [r7, #4]
 1283 0034 1B8B     		ldrh	r3, [r3, #24]	@ movhi
 1284 0036 7B81     		strh	r3, [r7, #10]	@ movhi
 691:../Shared/Libraries/STM32F4xx_StdPeriph_Driver/src/stm32f4xx_tim.c ****     
 692:../Shared/Libraries/STM32F4xx_StdPeriph_Driver/src/stm32f4xx_tim.c ****   /* Reset the Output Compare Mode Bits */
 693:../Shared/Libraries/STM32F4xx_StdPeriph_Driver/src/stm32f4xx_tim.c ****   tmpccmrx &= (uint16_t)~TIM_CCMR1_OC1M;
 1285              		.loc 1 693 12
 1286 0038 7B89     		ldrh	r3, [r7, #10]	@ movhi
ARM GAS  /tmp/cc2zcHeL.s 			page 36


 1287 003a 23F07003 		bic	r3, r3, #112
 1288 003e 7B81     		strh	r3, [r7, #10]	@ movhi
 694:../Shared/Libraries/STM32F4xx_StdPeriph_Driver/src/stm32f4xx_tim.c ****   tmpccmrx &= (uint16_t)~TIM_CCMR1_CC1S;
 1289              		.loc 1 694 12
 1290 0040 7B89     		ldrh	r3, [r7, #10]	@ movhi
 1291 0042 23F00303 		bic	r3, r3, #3
 1292 0046 7B81     		strh	r3, [r7, #10]	@ movhi
 695:../Shared/Libraries/STM32F4xx_StdPeriph_Driver/src/stm32f4xx_tim.c ****   /* Select the Output Compare Mode */
 696:../Shared/Libraries/STM32F4xx_StdPeriph_Driver/src/stm32f4xx_tim.c ****   tmpccmrx |= TIM_OCInitStruct->TIM_OCMode;
 1293              		.loc 1 696 31
 1294 0048 3B68     		ldr	r3, [r7]
 1295 004a 1A88     		ldrh	r2, [r3]
 1296              		.loc 1 696 12
 1297 004c 7B89     		ldrh	r3, [r7, #10]	@ movhi
 1298 004e 1343     		orrs	r3, r3, r2
 1299 0050 7B81     		strh	r3, [r7, #10]	@ movhi
 697:../Shared/Libraries/STM32F4xx_StdPeriph_Driver/src/stm32f4xx_tim.c ****   
 698:../Shared/Libraries/STM32F4xx_StdPeriph_Driver/src/stm32f4xx_tim.c ****   /* Reset the Output Polarity level */
 699:../Shared/Libraries/STM32F4xx_StdPeriph_Driver/src/stm32f4xx_tim.c ****   tmpccer &= (uint16_t)~TIM_CCER_CC1P;
 1300              		.loc 1 699 11
 1301 0052 FB89     		ldrh	r3, [r7, #14]	@ movhi
 1302 0054 23F00203 		bic	r3, r3, #2
 1303 0058 FB81     		strh	r3, [r7, #14]	@ movhi
 700:../Shared/Libraries/STM32F4xx_StdPeriph_Driver/src/stm32f4xx_tim.c ****   /* Set the Output Compare Polarity */
 701:../Shared/Libraries/STM32F4xx_StdPeriph_Driver/src/stm32f4xx_tim.c ****   tmpccer |= TIM_OCInitStruct->TIM_OCPolarity;
 1304              		.loc 1 701 30
 1305 005a 3B68     		ldr	r3, [r7]
 1306 005c 9A89     		ldrh	r2, [r3, #12]
 1307              		.loc 1 701 11
 1308 005e FB89     		ldrh	r3, [r7, #14]	@ movhi
 1309 0060 1343     		orrs	r3, r3, r2
 1310 0062 FB81     		strh	r3, [r7, #14]	@ movhi
 702:../Shared/Libraries/STM32F4xx_StdPeriph_Driver/src/stm32f4xx_tim.c ****   
 703:../Shared/Libraries/STM32F4xx_StdPeriph_Driver/src/stm32f4xx_tim.c ****   /* Set the Output State */
 704:../Shared/Libraries/STM32F4xx_StdPeriph_Driver/src/stm32f4xx_tim.c ****   tmpccer |= TIM_OCInitStruct->TIM_OutputState;
 1311              		.loc 1 704 30
 1312 0064 3B68     		ldr	r3, [r7]
 1313 0066 5A88     		ldrh	r2, [r3, #2]
 1314              		.loc 1 704 11
 1315 0068 FB89     		ldrh	r3, [r7, #14]	@ movhi
 1316 006a 1343     		orrs	r3, r3, r2
 1317 006c FB81     		strh	r3, [r7, #14]	@ movhi
 705:../Shared/Libraries/STM32F4xx_StdPeriph_Driver/src/stm32f4xx_tim.c ****     
 706:../Shared/Libraries/STM32F4xx_StdPeriph_Driver/src/stm32f4xx_tim.c ****   if((TIMx == TIM1) || (TIMx == TIM8))
 1318              		.loc 1 706 5
 1319 006e 7B68     		ldr	r3, [r7, #4]
 1320 0070 1E4A     		ldr	r2, .L57
 1321 0072 9342     		cmp	r3, r2
 1322 0074 03D0     		beq	.L55
 1323              		.loc 1 706 21 discriminator 1
 1324 0076 7B68     		ldr	r3, [r7, #4]
 1325 0078 1D4A     		ldr	r2, .L57+4
 1326 007a 9342     		cmp	r3, r2
 1327 007c 23D1     		bne	.L56
 1328              	.L55:
 707:../Shared/Libraries/STM32F4xx_StdPeriph_Driver/src/stm32f4xx_tim.c ****   {
 708:../Shared/Libraries/STM32F4xx_StdPeriph_Driver/src/stm32f4xx_tim.c ****     assert_param(IS_TIM_OUTPUTN_STATE(TIM_OCInitStruct->TIM_OutputNState));
ARM GAS  /tmp/cc2zcHeL.s 			page 37


 709:../Shared/Libraries/STM32F4xx_StdPeriph_Driver/src/stm32f4xx_tim.c ****     assert_param(IS_TIM_OCN_POLARITY(TIM_OCInitStruct->TIM_OCNPolarity));
 710:../Shared/Libraries/STM32F4xx_StdPeriph_Driver/src/stm32f4xx_tim.c ****     assert_param(IS_TIM_OCNIDLE_STATE(TIM_OCInitStruct->TIM_OCNIdleState));
 711:../Shared/Libraries/STM32F4xx_StdPeriph_Driver/src/stm32f4xx_tim.c ****     assert_param(IS_TIM_OCIDLE_STATE(TIM_OCInitStruct->TIM_OCIdleState));
 712:../Shared/Libraries/STM32F4xx_StdPeriph_Driver/src/stm32f4xx_tim.c ****     
 713:../Shared/Libraries/STM32F4xx_StdPeriph_Driver/src/stm32f4xx_tim.c ****     /* Reset the Output N Polarity level */
 714:../Shared/Libraries/STM32F4xx_StdPeriph_Driver/src/stm32f4xx_tim.c ****     tmpccer &= (uint16_t)~TIM_CCER_CC1NP;
 1329              		.loc 1 714 13
 1330 007e FB89     		ldrh	r3, [r7, #14]	@ movhi
 1331 0080 23F00803 		bic	r3, r3, #8
 1332 0084 FB81     		strh	r3, [r7, #14]	@ movhi
 715:../Shared/Libraries/STM32F4xx_StdPeriph_Driver/src/stm32f4xx_tim.c ****     /* Set the Output N Polarity */
 716:../Shared/Libraries/STM32F4xx_StdPeriph_Driver/src/stm32f4xx_tim.c ****     tmpccer |= TIM_OCInitStruct->TIM_OCNPolarity;
 1333              		.loc 1 716 32
 1334 0086 3B68     		ldr	r3, [r7]
 1335 0088 DA89     		ldrh	r2, [r3, #14]
 1336              		.loc 1 716 13
 1337 008a FB89     		ldrh	r3, [r7, #14]	@ movhi
 1338 008c 1343     		orrs	r3, r3, r2
 1339 008e FB81     		strh	r3, [r7, #14]	@ movhi
 717:../Shared/Libraries/STM32F4xx_StdPeriph_Driver/src/stm32f4xx_tim.c ****     /* Reset the Output N State */
 718:../Shared/Libraries/STM32F4xx_StdPeriph_Driver/src/stm32f4xx_tim.c ****     tmpccer &= (uint16_t)~TIM_CCER_CC1NE;
 1340              		.loc 1 718 13
 1341 0090 FB89     		ldrh	r3, [r7, #14]	@ movhi
 1342 0092 23F00403 		bic	r3, r3, #4
 1343 0096 FB81     		strh	r3, [r7, #14]	@ movhi
 719:../Shared/Libraries/STM32F4xx_StdPeriph_Driver/src/stm32f4xx_tim.c ****     
 720:../Shared/Libraries/STM32F4xx_StdPeriph_Driver/src/stm32f4xx_tim.c ****     /* Set the Output N State */
 721:../Shared/Libraries/STM32F4xx_StdPeriph_Driver/src/stm32f4xx_tim.c ****     tmpccer |= TIM_OCInitStruct->TIM_OutputNState;
 1344              		.loc 1 721 32
 1345 0098 3B68     		ldr	r3, [r7]
 1346 009a 9A88     		ldrh	r2, [r3, #4]
 1347              		.loc 1 721 13
 1348 009c FB89     		ldrh	r3, [r7, #14]	@ movhi
 1349 009e 1343     		orrs	r3, r3, r2
 1350 00a0 FB81     		strh	r3, [r7, #14]	@ movhi
 722:../Shared/Libraries/STM32F4xx_StdPeriph_Driver/src/stm32f4xx_tim.c ****     /* Reset the Output Compare and Output Compare N IDLE State */
 723:../Shared/Libraries/STM32F4xx_StdPeriph_Driver/src/stm32f4xx_tim.c ****     tmpcr2 &= (uint16_t)~TIM_CR2_OIS1;
 1351              		.loc 1 723 12
 1352 00a2 BB89     		ldrh	r3, [r7, #12]	@ movhi
 1353 00a4 23F48073 		bic	r3, r3, #256
 1354 00a8 BB81     		strh	r3, [r7, #12]	@ movhi
 724:../Shared/Libraries/STM32F4xx_StdPeriph_Driver/src/stm32f4xx_tim.c ****     tmpcr2 &= (uint16_t)~TIM_CR2_OIS1N;
 1355              		.loc 1 724 12
 1356 00aa BB89     		ldrh	r3, [r7, #12]	@ movhi
 1357 00ac 23F40073 		bic	r3, r3, #512
 1358 00b0 BB81     		strh	r3, [r7, #12]	@ movhi
 725:../Shared/Libraries/STM32F4xx_StdPeriph_Driver/src/stm32f4xx_tim.c ****     /* Set the Output Idle state */
 726:../Shared/Libraries/STM32F4xx_StdPeriph_Driver/src/stm32f4xx_tim.c ****     tmpcr2 |= TIM_OCInitStruct->TIM_OCIdleState;
 1359              		.loc 1 726 31
 1360 00b2 3B68     		ldr	r3, [r7]
 1361 00b4 1A8A     		ldrh	r2, [r3, #16]
 1362              		.loc 1 726 12
 1363 00b6 BB89     		ldrh	r3, [r7, #12]	@ movhi
 1364 00b8 1343     		orrs	r3, r3, r2
 1365 00ba BB81     		strh	r3, [r7, #12]	@ movhi
 727:../Shared/Libraries/STM32F4xx_StdPeriph_Driver/src/stm32f4xx_tim.c ****     /* Set the Output N Idle state */
 728:../Shared/Libraries/STM32F4xx_StdPeriph_Driver/src/stm32f4xx_tim.c ****     tmpcr2 |= TIM_OCInitStruct->TIM_OCNIdleState;
ARM GAS  /tmp/cc2zcHeL.s 			page 38


 1366              		.loc 1 728 31
 1367 00bc 3B68     		ldr	r3, [r7]
 1368 00be 5A8A     		ldrh	r2, [r3, #18]
 1369              		.loc 1 728 12
 1370 00c0 BB89     		ldrh	r3, [r7, #12]	@ movhi
 1371 00c2 1343     		orrs	r3, r3, r2
 1372 00c4 BB81     		strh	r3, [r7, #12]	@ movhi
 1373              	.L56:
 729:../Shared/Libraries/STM32F4xx_StdPeriph_Driver/src/stm32f4xx_tim.c ****   }
 730:../Shared/Libraries/STM32F4xx_StdPeriph_Driver/src/stm32f4xx_tim.c ****   /* Write to TIMx CR2 */
 731:../Shared/Libraries/STM32F4xx_StdPeriph_Driver/src/stm32f4xx_tim.c ****   TIMx->CR2 = tmpcr2;
 1374              		.loc 1 731 13
 1375 00c6 7B68     		ldr	r3, [r7, #4]
 1376 00c8 BA89     		ldrh	r2, [r7, #12]	@ movhi
 1377 00ca 9A80     		strh	r2, [r3, #4]	@ movhi
 732:../Shared/Libraries/STM32F4xx_StdPeriph_Driver/src/stm32f4xx_tim.c ****   
 733:../Shared/Libraries/STM32F4xx_StdPeriph_Driver/src/stm32f4xx_tim.c ****   /* Write to TIMx CCMR1 */
 734:../Shared/Libraries/STM32F4xx_StdPeriph_Driver/src/stm32f4xx_tim.c ****   TIMx->CCMR1 = tmpccmrx;
 1378              		.loc 1 734 15
 1379 00cc 7B68     		ldr	r3, [r7, #4]
 1380 00ce 7A89     		ldrh	r2, [r7, #10]	@ movhi
 1381 00d0 1A83     		strh	r2, [r3, #24]	@ movhi
 735:../Shared/Libraries/STM32F4xx_StdPeriph_Driver/src/stm32f4xx_tim.c ****   
 736:../Shared/Libraries/STM32F4xx_StdPeriph_Driver/src/stm32f4xx_tim.c ****   /* Set the Capture Compare Register value */
 737:../Shared/Libraries/STM32F4xx_StdPeriph_Driver/src/stm32f4xx_tim.c ****   TIMx->CCR1 = TIM_OCInitStruct->TIM_Pulse;
 1382              		.loc 1 737 32
 1383 00d2 3B68     		ldr	r3, [r7]
 1384 00d4 9A68     		ldr	r2, [r3, #8]
 1385              		.loc 1 737 14
 1386 00d6 7B68     		ldr	r3, [r7, #4]
 1387 00d8 5A63     		str	r2, [r3, #52]
 738:../Shared/Libraries/STM32F4xx_StdPeriph_Driver/src/stm32f4xx_tim.c ****   
 739:../Shared/Libraries/STM32F4xx_StdPeriph_Driver/src/stm32f4xx_tim.c ****   /* Write to TIMx CCER */
 740:../Shared/Libraries/STM32F4xx_StdPeriph_Driver/src/stm32f4xx_tim.c ****   TIMx->CCER = tmpccer;
 1388              		.loc 1 740 14
 1389 00da 7B68     		ldr	r3, [r7, #4]
 1390 00dc FA89     		ldrh	r2, [r7, #14]	@ movhi
 1391 00de 1A84     		strh	r2, [r3, #32]	@ movhi
 741:../Shared/Libraries/STM32F4xx_StdPeriph_Driver/src/stm32f4xx_tim.c **** }
 1392              		.loc 1 741 1
 1393 00e0 00BF     		nop
 1394 00e2 1437     		adds	r7, r7, #20
 1395              	.LCFI92:
 1396              		.cfi_def_cfa_offset 4
 1397 00e4 BD46     		mov	sp, r7
 1398              	.LCFI93:
 1399              		.cfi_def_cfa_register 13
 1400              		@ sp needed
 1401 00e6 5DF8047B 		ldr	r7, [sp], #4
 1402              	.LCFI94:
 1403              		.cfi_restore 7
 1404              		.cfi_def_cfa_offset 0
 1405 00ea 7047     		bx	lr
 1406              	.L58:
 1407              		.align	2
 1408              	.L57:
 1409 00ec 00000140 		.word	1073807360
ARM GAS  /tmp/cc2zcHeL.s 			page 39


 1410 00f0 00040140 		.word	1073808384
 1411              		.cfi_endproc
 1412              	.LFE125:
 1414              		.section	.text.TIM_OC2Init,"ax",%progbits
 1415              		.align	1
 1416              		.global	TIM_OC2Init
 1417              		.syntax unified
 1418              		.thumb
 1419              		.thumb_func
 1421              	TIM_OC2Init:
 1422              	.LFB126:
 742:../Shared/Libraries/STM32F4xx_StdPeriph_Driver/src/stm32f4xx_tim.c **** 
 743:../Shared/Libraries/STM32F4xx_StdPeriph_Driver/src/stm32f4xx_tim.c **** /**
 744:../Shared/Libraries/STM32F4xx_StdPeriph_Driver/src/stm32f4xx_tim.c ****   * @brief  Initializes the TIMx Channel2 according to the specified parameters 
 745:../Shared/Libraries/STM32F4xx_StdPeriph_Driver/src/stm32f4xx_tim.c ****   *         in the TIM_OCInitStruct.
 746:../Shared/Libraries/STM32F4xx_StdPeriph_Driver/src/stm32f4xx_tim.c ****   * @param  TIMx: where x can be 1, 2, 3, 4, 5, 8, 9 or 12 to select the TIM 
 747:../Shared/Libraries/STM32F4xx_StdPeriph_Driver/src/stm32f4xx_tim.c ****   *         peripheral.
 748:../Shared/Libraries/STM32F4xx_StdPeriph_Driver/src/stm32f4xx_tim.c ****   * @param  TIM_OCInitStruct: pointer to a TIM_OCInitTypeDef structure that contains
 749:../Shared/Libraries/STM32F4xx_StdPeriph_Driver/src/stm32f4xx_tim.c ****   *         the configuration information for the specified TIM peripheral.
 750:../Shared/Libraries/STM32F4xx_StdPeriph_Driver/src/stm32f4xx_tim.c ****   * @retval None
 751:../Shared/Libraries/STM32F4xx_StdPeriph_Driver/src/stm32f4xx_tim.c ****   */
 752:../Shared/Libraries/STM32F4xx_StdPeriph_Driver/src/stm32f4xx_tim.c **** void TIM_OC2Init(TIM_TypeDef* TIMx, TIM_OCInitTypeDef* TIM_OCInitStruct)
 753:../Shared/Libraries/STM32F4xx_StdPeriph_Driver/src/stm32f4xx_tim.c **** {
 1423              		.loc 1 753 1
 1424              		.cfi_startproc
 1425              		@ args = 0, pretend = 0, frame = 16
 1426              		@ frame_needed = 1, uses_anonymous_args = 0
 1427              		@ link register save eliminated.
 1428 0000 80B4     		push	{r7}
 1429              	.LCFI95:
 1430              		.cfi_def_cfa_offset 4
 1431              		.cfi_offset 7, -4
 1432 0002 85B0     		sub	sp, sp, #20
 1433              	.LCFI96:
 1434              		.cfi_def_cfa_offset 24
 1435 0004 00AF     		add	r7, sp, #0
 1436              	.LCFI97:
 1437              		.cfi_def_cfa_register 7
 1438 0006 7860     		str	r0, [r7, #4]
 1439 0008 3960     		str	r1, [r7]
 754:../Shared/Libraries/STM32F4xx_StdPeriph_Driver/src/stm32f4xx_tim.c ****   uint16_t tmpccmrx = 0, tmpccer = 0, tmpcr2 = 0;
 1440              		.loc 1 754 12
 1441 000a 0023     		movs	r3, #0
 1442 000c 7B81     		strh	r3, [r7, #10]	@ movhi
 1443              		.loc 1 754 26
 1444 000e 0023     		movs	r3, #0
 1445 0010 FB81     		strh	r3, [r7, #14]	@ movhi
 1446              		.loc 1 754 39
 1447 0012 0023     		movs	r3, #0
 1448 0014 BB81     		strh	r3, [r7, #12]	@ movhi
 755:../Shared/Libraries/STM32F4xx_StdPeriph_Driver/src/stm32f4xx_tim.c ****    
 756:../Shared/Libraries/STM32F4xx_StdPeriph_Driver/src/stm32f4xx_tim.c ****   /* Check the parameters */
 757:../Shared/Libraries/STM32F4xx_StdPeriph_Driver/src/stm32f4xx_tim.c ****   assert_param(IS_TIM_LIST2_PERIPH(TIMx)); 
 758:../Shared/Libraries/STM32F4xx_StdPeriph_Driver/src/stm32f4xx_tim.c ****   assert_param(IS_TIM_OC_MODE(TIM_OCInitStruct->TIM_OCMode));
 759:../Shared/Libraries/STM32F4xx_StdPeriph_Driver/src/stm32f4xx_tim.c ****   assert_param(IS_TIM_OUTPUT_STATE(TIM_OCInitStruct->TIM_OutputState));
 760:../Shared/Libraries/STM32F4xx_StdPeriph_Driver/src/stm32f4xx_tim.c ****   assert_param(IS_TIM_OC_POLARITY(TIM_OCInitStruct->TIM_OCPolarity));   
 761:../Shared/Libraries/STM32F4xx_StdPeriph_Driver/src/stm32f4xx_tim.c **** 
ARM GAS  /tmp/cc2zcHeL.s 			page 40


 762:../Shared/Libraries/STM32F4xx_StdPeriph_Driver/src/stm32f4xx_tim.c ****   /* Disable the Channel 2: Reset the CC2E Bit */
 763:../Shared/Libraries/STM32F4xx_StdPeriph_Driver/src/stm32f4xx_tim.c ****   TIMx->CCER &= (uint16_t)~TIM_CCER_CC2E;
 1449              		.loc 1 763 7
 1450 0016 7B68     		ldr	r3, [r7, #4]
 1451 0018 1B8C     		ldrh	r3, [r3, #32]	@ movhi
 1452 001a 9BB2     		uxth	r3, r3
 1453              		.loc 1 763 14
 1454 001c 23F01003 		bic	r3, r3, #16
 1455 0020 9AB2     		uxth	r2, r3
 1456 0022 7B68     		ldr	r3, [r7, #4]
 1457 0024 1A84     		strh	r2, [r3, #32]	@ movhi
 764:../Shared/Libraries/STM32F4xx_StdPeriph_Driver/src/stm32f4xx_tim.c ****   
 765:../Shared/Libraries/STM32F4xx_StdPeriph_Driver/src/stm32f4xx_tim.c ****   /* Get the TIMx CCER register value */  
 766:../Shared/Libraries/STM32F4xx_StdPeriph_Driver/src/stm32f4xx_tim.c ****   tmpccer = TIMx->CCER;
 1458              		.loc 1 766 11
 1459 0026 7B68     		ldr	r3, [r7, #4]
 1460 0028 1B8C     		ldrh	r3, [r3, #32]	@ movhi
 1461 002a FB81     		strh	r3, [r7, #14]	@ movhi
 767:../Shared/Libraries/STM32F4xx_StdPeriph_Driver/src/stm32f4xx_tim.c ****   /* Get the TIMx CR2 register value */
 768:../Shared/Libraries/STM32F4xx_StdPeriph_Driver/src/stm32f4xx_tim.c ****   tmpcr2 =  TIMx->CR2;
 1462              		.loc 1 768 10
 1463 002c 7B68     		ldr	r3, [r7, #4]
 1464 002e 9B88     		ldrh	r3, [r3, #4]	@ movhi
 1465 0030 BB81     		strh	r3, [r7, #12]	@ movhi
 769:../Shared/Libraries/STM32F4xx_StdPeriph_Driver/src/stm32f4xx_tim.c ****   
 770:../Shared/Libraries/STM32F4xx_StdPeriph_Driver/src/stm32f4xx_tim.c ****   /* Get the TIMx CCMR1 register value */
 771:../Shared/Libraries/STM32F4xx_StdPeriph_Driver/src/stm32f4xx_tim.c ****   tmpccmrx = TIMx->CCMR1;
 1466              		.loc 1 771 12
 1467 0032 7B68     		ldr	r3, [r7, #4]
 1468 0034 1B8B     		ldrh	r3, [r3, #24]	@ movhi
 1469 0036 7B81     		strh	r3, [r7, #10]	@ movhi
 772:../Shared/Libraries/STM32F4xx_StdPeriph_Driver/src/stm32f4xx_tim.c ****     
 773:../Shared/Libraries/STM32F4xx_StdPeriph_Driver/src/stm32f4xx_tim.c ****   /* Reset the Output Compare mode and Capture/Compare selection Bits */
 774:../Shared/Libraries/STM32F4xx_StdPeriph_Driver/src/stm32f4xx_tim.c ****   tmpccmrx &= (uint16_t)~TIM_CCMR1_OC2M;
 1470              		.loc 1 774 12
 1471 0038 7B89     		ldrh	r3, [r7, #10]	@ movhi
 1472 003a 23F4E043 		bic	r3, r3, #28672
 1473 003e 7B81     		strh	r3, [r7, #10]	@ movhi
 775:../Shared/Libraries/STM32F4xx_StdPeriph_Driver/src/stm32f4xx_tim.c ****   tmpccmrx &= (uint16_t)~TIM_CCMR1_CC2S;
 1474              		.loc 1 775 12
 1475 0040 7B89     		ldrh	r3, [r7, #10]	@ movhi
 1476 0042 23F44073 		bic	r3, r3, #768
 1477 0046 7B81     		strh	r3, [r7, #10]	@ movhi
 776:../Shared/Libraries/STM32F4xx_StdPeriph_Driver/src/stm32f4xx_tim.c ****   
 777:../Shared/Libraries/STM32F4xx_StdPeriph_Driver/src/stm32f4xx_tim.c ****   /* Select the Output Compare Mode */
 778:../Shared/Libraries/STM32F4xx_StdPeriph_Driver/src/stm32f4xx_tim.c ****   tmpccmrx |= (uint16_t)(TIM_OCInitStruct->TIM_OCMode << 8);
 1478              		.loc 1 778 42
 1479 0048 3B68     		ldr	r3, [r7]
 1480 004a 1B88     		ldrh	r3, [r3]
 1481              		.loc 1 778 15
 1482 004c 1B02     		lsls	r3, r3, #8
 1483 004e 9AB2     		uxth	r2, r3
 1484              		.loc 1 778 12
 1485 0050 7B89     		ldrh	r3, [r7, #10]	@ movhi
 1486 0052 1343     		orrs	r3, r3, r2
 1487 0054 7B81     		strh	r3, [r7, #10]	@ movhi
 779:../Shared/Libraries/STM32F4xx_StdPeriph_Driver/src/stm32f4xx_tim.c ****   
ARM GAS  /tmp/cc2zcHeL.s 			page 41


 780:../Shared/Libraries/STM32F4xx_StdPeriph_Driver/src/stm32f4xx_tim.c ****   /* Reset the Output Polarity level */
 781:../Shared/Libraries/STM32F4xx_StdPeriph_Driver/src/stm32f4xx_tim.c ****   tmpccer &= (uint16_t)~TIM_CCER_CC2P;
 1488              		.loc 1 781 11
 1489 0056 FB89     		ldrh	r3, [r7, #14]	@ movhi
 1490 0058 23F02003 		bic	r3, r3, #32
 1491 005c FB81     		strh	r3, [r7, #14]	@ movhi
 782:../Shared/Libraries/STM32F4xx_StdPeriph_Driver/src/stm32f4xx_tim.c ****   /* Set the Output Compare Polarity */
 783:../Shared/Libraries/STM32F4xx_StdPeriph_Driver/src/stm32f4xx_tim.c ****   tmpccer |= (uint16_t)(TIM_OCInitStruct->TIM_OCPolarity << 4);
 1492              		.loc 1 783 41
 1493 005e 3B68     		ldr	r3, [r7]
 1494 0060 9B89     		ldrh	r3, [r3, #12]
 1495              		.loc 1 783 14
 1496 0062 1B01     		lsls	r3, r3, #4
 1497 0064 9AB2     		uxth	r2, r3
 1498              		.loc 1 783 11
 1499 0066 FB89     		ldrh	r3, [r7, #14]	@ movhi
 1500 0068 1343     		orrs	r3, r3, r2
 1501 006a FB81     		strh	r3, [r7, #14]	@ movhi
 784:../Shared/Libraries/STM32F4xx_StdPeriph_Driver/src/stm32f4xx_tim.c ****   
 785:../Shared/Libraries/STM32F4xx_StdPeriph_Driver/src/stm32f4xx_tim.c ****   /* Set the Output State */
 786:../Shared/Libraries/STM32F4xx_StdPeriph_Driver/src/stm32f4xx_tim.c ****   tmpccer |= (uint16_t)(TIM_OCInitStruct->TIM_OutputState << 4);
 1502              		.loc 1 786 41
 1503 006c 3B68     		ldr	r3, [r7]
 1504 006e 5B88     		ldrh	r3, [r3, #2]
 1505              		.loc 1 786 14
 1506 0070 1B01     		lsls	r3, r3, #4
 1507 0072 9AB2     		uxth	r2, r3
 1508              		.loc 1 786 11
 1509 0074 FB89     		ldrh	r3, [r7, #14]	@ movhi
 1510 0076 1343     		orrs	r3, r3, r2
 1511 0078 FB81     		strh	r3, [r7, #14]	@ movhi
 787:../Shared/Libraries/STM32F4xx_StdPeriph_Driver/src/stm32f4xx_tim.c ****     
 788:../Shared/Libraries/STM32F4xx_StdPeriph_Driver/src/stm32f4xx_tim.c ****   if((TIMx == TIM1) || (TIMx == TIM8))
 1512              		.loc 1 788 5
 1513 007a 7B68     		ldr	r3, [r7, #4]
 1514 007c 224A     		ldr	r2, .L62
 1515 007e 9342     		cmp	r3, r2
 1516 0080 03D0     		beq	.L60
 1517              		.loc 1 788 21 discriminator 1
 1518 0082 7B68     		ldr	r3, [r7, #4]
 1519 0084 214A     		ldr	r2, .L62+4
 1520 0086 9342     		cmp	r3, r2
 1521 0088 2BD1     		bne	.L61
 1522              	.L60:
 789:../Shared/Libraries/STM32F4xx_StdPeriph_Driver/src/stm32f4xx_tim.c ****   {
 790:../Shared/Libraries/STM32F4xx_StdPeriph_Driver/src/stm32f4xx_tim.c ****     assert_param(IS_TIM_OUTPUTN_STATE(TIM_OCInitStruct->TIM_OutputNState));
 791:../Shared/Libraries/STM32F4xx_StdPeriph_Driver/src/stm32f4xx_tim.c ****     assert_param(IS_TIM_OCN_POLARITY(TIM_OCInitStruct->TIM_OCNPolarity));
 792:../Shared/Libraries/STM32F4xx_StdPeriph_Driver/src/stm32f4xx_tim.c ****     assert_param(IS_TIM_OCNIDLE_STATE(TIM_OCInitStruct->TIM_OCNIdleState));
 793:../Shared/Libraries/STM32F4xx_StdPeriph_Driver/src/stm32f4xx_tim.c ****     assert_param(IS_TIM_OCIDLE_STATE(TIM_OCInitStruct->TIM_OCIdleState));
 794:../Shared/Libraries/STM32F4xx_StdPeriph_Driver/src/stm32f4xx_tim.c ****     
 795:../Shared/Libraries/STM32F4xx_StdPeriph_Driver/src/stm32f4xx_tim.c ****     /* Reset the Output N Polarity level */
 796:../Shared/Libraries/STM32F4xx_StdPeriph_Driver/src/stm32f4xx_tim.c ****     tmpccer &= (uint16_t)~TIM_CCER_CC2NP;
 1523              		.loc 1 796 13
 1524 008a FB89     		ldrh	r3, [r7, #14]	@ movhi
 1525 008c 23F08003 		bic	r3, r3, #128
 1526 0090 FB81     		strh	r3, [r7, #14]	@ movhi
 797:../Shared/Libraries/STM32F4xx_StdPeriph_Driver/src/stm32f4xx_tim.c ****     /* Set the Output N Polarity */
ARM GAS  /tmp/cc2zcHeL.s 			page 42


 798:../Shared/Libraries/STM32F4xx_StdPeriph_Driver/src/stm32f4xx_tim.c ****     tmpccer |= (uint16_t)(TIM_OCInitStruct->TIM_OCNPolarity << 4);
 1527              		.loc 1 798 43
 1528 0092 3B68     		ldr	r3, [r7]
 1529 0094 DB89     		ldrh	r3, [r3, #14]
 1530              		.loc 1 798 16
 1531 0096 1B01     		lsls	r3, r3, #4
 1532 0098 9AB2     		uxth	r2, r3
 1533              		.loc 1 798 13
 1534 009a FB89     		ldrh	r3, [r7, #14]	@ movhi
 1535 009c 1343     		orrs	r3, r3, r2
 1536 009e FB81     		strh	r3, [r7, #14]	@ movhi
 799:../Shared/Libraries/STM32F4xx_StdPeriph_Driver/src/stm32f4xx_tim.c ****     /* Reset the Output N State */
 800:../Shared/Libraries/STM32F4xx_StdPeriph_Driver/src/stm32f4xx_tim.c ****     tmpccer &= (uint16_t)~TIM_CCER_CC2NE;
 1537              		.loc 1 800 13
 1538 00a0 FB89     		ldrh	r3, [r7, #14]	@ movhi
 1539 00a2 23F04003 		bic	r3, r3, #64
 1540 00a6 FB81     		strh	r3, [r7, #14]	@ movhi
 801:../Shared/Libraries/STM32F4xx_StdPeriph_Driver/src/stm32f4xx_tim.c ****     
 802:../Shared/Libraries/STM32F4xx_StdPeriph_Driver/src/stm32f4xx_tim.c ****     /* Set the Output N State */
 803:../Shared/Libraries/STM32F4xx_StdPeriph_Driver/src/stm32f4xx_tim.c ****     tmpccer |= (uint16_t)(TIM_OCInitStruct->TIM_OutputNState << 4);
 1541              		.loc 1 803 43
 1542 00a8 3B68     		ldr	r3, [r7]
 1543 00aa 9B88     		ldrh	r3, [r3, #4]
 1544              		.loc 1 803 16
 1545 00ac 1B01     		lsls	r3, r3, #4
 1546 00ae 9AB2     		uxth	r2, r3
 1547              		.loc 1 803 13
 1548 00b0 FB89     		ldrh	r3, [r7, #14]	@ movhi
 1549 00b2 1343     		orrs	r3, r3, r2
 1550 00b4 FB81     		strh	r3, [r7, #14]	@ movhi
 804:../Shared/Libraries/STM32F4xx_StdPeriph_Driver/src/stm32f4xx_tim.c ****     /* Reset the Output Compare and Output Compare N IDLE State */
 805:../Shared/Libraries/STM32F4xx_StdPeriph_Driver/src/stm32f4xx_tim.c ****     tmpcr2 &= (uint16_t)~TIM_CR2_OIS2;
 1551              		.loc 1 805 12
 1552 00b6 BB89     		ldrh	r3, [r7, #12]	@ movhi
 1553 00b8 23F48063 		bic	r3, r3, #1024
 1554 00bc BB81     		strh	r3, [r7, #12]	@ movhi
 806:../Shared/Libraries/STM32F4xx_StdPeriph_Driver/src/stm32f4xx_tim.c ****     tmpcr2 &= (uint16_t)~TIM_CR2_OIS2N;
 1555              		.loc 1 806 12
 1556 00be BB89     		ldrh	r3, [r7, #12]	@ movhi
 1557 00c0 23F40063 		bic	r3, r3, #2048
 1558 00c4 BB81     		strh	r3, [r7, #12]	@ movhi
 807:../Shared/Libraries/STM32F4xx_StdPeriph_Driver/src/stm32f4xx_tim.c ****     /* Set the Output Idle state */
 808:../Shared/Libraries/STM32F4xx_StdPeriph_Driver/src/stm32f4xx_tim.c ****     tmpcr2 |= (uint16_t)(TIM_OCInitStruct->TIM_OCIdleState << 2);
 1559              		.loc 1 808 42
 1560 00c6 3B68     		ldr	r3, [r7]
 1561 00c8 1B8A     		ldrh	r3, [r3, #16]
 1562              		.loc 1 808 15
 1563 00ca 9B00     		lsls	r3, r3, #2
 1564 00cc 9AB2     		uxth	r2, r3
 1565              		.loc 1 808 12
 1566 00ce BB89     		ldrh	r3, [r7, #12]	@ movhi
 1567 00d0 1343     		orrs	r3, r3, r2
 1568 00d2 BB81     		strh	r3, [r7, #12]	@ movhi
 809:../Shared/Libraries/STM32F4xx_StdPeriph_Driver/src/stm32f4xx_tim.c ****     /* Set the Output N Idle state */
 810:../Shared/Libraries/STM32F4xx_StdPeriph_Driver/src/stm32f4xx_tim.c ****     tmpcr2 |= (uint16_t)(TIM_OCInitStruct->TIM_OCNIdleState << 2);
 1569              		.loc 1 810 42
 1570 00d4 3B68     		ldr	r3, [r7]
ARM GAS  /tmp/cc2zcHeL.s 			page 43


 1571 00d6 5B8A     		ldrh	r3, [r3, #18]
 1572              		.loc 1 810 15
 1573 00d8 9B00     		lsls	r3, r3, #2
 1574 00da 9AB2     		uxth	r2, r3
 1575              		.loc 1 810 12
 1576 00dc BB89     		ldrh	r3, [r7, #12]	@ movhi
 1577 00de 1343     		orrs	r3, r3, r2
 1578 00e0 BB81     		strh	r3, [r7, #12]	@ movhi
 1579              	.L61:
 811:../Shared/Libraries/STM32F4xx_StdPeriph_Driver/src/stm32f4xx_tim.c ****   }
 812:../Shared/Libraries/STM32F4xx_StdPeriph_Driver/src/stm32f4xx_tim.c ****   /* Write to TIMx CR2 */
 813:../Shared/Libraries/STM32F4xx_StdPeriph_Driver/src/stm32f4xx_tim.c ****   TIMx->CR2 = tmpcr2;
 1580              		.loc 1 813 13
 1581 00e2 7B68     		ldr	r3, [r7, #4]
 1582 00e4 BA89     		ldrh	r2, [r7, #12]	@ movhi
 1583 00e6 9A80     		strh	r2, [r3, #4]	@ movhi
 814:../Shared/Libraries/STM32F4xx_StdPeriph_Driver/src/stm32f4xx_tim.c ****   
 815:../Shared/Libraries/STM32F4xx_StdPeriph_Driver/src/stm32f4xx_tim.c ****   /* Write to TIMx CCMR1 */
 816:../Shared/Libraries/STM32F4xx_StdPeriph_Driver/src/stm32f4xx_tim.c ****   TIMx->CCMR1 = tmpccmrx;
 1584              		.loc 1 816 15
 1585 00e8 7B68     		ldr	r3, [r7, #4]
 1586 00ea 7A89     		ldrh	r2, [r7, #10]	@ movhi
 1587 00ec 1A83     		strh	r2, [r3, #24]	@ movhi
 817:../Shared/Libraries/STM32F4xx_StdPeriph_Driver/src/stm32f4xx_tim.c ****   
 818:../Shared/Libraries/STM32F4xx_StdPeriph_Driver/src/stm32f4xx_tim.c ****   /* Set the Capture Compare Register value */
 819:../Shared/Libraries/STM32F4xx_StdPeriph_Driver/src/stm32f4xx_tim.c ****   TIMx->CCR2 = TIM_OCInitStruct->TIM_Pulse;
 1588              		.loc 1 819 32
 1589 00ee 3B68     		ldr	r3, [r7]
 1590 00f0 9A68     		ldr	r2, [r3, #8]
 1591              		.loc 1 819 14
 1592 00f2 7B68     		ldr	r3, [r7, #4]
 1593 00f4 9A63     		str	r2, [r3, #56]
 820:../Shared/Libraries/STM32F4xx_StdPeriph_Driver/src/stm32f4xx_tim.c ****   
 821:../Shared/Libraries/STM32F4xx_StdPeriph_Driver/src/stm32f4xx_tim.c ****   /* Write to TIMx CCER */
 822:../Shared/Libraries/STM32F4xx_StdPeriph_Driver/src/stm32f4xx_tim.c ****   TIMx->CCER = tmpccer;
 1594              		.loc 1 822 14
 1595 00f6 7B68     		ldr	r3, [r7, #4]
 1596 00f8 FA89     		ldrh	r2, [r7, #14]	@ movhi
 1597 00fa 1A84     		strh	r2, [r3, #32]	@ movhi
 823:../Shared/Libraries/STM32F4xx_StdPeriph_Driver/src/stm32f4xx_tim.c **** }
 1598              		.loc 1 823 1
 1599 00fc 00BF     		nop
 1600 00fe 1437     		adds	r7, r7, #20
 1601              	.LCFI98:
 1602              		.cfi_def_cfa_offset 4
 1603 0100 BD46     		mov	sp, r7
 1604              	.LCFI99:
 1605              		.cfi_def_cfa_register 13
 1606              		@ sp needed
 1607 0102 5DF8047B 		ldr	r7, [sp], #4
 1608              	.LCFI100:
 1609              		.cfi_restore 7
 1610              		.cfi_def_cfa_offset 0
 1611 0106 7047     		bx	lr
 1612              	.L63:
 1613              		.align	2
 1614              	.L62:
ARM GAS  /tmp/cc2zcHeL.s 			page 44


 1615 0108 00000140 		.word	1073807360
 1616 010c 00040140 		.word	1073808384
 1617              		.cfi_endproc
 1618              	.LFE126:
 1620              		.section	.text.TIM_OC3Init,"ax",%progbits
 1621              		.align	1
 1622              		.global	TIM_OC3Init
 1623              		.syntax unified
 1624              		.thumb
 1625              		.thumb_func
 1627              	TIM_OC3Init:
 1628              	.LFB127:
 824:../Shared/Libraries/STM32F4xx_StdPeriph_Driver/src/stm32f4xx_tim.c **** 
 825:../Shared/Libraries/STM32F4xx_StdPeriph_Driver/src/stm32f4xx_tim.c **** /**
 826:../Shared/Libraries/STM32F4xx_StdPeriph_Driver/src/stm32f4xx_tim.c ****   * @brief  Initializes the TIMx Channel3 according to the specified parameters
 827:../Shared/Libraries/STM32F4xx_StdPeriph_Driver/src/stm32f4xx_tim.c ****   *         in the TIM_OCInitStruct.
 828:../Shared/Libraries/STM32F4xx_StdPeriph_Driver/src/stm32f4xx_tim.c ****   * @param  TIMx: where x can be 1, 2, 3, 4, 5 or 8 to select the TIM peripheral.
 829:../Shared/Libraries/STM32F4xx_StdPeriph_Driver/src/stm32f4xx_tim.c ****   * @param  TIM_OCInitStruct: pointer to a TIM_OCInitTypeDef structure that contains
 830:../Shared/Libraries/STM32F4xx_StdPeriph_Driver/src/stm32f4xx_tim.c ****   *         the configuration information for the specified TIM peripheral.
 831:../Shared/Libraries/STM32F4xx_StdPeriph_Driver/src/stm32f4xx_tim.c ****   * @retval None
 832:../Shared/Libraries/STM32F4xx_StdPeriph_Driver/src/stm32f4xx_tim.c ****   */
 833:../Shared/Libraries/STM32F4xx_StdPeriph_Driver/src/stm32f4xx_tim.c **** void TIM_OC3Init(TIM_TypeDef* TIMx, TIM_OCInitTypeDef* TIM_OCInitStruct)
 834:../Shared/Libraries/STM32F4xx_StdPeriph_Driver/src/stm32f4xx_tim.c **** {
 1629              		.loc 1 834 1
 1630              		.cfi_startproc
 1631              		@ args = 0, pretend = 0, frame = 16
 1632              		@ frame_needed = 1, uses_anonymous_args = 0
 1633              		@ link register save eliminated.
 1634 0000 80B4     		push	{r7}
 1635              	.LCFI101:
 1636              		.cfi_def_cfa_offset 4
 1637              		.cfi_offset 7, -4
 1638 0002 85B0     		sub	sp, sp, #20
 1639              	.LCFI102:
 1640              		.cfi_def_cfa_offset 24
 1641 0004 00AF     		add	r7, sp, #0
 1642              	.LCFI103:
 1643              		.cfi_def_cfa_register 7
 1644 0006 7860     		str	r0, [r7, #4]
 1645 0008 3960     		str	r1, [r7]
 835:../Shared/Libraries/STM32F4xx_StdPeriph_Driver/src/stm32f4xx_tim.c ****   uint16_t tmpccmrx = 0, tmpccer = 0, tmpcr2 = 0;
 1646              		.loc 1 835 12
 1647 000a 0023     		movs	r3, #0
 1648 000c 7B81     		strh	r3, [r7, #10]	@ movhi
 1649              		.loc 1 835 26
 1650 000e 0023     		movs	r3, #0
 1651 0010 FB81     		strh	r3, [r7, #14]	@ movhi
 1652              		.loc 1 835 39
 1653 0012 0023     		movs	r3, #0
 1654 0014 BB81     		strh	r3, [r7, #12]	@ movhi
 836:../Shared/Libraries/STM32F4xx_StdPeriph_Driver/src/stm32f4xx_tim.c ****    
 837:../Shared/Libraries/STM32F4xx_StdPeriph_Driver/src/stm32f4xx_tim.c ****   /* Check the parameters */
 838:../Shared/Libraries/STM32F4xx_StdPeriph_Driver/src/stm32f4xx_tim.c ****   assert_param(IS_TIM_LIST3_PERIPH(TIMx)); 
 839:../Shared/Libraries/STM32F4xx_StdPeriph_Driver/src/stm32f4xx_tim.c ****   assert_param(IS_TIM_OC_MODE(TIM_OCInitStruct->TIM_OCMode));
 840:../Shared/Libraries/STM32F4xx_StdPeriph_Driver/src/stm32f4xx_tim.c ****   assert_param(IS_TIM_OUTPUT_STATE(TIM_OCInitStruct->TIM_OutputState));
 841:../Shared/Libraries/STM32F4xx_StdPeriph_Driver/src/stm32f4xx_tim.c ****   assert_param(IS_TIM_OC_POLARITY(TIM_OCInitStruct->TIM_OCPolarity));   
 842:../Shared/Libraries/STM32F4xx_StdPeriph_Driver/src/stm32f4xx_tim.c **** 
ARM GAS  /tmp/cc2zcHeL.s 			page 45


 843:../Shared/Libraries/STM32F4xx_StdPeriph_Driver/src/stm32f4xx_tim.c ****   /* Disable the Channel 3: Reset the CC2E Bit */
 844:../Shared/Libraries/STM32F4xx_StdPeriph_Driver/src/stm32f4xx_tim.c ****   TIMx->CCER &= (uint16_t)~TIM_CCER_CC3E;
 1655              		.loc 1 844 7
 1656 0016 7B68     		ldr	r3, [r7, #4]
 1657 0018 1B8C     		ldrh	r3, [r3, #32]	@ movhi
 1658 001a 9BB2     		uxth	r3, r3
 1659              		.loc 1 844 14
 1660 001c 23F48073 		bic	r3, r3, #256
 1661 0020 9AB2     		uxth	r2, r3
 1662 0022 7B68     		ldr	r3, [r7, #4]
 1663 0024 1A84     		strh	r2, [r3, #32]	@ movhi
 845:../Shared/Libraries/STM32F4xx_StdPeriph_Driver/src/stm32f4xx_tim.c ****   
 846:../Shared/Libraries/STM32F4xx_StdPeriph_Driver/src/stm32f4xx_tim.c ****   /* Get the TIMx CCER register value */
 847:../Shared/Libraries/STM32F4xx_StdPeriph_Driver/src/stm32f4xx_tim.c ****   tmpccer = TIMx->CCER;
 1664              		.loc 1 847 11
 1665 0026 7B68     		ldr	r3, [r7, #4]
 1666 0028 1B8C     		ldrh	r3, [r3, #32]	@ movhi
 1667 002a FB81     		strh	r3, [r7, #14]	@ movhi
 848:../Shared/Libraries/STM32F4xx_StdPeriph_Driver/src/stm32f4xx_tim.c ****   /* Get the TIMx CR2 register value */
 849:../Shared/Libraries/STM32F4xx_StdPeriph_Driver/src/stm32f4xx_tim.c ****   tmpcr2 =  TIMx->CR2;
 1668              		.loc 1 849 10
 1669 002c 7B68     		ldr	r3, [r7, #4]
 1670 002e 9B88     		ldrh	r3, [r3, #4]	@ movhi
 1671 0030 BB81     		strh	r3, [r7, #12]	@ movhi
 850:../Shared/Libraries/STM32F4xx_StdPeriph_Driver/src/stm32f4xx_tim.c ****   
 851:../Shared/Libraries/STM32F4xx_StdPeriph_Driver/src/stm32f4xx_tim.c ****   /* Get the TIMx CCMR2 register value */
 852:../Shared/Libraries/STM32F4xx_StdPeriph_Driver/src/stm32f4xx_tim.c ****   tmpccmrx = TIMx->CCMR2;
 1672              		.loc 1 852 12
 1673 0032 7B68     		ldr	r3, [r7, #4]
 1674 0034 9B8B     		ldrh	r3, [r3, #28]	@ movhi
 1675 0036 7B81     		strh	r3, [r7, #10]	@ movhi
 853:../Shared/Libraries/STM32F4xx_StdPeriph_Driver/src/stm32f4xx_tim.c ****     
 854:../Shared/Libraries/STM32F4xx_StdPeriph_Driver/src/stm32f4xx_tim.c ****   /* Reset the Output Compare mode and Capture/Compare selection Bits */
 855:../Shared/Libraries/STM32F4xx_StdPeriph_Driver/src/stm32f4xx_tim.c ****   tmpccmrx &= (uint16_t)~TIM_CCMR2_OC3M;
 1676              		.loc 1 855 12
 1677 0038 7B89     		ldrh	r3, [r7, #10]	@ movhi
 1678 003a 23F07003 		bic	r3, r3, #112
 1679 003e 7B81     		strh	r3, [r7, #10]	@ movhi
 856:../Shared/Libraries/STM32F4xx_StdPeriph_Driver/src/stm32f4xx_tim.c ****   tmpccmrx &= (uint16_t)~TIM_CCMR2_CC3S;  
 1680              		.loc 1 856 12
 1681 0040 7B89     		ldrh	r3, [r7, #10]	@ movhi
 1682 0042 23F00303 		bic	r3, r3, #3
 1683 0046 7B81     		strh	r3, [r7, #10]	@ movhi
 857:../Shared/Libraries/STM32F4xx_StdPeriph_Driver/src/stm32f4xx_tim.c ****   /* Select the Output Compare Mode */
 858:../Shared/Libraries/STM32F4xx_StdPeriph_Driver/src/stm32f4xx_tim.c ****   tmpccmrx |= TIM_OCInitStruct->TIM_OCMode;
 1684              		.loc 1 858 31
 1685 0048 3B68     		ldr	r3, [r7]
 1686 004a 1A88     		ldrh	r2, [r3]
 1687              		.loc 1 858 12
 1688 004c 7B89     		ldrh	r3, [r7, #10]	@ movhi
 1689 004e 1343     		orrs	r3, r3, r2
 1690 0050 7B81     		strh	r3, [r7, #10]	@ movhi
 859:../Shared/Libraries/STM32F4xx_StdPeriph_Driver/src/stm32f4xx_tim.c ****   
 860:../Shared/Libraries/STM32F4xx_StdPeriph_Driver/src/stm32f4xx_tim.c ****   /* Reset the Output Polarity level */
 861:../Shared/Libraries/STM32F4xx_StdPeriph_Driver/src/stm32f4xx_tim.c ****   tmpccer &= (uint16_t)~TIM_CCER_CC3P;
 1691              		.loc 1 861 11
 1692 0052 FB89     		ldrh	r3, [r7, #14]	@ movhi
ARM GAS  /tmp/cc2zcHeL.s 			page 46


 1693 0054 23F40073 		bic	r3, r3, #512
 1694 0058 FB81     		strh	r3, [r7, #14]	@ movhi
 862:../Shared/Libraries/STM32F4xx_StdPeriph_Driver/src/stm32f4xx_tim.c ****   /* Set the Output Compare Polarity */
 863:../Shared/Libraries/STM32F4xx_StdPeriph_Driver/src/stm32f4xx_tim.c ****   tmpccer |= (uint16_t)(TIM_OCInitStruct->TIM_OCPolarity << 8);
 1695              		.loc 1 863 41
 1696 005a 3B68     		ldr	r3, [r7]
 1697 005c 9B89     		ldrh	r3, [r3, #12]
 1698              		.loc 1 863 14
 1699 005e 1B02     		lsls	r3, r3, #8
 1700 0060 9AB2     		uxth	r2, r3
 1701              		.loc 1 863 11
 1702 0062 FB89     		ldrh	r3, [r7, #14]	@ movhi
 1703 0064 1343     		orrs	r3, r3, r2
 1704 0066 FB81     		strh	r3, [r7, #14]	@ movhi
 864:../Shared/Libraries/STM32F4xx_StdPeriph_Driver/src/stm32f4xx_tim.c ****   
 865:../Shared/Libraries/STM32F4xx_StdPeriph_Driver/src/stm32f4xx_tim.c ****   /* Set the Output State */
 866:../Shared/Libraries/STM32F4xx_StdPeriph_Driver/src/stm32f4xx_tim.c ****   tmpccer |= (uint16_t)(TIM_OCInitStruct->TIM_OutputState << 8);
 1705              		.loc 1 866 41
 1706 0068 3B68     		ldr	r3, [r7]
 1707 006a 5B88     		ldrh	r3, [r3, #2]
 1708              		.loc 1 866 14
 1709 006c 1B02     		lsls	r3, r3, #8
 1710 006e 9AB2     		uxth	r2, r3
 1711              		.loc 1 866 11
 1712 0070 FB89     		ldrh	r3, [r7, #14]	@ movhi
 1713 0072 1343     		orrs	r3, r3, r2
 1714 0074 FB81     		strh	r3, [r7, #14]	@ movhi
 867:../Shared/Libraries/STM32F4xx_StdPeriph_Driver/src/stm32f4xx_tim.c ****     
 868:../Shared/Libraries/STM32F4xx_StdPeriph_Driver/src/stm32f4xx_tim.c ****   if((TIMx == TIM1) || (TIMx == TIM8))
 1715              		.loc 1 868 5
 1716 0076 7B68     		ldr	r3, [r7, #4]
 1717 0078 224A     		ldr	r2, .L67
 1718 007a 9342     		cmp	r3, r2
 1719 007c 03D0     		beq	.L65
 1720              		.loc 1 868 21 discriminator 1
 1721 007e 7B68     		ldr	r3, [r7, #4]
 1722 0080 214A     		ldr	r2, .L67+4
 1723 0082 9342     		cmp	r3, r2
 1724 0084 2BD1     		bne	.L66
 1725              	.L65:
 869:../Shared/Libraries/STM32F4xx_StdPeriph_Driver/src/stm32f4xx_tim.c ****   {
 870:../Shared/Libraries/STM32F4xx_StdPeriph_Driver/src/stm32f4xx_tim.c ****     assert_param(IS_TIM_OUTPUTN_STATE(TIM_OCInitStruct->TIM_OutputNState));
 871:../Shared/Libraries/STM32F4xx_StdPeriph_Driver/src/stm32f4xx_tim.c ****     assert_param(IS_TIM_OCN_POLARITY(TIM_OCInitStruct->TIM_OCNPolarity));
 872:../Shared/Libraries/STM32F4xx_StdPeriph_Driver/src/stm32f4xx_tim.c ****     assert_param(IS_TIM_OCNIDLE_STATE(TIM_OCInitStruct->TIM_OCNIdleState));
 873:../Shared/Libraries/STM32F4xx_StdPeriph_Driver/src/stm32f4xx_tim.c ****     assert_param(IS_TIM_OCIDLE_STATE(TIM_OCInitStruct->TIM_OCIdleState));
 874:../Shared/Libraries/STM32F4xx_StdPeriph_Driver/src/stm32f4xx_tim.c ****     
 875:../Shared/Libraries/STM32F4xx_StdPeriph_Driver/src/stm32f4xx_tim.c ****     /* Reset the Output N Polarity level */
 876:../Shared/Libraries/STM32F4xx_StdPeriph_Driver/src/stm32f4xx_tim.c ****     tmpccer &= (uint16_t)~TIM_CCER_CC3NP;
 1726              		.loc 1 876 13
 1727 0086 FB89     		ldrh	r3, [r7, #14]	@ movhi
 1728 0088 23F40063 		bic	r3, r3, #2048
 1729 008c FB81     		strh	r3, [r7, #14]	@ movhi
 877:../Shared/Libraries/STM32F4xx_StdPeriph_Driver/src/stm32f4xx_tim.c ****     /* Set the Output N Polarity */
 878:../Shared/Libraries/STM32F4xx_StdPeriph_Driver/src/stm32f4xx_tim.c ****     tmpccer |= (uint16_t)(TIM_OCInitStruct->TIM_OCNPolarity << 8);
 1730              		.loc 1 878 43
 1731 008e 3B68     		ldr	r3, [r7]
 1732 0090 DB89     		ldrh	r3, [r3, #14]
ARM GAS  /tmp/cc2zcHeL.s 			page 47


 1733              		.loc 1 878 16
 1734 0092 1B02     		lsls	r3, r3, #8
 1735 0094 9AB2     		uxth	r2, r3
 1736              		.loc 1 878 13
 1737 0096 FB89     		ldrh	r3, [r7, #14]	@ movhi
 1738 0098 1343     		orrs	r3, r3, r2
 1739 009a FB81     		strh	r3, [r7, #14]	@ movhi
 879:../Shared/Libraries/STM32F4xx_StdPeriph_Driver/src/stm32f4xx_tim.c ****     /* Reset the Output N State */
 880:../Shared/Libraries/STM32F4xx_StdPeriph_Driver/src/stm32f4xx_tim.c ****     tmpccer &= (uint16_t)~TIM_CCER_CC3NE;
 1740              		.loc 1 880 13
 1741 009c FB89     		ldrh	r3, [r7, #14]	@ movhi
 1742 009e 23F48063 		bic	r3, r3, #1024
 1743 00a2 FB81     		strh	r3, [r7, #14]	@ movhi
 881:../Shared/Libraries/STM32F4xx_StdPeriph_Driver/src/stm32f4xx_tim.c ****     
 882:../Shared/Libraries/STM32F4xx_StdPeriph_Driver/src/stm32f4xx_tim.c ****     /* Set the Output N State */
 883:../Shared/Libraries/STM32F4xx_StdPeriph_Driver/src/stm32f4xx_tim.c ****     tmpccer |= (uint16_t)(TIM_OCInitStruct->TIM_OutputNState << 8);
 1744              		.loc 1 883 43
 1745 00a4 3B68     		ldr	r3, [r7]
 1746 00a6 9B88     		ldrh	r3, [r3, #4]
 1747              		.loc 1 883 16
 1748 00a8 1B02     		lsls	r3, r3, #8
 1749 00aa 9AB2     		uxth	r2, r3
 1750              		.loc 1 883 13
 1751 00ac FB89     		ldrh	r3, [r7, #14]	@ movhi
 1752 00ae 1343     		orrs	r3, r3, r2
 1753 00b0 FB81     		strh	r3, [r7, #14]	@ movhi
 884:../Shared/Libraries/STM32F4xx_StdPeriph_Driver/src/stm32f4xx_tim.c ****     /* Reset the Output Compare and Output Compare N IDLE State */
 885:../Shared/Libraries/STM32F4xx_StdPeriph_Driver/src/stm32f4xx_tim.c ****     tmpcr2 &= (uint16_t)~TIM_CR2_OIS3;
 1754              		.loc 1 885 12
 1755 00b2 BB89     		ldrh	r3, [r7, #12]	@ movhi
 1756 00b4 23F48053 		bic	r3, r3, #4096
 1757 00b8 BB81     		strh	r3, [r7, #12]	@ movhi
 886:../Shared/Libraries/STM32F4xx_StdPeriph_Driver/src/stm32f4xx_tim.c ****     tmpcr2 &= (uint16_t)~TIM_CR2_OIS3N;
 1758              		.loc 1 886 12
 1759 00ba BB89     		ldrh	r3, [r7, #12]	@ movhi
 1760 00bc 23F40053 		bic	r3, r3, #8192
 1761 00c0 BB81     		strh	r3, [r7, #12]	@ movhi
 887:../Shared/Libraries/STM32F4xx_StdPeriph_Driver/src/stm32f4xx_tim.c ****     /* Set the Output Idle state */
 888:../Shared/Libraries/STM32F4xx_StdPeriph_Driver/src/stm32f4xx_tim.c ****     tmpcr2 |= (uint16_t)(TIM_OCInitStruct->TIM_OCIdleState << 4);
 1762              		.loc 1 888 42
 1763 00c2 3B68     		ldr	r3, [r7]
 1764 00c4 1B8A     		ldrh	r3, [r3, #16]
 1765              		.loc 1 888 15
 1766 00c6 1B01     		lsls	r3, r3, #4
 1767 00c8 9AB2     		uxth	r2, r3
 1768              		.loc 1 888 12
 1769 00ca BB89     		ldrh	r3, [r7, #12]	@ movhi
 1770 00cc 1343     		orrs	r3, r3, r2
 1771 00ce BB81     		strh	r3, [r7, #12]	@ movhi
 889:../Shared/Libraries/STM32F4xx_StdPeriph_Driver/src/stm32f4xx_tim.c ****     /* Set the Output N Idle state */
 890:../Shared/Libraries/STM32F4xx_StdPeriph_Driver/src/stm32f4xx_tim.c ****     tmpcr2 |= (uint16_t)(TIM_OCInitStruct->TIM_OCNIdleState << 4);
 1772              		.loc 1 890 42
 1773 00d0 3B68     		ldr	r3, [r7]
 1774 00d2 5B8A     		ldrh	r3, [r3, #18]
 1775              		.loc 1 890 15
 1776 00d4 1B01     		lsls	r3, r3, #4
 1777 00d6 9AB2     		uxth	r2, r3
ARM GAS  /tmp/cc2zcHeL.s 			page 48


 1778              		.loc 1 890 12
 1779 00d8 BB89     		ldrh	r3, [r7, #12]	@ movhi
 1780 00da 1343     		orrs	r3, r3, r2
 1781 00dc BB81     		strh	r3, [r7, #12]	@ movhi
 1782              	.L66:
 891:../Shared/Libraries/STM32F4xx_StdPeriph_Driver/src/stm32f4xx_tim.c ****   }
 892:../Shared/Libraries/STM32F4xx_StdPeriph_Driver/src/stm32f4xx_tim.c ****   /* Write to TIMx CR2 */
 893:../Shared/Libraries/STM32F4xx_StdPeriph_Driver/src/stm32f4xx_tim.c ****   TIMx->CR2 = tmpcr2;
 1783              		.loc 1 893 13
 1784 00de 7B68     		ldr	r3, [r7, #4]
 1785 00e0 BA89     		ldrh	r2, [r7, #12]	@ movhi
 1786 00e2 9A80     		strh	r2, [r3, #4]	@ movhi
 894:../Shared/Libraries/STM32F4xx_StdPeriph_Driver/src/stm32f4xx_tim.c ****   
 895:../Shared/Libraries/STM32F4xx_StdPeriph_Driver/src/stm32f4xx_tim.c ****   /* Write to TIMx CCMR2 */
 896:../Shared/Libraries/STM32F4xx_StdPeriph_Driver/src/stm32f4xx_tim.c ****   TIMx->CCMR2 = tmpccmrx;
 1787              		.loc 1 896 15
 1788 00e4 7B68     		ldr	r3, [r7, #4]
 1789 00e6 7A89     		ldrh	r2, [r7, #10]	@ movhi
 1790 00e8 9A83     		strh	r2, [r3, #28]	@ movhi
 897:../Shared/Libraries/STM32F4xx_StdPeriph_Driver/src/stm32f4xx_tim.c ****   
 898:../Shared/Libraries/STM32F4xx_StdPeriph_Driver/src/stm32f4xx_tim.c ****   /* Set the Capture Compare Register value */
 899:../Shared/Libraries/STM32F4xx_StdPeriph_Driver/src/stm32f4xx_tim.c ****   TIMx->CCR3 = TIM_OCInitStruct->TIM_Pulse;
 1791              		.loc 1 899 32
 1792 00ea 3B68     		ldr	r3, [r7]
 1793 00ec 9A68     		ldr	r2, [r3, #8]
 1794              		.loc 1 899 14
 1795 00ee 7B68     		ldr	r3, [r7, #4]
 1796 00f0 DA63     		str	r2, [r3, #60]
 900:../Shared/Libraries/STM32F4xx_StdPeriph_Driver/src/stm32f4xx_tim.c ****   
 901:../Shared/Libraries/STM32F4xx_StdPeriph_Driver/src/stm32f4xx_tim.c ****   /* Write to TIMx CCER */
 902:../Shared/Libraries/STM32F4xx_StdPeriph_Driver/src/stm32f4xx_tim.c ****   TIMx->CCER = tmpccer;
 1797              		.loc 1 902 14
 1798 00f2 7B68     		ldr	r3, [r7, #4]
 1799 00f4 FA89     		ldrh	r2, [r7, #14]	@ movhi
 1800 00f6 1A84     		strh	r2, [r3, #32]	@ movhi
 903:../Shared/Libraries/STM32F4xx_StdPeriph_Driver/src/stm32f4xx_tim.c **** }
 1801              		.loc 1 903 1
 1802 00f8 00BF     		nop
 1803 00fa 1437     		adds	r7, r7, #20
 1804              	.LCFI104:
 1805              		.cfi_def_cfa_offset 4
 1806 00fc BD46     		mov	sp, r7
 1807              	.LCFI105:
 1808              		.cfi_def_cfa_register 13
 1809              		@ sp needed
 1810 00fe 5DF8047B 		ldr	r7, [sp], #4
 1811              	.LCFI106:
 1812              		.cfi_restore 7
 1813              		.cfi_def_cfa_offset 0
 1814 0102 7047     		bx	lr
 1815              	.L68:
 1816              		.align	2
 1817              	.L67:
 1818 0104 00000140 		.word	1073807360
 1819 0108 00040140 		.word	1073808384
 1820              		.cfi_endproc
 1821              	.LFE127:
ARM GAS  /tmp/cc2zcHeL.s 			page 49


 1823              		.section	.text.TIM_OC4Init,"ax",%progbits
 1824              		.align	1
 1825              		.global	TIM_OC4Init
 1826              		.syntax unified
 1827              		.thumb
 1828              		.thumb_func
 1830              	TIM_OC4Init:
 1831              	.LFB128:
 904:../Shared/Libraries/STM32F4xx_StdPeriph_Driver/src/stm32f4xx_tim.c **** 
 905:../Shared/Libraries/STM32F4xx_StdPeriph_Driver/src/stm32f4xx_tim.c **** /**
 906:../Shared/Libraries/STM32F4xx_StdPeriph_Driver/src/stm32f4xx_tim.c ****   * @brief  Initializes the TIMx Channel4 according to the specified parameters
 907:../Shared/Libraries/STM32F4xx_StdPeriph_Driver/src/stm32f4xx_tim.c ****   *         in the TIM_OCInitStruct.
 908:../Shared/Libraries/STM32F4xx_StdPeriph_Driver/src/stm32f4xx_tim.c ****   * @param  TIMx: where x can be 1, 2, 3, 4, 5 or 8 to select the TIM peripheral.
 909:../Shared/Libraries/STM32F4xx_StdPeriph_Driver/src/stm32f4xx_tim.c ****   * @param  TIM_OCInitStruct: pointer to a TIM_OCInitTypeDef structure that contains
 910:../Shared/Libraries/STM32F4xx_StdPeriph_Driver/src/stm32f4xx_tim.c ****   *         the configuration information for the specified TIM peripheral.
 911:../Shared/Libraries/STM32F4xx_StdPeriph_Driver/src/stm32f4xx_tim.c ****   * @retval None
 912:../Shared/Libraries/STM32F4xx_StdPeriph_Driver/src/stm32f4xx_tim.c ****   */
 913:../Shared/Libraries/STM32F4xx_StdPeriph_Driver/src/stm32f4xx_tim.c **** void TIM_OC4Init(TIM_TypeDef* TIMx, TIM_OCInitTypeDef* TIM_OCInitStruct)
 914:../Shared/Libraries/STM32F4xx_StdPeriph_Driver/src/stm32f4xx_tim.c **** {
 1832              		.loc 1 914 1
 1833              		.cfi_startproc
 1834              		@ args = 0, pretend = 0, frame = 16
 1835              		@ frame_needed = 1, uses_anonymous_args = 0
 1836              		@ link register save eliminated.
 1837 0000 80B4     		push	{r7}
 1838              	.LCFI107:
 1839              		.cfi_def_cfa_offset 4
 1840              		.cfi_offset 7, -4
 1841 0002 85B0     		sub	sp, sp, #20
 1842              	.LCFI108:
 1843              		.cfi_def_cfa_offset 24
 1844 0004 00AF     		add	r7, sp, #0
 1845              	.LCFI109:
 1846              		.cfi_def_cfa_register 7
 1847 0006 7860     		str	r0, [r7, #4]
 1848 0008 3960     		str	r1, [r7]
 915:../Shared/Libraries/STM32F4xx_StdPeriph_Driver/src/stm32f4xx_tim.c ****   uint16_t tmpccmrx = 0, tmpccer = 0, tmpcr2 = 0;
 1849              		.loc 1 915 12
 1850 000a 0023     		movs	r3, #0
 1851 000c BB81     		strh	r3, [r7, #12]	@ movhi
 1852              		.loc 1 915 26
 1853 000e 0023     		movs	r3, #0
 1854 0010 7B81     		strh	r3, [r7, #10]	@ movhi
 1855              		.loc 1 915 39
 1856 0012 0023     		movs	r3, #0
 1857 0014 FB81     		strh	r3, [r7, #14]	@ movhi
 916:../Shared/Libraries/STM32F4xx_StdPeriph_Driver/src/stm32f4xx_tim.c ****    
 917:../Shared/Libraries/STM32F4xx_StdPeriph_Driver/src/stm32f4xx_tim.c ****   /* Check the parameters */
 918:../Shared/Libraries/STM32F4xx_StdPeriph_Driver/src/stm32f4xx_tim.c ****   assert_param(IS_TIM_LIST3_PERIPH(TIMx)); 
 919:../Shared/Libraries/STM32F4xx_StdPeriph_Driver/src/stm32f4xx_tim.c ****   assert_param(IS_TIM_OC_MODE(TIM_OCInitStruct->TIM_OCMode));
 920:../Shared/Libraries/STM32F4xx_StdPeriph_Driver/src/stm32f4xx_tim.c ****   assert_param(IS_TIM_OUTPUT_STATE(TIM_OCInitStruct->TIM_OutputState));
 921:../Shared/Libraries/STM32F4xx_StdPeriph_Driver/src/stm32f4xx_tim.c ****   assert_param(IS_TIM_OC_POLARITY(TIM_OCInitStruct->TIM_OCPolarity));   
 922:../Shared/Libraries/STM32F4xx_StdPeriph_Driver/src/stm32f4xx_tim.c **** 
 923:../Shared/Libraries/STM32F4xx_StdPeriph_Driver/src/stm32f4xx_tim.c ****   /* Disable the Channel 4: Reset the CC4E Bit */
 924:../Shared/Libraries/STM32F4xx_StdPeriph_Driver/src/stm32f4xx_tim.c ****   TIMx->CCER &= (uint16_t)~TIM_CCER_CC4E;
 1858              		.loc 1 924 7
 1859 0016 7B68     		ldr	r3, [r7, #4]
ARM GAS  /tmp/cc2zcHeL.s 			page 50


 1860 0018 1B8C     		ldrh	r3, [r3, #32]	@ movhi
 1861 001a 9BB2     		uxth	r3, r3
 1862              		.loc 1 924 14
 1863 001c 23F48053 		bic	r3, r3, #4096
 1864 0020 9AB2     		uxth	r2, r3
 1865 0022 7B68     		ldr	r3, [r7, #4]
 1866 0024 1A84     		strh	r2, [r3, #32]	@ movhi
 925:../Shared/Libraries/STM32F4xx_StdPeriph_Driver/src/stm32f4xx_tim.c ****   
 926:../Shared/Libraries/STM32F4xx_StdPeriph_Driver/src/stm32f4xx_tim.c ****   /* Get the TIMx CCER register value */
 927:../Shared/Libraries/STM32F4xx_StdPeriph_Driver/src/stm32f4xx_tim.c ****   tmpccer = TIMx->CCER;
 1867              		.loc 1 927 11
 1868 0026 7B68     		ldr	r3, [r7, #4]
 1869 0028 1B8C     		ldrh	r3, [r3, #32]	@ movhi
 1870 002a 7B81     		strh	r3, [r7, #10]	@ movhi
 928:../Shared/Libraries/STM32F4xx_StdPeriph_Driver/src/stm32f4xx_tim.c ****   /* Get the TIMx CR2 register value */
 929:../Shared/Libraries/STM32F4xx_StdPeriph_Driver/src/stm32f4xx_tim.c ****   tmpcr2 =  TIMx->CR2;
 1871              		.loc 1 929 10
 1872 002c 7B68     		ldr	r3, [r7, #4]
 1873 002e 9B88     		ldrh	r3, [r3, #4]	@ movhi
 1874 0030 FB81     		strh	r3, [r7, #14]	@ movhi
 930:../Shared/Libraries/STM32F4xx_StdPeriph_Driver/src/stm32f4xx_tim.c ****   
 931:../Shared/Libraries/STM32F4xx_StdPeriph_Driver/src/stm32f4xx_tim.c ****   /* Get the TIMx CCMR2 register value */
 932:../Shared/Libraries/STM32F4xx_StdPeriph_Driver/src/stm32f4xx_tim.c ****   tmpccmrx = TIMx->CCMR2;
 1875              		.loc 1 932 12
 1876 0032 7B68     		ldr	r3, [r7, #4]
 1877 0034 9B8B     		ldrh	r3, [r3, #28]	@ movhi
 1878 0036 BB81     		strh	r3, [r7, #12]	@ movhi
 933:../Shared/Libraries/STM32F4xx_StdPeriph_Driver/src/stm32f4xx_tim.c ****     
 934:../Shared/Libraries/STM32F4xx_StdPeriph_Driver/src/stm32f4xx_tim.c ****   /* Reset the Output Compare mode and Capture/Compare selection Bits */
 935:../Shared/Libraries/STM32F4xx_StdPeriph_Driver/src/stm32f4xx_tim.c ****   tmpccmrx &= (uint16_t)~TIM_CCMR2_OC4M;
 1879              		.loc 1 935 12
 1880 0038 BB89     		ldrh	r3, [r7, #12]	@ movhi
 1881 003a 23F4E043 		bic	r3, r3, #28672
 1882 003e BB81     		strh	r3, [r7, #12]	@ movhi
 936:../Shared/Libraries/STM32F4xx_StdPeriph_Driver/src/stm32f4xx_tim.c ****   tmpccmrx &= (uint16_t)~TIM_CCMR2_CC4S;
 1883              		.loc 1 936 12
 1884 0040 BB89     		ldrh	r3, [r7, #12]	@ movhi
 1885 0042 23F44073 		bic	r3, r3, #768
 1886 0046 BB81     		strh	r3, [r7, #12]	@ movhi
 937:../Shared/Libraries/STM32F4xx_StdPeriph_Driver/src/stm32f4xx_tim.c ****   
 938:../Shared/Libraries/STM32F4xx_StdPeriph_Driver/src/stm32f4xx_tim.c ****   /* Select the Output Compare Mode */
 939:../Shared/Libraries/STM32F4xx_StdPeriph_Driver/src/stm32f4xx_tim.c ****   tmpccmrx |= (uint16_t)(TIM_OCInitStruct->TIM_OCMode << 8);
 1887              		.loc 1 939 42
 1888 0048 3B68     		ldr	r3, [r7]
 1889 004a 1B88     		ldrh	r3, [r3]
 1890              		.loc 1 939 15
 1891 004c 1B02     		lsls	r3, r3, #8
 1892 004e 9AB2     		uxth	r2, r3
 1893              		.loc 1 939 12
 1894 0050 BB89     		ldrh	r3, [r7, #12]	@ movhi
 1895 0052 1343     		orrs	r3, r3, r2
 1896 0054 BB81     		strh	r3, [r7, #12]	@ movhi
 940:../Shared/Libraries/STM32F4xx_StdPeriph_Driver/src/stm32f4xx_tim.c ****   
 941:../Shared/Libraries/STM32F4xx_StdPeriph_Driver/src/stm32f4xx_tim.c ****   /* Reset the Output Polarity level */
 942:../Shared/Libraries/STM32F4xx_StdPeriph_Driver/src/stm32f4xx_tim.c ****   tmpccer &= (uint16_t)~TIM_CCER_CC4P;
 1897              		.loc 1 942 11
 1898 0056 7B89     		ldrh	r3, [r7, #10]	@ movhi
ARM GAS  /tmp/cc2zcHeL.s 			page 51


 1899 0058 23F40053 		bic	r3, r3, #8192
 1900 005c 7B81     		strh	r3, [r7, #10]	@ movhi
 943:../Shared/Libraries/STM32F4xx_StdPeriph_Driver/src/stm32f4xx_tim.c ****   /* Set the Output Compare Polarity */
 944:../Shared/Libraries/STM32F4xx_StdPeriph_Driver/src/stm32f4xx_tim.c ****   tmpccer |= (uint16_t)(TIM_OCInitStruct->TIM_OCPolarity << 12);
 1901              		.loc 1 944 41
 1902 005e 3B68     		ldr	r3, [r7]
 1903 0060 9B89     		ldrh	r3, [r3, #12]
 1904              		.loc 1 944 14
 1905 0062 1B03     		lsls	r3, r3, #12
 1906 0064 9AB2     		uxth	r2, r3
 1907              		.loc 1 944 11
 1908 0066 7B89     		ldrh	r3, [r7, #10]	@ movhi
 1909 0068 1343     		orrs	r3, r3, r2
 1910 006a 7B81     		strh	r3, [r7, #10]	@ movhi
 945:../Shared/Libraries/STM32F4xx_StdPeriph_Driver/src/stm32f4xx_tim.c ****   
 946:../Shared/Libraries/STM32F4xx_StdPeriph_Driver/src/stm32f4xx_tim.c ****   /* Set the Output State */
 947:../Shared/Libraries/STM32F4xx_StdPeriph_Driver/src/stm32f4xx_tim.c ****   tmpccer |= (uint16_t)(TIM_OCInitStruct->TIM_OutputState << 12);
 1911              		.loc 1 947 41
 1912 006c 3B68     		ldr	r3, [r7]
 1913 006e 5B88     		ldrh	r3, [r3, #2]
 1914              		.loc 1 947 14
 1915 0070 1B03     		lsls	r3, r3, #12
 1916 0072 9AB2     		uxth	r2, r3
 1917              		.loc 1 947 11
 1918 0074 7B89     		ldrh	r3, [r7, #10]	@ movhi
 1919 0076 1343     		orrs	r3, r3, r2
 1920 0078 7B81     		strh	r3, [r7, #10]	@ movhi
 948:../Shared/Libraries/STM32F4xx_StdPeriph_Driver/src/stm32f4xx_tim.c ****   
 949:../Shared/Libraries/STM32F4xx_StdPeriph_Driver/src/stm32f4xx_tim.c ****   if((TIMx == TIM1) || (TIMx == TIM8))
 1921              		.loc 1 949 5
 1922 007a 7B68     		ldr	r3, [r7, #4]
 1923 007c 124A     		ldr	r2, .L72
 1924 007e 9342     		cmp	r3, r2
 1925 0080 03D0     		beq	.L70
 1926              		.loc 1 949 21 discriminator 1
 1927 0082 7B68     		ldr	r3, [r7, #4]
 1928 0084 114A     		ldr	r2, .L72+4
 1929 0086 9342     		cmp	r3, r2
 1930 0088 0AD1     		bne	.L71
 1931              	.L70:
 950:../Shared/Libraries/STM32F4xx_StdPeriph_Driver/src/stm32f4xx_tim.c ****   {
 951:../Shared/Libraries/STM32F4xx_StdPeriph_Driver/src/stm32f4xx_tim.c ****     assert_param(IS_TIM_OCIDLE_STATE(TIM_OCInitStruct->TIM_OCIdleState));
 952:../Shared/Libraries/STM32F4xx_StdPeriph_Driver/src/stm32f4xx_tim.c ****     /* Reset the Output Compare IDLE State */
 953:../Shared/Libraries/STM32F4xx_StdPeriph_Driver/src/stm32f4xx_tim.c ****     tmpcr2 &=(uint16_t) ~TIM_CR2_OIS4;
 1932              		.loc 1 953 12
 1933 008a FB89     		ldrh	r3, [r7, #14]	@ movhi
 1934 008c 23F48043 		bic	r3, r3, #16384
 1935 0090 FB81     		strh	r3, [r7, #14]	@ movhi
 954:../Shared/Libraries/STM32F4xx_StdPeriph_Driver/src/stm32f4xx_tim.c ****     /* Set the Output Idle state */
 955:../Shared/Libraries/STM32F4xx_StdPeriph_Driver/src/stm32f4xx_tim.c ****     tmpcr2 |= (uint16_t)(TIM_OCInitStruct->TIM_OCIdleState << 6);
 1936              		.loc 1 955 42
 1937 0092 3B68     		ldr	r3, [r7]
 1938 0094 1B8A     		ldrh	r3, [r3, #16]
 1939              		.loc 1 955 15
 1940 0096 9B01     		lsls	r3, r3, #6
 1941 0098 9AB2     		uxth	r2, r3
 1942              		.loc 1 955 12
ARM GAS  /tmp/cc2zcHeL.s 			page 52


 1943 009a FB89     		ldrh	r3, [r7, #14]	@ movhi
 1944 009c 1343     		orrs	r3, r3, r2
 1945 009e FB81     		strh	r3, [r7, #14]	@ movhi
 1946              	.L71:
 956:../Shared/Libraries/STM32F4xx_StdPeriph_Driver/src/stm32f4xx_tim.c ****   }
 957:../Shared/Libraries/STM32F4xx_StdPeriph_Driver/src/stm32f4xx_tim.c ****   /* Write to TIMx CR2 */
 958:../Shared/Libraries/STM32F4xx_StdPeriph_Driver/src/stm32f4xx_tim.c ****   TIMx->CR2 = tmpcr2;
 1947              		.loc 1 958 13
 1948 00a0 7B68     		ldr	r3, [r7, #4]
 1949 00a2 FA89     		ldrh	r2, [r7, #14]	@ movhi
 1950 00a4 9A80     		strh	r2, [r3, #4]	@ movhi
 959:../Shared/Libraries/STM32F4xx_StdPeriph_Driver/src/stm32f4xx_tim.c ****   
 960:../Shared/Libraries/STM32F4xx_StdPeriph_Driver/src/stm32f4xx_tim.c ****   /* Write to TIMx CCMR2 */  
 961:../Shared/Libraries/STM32F4xx_StdPeriph_Driver/src/stm32f4xx_tim.c ****   TIMx->CCMR2 = tmpccmrx;
 1951              		.loc 1 961 15
 1952 00a6 7B68     		ldr	r3, [r7, #4]
 1953 00a8 BA89     		ldrh	r2, [r7, #12]	@ movhi
 1954 00aa 9A83     		strh	r2, [r3, #28]	@ movhi
 962:../Shared/Libraries/STM32F4xx_StdPeriph_Driver/src/stm32f4xx_tim.c ****     
 963:../Shared/Libraries/STM32F4xx_StdPeriph_Driver/src/stm32f4xx_tim.c ****   /* Set the Capture Compare Register value */
 964:../Shared/Libraries/STM32F4xx_StdPeriph_Driver/src/stm32f4xx_tim.c ****   TIMx->CCR4 = TIM_OCInitStruct->TIM_Pulse;
 1955              		.loc 1 964 32
 1956 00ac 3B68     		ldr	r3, [r7]
 1957 00ae 9A68     		ldr	r2, [r3, #8]
 1958              		.loc 1 964 14
 1959 00b0 7B68     		ldr	r3, [r7, #4]
 1960 00b2 1A64     		str	r2, [r3, #64]
 965:../Shared/Libraries/STM32F4xx_StdPeriph_Driver/src/stm32f4xx_tim.c ****   
 966:../Shared/Libraries/STM32F4xx_StdPeriph_Driver/src/stm32f4xx_tim.c ****   /* Write to TIMx CCER */
 967:../Shared/Libraries/STM32F4xx_StdPeriph_Driver/src/stm32f4xx_tim.c ****   TIMx->CCER = tmpccer;
 1961              		.loc 1 967 14
 1962 00b4 7B68     		ldr	r3, [r7, #4]
 1963 00b6 7A89     		ldrh	r2, [r7, #10]	@ movhi
 1964 00b8 1A84     		strh	r2, [r3, #32]	@ movhi
 968:../Shared/Libraries/STM32F4xx_StdPeriph_Driver/src/stm32f4xx_tim.c **** }
 1965              		.loc 1 968 1
 1966 00ba 00BF     		nop
 1967 00bc 1437     		adds	r7, r7, #20
 1968              	.LCFI110:
 1969              		.cfi_def_cfa_offset 4
 1970 00be BD46     		mov	sp, r7
 1971              	.LCFI111:
 1972              		.cfi_def_cfa_register 13
 1973              		@ sp needed
 1974 00c0 5DF8047B 		ldr	r7, [sp], #4
 1975              	.LCFI112:
 1976              		.cfi_restore 7
 1977              		.cfi_def_cfa_offset 0
 1978 00c4 7047     		bx	lr
 1979              	.L73:
 1980 00c6 00BF     		.align	2
 1981              	.L72:
 1982 00c8 00000140 		.word	1073807360
 1983 00cc 00040140 		.word	1073808384
 1984              		.cfi_endproc
 1985              	.LFE128:
 1987              		.section	.text.TIM_OCStructInit,"ax",%progbits
ARM GAS  /tmp/cc2zcHeL.s 			page 53


 1988              		.align	1
 1989              		.global	TIM_OCStructInit
 1990              		.syntax unified
 1991              		.thumb
 1992              		.thumb_func
 1994              	TIM_OCStructInit:
 1995              	.LFB129:
 969:../Shared/Libraries/STM32F4xx_StdPeriph_Driver/src/stm32f4xx_tim.c **** 
 970:../Shared/Libraries/STM32F4xx_StdPeriph_Driver/src/stm32f4xx_tim.c **** /**
 971:../Shared/Libraries/STM32F4xx_StdPeriph_Driver/src/stm32f4xx_tim.c ****   * @brief  Fills each TIM_OCInitStruct member with its default value.
 972:../Shared/Libraries/STM32F4xx_StdPeriph_Driver/src/stm32f4xx_tim.c ****   * @param  TIM_OCInitStruct: pointer to a TIM_OCInitTypeDef structure which will
 973:../Shared/Libraries/STM32F4xx_StdPeriph_Driver/src/stm32f4xx_tim.c ****   *         be initialized.
 974:../Shared/Libraries/STM32F4xx_StdPeriph_Driver/src/stm32f4xx_tim.c ****   * @retval None
 975:../Shared/Libraries/STM32F4xx_StdPeriph_Driver/src/stm32f4xx_tim.c ****   */
 976:../Shared/Libraries/STM32F4xx_StdPeriph_Driver/src/stm32f4xx_tim.c **** void TIM_OCStructInit(TIM_OCInitTypeDef* TIM_OCInitStruct)
 977:../Shared/Libraries/STM32F4xx_StdPeriph_Driver/src/stm32f4xx_tim.c **** {
 1996              		.loc 1 977 1
 1997              		.cfi_startproc
 1998              		@ args = 0, pretend = 0, frame = 8
 1999              		@ frame_needed = 1, uses_anonymous_args = 0
 2000              		@ link register save eliminated.
 2001 0000 80B4     		push	{r7}
 2002              	.LCFI113:
 2003              		.cfi_def_cfa_offset 4
 2004              		.cfi_offset 7, -4
 2005 0002 83B0     		sub	sp, sp, #12
 2006              	.LCFI114:
 2007              		.cfi_def_cfa_offset 16
 2008 0004 00AF     		add	r7, sp, #0
 2009              	.LCFI115:
 2010              		.cfi_def_cfa_register 7
 2011 0006 7860     		str	r0, [r7, #4]
 978:../Shared/Libraries/STM32F4xx_StdPeriph_Driver/src/stm32f4xx_tim.c ****   /* Set the default configuration */
 979:../Shared/Libraries/STM32F4xx_StdPeriph_Driver/src/stm32f4xx_tim.c ****   TIM_OCInitStruct->TIM_OCMode = TIM_OCMode_Timing;
 2012              		.loc 1 979 32
 2013 0008 7B68     		ldr	r3, [r7, #4]
 2014 000a 0022     		movs	r2, #0
 2015 000c 1A80     		strh	r2, [r3]	@ movhi
 980:../Shared/Libraries/STM32F4xx_StdPeriph_Driver/src/stm32f4xx_tim.c ****   TIM_OCInitStruct->TIM_OutputState = TIM_OutputState_Disable;
 2016              		.loc 1 980 37
 2017 000e 7B68     		ldr	r3, [r7, #4]
 2018 0010 0022     		movs	r2, #0
 2019 0012 5A80     		strh	r2, [r3, #2]	@ movhi
 981:../Shared/Libraries/STM32F4xx_StdPeriph_Driver/src/stm32f4xx_tim.c ****   TIM_OCInitStruct->TIM_OutputNState = TIM_OutputNState_Disable;
 2020              		.loc 1 981 38
 2021 0014 7B68     		ldr	r3, [r7, #4]
 2022 0016 0022     		movs	r2, #0
 2023 0018 9A80     		strh	r2, [r3, #4]	@ movhi
 982:../Shared/Libraries/STM32F4xx_StdPeriph_Driver/src/stm32f4xx_tim.c ****   TIM_OCInitStruct->TIM_Pulse = 0x00000000;
 2024              		.loc 1 982 31
 2025 001a 7B68     		ldr	r3, [r7, #4]
 2026 001c 0022     		movs	r2, #0
 2027 001e 9A60     		str	r2, [r3, #8]
 983:../Shared/Libraries/STM32F4xx_StdPeriph_Driver/src/stm32f4xx_tim.c ****   TIM_OCInitStruct->TIM_OCPolarity = TIM_OCPolarity_High;
 2028              		.loc 1 983 36
 2029 0020 7B68     		ldr	r3, [r7, #4]
 2030 0022 0022     		movs	r2, #0
ARM GAS  /tmp/cc2zcHeL.s 			page 54


 2031 0024 9A81     		strh	r2, [r3, #12]	@ movhi
 984:../Shared/Libraries/STM32F4xx_StdPeriph_Driver/src/stm32f4xx_tim.c ****   TIM_OCInitStruct->TIM_OCNPolarity = TIM_OCPolarity_High;
 2032              		.loc 1 984 37
 2033 0026 7B68     		ldr	r3, [r7, #4]
 2034 0028 0022     		movs	r2, #0
 2035 002a DA81     		strh	r2, [r3, #14]	@ movhi
 985:../Shared/Libraries/STM32F4xx_StdPeriph_Driver/src/stm32f4xx_tim.c ****   TIM_OCInitStruct->TIM_OCIdleState = TIM_OCIdleState_Reset;
 2036              		.loc 1 985 37
 2037 002c 7B68     		ldr	r3, [r7, #4]
 2038 002e 0022     		movs	r2, #0
 2039 0030 1A82     		strh	r2, [r3, #16]	@ movhi
 986:../Shared/Libraries/STM32F4xx_StdPeriph_Driver/src/stm32f4xx_tim.c ****   TIM_OCInitStruct->TIM_OCNIdleState = TIM_OCNIdleState_Reset;
 2040              		.loc 1 986 38
 2041 0032 7B68     		ldr	r3, [r7, #4]
 2042 0034 0022     		movs	r2, #0
 2043 0036 5A82     		strh	r2, [r3, #18]	@ movhi
 987:../Shared/Libraries/STM32F4xx_StdPeriph_Driver/src/stm32f4xx_tim.c **** }
 2044              		.loc 1 987 1
 2045 0038 00BF     		nop
 2046 003a 0C37     		adds	r7, r7, #12
 2047              	.LCFI116:
 2048              		.cfi_def_cfa_offset 4
 2049 003c BD46     		mov	sp, r7
 2050              	.LCFI117:
 2051              		.cfi_def_cfa_register 13
 2052              		@ sp needed
 2053 003e 5DF8047B 		ldr	r7, [sp], #4
 2054              	.LCFI118:
 2055              		.cfi_restore 7
 2056              		.cfi_def_cfa_offset 0
 2057 0042 7047     		bx	lr
 2058              		.cfi_endproc
 2059              	.LFE129:
 2061              		.section	.text.TIM_SelectOCxM,"ax",%progbits
 2062              		.align	1
 2063              		.global	TIM_SelectOCxM
 2064              		.syntax unified
 2065              		.thumb
 2066              		.thumb_func
 2068              	TIM_SelectOCxM:
 2069              	.LFB130:
 988:../Shared/Libraries/STM32F4xx_StdPeriph_Driver/src/stm32f4xx_tim.c **** 
 989:../Shared/Libraries/STM32F4xx_StdPeriph_Driver/src/stm32f4xx_tim.c **** /**
 990:../Shared/Libraries/STM32F4xx_StdPeriph_Driver/src/stm32f4xx_tim.c ****   * @brief  Selects the TIM Output Compare Mode.
 991:../Shared/Libraries/STM32F4xx_StdPeriph_Driver/src/stm32f4xx_tim.c ****   * @note   This function disables the selected channel before changing the Output
 992:../Shared/Libraries/STM32F4xx_StdPeriph_Driver/src/stm32f4xx_tim.c ****   *         Compare Mode. If needed, user has to enable this channel using
 993:../Shared/Libraries/STM32F4xx_StdPeriph_Driver/src/stm32f4xx_tim.c ****   *         TIM_CCxCmd() and TIM_CCxNCmd() functions.
 994:../Shared/Libraries/STM32F4xx_StdPeriph_Driver/src/stm32f4xx_tim.c ****   * @param  TIMx: where x can be 1 to 14 except 6 and 7, to select the TIM peripheral.
 995:../Shared/Libraries/STM32F4xx_StdPeriph_Driver/src/stm32f4xx_tim.c ****   * @param  TIM_Channel: specifies the TIM Channel
 996:../Shared/Libraries/STM32F4xx_StdPeriph_Driver/src/stm32f4xx_tim.c ****   *          This parameter can be one of the following values:
 997:../Shared/Libraries/STM32F4xx_StdPeriph_Driver/src/stm32f4xx_tim.c ****   *            @arg TIM_Channel_1: TIM Channel 1
 998:../Shared/Libraries/STM32F4xx_StdPeriph_Driver/src/stm32f4xx_tim.c ****   *            @arg TIM_Channel_2: TIM Channel 2
 999:../Shared/Libraries/STM32F4xx_StdPeriph_Driver/src/stm32f4xx_tim.c ****   *            @arg TIM_Channel_3: TIM Channel 3
1000:../Shared/Libraries/STM32F4xx_StdPeriph_Driver/src/stm32f4xx_tim.c ****   *            @arg TIM_Channel_4: TIM Channel 4
1001:../Shared/Libraries/STM32F4xx_StdPeriph_Driver/src/stm32f4xx_tim.c ****   * @param  TIM_OCMode: specifies the TIM Output Compare Mode.
1002:../Shared/Libraries/STM32F4xx_StdPeriph_Driver/src/stm32f4xx_tim.c ****   *           This parameter can be one of the following values:
1003:../Shared/Libraries/STM32F4xx_StdPeriph_Driver/src/stm32f4xx_tim.c ****   *            @arg TIM_OCMode_Timing
ARM GAS  /tmp/cc2zcHeL.s 			page 55


1004:../Shared/Libraries/STM32F4xx_StdPeriph_Driver/src/stm32f4xx_tim.c ****   *            @arg TIM_OCMode_Active
1005:../Shared/Libraries/STM32F4xx_StdPeriph_Driver/src/stm32f4xx_tim.c ****   *            @arg TIM_OCMode_Toggle
1006:../Shared/Libraries/STM32F4xx_StdPeriph_Driver/src/stm32f4xx_tim.c ****   *            @arg TIM_OCMode_PWM1
1007:../Shared/Libraries/STM32F4xx_StdPeriph_Driver/src/stm32f4xx_tim.c ****   *            @arg TIM_OCMode_PWM2
1008:../Shared/Libraries/STM32F4xx_StdPeriph_Driver/src/stm32f4xx_tim.c ****   *            @arg TIM_ForcedAction_Active
1009:../Shared/Libraries/STM32F4xx_StdPeriph_Driver/src/stm32f4xx_tim.c ****   *            @arg TIM_ForcedAction_InActive
1010:../Shared/Libraries/STM32F4xx_StdPeriph_Driver/src/stm32f4xx_tim.c ****   * @retval None
1011:../Shared/Libraries/STM32F4xx_StdPeriph_Driver/src/stm32f4xx_tim.c ****   */
1012:../Shared/Libraries/STM32F4xx_StdPeriph_Driver/src/stm32f4xx_tim.c **** void TIM_SelectOCxM(TIM_TypeDef* TIMx, uint16_t TIM_Channel, uint16_t TIM_OCMode)
1013:../Shared/Libraries/STM32F4xx_StdPeriph_Driver/src/stm32f4xx_tim.c **** {
 2070              		.loc 1 1013 1
 2071              		.cfi_startproc
 2072              		@ args = 0, pretend = 0, frame = 16
 2073              		@ frame_needed = 1, uses_anonymous_args = 0
 2074              		@ link register save eliminated.
 2075 0000 80B4     		push	{r7}
 2076              	.LCFI119:
 2077              		.cfi_def_cfa_offset 4
 2078              		.cfi_offset 7, -4
 2079 0002 85B0     		sub	sp, sp, #20
 2080              	.LCFI120:
 2081              		.cfi_def_cfa_offset 24
 2082 0004 00AF     		add	r7, sp, #0
 2083              	.LCFI121:
 2084              		.cfi_def_cfa_register 7
 2085 0006 7860     		str	r0, [r7, #4]
 2086 0008 0B46     		mov	r3, r1
 2087 000a 7B80     		strh	r3, [r7, #2]	@ movhi
 2088 000c 1346     		mov	r3, r2	@ movhi
 2089 000e 3B80     		strh	r3, [r7]	@ movhi
1014:../Shared/Libraries/STM32F4xx_StdPeriph_Driver/src/stm32f4xx_tim.c ****   uint32_t tmp = 0;
 2090              		.loc 1 1014 12
 2091 0010 0023     		movs	r3, #0
 2092 0012 FB60     		str	r3, [r7, #12]
1015:../Shared/Libraries/STM32F4xx_StdPeriph_Driver/src/stm32f4xx_tim.c ****   uint16_t tmp1 = 0;
 2093              		.loc 1 1015 12
 2094 0014 0023     		movs	r3, #0
 2095 0016 7B81     		strh	r3, [r7, #10]	@ movhi
1016:../Shared/Libraries/STM32F4xx_StdPeriph_Driver/src/stm32f4xx_tim.c **** 
1017:../Shared/Libraries/STM32F4xx_StdPeriph_Driver/src/stm32f4xx_tim.c ****   /* Check the parameters */
1018:../Shared/Libraries/STM32F4xx_StdPeriph_Driver/src/stm32f4xx_tim.c ****   assert_param(IS_TIM_LIST1_PERIPH(TIMx));
1019:../Shared/Libraries/STM32F4xx_StdPeriph_Driver/src/stm32f4xx_tim.c ****   assert_param(IS_TIM_CHANNEL(TIM_Channel));
1020:../Shared/Libraries/STM32F4xx_StdPeriph_Driver/src/stm32f4xx_tim.c ****   assert_param(IS_TIM_OCM(TIM_OCMode));
1021:../Shared/Libraries/STM32F4xx_StdPeriph_Driver/src/stm32f4xx_tim.c **** 
1022:../Shared/Libraries/STM32F4xx_StdPeriph_Driver/src/stm32f4xx_tim.c ****   tmp = (uint32_t) TIMx;
 2096              		.loc 1 1022 7
 2097 0018 7B68     		ldr	r3, [r7, #4]
 2098 001a FB60     		str	r3, [r7, #12]
1023:../Shared/Libraries/STM32F4xx_StdPeriph_Driver/src/stm32f4xx_tim.c ****   tmp += CCMR_OFFSET;
 2099              		.loc 1 1023 7
 2100 001c FB68     		ldr	r3, [r7, #12]
 2101 001e 1833     		adds	r3, r3, #24
 2102 0020 FB60     		str	r3, [r7, #12]
1024:../Shared/Libraries/STM32F4xx_StdPeriph_Driver/src/stm32f4xx_tim.c **** 
1025:../Shared/Libraries/STM32F4xx_StdPeriph_Driver/src/stm32f4xx_tim.c ****   tmp1 = CCER_CCE_SET << (uint16_t)TIM_Channel;
 2103              		.loc 1 1025 26
 2104 0022 7B88     		ldrh	r3, [r7, #2]
ARM GAS  /tmp/cc2zcHeL.s 			page 56


 2105              		.loc 1 1025 23
 2106 0024 0122     		movs	r2, #1
 2107 0026 02FA03F3 		lsl	r3, r2, r3
 2108              		.loc 1 1025 8
 2109 002a 7B81     		strh	r3, [r7, #10]	@ movhi
1026:../Shared/Libraries/STM32F4xx_StdPeriph_Driver/src/stm32f4xx_tim.c **** 
1027:../Shared/Libraries/STM32F4xx_StdPeriph_Driver/src/stm32f4xx_tim.c ****   /* Disable the Channel: Reset the CCxE Bit */
1028:../Shared/Libraries/STM32F4xx_StdPeriph_Driver/src/stm32f4xx_tim.c ****   TIMx->CCER &= (uint16_t) ~tmp1;
 2110              		.loc 1 1028 7
 2111 002c 7B68     		ldr	r3, [r7, #4]
 2112 002e 1B8C     		ldrh	r3, [r3, #32]	@ movhi
 2113 0030 9AB2     		uxth	r2, r3
 2114              		.loc 1 1028 17
 2115 0032 7B89     		ldrh	r3, [r7, #10]	@ movhi
 2116 0034 DB43     		mvns	r3, r3
 2117 0036 9BB2     		uxth	r3, r3
 2118              		.loc 1 1028 14
 2119 0038 1340     		ands	r3, r3, r2
 2120 003a 9AB2     		uxth	r2, r3
 2121 003c 7B68     		ldr	r3, [r7, #4]
 2122 003e 1A84     		strh	r2, [r3, #32]	@ movhi
1029:../Shared/Libraries/STM32F4xx_StdPeriph_Driver/src/stm32f4xx_tim.c **** 
1030:../Shared/Libraries/STM32F4xx_StdPeriph_Driver/src/stm32f4xx_tim.c ****   if((TIM_Channel == TIM_Channel_1) ||(TIM_Channel == TIM_Channel_3))
 2123              		.loc 1 1030 5
 2124 0040 7B88     		ldrh	r3, [r7, #2]
 2125 0042 002B     		cmp	r3, #0
 2126 0044 02D0     		beq	.L76
 2127              		.loc 1 1030 37 discriminator 1
 2128 0046 7B88     		ldrh	r3, [r7, #2]
 2129 0048 082B     		cmp	r3, #8
 2130 004a 14D1     		bne	.L77
 2131              	.L76:
1031:../Shared/Libraries/STM32F4xx_StdPeriph_Driver/src/stm32f4xx_tim.c ****   {
1032:../Shared/Libraries/STM32F4xx_StdPeriph_Driver/src/stm32f4xx_tim.c ****     tmp += (TIM_Channel>>1);
 2132              		.loc 1 1032 24
 2133 004c 7B88     		ldrh	r3, [r7, #2]
 2134 004e 5B08     		lsrs	r3, r3, #1
 2135 0050 9BB2     		uxth	r3, r3
 2136 0052 1A46     		mov	r2, r3
 2137              		.loc 1 1032 9
 2138 0054 FB68     		ldr	r3, [r7, #12]
 2139 0056 1344     		add	r3, r3, r2
 2140 0058 FB60     		str	r3, [r7, #12]
1033:../Shared/Libraries/STM32F4xx_StdPeriph_Driver/src/stm32f4xx_tim.c **** 
1034:../Shared/Libraries/STM32F4xx_StdPeriph_Driver/src/stm32f4xx_tim.c ****     /* Reset the OCxM bits in the CCMRx register */
1035:../Shared/Libraries/STM32F4xx_StdPeriph_Driver/src/stm32f4xx_tim.c ****     *(__IO uint32_t *) tmp &= CCMR_OC13M_MASK;
 2141              		.loc 1 1035 5
 2142 005a FB68     		ldr	r3, [r7, #12]
 2143 005c 1968     		ldr	r1, [r3]
 2144 005e FA68     		ldr	r2, [r7, #12]
 2145              		.loc 1 1035 28
 2146 0060 4FF68F73 		movw	r3, #65423
 2147 0064 0B40     		ands	r3, r3, r1
 2148 0066 1360     		str	r3, [r2]
1036:../Shared/Libraries/STM32F4xx_StdPeriph_Driver/src/stm32f4xx_tim.c ****    
1037:../Shared/Libraries/STM32F4xx_StdPeriph_Driver/src/stm32f4xx_tim.c ****     /* Configure the OCxM bits in the CCMRx register */
1038:../Shared/Libraries/STM32F4xx_StdPeriph_Driver/src/stm32f4xx_tim.c ****     *(__IO uint32_t *) tmp |= TIM_OCMode;
ARM GAS  /tmp/cc2zcHeL.s 			page 57


 2149              		.loc 1 1038 5
 2150 0068 FB68     		ldr	r3, [r7, #12]
 2151 006a 1968     		ldr	r1, [r3]
 2152              		.loc 1 1038 28
 2153 006c 3A88     		ldrh	r2, [r7]
 2154              		.loc 1 1038 5
 2155 006e FB68     		ldr	r3, [r7, #12]
 2156              		.loc 1 1038 28
 2157 0070 0A43     		orrs	r2, r2, r1
 2158 0072 1A60     		str	r2, [r3]
 2159 0074 19E0     		b	.L78
 2160              	.L77:
1039:../Shared/Libraries/STM32F4xx_StdPeriph_Driver/src/stm32f4xx_tim.c ****   }
1040:../Shared/Libraries/STM32F4xx_StdPeriph_Driver/src/stm32f4xx_tim.c ****   else
1041:../Shared/Libraries/STM32F4xx_StdPeriph_Driver/src/stm32f4xx_tim.c ****   {
1042:../Shared/Libraries/STM32F4xx_StdPeriph_Driver/src/stm32f4xx_tim.c ****     tmp += (uint16_t)(TIM_Channel - (uint16_t)4)>> (uint16_t)1;
 2161              		.loc 1 1042 12
 2162 0076 7B88     		ldrh	r3, [r7, #2]	@ movhi
 2163 0078 043B     		subs	r3, r3, #4
 2164 007a 9BB2     		uxth	r3, r3
 2165              		.loc 1 1042 49
 2166 007c 5B08     		lsrs	r3, r3, #1
 2167 007e 9BB2     		uxth	r3, r3
 2168 0080 1A46     		mov	r2, r3
 2169              		.loc 1 1042 9
 2170 0082 FB68     		ldr	r3, [r7, #12]
 2171 0084 1344     		add	r3, r3, r2
 2172 0086 FB60     		str	r3, [r7, #12]
1043:../Shared/Libraries/STM32F4xx_StdPeriph_Driver/src/stm32f4xx_tim.c **** 
1044:../Shared/Libraries/STM32F4xx_StdPeriph_Driver/src/stm32f4xx_tim.c ****     /* Reset the OCxM bits in the CCMRx register */
1045:../Shared/Libraries/STM32F4xx_StdPeriph_Driver/src/stm32f4xx_tim.c ****     *(__IO uint32_t *) tmp &= CCMR_OC24M_MASK;
 2173              		.loc 1 1045 5
 2174 0088 FB68     		ldr	r3, [r7, #12]
 2175 008a 1968     		ldr	r1, [r3]
 2176 008c FA68     		ldr	r2, [r7, #12]
 2177              		.loc 1 1045 28
 2178 008e 48F6FF73 		movw	r3, #36863
 2179 0092 0B40     		ands	r3, r3, r1
 2180 0094 1360     		str	r3, [r2]
1046:../Shared/Libraries/STM32F4xx_StdPeriph_Driver/src/stm32f4xx_tim.c ****     
1047:../Shared/Libraries/STM32F4xx_StdPeriph_Driver/src/stm32f4xx_tim.c ****     /* Configure the OCxM bits in the CCMRx register */
1048:../Shared/Libraries/STM32F4xx_StdPeriph_Driver/src/stm32f4xx_tim.c ****     *(__IO uint32_t *) tmp |= (uint16_t)(TIM_OCMode << 8);
 2181              		.loc 1 1048 5
 2182 0096 FB68     		ldr	r3, [r7, #12]
 2183 0098 1A68     		ldr	r2, [r3]
 2184              		.loc 1 1048 31
 2185 009a 3B88     		ldrh	r3, [r7]	@ movhi
 2186 009c 1B02     		lsls	r3, r3, #8
 2187 009e 9BB2     		uxth	r3, r3
 2188 00a0 1946     		mov	r1, r3
 2189              		.loc 1 1048 5
 2190 00a2 FB68     		ldr	r3, [r7, #12]
 2191              		.loc 1 1048 28
 2192 00a4 0A43     		orrs	r2, r2, r1
 2193 00a6 1A60     		str	r2, [r3]
1049:../Shared/Libraries/STM32F4xx_StdPeriph_Driver/src/stm32f4xx_tim.c ****   }
1050:../Shared/Libraries/STM32F4xx_StdPeriph_Driver/src/stm32f4xx_tim.c **** }
ARM GAS  /tmp/cc2zcHeL.s 			page 58


 2194              		.loc 1 1050 1
 2195 00a8 00BF     		nop
 2196              	.L78:
 2197 00aa 00BF     		nop
 2198 00ac 1437     		adds	r7, r7, #20
 2199              	.LCFI122:
 2200              		.cfi_def_cfa_offset 4
 2201 00ae BD46     		mov	sp, r7
 2202              	.LCFI123:
 2203              		.cfi_def_cfa_register 13
 2204              		@ sp needed
 2205 00b0 5DF8047B 		ldr	r7, [sp], #4
 2206              	.LCFI124:
 2207              		.cfi_restore 7
 2208              		.cfi_def_cfa_offset 0
 2209 00b4 7047     		bx	lr
 2210              		.cfi_endproc
 2211              	.LFE130:
 2213              		.section	.text.TIM_SetCompare1,"ax",%progbits
 2214              		.align	1
 2215              		.global	TIM_SetCompare1
 2216              		.syntax unified
 2217              		.thumb
 2218              		.thumb_func
 2220              	TIM_SetCompare1:
 2221              	.LFB131:
1051:../Shared/Libraries/STM32F4xx_StdPeriph_Driver/src/stm32f4xx_tim.c **** 
1052:../Shared/Libraries/STM32F4xx_StdPeriph_Driver/src/stm32f4xx_tim.c **** /**
1053:../Shared/Libraries/STM32F4xx_StdPeriph_Driver/src/stm32f4xx_tim.c ****   * @brief  Sets the TIMx Capture Compare1 Register value
1054:../Shared/Libraries/STM32F4xx_StdPeriph_Driver/src/stm32f4xx_tim.c ****   * @param  TIMx: where x can be 1 to 14 except 6 and 7, to select the TIM peripheral.
1055:../Shared/Libraries/STM32F4xx_StdPeriph_Driver/src/stm32f4xx_tim.c ****   * @param  Compare1: specifies the Capture Compare1 register new value.
1056:../Shared/Libraries/STM32F4xx_StdPeriph_Driver/src/stm32f4xx_tim.c ****   * @retval None
1057:../Shared/Libraries/STM32F4xx_StdPeriph_Driver/src/stm32f4xx_tim.c ****   */
1058:../Shared/Libraries/STM32F4xx_StdPeriph_Driver/src/stm32f4xx_tim.c **** void TIM_SetCompare1(TIM_TypeDef* TIMx, uint32_t Compare1)
1059:../Shared/Libraries/STM32F4xx_StdPeriph_Driver/src/stm32f4xx_tim.c **** {
 2222              		.loc 1 1059 1
 2223              		.cfi_startproc
 2224              		@ args = 0, pretend = 0, frame = 8
 2225              		@ frame_needed = 1, uses_anonymous_args = 0
 2226              		@ link register save eliminated.
 2227 0000 80B4     		push	{r7}
 2228              	.LCFI125:
 2229              		.cfi_def_cfa_offset 4
 2230              		.cfi_offset 7, -4
 2231 0002 83B0     		sub	sp, sp, #12
 2232              	.LCFI126:
 2233              		.cfi_def_cfa_offset 16
 2234 0004 00AF     		add	r7, sp, #0
 2235              	.LCFI127:
 2236              		.cfi_def_cfa_register 7
 2237 0006 7860     		str	r0, [r7, #4]
 2238 0008 3960     		str	r1, [r7]
1060:../Shared/Libraries/STM32F4xx_StdPeriph_Driver/src/stm32f4xx_tim.c ****   /* Check the parameters */
1061:../Shared/Libraries/STM32F4xx_StdPeriph_Driver/src/stm32f4xx_tim.c ****   assert_param(IS_TIM_LIST1_PERIPH(TIMx));
1062:../Shared/Libraries/STM32F4xx_StdPeriph_Driver/src/stm32f4xx_tim.c **** 
1063:../Shared/Libraries/STM32F4xx_StdPeriph_Driver/src/stm32f4xx_tim.c ****   /* Set the Capture Compare1 Register value */
1064:../Shared/Libraries/STM32F4xx_StdPeriph_Driver/src/stm32f4xx_tim.c ****   TIMx->CCR1 = Compare1;
ARM GAS  /tmp/cc2zcHeL.s 			page 59


 2239              		.loc 1 1064 14
 2240 000a 7B68     		ldr	r3, [r7, #4]
 2241 000c 3A68     		ldr	r2, [r7]
 2242 000e 5A63     		str	r2, [r3, #52]
1065:../Shared/Libraries/STM32F4xx_StdPeriph_Driver/src/stm32f4xx_tim.c **** }
 2243              		.loc 1 1065 1
 2244 0010 00BF     		nop
 2245 0012 0C37     		adds	r7, r7, #12
 2246              	.LCFI128:
 2247              		.cfi_def_cfa_offset 4
 2248 0014 BD46     		mov	sp, r7
 2249              	.LCFI129:
 2250              		.cfi_def_cfa_register 13
 2251              		@ sp needed
 2252 0016 5DF8047B 		ldr	r7, [sp], #4
 2253              	.LCFI130:
 2254              		.cfi_restore 7
 2255              		.cfi_def_cfa_offset 0
 2256 001a 7047     		bx	lr
 2257              		.cfi_endproc
 2258              	.LFE131:
 2260              		.section	.text.TIM_SetCompare2,"ax",%progbits
 2261              		.align	1
 2262              		.global	TIM_SetCompare2
 2263              		.syntax unified
 2264              		.thumb
 2265              		.thumb_func
 2267              	TIM_SetCompare2:
 2268              	.LFB132:
1066:../Shared/Libraries/STM32F4xx_StdPeriph_Driver/src/stm32f4xx_tim.c **** 
1067:../Shared/Libraries/STM32F4xx_StdPeriph_Driver/src/stm32f4xx_tim.c **** /**
1068:../Shared/Libraries/STM32F4xx_StdPeriph_Driver/src/stm32f4xx_tim.c ****   * @brief  Sets the TIMx Capture Compare2 Register value
1069:../Shared/Libraries/STM32F4xx_StdPeriph_Driver/src/stm32f4xx_tim.c ****   * @param  TIMx: where x can be 1, 2, 3, 4, 5, 8, 9 or 12 to select the TIM 
1070:../Shared/Libraries/STM32F4xx_StdPeriph_Driver/src/stm32f4xx_tim.c ****   *         peripheral.
1071:../Shared/Libraries/STM32F4xx_StdPeriph_Driver/src/stm32f4xx_tim.c ****   * @param  Compare2: specifies the Capture Compare2 register new value.
1072:../Shared/Libraries/STM32F4xx_StdPeriph_Driver/src/stm32f4xx_tim.c ****   * @retval None
1073:../Shared/Libraries/STM32F4xx_StdPeriph_Driver/src/stm32f4xx_tim.c ****   */
1074:../Shared/Libraries/STM32F4xx_StdPeriph_Driver/src/stm32f4xx_tim.c **** void TIM_SetCompare2(TIM_TypeDef* TIMx, uint32_t Compare2)
1075:../Shared/Libraries/STM32F4xx_StdPeriph_Driver/src/stm32f4xx_tim.c **** {
 2269              		.loc 1 1075 1
 2270              		.cfi_startproc
 2271              		@ args = 0, pretend = 0, frame = 8
 2272              		@ frame_needed = 1, uses_anonymous_args = 0
 2273              		@ link register save eliminated.
 2274 0000 80B4     		push	{r7}
 2275              	.LCFI131:
 2276              		.cfi_def_cfa_offset 4
 2277              		.cfi_offset 7, -4
 2278 0002 83B0     		sub	sp, sp, #12
 2279              	.LCFI132:
 2280              		.cfi_def_cfa_offset 16
 2281 0004 00AF     		add	r7, sp, #0
 2282              	.LCFI133:
 2283              		.cfi_def_cfa_register 7
 2284 0006 7860     		str	r0, [r7, #4]
 2285 0008 3960     		str	r1, [r7]
1076:../Shared/Libraries/STM32F4xx_StdPeriph_Driver/src/stm32f4xx_tim.c ****   /* Check the parameters */
ARM GAS  /tmp/cc2zcHeL.s 			page 60


1077:../Shared/Libraries/STM32F4xx_StdPeriph_Driver/src/stm32f4xx_tim.c ****   assert_param(IS_TIM_LIST2_PERIPH(TIMx));
1078:../Shared/Libraries/STM32F4xx_StdPeriph_Driver/src/stm32f4xx_tim.c **** 
1079:../Shared/Libraries/STM32F4xx_StdPeriph_Driver/src/stm32f4xx_tim.c ****   /* Set the Capture Compare2 Register value */
1080:../Shared/Libraries/STM32F4xx_StdPeriph_Driver/src/stm32f4xx_tim.c ****   TIMx->CCR2 = Compare2;
 2286              		.loc 1 1080 14
 2287 000a 7B68     		ldr	r3, [r7, #4]
 2288 000c 3A68     		ldr	r2, [r7]
 2289 000e 9A63     		str	r2, [r3, #56]
1081:../Shared/Libraries/STM32F4xx_StdPeriph_Driver/src/stm32f4xx_tim.c **** }
 2290              		.loc 1 1081 1
 2291 0010 00BF     		nop
 2292 0012 0C37     		adds	r7, r7, #12
 2293              	.LCFI134:
 2294              		.cfi_def_cfa_offset 4
 2295 0014 BD46     		mov	sp, r7
 2296              	.LCFI135:
 2297              		.cfi_def_cfa_register 13
 2298              		@ sp needed
 2299 0016 5DF8047B 		ldr	r7, [sp], #4
 2300              	.LCFI136:
 2301              		.cfi_restore 7
 2302              		.cfi_def_cfa_offset 0
 2303 001a 7047     		bx	lr
 2304              		.cfi_endproc
 2305              	.LFE132:
 2307              		.section	.text.TIM_SetCompare3,"ax",%progbits
 2308              		.align	1
 2309              		.global	TIM_SetCompare3
 2310              		.syntax unified
 2311              		.thumb
 2312              		.thumb_func
 2314              	TIM_SetCompare3:
 2315              	.LFB133:
1082:../Shared/Libraries/STM32F4xx_StdPeriph_Driver/src/stm32f4xx_tim.c **** 
1083:../Shared/Libraries/STM32F4xx_StdPeriph_Driver/src/stm32f4xx_tim.c **** /**
1084:../Shared/Libraries/STM32F4xx_StdPeriph_Driver/src/stm32f4xx_tim.c ****   * @brief  Sets the TIMx Capture Compare3 Register value
1085:../Shared/Libraries/STM32F4xx_StdPeriph_Driver/src/stm32f4xx_tim.c ****   * @param  TIMx: where x can be 1, 2, 3, 4, 5 or 8 to select the TIM peripheral.
1086:../Shared/Libraries/STM32F4xx_StdPeriph_Driver/src/stm32f4xx_tim.c ****   * @param  Compare3: specifies the Capture Compare3 register new value.
1087:../Shared/Libraries/STM32F4xx_StdPeriph_Driver/src/stm32f4xx_tim.c ****   * @retval None
1088:../Shared/Libraries/STM32F4xx_StdPeriph_Driver/src/stm32f4xx_tim.c ****   */
1089:../Shared/Libraries/STM32F4xx_StdPeriph_Driver/src/stm32f4xx_tim.c **** void TIM_SetCompare3(TIM_TypeDef* TIMx, uint32_t Compare3)
1090:../Shared/Libraries/STM32F4xx_StdPeriph_Driver/src/stm32f4xx_tim.c **** {
 2316              		.loc 1 1090 1
 2317              		.cfi_startproc
 2318              		@ args = 0, pretend = 0, frame = 8
 2319              		@ frame_needed = 1, uses_anonymous_args = 0
 2320              		@ link register save eliminated.
 2321 0000 80B4     		push	{r7}
 2322              	.LCFI137:
 2323              		.cfi_def_cfa_offset 4
 2324              		.cfi_offset 7, -4
 2325 0002 83B0     		sub	sp, sp, #12
 2326              	.LCFI138:
 2327              		.cfi_def_cfa_offset 16
 2328 0004 00AF     		add	r7, sp, #0
 2329              	.LCFI139:
 2330              		.cfi_def_cfa_register 7
ARM GAS  /tmp/cc2zcHeL.s 			page 61


 2331 0006 7860     		str	r0, [r7, #4]
 2332 0008 3960     		str	r1, [r7]
1091:../Shared/Libraries/STM32F4xx_StdPeriph_Driver/src/stm32f4xx_tim.c ****   /* Check the parameters */
1092:../Shared/Libraries/STM32F4xx_StdPeriph_Driver/src/stm32f4xx_tim.c ****   assert_param(IS_TIM_LIST3_PERIPH(TIMx));
1093:../Shared/Libraries/STM32F4xx_StdPeriph_Driver/src/stm32f4xx_tim.c **** 
1094:../Shared/Libraries/STM32F4xx_StdPeriph_Driver/src/stm32f4xx_tim.c ****   /* Set the Capture Compare3 Register value */
1095:../Shared/Libraries/STM32F4xx_StdPeriph_Driver/src/stm32f4xx_tim.c ****   TIMx->CCR3 = Compare3;
 2333              		.loc 1 1095 14
 2334 000a 7B68     		ldr	r3, [r7, #4]
 2335 000c 3A68     		ldr	r2, [r7]
 2336 000e DA63     		str	r2, [r3, #60]
1096:../Shared/Libraries/STM32F4xx_StdPeriph_Driver/src/stm32f4xx_tim.c **** }
 2337              		.loc 1 1096 1
 2338 0010 00BF     		nop
 2339 0012 0C37     		adds	r7, r7, #12
 2340              	.LCFI140:
 2341              		.cfi_def_cfa_offset 4
 2342 0014 BD46     		mov	sp, r7
 2343              	.LCFI141:
 2344              		.cfi_def_cfa_register 13
 2345              		@ sp needed
 2346 0016 5DF8047B 		ldr	r7, [sp], #4
 2347              	.LCFI142:
 2348              		.cfi_restore 7
 2349              		.cfi_def_cfa_offset 0
 2350 001a 7047     		bx	lr
 2351              		.cfi_endproc
 2352              	.LFE133:
 2354              		.section	.text.TIM_SetCompare4,"ax",%progbits
 2355              		.align	1
 2356              		.global	TIM_SetCompare4
 2357              		.syntax unified
 2358              		.thumb
 2359              		.thumb_func
 2361              	TIM_SetCompare4:
 2362              	.LFB134:
1097:../Shared/Libraries/STM32F4xx_StdPeriph_Driver/src/stm32f4xx_tim.c **** 
1098:../Shared/Libraries/STM32F4xx_StdPeriph_Driver/src/stm32f4xx_tim.c **** /**
1099:../Shared/Libraries/STM32F4xx_StdPeriph_Driver/src/stm32f4xx_tim.c ****   * @brief  Sets the TIMx Capture Compare4 Register value
1100:../Shared/Libraries/STM32F4xx_StdPeriph_Driver/src/stm32f4xx_tim.c ****   * @param  TIMx: where x can be 1, 2, 3, 4, 5 or 8 to select the TIM peripheral.
1101:../Shared/Libraries/STM32F4xx_StdPeriph_Driver/src/stm32f4xx_tim.c ****   * @param  Compare4: specifies the Capture Compare4 register new value.
1102:../Shared/Libraries/STM32F4xx_StdPeriph_Driver/src/stm32f4xx_tim.c ****   * @retval None
1103:../Shared/Libraries/STM32F4xx_StdPeriph_Driver/src/stm32f4xx_tim.c ****   */
1104:../Shared/Libraries/STM32F4xx_StdPeriph_Driver/src/stm32f4xx_tim.c **** void TIM_SetCompare4(TIM_TypeDef* TIMx, uint32_t Compare4)
1105:../Shared/Libraries/STM32F4xx_StdPeriph_Driver/src/stm32f4xx_tim.c **** {
 2363              		.loc 1 1105 1
 2364              		.cfi_startproc
 2365              		@ args = 0, pretend = 0, frame = 8
 2366              		@ frame_needed = 1, uses_anonymous_args = 0
 2367              		@ link register save eliminated.
 2368 0000 80B4     		push	{r7}
 2369              	.LCFI143:
 2370              		.cfi_def_cfa_offset 4
 2371              		.cfi_offset 7, -4
 2372 0002 83B0     		sub	sp, sp, #12
 2373              	.LCFI144:
 2374              		.cfi_def_cfa_offset 16
ARM GAS  /tmp/cc2zcHeL.s 			page 62


 2375 0004 00AF     		add	r7, sp, #0
 2376              	.LCFI145:
 2377              		.cfi_def_cfa_register 7
 2378 0006 7860     		str	r0, [r7, #4]
 2379 0008 3960     		str	r1, [r7]
1106:../Shared/Libraries/STM32F4xx_StdPeriph_Driver/src/stm32f4xx_tim.c ****   /* Check the parameters */
1107:../Shared/Libraries/STM32F4xx_StdPeriph_Driver/src/stm32f4xx_tim.c ****   assert_param(IS_TIM_LIST3_PERIPH(TIMx));
1108:../Shared/Libraries/STM32F4xx_StdPeriph_Driver/src/stm32f4xx_tim.c **** 
1109:../Shared/Libraries/STM32F4xx_StdPeriph_Driver/src/stm32f4xx_tim.c ****   /* Set the Capture Compare4 Register value */
1110:../Shared/Libraries/STM32F4xx_StdPeriph_Driver/src/stm32f4xx_tim.c ****   TIMx->CCR4 = Compare4;
 2380              		.loc 1 1110 14
 2381 000a 7B68     		ldr	r3, [r7, #4]
 2382 000c 3A68     		ldr	r2, [r7]
 2383 000e 1A64     		str	r2, [r3, #64]
1111:../Shared/Libraries/STM32F4xx_StdPeriph_Driver/src/stm32f4xx_tim.c **** }
 2384              		.loc 1 1111 1
 2385 0010 00BF     		nop
 2386 0012 0C37     		adds	r7, r7, #12
 2387              	.LCFI146:
 2388              		.cfi_def_cfa_offset 4
 2389 0014 BD46     		mov	sp, r7
 2390              	.LCFI147:
 2391              		.cfi_def_cfa_register 13
 2392              		@ sp needed
 2393 0016 5DF8047B 		ldr	r7, [sp], #4
 2394              	.LCFI148:
 2395              		.cfi_restore 7
 2396              		.cfi_def_cfa_offset 0
 2397 001a 7047     		bx	lr
 2398              		.cfi_endproc
 2399              	.LFE134:
 2401              		.section	.text.TIM_ForcedOC1Config,"ax",%progbits
 2402              		.align	1
 2403              		.global	TIM_ForcedOC1Config
 2404              		.syntax unified
 2405              		.thumb
 2406              		.thumb_func
 2408              	TIM_ForcedOC1Config:
 2409              	.LFB135:
1112:../Shared/Libraries/STM32F4xx_StdPeriph_Driver/src/stm32f4xx_tim.c **** 
1113:../Shared/Libraries/STM32F4xx_StdPeriph_Driver/src/stm32f4xx_tim.c **** /**
1114:../Shared/Libraries/STM32F4xx_StdPeriph_Driver/src/stm32f4xx_tim.c ****   * @brief  Forces the TIMx output 1 waveform to active or inactive level.
1115:../Shared/Libraries/STM32F4xx_StdPeriph_Driver/src/stm32f4xx_tim.c ****   * @param  TIMx: where x can be 1 to 14 except 6 and 7, to select the TIM peripheral.
1116:../Shared/Libraries/STM32F4xx_StdPeriph_Driver/src/stm32f4xx_tim.c ****   * @param  TIM_ForcedAction: specifies the forced Action to be set to the output waveform.
1117:../Shared/Libraries/STM32F4xx_StdPeriph_Driver/src/stm32f4xx_tim.c ****   *          This parameter can be one of the following values:
1118:../Shared/Libraries/STM32F4xx_StdPeriph_Driver/src/stm32f4xx_tim.c ****   *            @arg TIM_ForcedAction_Active: Force active level on OC1REF
1119:../Shared/Libraries/STM32F4xx_StdPeriph_Driver/src/stm32f4xx_tim.c ****   *            @arg TIM_ForcedAction_InActive: Force inactive level on OC1REF.
1120:../Shared/Libraries/STM32F4xx_StdPeriph_Driver/src/stm32f4xx_tim.c ****   * @retval None
1121:../Shared/Libraries/STM32F4xx_StdPeriph_Driver/src/stm32f4xx_tim.c ****   */
1122:../Shared/Libraries/STM32F4xx_StdPeriph_Driver/src/stm32f4xx_tim.c **** void TIM_ForcedOC1Config(TIM_TypeDef* TIMx, uint16_t TIM_ForcedAction)
1123:../Shared/Libraries/STM32F4xx_StdPeriph_Driver/src/stm32f4xx_tim.c **** {
 2410              		.loc 1 1123 1
 2411              		.cfi_startproc
 2412              		@ args = 0, pretend = 0, frame = 16
 2413              		@ frame_needed = 1, uses_anonymous_args = 0
 2414              		@ link register save eliminated.
 2415 0000 80B4     		push	{r7}
ARM GAS  /tmp/cc2zcHeL.s 			page 63


 2416              	.LCFI149:
 2417              		.cfi_def_cfa_offset 4
 2418              		.cfi_offset 7, -4
 2419 0002 85B0     		sub	sp, sp, #20
 2420              	.LCFI150:
 2421              		.cfi_def_cfa_offset 24
 2422 0004 00AF     		add	r7, sp, #0
 2423              	.LCFI151:
 2424              		.cfi_def_cfa_register 7
 2425 0006 7860     		str	r0, [r7, #4]
 2426 0008 0B46     		mov	r3, r1
 2427 000a 7B80     		strh	r3, [r7, #2]	@ movhi
1124:../Shared/Libraries/STM32F4xx_StdPeriph_Driver/src/stm32f4xx_tim.c ****   uint16_t tmpccmr1 = 0;
 2428              		.loc 1 1124 12
 2429 000c 0023     		movs	r3, #0
 2430 000e FB81     		strh	r3, [r7, #14]	@ movhi
1125:../Shared/Libraries/STM32F4xx_StdPeriph_Driver/src/stm32f4xx_tim.c **** 
1126:../Shared/Libraries/STM32F4xx_StdPeriph_Driver/src/stm32f4xx_tim.c ****   /* Check the parameters */
1127:../Shared/Libraries/STM32F4xx_StdPeriph_Driver/src/stm32f4xx_tim.c ****   assert_param(IS_TIM_LIST1_PERIPH(TIMx));
1128:../Shared/Libraries/STM32F4xx_StdPeriph_Driver/src/stm32f4xx_tim.c ****   assert_param(IS_TIM_FORCED_ACTION(TIM_ForcedAction));
1129:../Shared/Libraries/STM32F4xx_StdPeriph_Driver/src/stm32f4xx_tim.c ****   tmpccmr1 = TIMx->CCMR1;
 2431              		.loc 1 1129 12
 2432 0010 7B68     		ldr	r3, [r7, #4]
 2433 0012 1B8B     		ldrh	r3, [r3, #24]	@ movhi
 2434 0014 FB81     		strh	r3, [r7, #14]	@ movhi
1130:../Shared/Libraries/STM32F4xx_StdPeriph_Driver/src/stm32f4xx_tim.c **** 
1131:../Shared/Libraries/STM32F4xx_StdPeriph_Driver/src/stm32f4xx_tim.c ****   /* Reset the OC1M Bits */
1132:../Shared/Libraries/STM32F4xx_StdPeriph_Driver/src/stm32f4xx_tim.c ****   tmpccmr1 &= (uint16_t)~TIM_CCMR1_OC1M;
 2435              		.loc 1 1132 12
 2436 0016 FB89     		ldrh	r3, [r7, #14]	@ movhi
 2437 0018 23F07003 		bic	r3, r3, #112
 2438 001c FB81     		strh	r3, [r7, #14]	@ movhi
1133:../Shared/Libraries/STM32F4xx_StdPeriph_Driver/src/stm32f4xx_tim.c **** 
1134:../Shared/Libraries/STM32F4xx_StdPeriph_Driver/src/stm32f4xx_tim.c ****   /* Configure The Forced output Mode */
1135:../Shared/Libraries/STM32F4xx_StdPeriph_Driver/src/stm32f4xx_tim.c ****   tmpccmr1 |= TIM_ForcedAction;
 2439              		.loc 1 1135 12
 2440 001e FA89     		ldrh	r2, [r7, #14]	@ movhi
 2441 0020 7B88     		ldrh	r3, [r7, #2]	@ movhi
 2442 0022 1343     		orrs	r3, r3, r2
 2443 0024 FB81     		strh	r3, [r7, #14]	@ movhi
1136:../Shared/Libraries/STM32F4xx_StdPeriph_Driver/src/stm32f4xx_tim.c **** 
1137:../Shared/Libraries/STM32F4xx_StdPeriph_Driver/src/stm32f4xx_tim.c ****   /* Write to TIMx CCMR1 register */
1138:../Shared/Libraries/STM32F4xx_StdPeriph_Driver/src/stm32f4xx_tim.c ****   TIMx->CCMR1 = tmpccmr1;
 2444              		.loc 1 1138 15
 2445 0026 7B68     		ldr	r3, [r7, #4]
 2446 0028 FA89     		ldrh	r2, [r7, #14]	@ movhi
 2447 002a 1A83     		strh	r2, [r3, #24]	@ movhi
1139:../Shared/Libraries/STM32F4xx_StdPeriph_Driver/src/stm32f4xx_tim.c **** }
 2448              		.loc 1 1139 1
 2449 002c 00BF     		nop
 2450 002e 1437     		adds	r7, r7, #20
 2451              	.LCFI152:
 2452              		.cfi_def_cfa_offset 4
 2453 0030 BD46     		mov	sp, r7
 2454              	.LCFI153:
 2455              		.cfi_def_cfa_register 13
 2456              		@ sp needed
ARM GAS  /tmp/cc2zcHeL.s 			page 64


 2457 0032 5DF8047B 		ldr	r7, [sp], #4
 2458              	.LCFI154:
 2459              		.cfi_restore 7
 2460              		.cfi_def_cfa_offset 0
 2461 0036 7047     		bx	lr
 2462              		.cfi_endproc
 2463              	.LFE135:
 2465              		.section	.text.TIM_ForcedOC2Config,"ax",%progbits
 2466              		.align	1
 2467              		.global	TIM_ForcedOC2Config
 2468              		.syntax unified
 2469              		.thumb
 2470              		.thumb_func
 2472              	TIM_ForcedOC2Config:
 2473              	.LFB136:
1140:../Shared/Libraries/STM32F4xx_StdPeriph_Driver/src/stm32f4xx_tim.c **** 
1141:../Shared/Libraries/STM32F4xx_StdPeriph_Driver/src/stm32f4xx_tim.c **** /**
1142:../Shared/Libraries/STM32F4xx_StdPeriph_Driver/src/stm32f4xx_tim.c ****   * @brief  Forces the TIMx output 2 waveform to active or inactive level.
1143:../Shared/Libraries/STM32F4xx_StdPeriph_Driver/src/stm32f4xx_tim.c ****   * @param  TIMx: where x can be  1, 2, 3, 4, 5, 8, 9 or 12 to select the TIM 
1144:../Shared/Libraries/STM32F4xx_StdPeriph_Driver/src/stm32f4xx_tim.c ****   *         peripheral.
1145:../Shared/Libraries/STM32F4xx_StdPeriph_Driver/src/stm32f4xx_tim.c ****   * @param  TIM_ForcedAction: specifies the forced Action to be set to the output waveform.
1146:../Shared/Libraries/STM32F4xx_StdPeriph_Driver/src/stm32f4xx_tim.c ****   *          This parameter can be one of the following values:
1147:../Shared/Libraries/STM32F4xx_StdPeriph_Driver/src/stm32f4xx_tim.c ****   *            @arg TIM_ForcedAction_Active: Force active level on OC2REF
1148:../Shared/Libraries/STM32F4xx_StdPeriph_Driver/src/stm32f4xx_tim.c ****   *            @arg TIM_ForcedAction_InActive: Force inactive level on OC2REF.
1149:../Shared/Libraries/STM32F4xx_StdPeriph_Driver/src/stm32f4xx_tim.c ****   * @retval None
1150:../Shared/Libraries/STM32F4xx_StdPeriph_Driver/src/stm32f4xx_tim.c ****   */
1151:../Shared/Libraries/STM32F4xx_StdPeriph_Driver/src/stm32f4xx_tim.c **** void TIM_ForcedOC2Config(TIM_TypeDef* TIMx, uint16_t TIM_ForcedAction)
1152:../Shared/Libraries/STM32F4xx_StdPeriph_Driver/src/stm32f4xx_tim.c **** {
 2474              		.loc 1 1152 1
 2475              		.cfi_startproc
 2476              		@ args = 0, pretend = 0, frame = 16
 2477              		@ frame_needed = 1, uses_anonymous_args = 0
 2478              		@ link register save eliminated.
 2479 0000 80B4     		push	{r7}
 2480              	.LCFI155:
 2481              		.cfi_def_cfa_offset 4
 2482              		.cfi_offset 7, -4
 2483 0002 85B0     		sub	sp, sp, #20
 2484              	.LCFI156:
 2485              		.cfi_def_cfa_offset 24
 2486 0004 00AF     		add	r7, sp, #0
 2487              	.LCFI157:
 2488              		.cfi_def_cfa_register 7
 2489 0006 7860     		str	r0, [r7, #4]
 2490 0008 0B46     		mov	r3, r1
 2491 000a 7B80     		strh	r3, [r7, #2]	@ movhi
1153:../Shared/Libraries/STM32F4xx_StdPeriph_Driver/src/stm32f4xx_tim.c ****   uint16_t tmpccmr1 = 0;
 2492              		.loc 1 1153 12
 2493 000c 0023     		movs	r3, #0
 2494 000e FB81     		strh	r3, [r7, #14]	@ movhi
1154:../Shared/Libraries/STM32F4xx_StdPeriph_Driver/src/stm32f4xx_tim.c **** 
1155:../Shared/Libraries/STM32F4xx_StdPeriph_Driver/src/stm32f4xx_tim.c ****   /* Check the parameters */
1156:../Shared/Libraries/STM32F4xx_StdPeriph_Driver/src/stm32f4xx_tim.c ****   assert_param(IS_TIM_LIST2_PERIPH(TIMx));
1157:../Shared/Libraries/STM32F4xx_StdPeriph_Driver/src/stm32f4xx_tim.c ****   assert_param(IS_TIM_FORCED_ACTION(TIM_ForcedAction));
1158:../Shared/Libraries/STM32F4xx_StdPeriph_Driver/src/stm32f4xx_tim.c ****   tmpccmr1 = TIMx->CCMR1;
 2495              		.loc 1 1158 12
 2496 0010 7B68     		ldr	r3, [r7, #4]
ARM GAS  /tmp/cc2zcHeL.s 			page 65


 2497 0012 1B8B     		ldrh	r3, [r3, #24]	@ movhi
 2498 0014 FB81     		strh	r3, [r7, #14]	@ movhi
1159:../Shared/Libraries/STM32F4xx_StdPeriph_Driver/src/stm32f4xx_tim.c **** 
1160:../Shared/Libraries/STM32F4xx_StdPeriph_Driver/src/stm32f4xx_tim.c ****   /* Reset the OC2M Bits */
1161:../Shared/Libraries/STM32F4xx_StdPeriph_Driver/src/stm32f4xx_tim.c ****   tmpccmr1 &= (uint16_t)~TIM_CCMR1_OC2M;
 2499              		.loc 1 1161 12
 2500 0016 FB89     		ldrh	r3, [r7, #14]	@ movhi
 2501 0018 23F4E043 		bic	r3, r3, #28672
 2502 001c FB81     		strh	r3, [r7, #14]	@ movhi
1162:../Shared/Libraries/STM32F4xx_StdPeriph_Driver/src/stm32f4xx_tim.c **** 
1163:../Shared/Libraries/STM32F4xx_StdPeriph_Driver/src/stm32f4xx_tim.c ****   /* Configure The Forced output Mode */
1164:../Shared/Libraries/STM32F4xx_StdPeriph_Driver/src/stm32f4xx_tim.c ****   tmpccmr1 |= (uint16_t)(TIM_ForcedAction << 8);
 2503              		.loc 1 1164 15
 2504 001e 7B88     		ldrh	r3, [r7, #2]	@ movhi
 2505 0020 1B02     		lsls	r3, r3, #8
 2506 0022 9AB2     		uxth	r2, r3
 2507              		.loc 1 1164 12
 2508 0024 FB89     		ldrh	r3, [r7, #14]	@ movhi
 2509 0026 1343     		orrs	r3, r3, r2
 2510 0028 FB81     		strh	r3, [r7, #14]	@ movhi
1165:../Shared/Libraries/STM32F4xx_StdPeriph_Driver/src/stm32f4xx_tim.c **** 
1166:../Shared/Libraries/STM32F4xx_StdPeriph_Driver/src/stm32f4xx_tim.c ****   /* Write to TIMx CCMR1 register */
1167:../Shared/Libraries/STM32F4xx_StdPeriph_Driver/src/stm32f4xx_tim.c ****   TIMx->CCMR1 = tmpccmr1;
 2511              		.loc 1 1167 15
 2512 002a 7B68     		ldr	r3, [r7, #4]
 2513 002c FA89     		ldrh	r2, [r7, #14]	@ movhi
 2514 002e 1A83     		strh	r2, [r3, #24]	@ movhi
1168:../Shared/Libraries/STM32F4xx_StdPeriph_Driver/src/stm32f4xx_tim.c **** }
 2515              		.loc 1 1168 1
 2516 0030 00BF     		nop
 2517 0032 1437     		adds	r7, r7, #20
 2518              	.LCFI158:
 2519              		.cfi_def_cfa_offset 4
 2520 0034 BD46     		mov	sp, r7
 2521              	.LCFI159:
 2522              		.cfi_def_cfa_register 13
 2523              		@ sp needed
 2524 0036 5DF8047B 		ldr	r7, [sp], #4
 2525              	.LCFI160:
 2526              		.cfi_restore 7
 2527              		.cfi_def_cfa_offset 0
 2528 003a 7047     		bx	lr
 2529              		.cfi_endproc
 2530              	.LFE136:
 2532              		.section	.text.TIM_ForcedOC3Config,"ax",%progbits
 2533              		.align	1
 2534              		.global	TIM_ForcedOC3Config
 2535              		.syntax unified
 2536              		.thumb
 2537              		.thumb_func
 2539              	TIM_ForcedOC3Config:
 2540              	.LFB137:
1169:../Shared/Libraries/STM32F4xx_StdPeriph_Driver/src/stm32f4xx_tim.c **** 
1170:../Shared/Libraries/STM32F4xx_StdPeriph_Driver/src/stm32f4xx_tim.c **** /**
1171:../Shared/Libraries/STM32F4xx_StdPeriph_Driver/src/stm32f4xx_tim.c ****   * @brief  Forces the TIMx output 3 waveform to active or inactive level.
1172:../Shared/Libraries/STM32F4xx_StdPeriph_Driver/src/stm32f4xx_tim.c ****   * @param  TIMx: where x can be  1, 2, 3, 4, 5 or 8 to select the TIM peripheral.
1173:../Shared/Libraries/STM32F4xx_StdPeriph_Driver/src/stm32f4xx_tim.c ****   * @param  TIM_ForcedAction: specifies the forced Action to be set to the output waveform.
ARM GAS  /tmp/cc2zcHeL.s 			page 66


1174:../Shared/Libraries/STM32F4xx_StdPeriph_Driver/src/stm32f4xx_tim.c ****   *          This parameter can be one of the following values:
1175:../Shared/Libraries/STM32F4xx_StdPeriph_Driver/src/stm32f4xx_tim.c ****   *            @arg TIM_ForcedAction_Active: Force active level on OC3REF
1176:../Shared/Libraries/STM32F4xx_StdPeriph_Driver/src/stm32f4xx_tim.c ****   *            @arg TIM_ForcedAction_InActive: Force inactive level on OC3REF.
1177:../Shared/Libraries/STM32F4xx_StdPeriph_Driver/src/stm32f4xx_tim.c ****   * @retval None
1178:../Shared/Libraries/STM32F4xx_StdPeriph_Driver/src/stm32f4xx_tim.c ****   */
1179:../Shared/Libraries/STM32F4xx_StdPeriph_Driver/src/stm32f4xx_tim.c **** void TIM_ForcedOC3Config(TIM_TypeDef* TIMx, uint16_t TIM_ForcedAction)
1180:../Shared/Libraries/STM32F4xx_StdPeriph_Driver/src/stm32f4xx_tim.c **** {
 2541              		.loc 1 1180 1
 2542              		.cfi_startproc
 2543              		@ args = 0, pretend = 0, frame = 16
 2544              		@ frame_needed = 1, uses_anonymous_args = 0
 2545              		@ link register save eliminated.
 2546 0000 80B4     		push	{r7}
 2547              	.LCFI161:
 2548              		.cfi_def_cfa_offset 4
 2549              		.cfi_offset 7, -4
 2550 0002 85B0     		sub	sp, sp, #20
 2551              	.LCFI162:
 2552              		.cfi_def_cfa_offset 24
 2553 0004 00AF     		add	r7, sp, #0
 2554              	.LCFI163:
 2555              		.cfi_def_cfa_register 7
 2556 0006 7860     		str	r0, [r7, #4]
 2557 0008 0B46     		mov	r3, r1
 2558 000a 7B80     		strh	r3, [r7, #2]	@ movhi
1181:../Shared/Libraries/STM32F4xx_StdPeriph_Driver/src/stm32f4xx_tim.c ****   uint16_t tmpccmr2 = 0;
 2559              		.loc 1 1181 12
 2560 000c 0023     		movs	r3, #0
 2561 000e FB81     		strh	r3, [r7, #14]	@ movhi
1182:../Shared/Libraries/STM32F4xx_StdPeriph_Driver/src/stm32f4xx_tim.c **** 
1183:../Shared/Libraries/STM32F4xx_StdPeriph_Driver/src/stm32f4xx_tim.c ****   /* Check the parameters */
1184:../Shared/Libraries/STM32F4xx_StdPeriph_Driver/src/stm32f4xx_tim.c ****   assert_param(IS_TIM_LIST3_PERIPH(TIMx));
1185:../Shared/Libraries/STM32F4xx_StdPeriph_Driver/src/stm32f4xx_tim.c ****   assert_param(IS_TIM_FORCED_ACTION(TIM_ForcedAction));
1186:../Shared/Libraries/STM32F4xx_StdPeriph_Driver/src/stm32f4xx_tim.c **** 
1187:../Shared/Libraries/STM32F4xx_StdPeriph_Driver/src/stm32f4xx_tim.c ****   tmpccmr2 = TIMx->CCMR2;
 2562              		.loc 1 1187 12
 2563 0010 7B68     		ldr	r3, [r7, #4]
 2564 0012 9B8B     		ldrh	r3, [r3, #28]	@ movhi
 2565 0014 FB81     		strh	r3, [r7, #14]	@ movhi
1188:../Shared/Libraries/STM32F4xx_StdPeriph_Driver/src/stm32f4xx_tim.c **** 
1189:../Shared/Libraries/STM32F4xx_StdPeriph_Driver/src/stm32f4xx_tim.c ****   /* Reset the OC1M Bits */
1190:../Shared/Libraries/STM32F4xx_StdPeriph_Driver/src/stm32f4xx_tim.c ****   tmpccmr2 &= (uint16_t)~TIM_CCMR2_OC3M;
 2566              		.loc 1 1190 12
 2567 0016 FB89     		ldrh	r3, [r7, #14]	@ movhi
 2568 0018 23F07003 		bic	r3, r3, #112
 2569 001c FB81     		strh	r3, [r7, #14]	@ movhi
1191:../Shared/Libraries/STM32F4xx_StdPeriph_Driver/src/stm32f4xx_tim.c **** 
1192:../Shared/Libraries/STM32F4xx_StdPeriph_Driver/src/stm32f4xx_tim.c ****   /* Configure The Forced output Mode */
1193:../Shared/Libraries/STM32F4xx_StdPeriph_Driver/src/stm32f4xx_tim.c ****   tmpccmr2 |= TIM_ForcedAction;
 2570              		.loc 1 1193 12
 2571 001e FA89     		ldrh	r2, [r7, #14]	@ movhi
 2572 0020 7B88     		ldrh	r3, [r7, #2]	@ movhi
 2573 0022 1343     		orrs	r3, r3, r2
 2574 0024 FB81     		strh	r3, [r7, #14]	@ movhi
1194:../Shared/Libraries/STM32F4xx_StdPeriph_Driver/src/stm32f4xx_tim.c **** 
1195:../Shared/Libraries/STM32F4xx_StdPeriph_Driver/src/stm32f4xx_tim.c ****   /* Write to TIMx CCMR2 register */
1196:../Shared/Libraries/STM32F4xx_StdPeriph_Driver/src/stm32f4xx_tim.c ****   TIMx->CCMR2 = tmpccmr2;
ARM GAS  /tmp/cc2zcHeL.s 			page 67


 2575              		.loc 1 1196 15
 2576 0026 7B68     		ldr	r3, [r7, #4]
 2577 0028 FA89     		ldrh	r2, [r7, #14]	@ movhi
 2578 002a 9A83     		strh	r2, [r3, #28]	@ movhi
1197:../Shared/Libraries/STM32F4xx_StdPeriph_Driver/src/stm32f4xx_tim.c **** }
 2579              		.loc 1 1197 1
 2580 002c 00BF     		nop
 2581 002e 1437     		adds	r7, r7, #20
 2582              	.LCFI164:
 2583              		.cfi_def_cfa_offset 4
 2584 0030 BD46     		mov	sp, r7
 2585              	.LCFI165:
 2586              		.cfi_def_cfa_register 13
 2587              		@ sp needed
 2588 0032 5DF8047B 		ldr	r7, [sp], #4
 2589              	.LCFI166:
 2590              		.cfi_restore 7
 2591              		.cfi_def_cfa_offset 0
 2592 0036 7047     		bx	lr
 2593              		.cfi_endproc
 2594              	.LFE137:
 2596              		.section	.text.TIM_ForcedOC4Config,"ax",%progbits
 2597              		.align	1
 2598              		.global	TIM_ForcedOC4Config
 2599              		.syntax unified
 2600              		.thumb
 2601              		.thumb_func
 2603              	TIM_ForcedOC4Config:
 2604              	.LFB138:
1198:../Shared/Libraries/STM32F4xx_StdPeriph_Driver/src/stm32f4xx_tim.c **** 
1199:../Shared/Libraries/STM32F4xx_StdPeriph_Driver/src/stm32f4xx_tim.c **** /**
1200:../Shared/Libraries/STM32F4xx_StdPeriph_Driver/src/stm32f4xx_tim.c ****   * @brief  Forces the TIMx output 4 waveform to active or inactive level.
1201:../Shared/Libraries/STM32F4xx_StdPeriph_Driver/src/stm32f4xx_tim.c ****   * @param  TIMx: where x can be  1, 2, 3, 4, 5 or 8 to select the TIM peripheral.
1202:../Shared/Libraries/STM32F4xx_StdPeriph_Driver/src/stm32f4xx_tim.c ****   * @param  TIM_ForcedAction: specifies the forced Action to be set to the output waveform.
1203:../Shared/Libraries/STM32F4xx_StdPeriph_Driver/src/stm32f4xx_tim.c ****   *          This parameter can be one of the following values:
1204:../Shared/Libraries/STM32F4xx_StdPeriph_Driver/src/stm32f4xx_tim.c ****   *            @arg TIM_ForcedAction_Active: Force active level on OC4REF
1205:../Shared/Libraries/STM32F4xx_StdPeriph_Driver/src/stm32f4xx_tim.c ****   *            @arg TIM_ForcedAction_InActive: Force inactive level on OC4REF.
1206:../Shared/Libraries/STM32F4xx_StdPeriph_Driver/src/stm32f4xx_tim.c ****   * @retval None
1207:../Shared/Libraries/STM32F4xx_StdPeriph_Driver/src/stm32f4xx_tim.c ****   */
1208:../Shared/Libraries/STM32F4xx_StdPeriph_Driver/src/stm32f4xx_tim.c **** void TIM_ForcedOC4Config(TIM_TypeDef* TIMx, uint16_t TIM_ForcedAction)
1209:../Shared/Libraries/STM32F4xx_StdPeriph_Driver/src/stm32f4xx_tim.c **** {
 2605              		.loc 1 1209 1
 2606              		.cfi_startproc
 2607              		@ args = 0, pretend = 0, frame = 16
 2608              		@ frame_needed = 1, uses_anonymous_args = 0
 2609              		@ link register save eliminated.
 2610 0000 80B4     		push	{r7}
 2611              	.LCFI167:
 2612              		.cfi_def_cfa_offset 4
 2613              		.cfi_offset 7, -4
 2614 0002 85B0     		sub	sp, sp, #20
 2615              	.LCFI168:
 2616              		.cfi_def_cfa_offset 24
 2617 0004 00AF     		add	r7, sp, #0
 2618              	.LCFI169:
 2619              		.cfi_def_cfa_register 7
 2620 0006 7860     		str	r0, [r7, #4]
ARM GAS  /tmp/cc2zcHeL.s 			page 68


 2621 0008 0B46     		mov	r3, r1
 2622 000a 7B80     		strh	r3, [r7, #2]	@ movhi
1210:../Shared/Libraries/STM32F4xx_StdPeriph_Driver/src/stm32f4xx_tim.c ****   uint16_t tmpccmr2 = 0;
 2623              		.loc 1 1210 12
 2624 000c 0023     		movs	r3, #0
 2625 000e FB81     		strh	r3, [r7, #14]	@ movhi
1211:../Shared/Libraries/STM32F4xx_StdPeriph_Driver/src/stm32f4xx_tim.c **** 
1212:../Shared/Libraries/STM32F4xx_StdPeriph_Driver/src/stm32f4xx_tim.c ****   /* Check the parameters */
1213:../Shared/Libraries/STM32F4xx_StdPeriph_Driver/src/stm32f4xx_tim.c ****   assert_param(IS_TIM_LIST3_PERIPH(TIMx));
1214:../Shared/Libraries/STM32F4xx_StdPeriph_Driver/src/stm32f4xx_tim.c ****   assert_param(IS_TIM_FORCED_ACTION(TIM_ForcedAction));
1215:../Shared/Libraries/STM32F4xx_StdPeriph_Driver/src/stm32f4xx_tim.c ****   tmpccmr2 = TIMx->CCMR2;
 2626              		.loc 1 1215 12
 2627 0010 7B68     		ldr	r3, [r7, #4]
 2628 0012 9B8B     		ldrh	r3, [r3, #28]	@ movhi
 2629 0014 FB81     		strh	r3, [r7, #14]	@ movhi
1216:../Shared/Libraries/STM32F4xx_StdPeriph_Driver/src/stm32f4xx_tim.c **** 
1217:../Shared/Libraries/STM32F4xx_StdPeriph_Driver/src/stm32f4xx_tim.c ****   /* Reset the OC2M Bits */
1218:../Shared/Libraries/STM32F4xx_StdPeriph_Driver/src/stm32f4xx_tim.c ****   tmpccmr2 &= (uint16_t)~TIM_CCMR2_OC4M;
 2630              		.loc 1 1218 12
 2631 0016 FB89     		ldrh	r3, [r7, #14]	@ movhi
 2632 0018 23F4E043 		bic	r3, r3, #28672
 2633 001c FB81     		strh	r3, [r7, #14]	@ movhi
1219:../Shared/Libraries/STM32F4xx_StdPeriph_Driver/src/stm32f4xx_tim.c **** 
1220:../Shared/Libraries/STM32F4xx_StdPeriph_Driver/src/stm32f4xx_tim.c ****   /* Configure The Forced output Mode */
1221:../Shared/Libraries/STM32F4xx_StdPeriph_Driver/src/stm32f4xx_tim.c ****   tmpccmr2 |= (uint16_t)(TIM_ForcedAction << 8);
 2634              		.loc 1 1221 15
 2635 001e 7B88     		ldrh	r3, [r7, #2]	@ movhi
 2636 0020 1B02     		lsls	r3, r3, #8
 2637 0022 9AB2     		uxth	r2, r3
 2638              		.loc 1 1221 12
 2639 0024 FB89     		ldrh	r3, [r7, #14]	@ movhi
 2640 0026 1343     		orrs	r3, r3, r2
 2641 0028 FB81     		strh	r3, [r7, #14]	@ movhi
1222:../Shared/Libraries/STM32F4xx_StdPeriph_Driver/src/stm32f4xx_tim.c **** 
1223:../Shared/Libraries/STM32F4xx_StdPeriph_Driver/src/stm32f4xx_tim.c ****   /* Write to TIMx CCMR2 register */
1224:../Shared/Libraries/STM32F4xx_StdPeriph_Driver/src/stm32f4xx_tim.c ****   TIMx->CCMR2 = tmpccmr2;
 2642              		.loc 1 1224 15
 2643 002a 7B68     		ldr	r3, [r7, #4]
 2644 002c FA89     		ldrh	r2, [r7, #14]	@ movhi
 2645 002e 9A83     		strh	r2, [r3, #28]	@ movhi
1225:../Shared/Libraries/STM32F4xx_StdPeriph_Driver/src/stm32f4xx_tim.c **** }
 2646              		.loc 1 1225 1
 2647 0030 00BF     		nop
 2648 0032 1437     		adds	r7, r7, #20
 2649              	.LCFI170:
 2650              		.cfi_def_cfa_offset 4
 2651 0034 BD46     		mov	sp, r7
 2652              	.LCFI171:
 2653              		.cfi_def_cfa_register 13
 2654              		@ sp needed
 2655 0036 5DF8047B 		ldr	r7, [sp], #4
 2656              	.LCFI172:
 2657              		.cfi_restore 7
 2658              		.cfi_def_cfa_offset 0
 2659 003a 7047     		bx	lr
 2660              		.cfi_endproc
 2661              	.LFE138:
ARM GAS  /tmp/cc2zcHeL.s 			page 69


 2663              		.section	.text.TIM_OC1PreloadConfig,"ax",%progbits
 2664              		.align	1
 2665              		.global	TIM_OC1PreloadConfig
 2666              		.syntax unified
 2667              		.thumb
 2668              		.thumb_func
 2670              	TIM_OC1PreloadConfig:
 2671              	.LFB139:
1226:../Shared/Libraries/STM32F4xx_StdPeriph_Driver/src/stm32f4xx_tim.c **** 
1227:../Shared/Libraries/STM32F4xx_StdPeriph_Driver/src/stm32f4xx_tim.c **** /**
1228:../Shared/Libraries/STM32F4xx_StdPeriph_Driver/src/stm32f4xx_tim.c ****   * @brief  Enables or disables the TIMx peripheral Preload register on CCR1.
1229:../Shared/Libraries/STM32F4xx_StdPeriph_Driver/src/stm32f4xx_tim.c ****   * @param  TIMx: where x can be 1 to 14 except 6 and 7, to select the TIM peripheral.
1230:../Shared/Libraries/STM32F4xx_StdPeriph_Driver/src/stm32f4xx_tim.c ****   * @param  TIM_OCPreload: new state of the TIMx peripheral Preload register
1231:../Shared/Libraries/STM32F4xx_StdPeriph_Driver/src/stm32f4xx_tim.c ****   *          This parameter can be one of the following values:
1232:../Shared/Libraries/STM32F4xx_StdPeriph_Driver/src/stm32f4xx_tim.c ****   *            @arg TIM_OCPreload_Enable
1233:../Shared/Libraries/STM32F4xx_StdPeriph_Driver/src/stm32f4xx_tim.c ****   *            @arg TIM_OCPreload_Disable
1234:../Shared/Libraries/STM32F4xx_StdPeriph_Driver/src/stm32f4xx_tim.c ****   * @retval None
1235:../Shared/Libraries/STM32F4xx_StdPeriph_Driver/src/stm32f4xx_tim.c ****   */
1236:../Shared/Libraries/STM32F4xx_StdPeriph_Driver/src/stm32f4xx_tim.c **** void TIM_OC1PreloadConfig(TIM_TypeDef* TIMx, uint16_t TIM_OCPreload)
1237:../Shared/Libraries/STM32F4xx_StdPeriph_Driver/src/stm32f4xx_tim.c **** {
 2672              		.loc 1 1237 1
 2673              		.cfi_startproc
 2674              		@ args = 0, pretend = 0, frame = 16
 2675              		@ frame_needed = 1, uses_anonymous_args = 0
 2676              		@ link register save eliminated.
 2677 0000 80B4     		push	{r7}
 2678              	.LCFI173:
 2679              		.cfi_def_cfa_offset 4
 2680              		.cfi_offset 7, -4
 2681 0002 85B0     		sub	sp, sp, #20
 2682              	.LCFI174:
 2683              		.cfi_def_cfa_offset 24
 2684 0004 00AF     		add	r7, sp, #0
 2685              	.LCFI175:
 2686              		.cfi_def_cfa_register 7
 2687 0006 7860     		str	r0, [r7, #4]
 2688 0008 0B46     		mov	r3, r1
 2689 000a 7B80     		strh	r3, [r7, #2]	@ movhi
1238:../Shared/Libraries/STM32F4xx_StdPeriph_Driver/src/stm32f4xx_tim.c ****   uint16_t tmpccmr1 = 0;
 2690              		.loc 1 1238 12
 2691 000c 0023     		movs	r3, #0
 2692 000e FB81     		strh	r3, [r7, #14]	@ movhi
1239:../Shared/Libraries/STM32F4xx_StdPeriph_Driver/src/stm32f4xx_tim.c **** 
1240:../Shared/Libraries/STM32F4xx_StdPeriph_Driver/src/stm32f4xx_tim.c ****   /* Check the parameters */
1241:../Shared/Libraries/STM32F4xx_StdPeriph_Driver/src/stm32f4xx_tim.c ****   assert_param(IS_TIM_LIST1_PERIPH(TIMx));
1242:../Shared/Libraries/STM32F4xx_StdPeriph_Driver/src/stm32f4xx_tim.c ****   assert_param(IS_TIM_OCPRELOAD_STATE(TIM_OCPreload));
1243:../Shared/Libraries/STM32F4xx_StdPeriph_Driver/src/stm32f4xx_tim.c **** 
1244:../Shared/Libraries/STM32F4xx_StdPeriph_Driver/src/stm32f4xx_tim.c ****   tmpccmr1 = TIMx->CCMR1;
 2693              		.loc 1 1244 12
 2694 0010 7B68     		ldr	r3, [r7, #4]
 2695 0012 1B8B     		ldrh	r3, [r3, #24]	@ movhi
 2696 0014 FB81     		strh	r3, [r7, #14]	@ movhi
1245:../Shared/Libraries/STM32F4xx_StdPeriph_Driver/src/stm32f4xx_tim.c **** 
1246:../Shared/Libraries/STM32F4xx_StdPeriph_Driver/src/stm32f4xx_tim.c ****   /* Reset the OC1PE Bit */
1247:../Shared/Libraries/STM32F4xx_StdPeriph_Driver/src/stm32f4xx_tim.c ****   tmpccmr1 &= (uint16_t)(~TIM_CCMR1_OC1PE);
 2697              		.loc 1 1247 12
 2698 0016 FB89     		ldrh	r3, [r7, #14]	@ movhi
ARM GAS  /tmp/cc2zcHeL.s 			page 70


 2699 0018 23F00803 		bic	r3, r3, #8
 2700 001c FB81     		strh	r3, [r7, #14]	@ movhi
1248:../Shared/Libraries/STM32F4xx_StdPeriph_Driver/src/stm32f4xx_tim.c **** 
1249:../Shared/Libraries/STM32F4xx_StdPeriph_Driver/src/stm32f4xx_tim.c ****   /* Enable or Disable the Output Compare Preload feature */
1250:../Shared/Libraries/STM32F4xx_StdPeriph_Driver/src/stm32f4xx_tim.c ****   tmpccmr1 |= TIM_OCPreload;
 2701              		.loc 1 1250 12
 2702 001e FA89     		ldrh	r2, [r7, #14]	@ movhi
 2703 0020 7B88     		ldrh	r3, [r7, #2]	@ movhi
 2704 0022 1343     		orrs	r3, r3, r2
 2705 0024 FB81     		strh	r3, [r7, #14]	@ movhi
1251:../Shared/Libraries/STM32F4xx_StdPeriph_Driver/src/stm32f4xx_tim.c **** 
1252:../Shared/Libraries/STM32F4xx_StdPeriph_Driver/src/stm32f4xx_tim.c ****   /* Write to TIMx CCMR1 register */
1253:../Shared/Libraries/STM32F4xx_StdPeriph_Driver/src/stm32f4xx_tim.c ****   TIMx->CCMR1 = tmpccmr1;
 2706              		.loc 1 1253 15
 2707 0026 7B68     		ldr	r3, [r7, #4]
 2708 0028 FA89     		ldrh	r2, [r7, #14]	@ movhi
 2709 002a 1A83     		strh	r2, [r3, #24]	@ movhi
1254:../Shared/Libraries/STM32F4xx_StdPeriph_Driver/src/stm32f4xx_tim.c **** }
 2710              		.loc 1 1254 1
 2711 002c 00BF     		nop
 2712 002e 1437     		adds	r7, r7, #20
 2713              	.LCFI176:
 2714              		.cfi_def_cfa_offset 4
 2715 0030 BD46     		mov	sp, r7
 2716              	.LCFI177:
 2717              		.cfi_def_cfa_register 13
 2718              		@ sp needed
 2719 0032 5DF8047B 		ldr	r7, [sp], #4
 2720              	.LCFI178:
 2721              		.cfi_restore 7
 2722              		.cfi_def_cfa_offset 0
 2723 0036 7047     		bx	lr
 2724              		.cfi_endproc
 2725              	.LFE139:
 2727              		.section	.text.TIM_OC2PreloadConfig,"ax",%progbits
 2728              		.align	1
 2729              		.global	TIM_OC2PreloadConfig
 2730              		.syntax unified
 2731              		.thumb
 2732              		.thumb_func
 2734              	TIM_OC2PreloadConfig:
 2735              	.LFB140:
1255:../Shared/Libraries/STM32F4xx_StdPeriph_Driver/src/stm32f4xx_tim.c **** 
1256:../Shared/Libraries/STM32F4xx_StdPeriph_Driver/src/stm32f4xx_tim.c **** /**
1257:../Shared/Libraries/STM32F4xx_StdPeriph_Driver/src/stm32f4xx_tim.c ****   * @brief  Enables or disables the TIMx peripheral Preload register on CCR2.
1258:../Shared/Libraries/STM32F4xx_StdPeriph_Driver/src/stm32f4xx_tim.c ****   * @param  TIMx: where x can be  1, 2, 3, 4, 5, 8, 9 or 12 to select the TIM 
1259:../Shared/Libraries/STM32F4xx_StdPeriph_Driver/src/stm32f4xx_tim.c ****   *         peripheral.
1260:../Shared/Libraries/STM32F4xx_StdPeriph_Driver/src/stm32f4xx_tim.c ****   * @param  TIM_OCPreload: new state of the TIMx peripheral Preload register
1261:../Shared/Libraries/STM32F4xx_StdPeriph_Driver/src/stm32f4xx_tim.c ****   *          This parameter can be one of the following values:
1262:../Shared/Libraries/STM32F4xx_StdPeriph_Driver/src/stm32f4xx_tim.c ****   *            @arg TIM_OCPreload_Enable
1263:../Shared/Libraries/STM32F4xx_StdPeriph_Driver/src/stm32f4xx_tim.c ****   *            @arg TIM_OCPreload_Disable
1264:../Shared/Libraries/STM32F4xx_StdPeriph_Driver/src/stm32f4xx_tim.c ****   * @retval None
1265:../Shared/Libraries/STM32F4xx_StdPeriph_Driver/src/stm32f4xx_tim.c ****   */
1266:../Shared/Libraries/STM32F4xx_StdPeriph_Driver/src/stm32f4xx_tim.c **** void TIM_OC2PreloadConfig(TIM_TypeDef* TIMx, uint16_t TIM_OCPreload)
1267:../Shared/Libraries/STM32F4xx_StdPeriph_Driver/src/stm32f4xx_tim.c **** {
 2736              		.loc 1 1267 1
 2737              		.cfi_startproc
ARM GAS  /tmp/cc2zcHeL.s 			page 71


 2738              		@ args = 0, pretend = 0, frame = 16
 2739              		@ frame_needed = 1, uses_anonymous_args = 0
 2740              		@ link register save eliminated.
 2741 0000 80B4     		push	{r7}
 2742              	.LCFI179:
 2743              		.cfi_def_cfa_offset 4
 2744              		.cfi_offset 7, -4
 2745 0002 85B0     		sub	sp, sp, #20
 2746              	.LCFI180:
 2747              		.cfi_def_cfa_offset 24
 2748 0004 00AF     		add	r7, sp, #0
 2749              	.LCFI181:
 2750              		.cfi_def_cfa_register 7
 2751 0006 7860     		str	r0, [r7, #4]
 2752 0008 0B46     		mov	r3, r1
 2753 000a 7B80     		strh	r3, [r7, #2]	@ movhi
1268:../Shared/Libraries/STM32F4xx_StdPeriph_Driver/src/stm32f4xx_tim.c ****   uint16_t tmpccmr1 = 0;
 2754              		.loc 1 1268 12
 2755 000c 0023     		movs	r3, #0
 2756 000e FB81     		strh	r3, [r7, #14]	@ movhi
1269:../Shared/Libraries/STM32F4xx_StdPeriph_Driver/src/stm32f4xx_tim.c **** 
1270:../Shared/Libraries/STM32F4xx_StdPeriph_Driver/src/stm32f4xx_tim.c ****   /* Check the parameters */
1271:../Shared/Libraries/STM32F4xx_StdPeriph_Driver/src/stm32f4xx_tim.c ****   assert_param(IS_TIM_LIST2_PERIPH(TIMx));
1272:../Shared/Libraries/STM32F4xx_StdPeriph_Driver/src/stm32f4xx_tim.c ****   assert_param(IS_TIM_OCPRELOAD_STATE(TIM_OCPreload));
1273:../Shared/Libraries/STM32F4xx_StdPeriph_Driver/src/stm32f4xx_tim.c **** 
1274:../Shared/Libraries/STM32F4xx_StdPeriph_Driver/src/stm32f4xx_tim.c ****   tmpccmr1 = TIMx->CCMR1;
 2757              		.loc 1 1274 12
 2758 0010 7B68     		ldr	r3, [r7, #4]
 2759 0012 1B8B     		ldrh	r3, [r3, #24]	@ movhi
 2760 0014 FB81     		strh	r3, [r7, #14]	@ movhi
1275:../Shared/Libraries/STM32F4xx_StdPeriph_Driver/src/stm32f4xx_tim.c **** 
1276:../Shared/Libraries/STM32F4xx_StdPeriph_Driver/src/stm32f4xx_tim.c ****   /* Reset the OC2PE Bit */
1277:../Shared/Libraries/STM32F4xx_StdPeriph_Driver/src/stm32f4xx_tim.c ****   tmpccmr1 &= (uint16_t)(~TIM_CCMR1_OC2PE);
 2761              		.loc 1 1277 12
 2762 0016 FB89     		ldrh	r3, [r7, #14]	@ movhi
 2763 0018 23F40063 		bic	r3, r3, #2048
 2764 001c FB81     		strh	r3, [r7, #14]	@ movhi
1278:../Shared/Libraries/STM32F4xx_StdPeriph_Driver/src/stm32f4xx_tim.c **** 
1279:../Shared/Libraries/STM32F4xx_StdPeriph_Driver/src/stm32f4xx_tim.c ****   /* Enable or Disable the Output Compare Preload feature */
1280:../Shared/Libraries/STM32F4xx_StdPeriph_Driver/src/stm32f4xx_tim.c ****   tmpccmr1 |= (uint16_t)(TIM_OCPreload << 8);
 2765              		.loc 1 1280 15
 2766 001e 7B88     		ldrh	r3, [r7, #2]	@ movhi
 2767 0020 1B02     		lsls	r3, r3, #8
 2768 0022 9AB2     		uxth	r2, r3
 2769              		.loc 1 1280 12
 2770 0024 FB89     		ldrh	r3, [r7, #14]	@ movhi
 2771 0026 1343     		orrs	r3, r3, r2
 2772 0028 FB81     		strh	r3, [r7, #14]	@ movhi
1281:../Shared/Libraries/STM32F4xx_StdPeriph_Driver/src/stm32f4xx_tim.c **** 
1282:../Shared/Libraries/STM32F4xx_StdPeriph_Driver/src/stm32f4xx_tim.c ****   /* Write to TIMx CCMR1 register */
1283:../Shared/Libraries/STM32F4xx_StdPeriph_Driver/src/stm32f4xx_tim.c ****   TIMx->CCMR1 = tmpccmr1;
 2773              		.loc 1 1283 15
 2774 002a 7B68     		ldr	r3, [r7, #4]
 2775 002c FA89     		ldrh	r2, [r7, #14]	@ movhi
 2776 002e 1A83     		strh	r2, [r3, #24]	@ movhi
1284:../Shared/Libraries/STM32F4xx_StdPeriph_Driver/src/stm32f4xx_tim.c **** }
 2777              		.loc 1 1284 1
ARM GAS  /tmp/cc2zcHeL.s 			page 72


 2778 0030 00BF     		nop
 2779 0032 1437     		adds	r7, r7, #20
 2780              	.LCFI182:
 2781              		.cfi_def_cfa_offset 4
 2782 0034 BD46     		mov	sp, r7
 2783              	.LCFI183:
 2784              		.cfi_def_cfa_register 13
 2785              		@ sp needed
 2786 0036 5DF8047B 		ldr	r7, [sp], #4
 2787              	.LCFI184:
 2788              		.cfi_restore 7
 2789              		.cfi_def_cfa_offset 0
 2790 003a 7047     		bx	lr
 2791              		.cfi_endproc
 2792              	.LFE140:
 2794              		.section	.text.TIM_OC3PreloadConfig,"ax",%progbits
 2795              		.align	1
 2796              		.global	TIM_OC3PreloadConfig
 2797              		.syntax unified
 2798              		.thumb
 2799              		.thumb_func
 2801              	TIM_OC3PreloadConfig:
 2802              	.LFB141:
1285:../Shared/Libraries/STM32F4xx_StdPeriph_Driver/src/stm32f4xx_tim.c **** 
1286:../Shared/Libraries/STM32F4xx_StdPeriph_Driver/src/stm32f4xx_tim.c **** /**
1287:../Shared/Libraries/STM32F4xx_StdPeriph_Driver/src/stm32f4xx_tim.c ****   * @brief  Enables or disables the TIMx peripheral Preload register on CCR3.
1288:../Shared/Libraries/STM32F4xx_StdPeriph_Driver/src/stm32f4xx_tim.c ****   * @param  TIMx: where x can be  1, 2, 3, 4, 5 or 8 to select the TIM peripheral.
1289:../Shared/Libraries/STM32F4xx_StdPeriph_Driver/src/stm32f4xx_tim.c ****   * @param  TIM_OCPreload: new state of the TIMx peripheral Preload register
1290:../Shared/Libraries/STM32F4xx_StdPeriph_Driver/src/stm32f4xx_tim.c ****   *          This parameter can be one of the following values:
1291:../Shared/Libraries/STM32F4xx_StdPeriph_Driver/src/stm32f4xx_tim.c ****   *            @arg TIM_OCPreload_Enable
1292:../Shared/Libraries/STM32F4xx_StdPeriph_Driver/src/stm32f4xx_tim.c ****   *            @arg TIM_OCPreload_Disable
1293:../Shared/Libraries/STM32F4xx_StdPeriph_Driver/src/stm32f4xx_tim.c ****   * @retval None
1294:../Shared/Libraries/STM32F4xx_StdPeriph_Driver/src/stm32f4xx_tim.c ****   */
1295:../Shared/Libraries/STM32F4xx_StdPeriph_Driver/src/stm32f4xx_tim.c **** void TIM_OC3PreloadConfig(TIM_TypeDef* TIMx, uint16_t TIM_OCPreload)
1296:../Shared/Libraries/STM32F4xx_StdPeriph_Driver/src/stm32f4xx_tim.c **** {
 2803              		.loc 1 1296 1
 2804              		.cfi_startproc
 2805              		@ args = 0, pretend = 0, frame = 16
 2806              		@ frame_needed = 1, uses_anonymous_args = 0
 2807              		@ link register save eliminated.
 2808 0000 80B4     		push	{r7}
 2809              	.LCFI185:
 2810              		.cfi_def_cfa_offset 4
 2811              		.cfi_offset 7, -4
 2812 0002 85B0     		sub	sp, sp, #20
 2813              	.LCFI186:
 2814              		.cfi_def_cfa_offset 24
 2815 0004 00AF     		add	r7, sp, #0
 2816              	.LCFI187:
 2817              		.cfi_def_cfa_register 7
 2818 0006 7860     		str	r0, [r7, #4]
 2819 0008 0B46     		mov	r3, r1
 2820 000a 7B80     		strh	r3, [r7, #2]	@ movhi
1297:../Shared/Libraries/STM32F4xx_StdPeriph_Driver/src/stm32f4xx_tim.c ****   uint16_t tmpccmr2 = 0;
 2821              		.loc 1 1297 12
 2822 000c 0023     		movs	r3, #0
 2823 000e FB81     		strh	r3, [r7, #14]	@ movhi
ARM GAS  /tmp/cc2zcHeL.s 			page 73


1298:../Shared/Libraries/STM32F4xx_StdPeriph_Driver/src/stm32f4xx_tim.c **** 
1299:../Shared/Libraries/STM32F4xx_StdPeriph_Driver/src/stm32f4xx_tim.c ****   /* Check the parameters */
1300:../Shared/Libraries/STM32F4xx_StdPeriph_Driver/src/stm32f4xx_tim.c ****   assert_param(IS_TIM_LIST3_PERIPH(TIMx));
1301:../Shared/Libraries/STM32F4xx_StdPeriph_Driver/src/stm32f4xx_tim.c ****   assert_param(IS_TIM_OCPRELOAD_STATE(TIM_OCPreload));
1302:../Shared/Libraries/STM32F4xx_StdPeriph_Driver/src/stm32f4xx_tim.c **** 
1303:../Shared/Libraries/STM32F4xx_StdPeriph_Driver/src/stm32f4xx_tim.c ****   tmpccmr2 = TIMx->CCMR2;
 2824              		.loc 1 1303 12
 2825 0010 7B68     		ldr	r3, [r7, #4]
 2826 0012 9B8B     		ldrh	r3, [r3, #28]	@ movhi
 2827 0014 FB81     		strh	r3, [r7, #14]	@ movhi
1304:../Shared/Libraries/STM32F4xx_StdPeriph_Driver/src/stm32f4xx_tim.c **** 
1305:../Shared/Libraries/STM32F4xx_StdPeriph_Driver/src/stm32f4xx_tim.c ****   /* Reset the OC3PE Bit */
1306:../Shared/Libraries/STM32F4xx_StdPeriph_Driver/src/stm32f4xx_tim.c ****   tmpccmr2 &= (uint16_t)(~TIM_CCMR2_OC3PE);
 2828              		.loc 1 1306 12
 2829 0016 FB89     		ldrh	r3, [r7, #14]	@ movhi
 2830 0018 23F00803 		bic	r3, r3, #8
 2831 001c FB81     		strh	r3, [r7, #14]	@ movhi
1307:../Shared/Libraries/STM32F4xx_StdPeriph_Driver/src/stm32f4xx_tim.c **** 
1308:../Shared/Libraries/STM32F4xx_StdPeriph_Driver/src/stm32f4xx_tim.c ****   /* Enable or Disable the Output Compare Preload feature */
1309:../Shared/Libraries/STM32F4xx_StdPeriph_Driver/src/stm32f4xx_tim.c ****   tmpccmr2 |= TIM_OCPreload;
 2832              		.loc 1 1309 12
 2833 001e FA89     		ldrh	r2, [r7, #14]	@ movhi
 2834 0020 7B88     		ldrh	r3, [r7, #2]	@ movhi
 2835 0022 1343     		orrs	r3, r3, r2
 2836 0024 FB81     		strh	r3, [r7, #14]	@ movhi
1310:../Shared/Libraries/STM32F4xx_StdPeriph_Driver/src/stm32f4xx_tim.c **** 
1311:../Shared/Libraries/STM32F4xx_StdPeriph_Driver/src/stm32f4xx_tim.c ****   /* Write to TIMx CCMR2 register */
1312:../Shared/Libraries/STM32F4xx_StdPeriph_Driver/src/stm32f4xx_tim.c ****   TIMx->CCMR2 = tmpccmr2;
 2837              		.loc 1 1312 15
 2838 0026 7B68     		ldr	r3, [r7, #4]
 2839 0028 FA89     		ldrh	r2, [r7, #14]	@ movhi
 2840 002a 9A83     		strh	r2, [r3, #28]	@ movhi
1313:../Shared/Libraries/STM32F4xx_StdPeriph_Driver/src/stm32f4xx_tim.c **** }
 2841              		.loc 1 1313 1
 2842 002c 00BF     		nop
 2843 002e 1437     		adds	r7, r7, #20
 2844              	.LCFI188:
 2845              		.cfi_def_cfa_offset 4
 2846 0030 BD46     		mov	sp, r7
 2847              	.LCFI189:
 2848              		.cfi_def_cfa_register 13
 2849              		@ sp needed
 2850 0032 5DF8047B 		ldr	r7, [sp], #4
 2851              	.LCFI190:
 2852              		.cfi_restore 7
 2853              		.cfi_def_cfa_offset 0
 2854 0036 7047     		bx	lr
 2855              		.cfi_endproc
 2856              	.LFE141:
 2858              		.section	.text.TIM_OC4PreloadConfig,"ax",%progbits
 2859              		.align	1
 2860              		.global	TIM_OC4PreloadConfig
 2861              		.syntax unified
 2862              		.thumb
 2863              		.thumb_func
 2865              	TIM_OC4PreloadConfig:
 2866              	.LFB142:
ARM GAS  /tmp/cc2zcHeL.s 			page 74


1314:../Shared/Libraries/STM32F4xx_StdPeriph_Driver/src/stm32f4xx_tim.c **** 
1315:../Shared/Libraries/STM32F4xx_StdPeriph_Driver/src/stm32f4xx_tim.c **** /**
1316:../Shared/Libraries/STM32F4xx_StdPeriph_Driver/src/stm32f4xx_tim.c ****   * @brief  Enables or disables the TIMx peripheral Preload register on CCR4.
1317:../Shared/Libraries/STM32F4xx_StdPeriph_Driver/src/stm32f4xx_tim.c ****   * @param  TIMx: where x can be  1, 2, 3, 4, 5 or 8 to select the TIM peripheral.
1318:../Shared/Libraries/STM32F4xx_StdPeriph_Driver/src/stm32f4xx_tim.c ****   * @param  TIM_OCPreload: new state of the TIMx peripheral Preload register
1319:../Shared/Libraries/STM32F4xx_StdPeriph_Driver/src/stm32f4xx_tim.c ****   *          This parameter can be one of the following values:
1320:../Shared/Libraries/STM32F4xx_StdPeriph_Driver/src/stm32f4xx_tim.c ****   *            @arg TIM_OCPreload_Enable
1321:../Shared/Libraries/STM32F4xx_StdPeriph_Driver/src/stm32f4xx_tim.c ****   *            @arg TIM_OCPreload_Disable
1322:../Shared/Libraries/STM32F4xx_StdPeriph_Driver/src/stm32f4xx_tim.c ****   * @retval None
1323:../Shared/Libraries/STM32F4xx_StdPeriph_Driver/src/stm32f4xx_tim.c ****   */
1324:../Shared/Libraries/STM32F4xx_StdPeriph_Driver/src/stm32f4xx_tim.c **** void TIM_OC4PreloadConfig(TIM_TypeDef* TIMx, uint16_t TIM_OCPreload)
1325:../Shared/Libraries/STM32F4xx_StdPeriph_Driver/src/stm32f4xx_tim.c **** {
 2867              		.loc 1 1325 1
 2868              		.cfi_startproc
 2869              		@ args = 0, pretend = 0, frame = 16
 2870              		@ frame_needed = 1, uses_anonymous_args = 0
 2871              		@ link register save eliminated.
 2872 0000 80B4     		push	{r7}
 2873              	.LCFI191:
 2874              		.cfi_def_cfa_offset 4
 2875              		.cfi_offset 7, -4
 2876 0002 85B0     		sub	sp, sp, #20
 2877              	.LCFI192:
 2878              		.cfi_def_cfa_offset 24
 2879 0004 00AF     		add	r7, sp, #0
 2880              	.LCFI193:
 2881              		.cfi_def_cfa_register 7
 2882 0006 7860     		str	r0, [r7, #4]
 2883 0008 0B46     		mov	r3, r1
 2884 000a 7B80     		strh	r3, [r7, #2]	@ movhi
1326:../Shared/Libraries/STM32F4xx_StdPeriph_Driver/src/stm32f4xx_tim.c ****   uint16_t tmpccmr2 = 0;
 2885              		.loc 1 1326 12
 2886 000c 0023     		movs	r3, #0
 2887 000e FB81     		strh	r3, [r7, #14]	@ movhi
1327:../Shared/Libraries/STM32F4xx_StdPeriph_Driver/src/stm32f4xx_tim.c **** 
1328:../Shared/Libraries/STM32F4xx_StdPeriph_Driver/src/stm32f4xx_tim.c ****   /* Check the parameters */
1329:../Shared/Libraries/STM32F4xx_StdPeriph_Driver/src/stm32f4xx_tim.c ****   assert_param(IS_TIM_LIST3_PERIPH(TIMx));
1330:../Shared/Libraries/STM32F4xx_StdPeriph_Driver/src/stm32f4xx_tim.c ****   assert_param(IS_TIM_OCPRELOAD_STATE(TIM_OCPreload));
1331:../Shared/Libraries/STM32F4xx_StdPeriph_Driver/src/stm32f4xx_tim.c **** 
1332:../Shared/Libraries/STM32F4xx_StdPeriph_Driver/src/stm32f4xx_tim.c ****   tmpccmr2 = TIMx->CCMR2;
 2888              		.loc 1 1332 12
 2889 0010 7B68     		ldr	r3, [r7, #4]
 2890 0012 9B8B     		ldrh	r3, [r3, #28]	@ movhi
 2891 0014 FB81     		strh	r3, [r7, #14]	@ movhi
1333:../Shared/Libraries/STM32F4xx_StdPeriph_Driver/src/stm32f4xx_tim.c **** 
1334:../Shared/Libraries/STM32F4xx_StdPeriph_Driver/src/stm32f4xx_tim.c ****   /* Reset the OC4PE Bit */
1335:../Shared/Libraries/STM32F4xx_StdPeriph_Driver/src/stm32f4xx_tim.c ****   tmpccmr2 &= (uint16_t)(~TIM_CCMR2_OC4PE);
 2892              		.loc 1 1335 12
 2893 0016 FB89     		ldrh	r3, [r7, #14]	@ movhi
 2894 0018 23F40063 		bic	r3, r3, #2048
 2895 001c FB81     		strh	r3, [r7, #14]	@ movhi
1336:../Shared/Libraries/STM32F4xx_StdPeriph_Driver/src/stm32f4xx_tim.c **** 
1337:../Shared/Libraries/STM32F4xx_StdPeriph_Driver/src/stm32f4xx_tim.c ****   /* Enable or Disable the Output Compare Preload feature */
1338:../Shared/Libraries/STM32F4xx_StdPeriph_Driver/src/stm32f4xx_tim.c ****   tmpccmr2 |= (uint16_t)(TIM_OCPreload << 8);
 2896              		.loc 1 1338 15
 2897 001e 7B88     		ldrh	r3, [r7, #2]	@ movhi
 2898 0020 1B02     		lsls	r3, r3, #8
ARM GAS  /tmp/cc2zcHeL.s 			page 75


 2899 0022 9AB2     		uxth	r2, r3
 2900              		.loc 1 1338 12
 2901 0024 FB89     		ldrh	r3, [r7, #14]	@ movhi
 2902 0026 1343     		orrs	r3, r3, r2
 2903 0028 FB81     		strh	r3, [r7, #14]	@ movhi
1339:../Shared/Libraries/STM32F4xx_StdPeriph_Driver/src/stm32f4xx_tim.c **** 
1340:../Shared/Libraries/STM32F4xx_StdPeriph_Driver/src/stm32f4xx_tim.c ****   /* Write to TIMx CCMR2 register */
1341:../Shared/Libraries/STM32F4xx_StdPeriph_Driver/src/stm32f4xx_tim.c ****   TIMx->CCMR2 = tmpccmr2;
 2904              		.loc 1 1341 15
 2905 002a 7B68     		ldr	r3, [r7, #4]
 2906 002c FA89     		ldrh	r2, [r7, #14]	@ movhi
 2907 002e 9A83     		strh	r2, [r3, #28]	@ movhi
1342:../Shared/Libraries/STM32F4xx_StdPeriph_Driver/src/stm32f4xx_tim.c **** }
 2908              		.loc 1 1342 1
 2909 0030 00BF     		nop
 2910 0032 1437     		adds	r7, r7, #20
 2911              	.LCFI194:
 2912              		.cfi_def_cfa_offset 4
 2913 0034 BD46     		mov	sp, r7
 2914              	.LCFI195:
 2915              		.cfi_def_cfa_register 13
 2916              		@ sp needed
 2917 0036 5DF8047B 		ldr	r7, [sp], #4
 2918              	.LCFI196:
 2919              		.cfi_restore 7
 2920              		.cfi_def_cfa_offset 0
 2921 003a 7047     		bx	lr
 2922              		.cfi_endproc
 2923              	.LFE142:
 2925              		.section	.text.TIM_OC1FastConfig,"ax",%progbits
 2926              		.align	1
 2927              		.global	TIM_OC1FastConfig
 2928              		.syntax unified
 2929              		.thumb
 2930              		.thumb_func
 2932              	TIM_OC1FastConfig:
 2933              	.LFB143:
1343:../Shared/Libraries/STM32F4xx_StdPeriph_Driver/src/stm32f4xx_tim.c **** 
1344:../Shared/Libraries/STM32F4xx_StdPeriph_Driver/src/stm32f4xx_tim.c **** /**
1345:../Shared/Libraries/STM32F4xx_StdPeriph_Driver/src/stm32f4xx_tim.c ****   * @brief  Configures the TIMx Output Compare 1 Fast feature.
1346:../Shared/Libraries/STM32F4xx_StdPeriph_Driver/src/stm32f4xx_tim.c ****   * @param  TIMx: where x can be 1 to 14 except 6 and 7, to select the TIM peripheral.
1347:../Shared/Libraries/STM32F4xx_StdPeriph_Driver/src/stm32f4xx_tim.c ****   * @param  TIM_OCFast: new state of the Output Compare Fast Enable Bit.
1348:../Shared/Libraries/STM32F4xx_StdPeriph_Driver/src/stm32f4xx_tim.c ****   *          This parameter can be one of the following values:
1349:../Shared/Libraries/STM32F4xx_StdPeriph_Driver/src/stm32f4xx_tim.c ****   *            @arg TIM_OCFast_Enable: TIM output compare fast enable
1350:../Shared/Libraries/STM32F4xx_StdPeriph_Driver/src/stm32f4xx_tim.c ****   *            @arg TIM_OCFast_Disable: TIM output compare fast disable
1351:../Shared/Libraries/STM32F4xx_StdPeriph_Driver/src/stm32f4xx_tim.c ****   * @retval None
1352:../Shared/Libraries/STM32F4xx_StdPeriph_Driver/src/stm32f4xx_tim.c ****   */
1353:../Shared/Libraries/STM32F4xx_StdPeriph_Driver/src/stm32f4xx_tim.c **** void TIM_OC1FastConfig(TIM_TypeDef* TIMx, uint16_t TIM_OCFast)
1354:../Shared/Libraries/STM32F4xx_StdPeriph_Driver/src/stm32f4xx_tim.c **** {
 2934              		.loc 1 1354 1
 2935              		.cfi_startproc
 2936              		@ args = 0, pretend = 0, frame = 16
 2937              		@ frame_needed = 1, uses_anonymous_args = 0
 2938              		@ link register save eliminated.
 2939 0000 80B4     		push	{r7}
 2940              	.LCFI197:
 2941              		.cfi_def_cfa_offset 4
ARM GAS  /tmp/cc2zcHeL.s 			page 76


 2942              		.cfi_offset 7, -4
 2943 0002 85B0     		sub	sp, sp, #20
 2944              	.LCFI198:
 2945              		.cfi_def_cfa_offset 24
 2946 0004 00AF     		add	r7, sp, #0
 2947              	.LCFI199:
 2948              		.cfi_def_cfa_register 7
 2949 0006 7860     		str	r0, [r7, #4]
 2950 0008 0B46     		mov	r3, r1
 2951 000a 7B80     		strh	r3, [r7, #2]	@ movhi
1355:../Shared/Libraries/STM32F4xx_StdPeriph_Driver/src/stm32f4xx_tim.c ****   uint16_t tmpccmr1 = 0;
 2952              		.loc 1 1355 12
 2953 000c 0023     		movs	r3, #0
 2954 000e FB81     		strh	r3, [r7, #14]	@ movhi
1356:../Shared/Libraries/STM32F4xx_StdPeriph_Driver/src/stm32f4xx_tim.c **** 
1357:../Shared/Libraries/STM32F4xx_StdPeriph_Driver/src/stm32f4xx_tim.c ****   /* Check the parameters */
1358:../Shared/Libraries/STM32F4xx_StdPeriph_Driver/src/stm32f4xx_tim.c ****   assert_param(IS_TIM_LIST1_PERIPH(TIMx));
1359:../Shared/Libraries/STM32F4xx_StdPeriph_Driver/src/stm32f4xx_tim.c ****   assert_param(IS_TIM_OCFAST_STATE(TIM_OCFast));
1360:../Shared/Libraries/STM32F4xx_StdPeriph_Driver/src/stm32f4xx_tim.c **** 
1361:../Shared/Libraries/STM32F4xx_StdPeriph_Driver/src/stm32f4xx_tim.c ****   /* Get the TIMx CCMR1 register value */
1362:../Shared/Libraries/STM32F4xx_StdPeriph_Driver/src/stm32f4xx_tim.c ****   tmpccmr1 = TIMx->CCMR1;
 2955              		.loc 1 1362 12
 2956 0010 7B68     		ldr	r3, [r7, #4]
 2957 0012 1B8B     		ldrh	r3, [r3, #24]	@ movhi
 2958 0014 FB81     		strh	r3, [r7, #14]	@ movhi
1363:../Shared/Libraries/STM32F4xx_StdPeriph_Driver/src/stm32f4xx_tim.c **** 
1364:../Shared/Libraries/STM32F4xx_StdPeriph_Driver/src/stm32f4xx_tim.c ****   /* Reset the OC1FE Bit */
1365:../Shared/Libraries/STM32F4xx_StdPeriph_Driver/src/stm32f4xx_tim.c ****   tmpccmr1 &= (uint16_t)~TIM_CCMR1_OC1FE;
 2959              		.loc 1 1365 12
 2960 0016 FB89     		ldrh	r3, [r7, #14]	@ movhi
 2961 0018 23F00403 		bic	r3, r3, #4
 2962 001c FB81     		strh	r3, [r7, #14]	@ movhi
1366:../Shared/Libraries/STM32F4xx_StdPeriph_Driver/src/stm32f4xx_tim.c **** 
1367:../Shared/Libraries/STM32F4xx_StdPeriph_Driver/src/stm32f4xx_tim.c ****   /* Enable or Disable the Output Compare Fast Bit */
1368:../Shared/Libraries/STM32F4xx_StdPeriph_Driver/src/stm32f4xx_tim.c ****   tmpccmr1 |= TIM_OCFast;
 2963              		.loc 1 1368 12
 2964 001e FA89     		ldrh	r2, [r7, #14]	@ movhi
 2965 0020 7B88     		ldrh	r3, [r7, #2]	@ movhi
 2966 0022 1343     		orrs	r3, r3, r2
 2967 0024 FB81     		strh	r3, [r7, #14]	@ movhi
1369:../Shared/Libraries/STM32F4xx_StdPeriph_Driver/src/stm32f4xx_tim.c **** 
1370:../Shared/Libraries/STM32F4xx_StdPeriph_Driver/src/stm32f4xx_tim.c ****   /* Write to TIMx CCMR1 */
1371:../Shared/Libraries/STM32F4xx_StdPeriph_Driver/src/stm32f4xx_tim.c ****   TIMx->CCMR1 = tmpccmr1;
 2968              		.loc 1 1371 15
 2969 0026 7B68     		ldr	r3, [r7, #4]
 2970 0028 FA89     		ldrh	r2, [r7, #14]	@ movhi
 2971 002a 1A83     		strh	r2, [r3, #24]	@ movhi
1372:../Shared/Libraries/STM32F4xx_StdPeriph_Driver/src/stm32f4xx_tim.c **** }
 2972              		.loc 1 1372 1
 2973 002c 00BF     		nop
 2974 002e 1437     		adds	r7, r7, #20
 2975              	.LCFI200:
 2976              		.cfi_def_cfa_offset 4
 2977 0030 BD46     		mov	sp, r7
 2978              	.LCFI201:
 2979              		.cfi_def_cfa_register 13
 2980              		@ sp needed
ARM GAS  /tmp/cc2zcHeL.s 			page 77


 2981 0032 5DF8047B 		ldr	r7, [sp], #4
 2982              	.LCFI202:
 2983              		.cfi_restore 7
 2984              		.cfi_def_cfa_offset 0
 2985 0036 7047     		bx	lr
 2986              		.cfi_endproc
 2987              	.LFE143:
 2989              		.section	.text.TIM_OC2FastConfig,"ax",%progbits
 2990              		.align	1
 2991              		.global	TIM_OC2FastConfig
 2992              		.syntax unified
 2993              		.thumb
 2994              		.thumb_func
 2996              	TIM_OC2FastConfig:
 2997              	.LFB144:
1373:../Shared/Libraries/STM32F4xx_StdPeriph_Driver/src/stm32f4xx_tim.c **** 
1374:../Shared/Libraries/STM32F4xx_StdPeriph_Driver/src/stm32f4xx_tim.c **** /**
1375:../Shared/Libraries/STM32F4xx_StdPeriph_Driver/src/stm32f4xx_tim.c ****   * @brief  Configures the TIMx Output Compare 2 Fast feature.
1376:../Shared/Libraries/STM32F4xx_StdPeriph_Driver/src/stm32f4xx_tim.c ****   * @param  TIMx: where x can be  1, 2, 3, 4, 5, 8, 9 or 12 to select the TIM 
1377:../Shared/Libraries/STM32F4xx_StdPeriph_Driver/src/stm32f4xx_tim.c ****   *         peripheral.
1378:../Shared/Libraries/STM32F4xx_StdPeriph_Driver/src/stm32f4xx_tim.c ****   * @param  TIM_OCFast: new state of the Output Compare Fast Enable Bit.
1379:../Shared/Libraries/STM32F4xx_StdPeriph_Driver/src/stm32f4xx_tim.c ****   *          This parameter can be one of the following values:
1380:../Shared/Libraries/STM32F4xx_StdPeriph_Driver/src/stm32f4xx_tim.c ****   *            @arg TIM_OCFast_Enable: TIM output compare fast enable
1381:../Shared/Libraries/STM32F4xx_StdPeriph_Driver/src/stm32f4xx_tim.c ****   *            @arg TIM_OCFast_Disable: TIM output compare fast disable
1382:../Shared/Libraries/STM32F4xx_StdPeriph_Driver/src/stm32f4xx_tim.c ****   * @retval None
1383:../Shared/Libraries/STM32F4xx_StdPeriph_Driver/src/stm32f4xx_tim.c ****   */
1384:../Shared/Libraries/STM32F4xx_StdPeriph_Driver/src/stm32f4xx_tim.c **** void TIM_OC2FastConfig(TIM_TypeDef* TIMx, uint16_t TIM_OCFast)
1385:../Shared/Libraries/STM32F4xx_StdPeriph_Driver/src/stm32f4xx_tim.c **** {
 2998              		.loc 1 1385 1
 2999              		.cfi_startproc
 3000              		@ args = 0, pretend = 0, frame = 16
 3001              		@ frame_needed = 1, uses_anonymous_args = 0
 3002              		@ link register save eliminated.
 3003 0000 80B4     		push	{r7}
 3004              	.LCFI203:
 3005              		.cfi_def_cfa_offset 4
 3006              		.cfi_offset 7, -4
 3007 0002 85B0     		sub	sp, sp, #20
 3008              	.LCFI204:
 3009              		.cfi_def_cfa_offset 24
 3010 0004 00AF     		add	r7, sp, #0
 3011              	.LCFI205:
 3012              		.cfi_def_cfa_register 7
 3013 0006 7860     		str	r0, [r7, #4]
 3014 0008 0B46     		mov	r3, r1
 3015 000a 7B80     		strh	r3, [r7, #2]	@ movhi
1386:../Shared/Libraries/STM32F4xx_StdPeriph_Driver/src/stm32f4xx_tim.c ****   uint16_t tmpccmr1 = 0;
 3016              		.loc 1 1386 12
 3017 000c 0023     		movs	r3, #0
 3018 000e FB81     		strh	r3, [r7, #14]	@ movhi
1387:../Shared/Libraries/STM32F4xx_StdPeriph_Driver/src/stm32f4xx_tim.c **** 
1388:../Shared/Libraries/STM32F4xx_StdPeriph_Driver/src/stm32f4xx_tim.c ****   /* Check the parameters */
1389:../Shared/Libraries/STM32F4xx_StdPeriph_Driver/src/stm32f4xx_tim.c ****   assert_param(IS_TIM_LIST2_PERIPH(TIMx));
1390:../Shared/Libraries/STM32F4xx_StdPeriph_Driver/src/stm32f4xx_tim.c ****   assert_param(IS_TIM_OCFAST_STATE(TIM_OCFast));
1391:../Shared/Libraries/STM32F4xx_StdPeriph_Driver/src/stm32f4xx_tim.c **** 
1392:../Shared/Libraries/STM32F4xx_StdPeriph_Driver/src/stm32f4xx_tim.c ****   /* Get the TIMx CCMR1 register value */
1393:../Shared/Libraries/STM32F4xx_StdPeriph_Driver/src/stm32f4xx_tim.c ****   tmpccmr1 = TIMx->CCMR1;
ARM GAS  /tmp/cc2zcHeL.s 			page 78


 3019              		.loc 1 1393 12
 3020 0010 7B68     		ldr	r3, [r7, #4]
 3021 0012 1B8B     		ldrh	r3, [r3, #24]	@ movhi
 3022 0014 FB81     		strh	r3, [r7, #14]	@ movhi
1394:../Shared/Libraries/STM32F4xx_StdPeriph_Driver/src/stm32f4xx_tim.c **** 
1395:../Shared/Libraries/STM32F4xx_StdPeriph_Driver/src/stm32f4xx_tim.c ****   /* Reset the OC2FE Bit */
1396:../Shared/Libraries/STM32F4xx_StdPeriph_Driver/src/stm32f4xx_tim.c ****   tmpccmr1 &= (uint16_t)(~TIM_CCMR1_OC2FE);
 3023              		.loc 1 1396 12
 3024 0016 FB89     		ldrh	r3, [r7, #14]	@ movhi
 3025 0018 23F48063 		bic	r3, r3, #1024
 3026 001c FB81     		strh	r3, [r7, #14]	@ movhi
1397:../Shared/Libraries/STM32F4xx_StdPeriph_Driver/src/stm32f4xx_tim.c **** 
1398:../Shared/Libraries/STM32F4xx_StdPeriph_Driver/src/stm32f4xx_tim.c ****   /* Enable or Disable the Output Compare Fast Bit */
1399:../Shared/Libraries/STM32F4xx_StdPeriph_Driver/src/stm32f4xx_tim.c ****   tmpccmr1 |= (uint16_t)(TIM_OCFast << 8);
 3027              		.loc 1 1399 15
 3028 001e 7B88     		ldrh	r3, [r7, #2]	@ movhi
 3029 0020 1B02     		lsls	r3, r3, #8
 3030 0022 9AB2     		uxth	r2, r3
 3031              		.loc 1 1399 12
 3032 0024 FB89     		ldrh	r3, [r7, #14]	@ movhi
 3033 0026 1343     		orrs	r3, r3, r2
 3034 0028 FB81     		strh	r3, [r7, #14]	@ movhi
1400:../Shared/Libraries/STM32F4xx_StdPeriph_Driver/src/stm32f4xx_tim.c **** 
1401:../Shared/Libraries/STM32F4xx_StdPeriph_Driver/src/stm32f4xx_tim.c ****   /* Write to TIMx CCMR1 */
1402:../Shared/Libraries/STM32F4xx_StdPeriph_Driver/src/stm32f4xx_tim.c ****   TIMx->CCMR1 = tmpccmr1;
 3035              		.loc 1 1402 15
 3036 002a 7B68     		ldr	r3, [r7, #4]
 3037 002c FA89     		ldrh	r2, [r7, #14]	@ movhi
 3038 002e 1A83     		strh	r2, [r3, #24]	@ movhi
1403:../Shared/Libraries/STM32F4xx_StdPeriph_Driver/src/stm32f4xx_tim.c **** }
 3039              		.loc 1 1403 1
 3040 0030 00BF     		nop
 3041 0032 1437     		adds	r7, r7, #20
 3042              	.LCFI206:
 3043              		.cfi_def_cfa_offset 4
 3044 0034 BD46     		mov	sp, r7
 3045              	.LCFI207:
 3046              		.cfi_def_cfa_register 13
 3047              		@ sp needed
 3048 0036 5DF8047B 		ldr	r7, [sp], #4
 3049              	.LCFI208:
 3050              		.cfi_restore 7
 3051              		.cfi_def_cfa_offset 0
 3052 003a 7047     		bx	lr
 3053              		.cfi_endproc
 3054              	.LFE144:
 3056              		.section	.text.TIM_OC3FastConfig,"ax",%progbits
 3057              		.align	1
 3058              		.global	TIM_OC3FastConfig
 3059              		.syntax unified
 3060              		.thumb
 3061              		.thumb_func
 3063              	TIM_OC3FastConfig:
 3064              	.LFB145:
1404:../Shared/Libraries/STM32F4xx_StdPeriph_Driver/src/stm32f4xx_tim.c **** 
1405:../Shared/Libraries/STM32F4xx_StdPeriph_Driver/src/stm32f4xx_tim.c **** /**
1406:../Shared/Libraries/STM32F4xx_StdPeriph_Driver/src/stm32f4xx_tim.c ****   * @brief  Configures the TIMx Output Compare 3 Fast feature.
ARM GAS  /tmp/cc2zcHeL.s 			page 79


1407:../Shared/Libraries/STM32F4xx_StdPeriph_Driver/src/stm32f4xx_tim.c ****   * @param  TIMx: where x can be  1, 2, 3, 4, 5 or 8 to select the TIM peripheral.
1408:../Shared/Libraries/STM32F4xx_StdPeriph_Driver/src/stm32f4xx_tim.c ****   * @param  TIM_OCFast: new state of the Output Compare Fast Enable Bit.
1409:../Shared/Libraries/STM32F4xx_StdPeriph_Driver/src/stm32f4xx_tim.c ****   *          This parameter can be one of the following values:
1410:../Shared/Libraries/STM32F4xx_StdPeriph_Driver/src/stm32f4xx_tim.c ****   *            @arg TIM_OCFast_Enable: TIM output compare fast enable
1411:../Shared/Libraries/STM32F4xx_StdPeriph_Driver/src/stm32f4xx_tim.c ****   *            @arg TIM_OCFast_Disable: TIM output compare fast disable
1412:../Shared/Libraries/STM32F4xx_StdPeriph_Driver/src/stm32f4xx_tim.c ****   * @retval None
1413:../Shared/Libraries/STM32F4xx_StdPeriph_Driver/src/stm32f4xx_tim.c ****   */
1414:../Shared/Libraries/STM32F4xx_StdPeriph_Driver/src/stm32f4xx_tim.c **** void TIM_OC3FastConfig(TIM_TypeDef* TIMx, uint16_t TIM_OCFast)
1415:../Shared/Libraries/STM32F4xx_StdPeriph_Driver/src/stm32f4xx_tim.c **** {
 3065              		.loc 1 1415 1
 3066              		.cfi_startproc
 3067              		@ args = 0, pretend = 0, frame = 16
 3068              		@ frame_needed = 1, uses_anonymous_args = 0
 3069              		@ link register save eliminated.
 3070 0000 80B4     		push	{r7}
 3071              	.LCFI209:
 3072              		.cfi_def_cfa_offset 4
 3073              		.cfi_offset 7, -4
 3074 0002 85B0     		sub	sp, sp, #20
 3075              	.LCFI210:
 3076              		.cfi_def_cfa_offset 24
 3077 0004 00AF     		add	r7, sp, #0
 3078              	.LCFI211:
 3079              		.cfi_def_cfa_register 7
 3080 0006 7860     		str	r0, [r7, #4]
 3081 0008 0B46     		mov	r3, r1
 3082 000a 7B80     		strh	r3, [r7, #2]	@ movhi
1416:../Shared/Libraries/STM32F4xx_StdPeriph_Driver/src/stm32f4xx_tim.c ****   uint16_t tmpccmr2 = 0;
 3083              		.loc 1 1416 12
 3084 000c 0023     		movs	r3, #0
 3085 000e FB81     		strh	r3, [r7, #14]	@ movhi
1417:../Shared/Libraries/STM32F4xx_StdPeriph_Driver/src/stm32f4xx_tim.c ****   
1418:../Shared/Libraries/STM32F4xx_StdPeriph_Driver/src/stm32f4xx_tim.c ****   /* Check the parameters */
1419:../Shared/Libraries/STM32F4xx_StdPeriph_Driver/src/stm32f4xx_tim.c ****   assert_param(IS_TIM_LIST3_PERIPH(TIMx));
1420:../Shared/Libraries/STM32F4xx_StdPeriph_Driver/src/stm32f4xx_tim.c ****   assert_param(IS_TIM_OCFAST_STATE(TIM_OCFast));
1421:../Shared/Libraries/STM32F4xx_StdPeriph_Driver/src/stm32f4xx_tim.c **** 
1422:../Shared/Libraries/STM32F4xx_StdPeriph_Driver/src/stm32f4xx_tim.c ****   /* Get the TIMx CCMR2 register value */
1423:../Shared/Libraries/STM32F4xx_StdPeriph_Driver/src/stm32f4xx_tim.c ****   tmpccmr2 = TIMx->CCMR2;
 3086              		.loc 1 1423 12
 3087 0010 7B68     		ldr	r3, [r7, #4]
 3088 0012 9B8B     		ldrh	r3, [r3, #28]	@ movhi
 3089 0014 FB81     		strh	r3, [r7, #14]	@ movhi
1424:../Shared/Libraries/STM32F4xx_StdPeriph_Driver/src/stm32f4xx_tim.c **** 
1425:../Shared/Libraries/STM32F4xx_StdPeriph_Driver/src/stm32f4xx_tim.c ****   /* Reset the OC3FE Bit */
1426:../Shared/Libraries/STM32F4xx_StdPeriph_Driver/src/stm32f4xx_tim.c ****   tmpccmr2 &= (uint16_t)~TIM_CCMR2_OC3FE;
 3090              		.loc 1 1426 12
 3091 0016 FB89     		ldrh	r3, [r7, #14]	@ movhi
 3092 0018 23F00403 		bic	r3, r3, #4
 3093 001c FB81     		strh	r3, [r7, #14]	@ movhi
1427:../Shared/Libraries/STM32F4xx_StdPeriph_Driver/src/stm32f4xx_tim.c **** 
1428:../Shared/Libraries/STM32F4xx_StdPeriph_Driver/src/stm32f4xx_tim.c ****   /* Enable or Disable the Output Compare Fast Bit */
1429:../Shared/Libraries/STM32F4xx_StdPeriph_Driver/src/stm32f4xx_tim.c ****   tmpccmr2 |= TIM_OCFast;
 3094              		.loc 1 1429 12
 3095 001e FA89     		ldrh	r2, [r7, #14]	@ movhi
 3096 0020 7B88     		ldrh	r3, [r7, #2]	@ movhi
 3097 0022 1343     		orrs	r3, r3, r2
 3098 0024 FB81     		strh	r3, [r7, #14]	@ movhi
ARM GAS  /tmp/cc2zcHeL.s 			page 80


1430:../Shared/Libraries/STM32F4xx_StdPeriph_Driver/src/stm32f4xx_tim.c **** 
1431:../Shared/Libraries/STM32F4xx_StdPeriph_Driver/src/stm32f4xx_tim.c ****   /* Write to TIMx CCMR2 */
1432:../Shared/Libraries/STM32F4xx_StdPeriph_Driver/src/stm32f4xx_tim.c ****   TIMx->CCMR2 = tmpccmr2;
 3099              		.loc 1 1432 15
 3100 0026 7B68     		ldr	r3, [r7, #4]
 3101 0028 FA89     		ldrh	r2, [r7, #14]	@ movhi
 3102 002a 9A83     		strh	r2, [r3, #28]	@ movhi
1433:../Shared/Libraries/STM32F4xx_StdPeriph_Driver/src/stm32f4xx_tim.c **** }
 3103              		.loc 1 1433 1
 3104 002c 00BF     		nop
 3105 002e 1437     		adds	r7, r7, #20
 3106              	.LCFI212:
 3107              		.cfi_def_cfa_offset 4
 3108 0030 BD46     		mov	sp, r7
 3109              	.LCFI213:
 3110              		.cfi_def_cfa_register 13
 3111              		@ sp needed
 3112 0032 5DF8047B 		ldr	r7, [sp], #4
 3113              	.LCFI214:
 3114              		.cfi_restore 7
 3115              		.cfi_def_cfa_offset 0
 3116 0036 7047     		bx	lr
 3117              		.cfi_endproc
 3118              	.LFE145:
 3120              		.section	.text.TIM_OC4FastConfig,"ax",%progbits
 3121              		.align	1
 3122              		.global	TIM_OC4FastConfig
 3123              		.syntax unified
 3124              		.thumb
 3125              		.thumb_func
 3127              	TIM_OC4FastConfig:
 3128              	.LFB146:
1434:../Shared/Libraries/STM32F4xx_StdPeriph_Driver/src/stm32f4xx_tim.c **** 
1435:../Shared/Libraries/STM32F4xx_StdPeriph_Driver/src/stm32f4xx_tim.c **** /**
1436:../Shared/Libraries/STM32F4xx_StdPeriph_Driver/src/stm32f4xx_tim.c ****   * @brief  Configures the TIMx Output Compare 4 Fast feature.
1437:../Shared/Libraries/STM32F4xx_StdPeriph_Driver/src/stm32f4xx_tim.c ****   * @param  TIMx: where x can be  1, 2, 3, 4, 5 or 8 to select the TIM peripheral.
1438:../Shared/Libraries/STM32F4xx_StdPeriph_Driver/src/stm32f4xx_tim.c ****   * @param  TIM_OCFast: new state of the Output Compare Fast Enable Bit.
1439:../Shared/Libraries/STM32F4xx_StdPeriph_Driver/src/stm32f4xx_tim.c ****   *          This parameter can be one of the following values:
1440:../Shared/Libraries/STM32F4xx_StdPeriph_Driver/src/stm32f4xx_tim.c ****   *            @arg TIM_OCFast_Enable: TIM output compare fast enable
1441:../Shared/Libraries/STM32F4xx_StdPeriph_Driver/src/stm32f4xx_tim.c ****   *            @arg TIM_OCFast_Disable: TIM output compare fast disable
1442:../Shared/Libraries/STM32F4xx_StdPeriph_Driver/src/stm32f4xx_tim.c ****   * @retval None
1443:../Shared/Libraries/STM32F4xx_StdPeriph_Driver/src/stm32f4xx_tim.c ****   */
1444:../Shared/Libraries/STM32F4xx_StdPeriph_Driver/src/stm32f4xx_tim.c **** void TIM_OC4FastConfig(TIM_TypeDef* TIMx, uint16_t TIM_OCFast)
1445:../Shared/Libraries/STM32F4xx_StdPeriph_Driver/src/stm32f4xx_tim.c **** {
 3129              		.loc 1 1445 1
 3130              		.cfi_startproc
 3131              		@ args = 0, pretend = 0, frame = 16
 3132              		@ frame_needed = 1, uses_anonymous_args = 0
 3133              		@ link register save eliminated.
 3134 0000 80B4     		push	{r7}
 3135              	.LCFI215:
 3136              		.cfi_def_cfa_offset 4
 3137              		.cfi_offset 7, -4
 3138 0002 85B0     		sub	sp, sp, #20
 3139              	.LCFI216:
 3140              		.cfi_def_cfa_offset 24
 3141 0004 00AF     		add	r7, sp, #0
ARM GAS  /tmp/cc2zcHeL.s 			page 81


 3142              	.LCFI217:
 3143              		.cfi_def_cfa_register 7
 3144 0006 7860     		str	r0, [r7, #4]
 3145 0008 0B46     		mov	r3, r1
 3146 000a 7B80     		strh	r3, [r7, #2]	@ movhi
1446:../Shared/Libraries/STM32F4xx_StdPeriph_Driver/src/stm32f4xx_tim.c ****   uint16_t tmpccmr2 = 0;
 3147              		.loc 1 1446 12
 3148 000c 0023     		movs	r3, #0
 3149 000e FB81     		strh	r3, [r7, #14]	@ movhi
1447:../Shared/Libraries/STM32F4xx_StdPeriph_Driver/src/stm32f4xx_tim.c **** 
1448:../Shared/Libraries/STM32F4xx_StdPeriph_Driver/src/stm32f4xx_tim.c ****   /* Check the parameters */
1449:../Shared/Libraries/STM32F4xx_StdPeriph_Driver/src/stm32f4xx_tim.c ****   assert_param(IS_TIM_LIST3_PERIPH(TIMx));
1450:../Shared/Libraries/STM32F4xx_StdPeriph_Driver/src/stm32f4xx_tim.c ****   assert_param(IS_TIM_OCFAST_STATE(TIM_OCFast));
1451:../Shared/Libraries/STM32F4xx_StdPeriph_Driver/src/stm32f4xx_tim.c **** 
1452:../Shared/Libraries/STM32F4xx_StdPeriph_Driver/src/stm32f4xx_tim.c ****   /* Get the TIMx CCMR2 register value */
1453:../Shared/Libraries/STM32F4xx_StdPeriph_Driver/src/stm32f4xx_tim.c ****   tmpccmr2 = TIMx->CCMR2;
 3150              		.loc 1 1453 12
 3151 0010 7B68     		ldr	r3, [r7, #4]
 3152 0012 9B8B     		ldrh	r3, [r3, #28]	@ movhi
 3153 0014 FB81     		strh	r3, [r7, #14]	@ movhi
1454:../Shared/Libraries/STM32F4xx_StdPeriph_Driver/src/stm32f4xx_tim.c **** 
1455:../Shared/Libraries/STM32F4xx_StdPeriph_Driver/src/stm32f4xx_tim.c ****   /* Reset the OC4FE Bit */
1456:../Shared/Libraries/STM32F4xx_StdPeriph_Driver/src/stm32f4xx_tim.c ****   tmpccmr2 &= (uint16_t)(~TIM_CCMR2_OC4FE);
 3154              		.loc 1 1456 12
 3155 0016 FB89     		ldrh	r3, [r7, #14]	@ movhi
 3156 0018 23F48063 		bic	r3, r3, #1024
 3157 001c FB81     		strh	r3, [r7, #14]	@ movhi
1457:../Shared/Libraries/STM32F4xx_StdPeriph_Driver/src/stm32f4xx_tim.c **** 
1458:../Shared/Libraries/STM32F4xx_StdPeriph_Driver/src/stm32f4xx_tim.c ****   /* Enable or Disable the Output Compare Fast Bit */
1459:../Shared/Libraries/STM32F4xx_StdPeriph_Driver/src/stm32f4xx_tim.c ****   tmpccmr2 |= (uint16_t)(TIM_OCFast << 8);
 3158              		.loc 1 1459 15
 3159 001e 7B88     		ldrh	r3, [r7, #2]	@ movhi
 3160 0020 1B02     		lsls	r3, r3, #8
 3161 0022 9AB2     		uxth	r2, r3
 3162              		.loc 1 1459 12
 3163 0024 FB89     		ldrh	r3, [r7, #14]	@ movhi
 3164 0026 1343     		orrs	r3, r3, r2
 3165 0028 FB81     		strh	r3, [r7, #14]	@ movhi
1460:../Shared/Libraries/STM32F4xx_StdPeriph_Driver/src/stm32f4xx_tim.c **** 
1461:../Shared/Libraries/STM32F4xx_StdPeriph_Driver/src/stm32f4xx_tim.c ****   /* Write to TIMx CCMR2 */
1462:../Shared/Libraries/STM32F4xx_StdPeriph_Driver/src/stm32f4xx_tim.c ****   TIMx->CCMR2 = tmpccmr2;
 3166              		.loc 1 1462 15
 3167 002a 7B68     		ldr	r3, [r7, #4]
 3168 002c FA89     		ldrh	r2, [r7, #14]	@ movhi
 3169 002e 9A83     		strh	r2, [r3, #28]	@ movhi
1463:../Shared/Libraries/STM32F4xx_StdPeriph_Driver/src/stm32f4xx_tim.c **** }
 3170              		.loc 1 1463 1
 3171 0030 00BF     		nop
 3172 0032 1437     		adds	r7, r7, #20
 3173              	.LCFI218:
 3174              		.cfi_def_cfa_offset 4
 3175 0034 BD46     		mov	sp, r7
 3176              	.LCFI219:
 3177              		.cfi_def_cfa_register 13
 3178              		@ sp needed
 3179 0036 5DF8047B 		ldr	r7, [sp], #4
 3180              	.LCFI220:
ARM GAS  /tmp/cc2zcHeL.s 			page 82


 3181              		.cfi_restore 7
 3182              		.cfi_def_cfa_offset 0
 3183 003a 7047     		bx	lr
 3184              		.cfi_endproc
 3185              	.LFE146:
 3187              		.section	.text.TIM_ClearOC1Ref,"ax",%progbits
 3188              		.align	1
 3189              		.global	TIM_ClearOC1Ref
 3190              		.syntax unified
 3191              		.thumb
 3192              		.thumb_func
 3194              	TIM_ClearOC1Ref:
 3195              	.LFB147:
1464:../Shared/Libraries/STM32F4xx_StdPeriph_Driver/src/stm32f4xx_tim.c **** 
1465:../Shared/Libraries/STM32F4xx_StdPeriph_Driver/src/stm32f4xx_tim.c **** /**
1466:../Shared/Libraries/STM32F4xx_StdPeriph_Driver/src/stm32f4xx_tim.c ****   * @brief  Clears or safeguards the OCREF1 signal on an external event
1467:../Shared/Libraries/STM32F4xx_StdPeriph_Driver/src/stm32f4xx_tim.c ****   * @param  TIMx: where x can be 1 to 14 except 6 and 7, to select the TIM peripheral.
1468:../Shared/Libraries/STM32F4xx_StdPeriph_Driver/src/stm32f4xx_tim.c ****   * @param  TIM_OCClear: new state of the Output Compare Clear Enable Bit.
1469:../Shared/Libraries/STM32F4xx_StdPeriph_Driver/src/stm32f4xx_tim.c ****   *          This parameter can be one of the following values:
1470:../Shared/Libraries/STM32F4xx_StdPeriph_Driver/src/stm32f4xx_tim.c ****   *            @arg TIM_OCClear_Enable: TIM Output clear enable
1471:../Shared/Libraries/STM32F4xx_StdPeriph_Driver/src/stm32f4xx_tim.c ****   *            @arg TIM_OCClear_Disable: TIM Output clear disable
1472:../Shared/Libraries/STM32F4xx_StdPeriph_Driver/src/stm32f4xx_tim.c ****   * @retval None
1473:../Shared/Libraries/STM32F4xx_StdPeriph_Driver/src/stm32f4xx_tim.c ****   */
1474:../Shared/Libraries/STM32F4xx_StdPeriph_Driver/src/stm32f4xx_tim.c **** void TIM_ClearOC1Ref(TIM_TypeDef* TIMx, uint16_t TIM_OCClear)
1475:../Shared/Libraries/STM32F4xx_StdPeriph_Driver/src/stm32f4xx_tim.c **** {
 3196              		.loc 1 1475 1
 3197              		.cfi_startproc
 3198              		@ args = 0, pretend = 0, frame = 16
 3199              		@ frame_needed = 1, uses_anonymous_args = 0
 3200              		@ link register save eliminated.
 3201 0000 80B4     		push	{r7}
 3202              	.LCFI221:
 3203              		.cfi_def_cfa_offset 4
 3204              		.cfi_offset 7, -4
 3205 0002 85B0     		sub	sp, sp, #20
 3206              	.LCFI222:
 3207              		.cfi_def_cfa_offset 24
 3208 0004 00AF     		add	r7, sp, #0
 3209              	.LCFI223:
 3210              		.cfi_def_cfa_register 7
 3211 0006 7860     		str	r0, [r7, #4]
 3212 0008 0B46     		mov	r3, r1
 3213 000a 7B80     		strh	r3, [r7, #2]	@ movhi
1476:../Shared/Libraries/STM32F4xx_StdPeriph_Driver/src/stm32f4xx_tim.c ****   uint16_t tmpccmr1 = 0;
 3214              		.loc 1 1476 12
 3215 000c 0023     		movs	r3, #0
 3216 000e FB81     		strh	r3, [r7, #14]	@ movhi
1477:../Shared/Libraries/STM32F4xx_StdPeriph_Driver/src/stm32f4xx_tim.c **** 
1478:../Shared/Libraries/STM32F4xx_StdPeriph_Driver/src/stm32f4xx_tim.c ****   /* Check the parameters */
1479:../Shared/Libraries/STM32F4xx_StdPeriph_Driver/src/stm32f4xx_tim.c ****   assert_param(IS_TIM_LIST1_PERIPH(TIMx));
1480:../Shared/Libraries/STM32F4xx_StdPeriph_Driver/src/stm32f4xx_tim.c ****   assert_param(IS_TIM_OCCLEAR_STATE(TIM_OCClear));
1481:../Shared/Libraries/STM32F4xx_StdPeriph_Driver/src/stm32f4xx_tim.c **** 
1482:../Shared/Libraries/STM32F4xx_StdPeriph_Driver/src/stm32f4xx_tim.c ****   tmpccmr1 = TIMx->CCMR1;
 3217              		.loc 1 1482 12
 3218 0010 7B68     		ldr	r3, [r7, #4]
 3219 0012 1B8B     		ldrh	r3, [r3, #24]	@ movhi
 3220 0014 FB81     		strh	r3, [r7, #14]	@ movhi
ARM GAS  /tmp/cc2zcHeL.s 			page 83


1483:../Shared/Libraries/STM32F4xx_StdPeriph_Driver/src/stm32f4xx_tim.c **** 
1484:../Shared/Libraries/STM32F4xx_StdPeriph_Driver/src/stm32f4xx_tim.c ****   /* Reset the OC1CE Bit */
1485:../Shared/Libraries/STM32F4xx_StdPeriph_Driver/src/stm32f4xx_tim.c ****   tmpccmr1 &= (uint16_t)~TIM_CCMR1_OC1CE;
 3221              		.loc 1 1485 12
 3222 0016 FB89     		ldrh	r3, [r7, #14]	@ movhi
 3223 0018 23F08003 		bic	r3, r3, #128
 3224 001c FB81     		strh	r3, [r7, #14]	@ movhi
1486:../Shared/Libraries/STM32F4xx_StdPeriph_Driver/src/stm32f4xx_tim.c **** 
1487:../Shared/Libraries/STM32F4xx_StdPeriph_Driver/src/stm32f4xx_tim.c ****   /* Enable or Disable the Output Compare Clear Bit */
1488:../Shared/Libraries/STM32F4xx_StdPeriph_Driver/src/stm32f4xx_tim.c ****   tmpccmr1 |= TIM_OCClear;
 3225              		.loc 1 1488 12
 3226 001e FA89     		ldrh	r2, [r7, #14]	@ movhi
 3227 0020 7B88     		ldrh	r3, [r7, #2]	@ movhi
 3228 0022 1343     		orrs	r3, r3, r2
 3229 0024 FB81     		strh	r3, [r7, #14]	@ movhi
1489:../Shared/Libraries/STM32F4xx_StdPeriph_Driver/src/stm32f4xx_tim.c **** 
1490:../Shared/Libraries/STM32F4xx_StdPeriph_Driver/src/stm32f4xx_tim.c ****   /* Write to TIMx CCMR1 register */
1491:../Shared/Libraries/STM32F4xx_StdPeriph_Driver/src/stm32f4xx_tim.c ****   TIMx->CCMR1 = tmpccmr1;
 3230              		.loc 1 1491 15
 3231 0026 7B68     		ldr	r3, [r7, #4]
 3232 0028 FA89     		ldrh	r2, [r7, #14]	@ movhi
 3233 002a 1A83     		strh	r2, [r3, #24]	@ movhi
1492:../Shared/Libraries/STM32F4xx_StdPeriph_Driver/src/stm32f4xx_tim.c **** }
 3234              		.loc 1 1492 1
 3235 002c 00BF     		nop
 3236 002e 1437     		adds	r7, r7, #20
 3237              	.LCFI224:
 3238              		.cfi_def_cfa_offset 4
 3239 0030 BD46     		mov	sp, r7
 3240              	.LCFI225:
 3241              		.cfi_def_cfa_register 13
 3242              		@ sp needed
 3243 0032 5DF8047B 		ldr	r7, [sp], #4
 3244              	.LCFI226:
 3245              		.cfi_restore 7
 3246              		.cfi_def_cfa_offset 0
 3247 0036 7047     		bx	lr
 3248              		.cfi_endproc
 3249              	.LFE147:
 3251              		.section	.text.TIM_ClearOC2Ref,"ax",%progbits
 3252              		.align	1
 3253              		.global	TIM_ClearOC2Ref
 3254              		.syntax unified
 3255              		.thumb
 3256              		.thumb_func
 3258              	TIM_ClearOC2Ref:
 3259              	.LFB148:
1493:../Shared/Libraries/STM32F4xx_StdPeriph_Driver/src/stm32f4xx_tim.c **** 
1494:../Shared/Libraries/STM32F4xx_StdPeriph_Driver/src/stm32f4xx_tim.c **** /**
1495:../Shared/Libraries/STM32F4xx_StdPeriph_Driver/src/stm32f4xx_tim.c ****   * @brief  Clears or safeguards the OCREF2 signal on an external event
1496:../Shared/Libraries/STM32F4xx_StdPeriph_Driver/src/stm32f4xx_tim.c ****   * @param  TIMx: where x can be  1, 2, 3, 4, 5, 8, 9 or 12 to select the TIM 
1497:../Shared/Libraries/STM32F4xx_StdPeriph_Driver/src/stm32f4xx_tim.c ****   *         peripheral.
1498:../Shared/Libraries/STM32F4xx_StdPeriph_Driver/src/stm32f4xx_tim.c ****   * @param  TIM_OCClear: new state of the Output Compare Clear Enable Bit.
1499:../Shared/Libraries/STM32F4xx_StdPeriph_Driver/src/stm32f4xx_tim.c ****   *          This parameter can be one of the following values:
1500:../Shared/Libraries/STM32F4xx_StdPeriph_Driver/src/stm32f4xx_tim.c ****   *            @arg TIM_OCClear_Enable: TIM Output clear enable
1501:../Shared/Libraries/STM32F4xx_StdPeriph_Driver/src/stm32f4xx_tim.c ****   *            @arg TIM_OCClear_Disable: TIM Output clear disable
1502:../Shared/Libraries/STM32F4xx_StdPeriph_Driver/src/stm32f4xx_tim.c ****   * @retval None
ARM GAS  /tmp/cc2zcHeL.s 			page 84


1503:../Shared/Libraries/STM32F4xx_StdPeriph_Driver/src/stm32f4xx_tim.c ****   */
1504:../Shared/Libraries/STM32F4xx_StdPeriph_Driver/src/stm32f4xx_tim.c **** void TIM_ClearOC2Ref(TIM_TypeDef* TIMx, uint16_t TIM_OCClear)
1505:../Shared/Libraries/STM32F4xx_StdPeriph_Driver/src/stm32f4xx_tim.c **** {
 3260              		.loc 1 1505 1
 3261              		.cfi_startproc
 3262              		@ args = 0, pretend = 0, frame = 16
 3263              		@ frame_needed = 1, uses_anonymous_args = 0
 3264              		@ link register save eliminated.
 3265 0000 80B4     		push	{r7}
 3266              	.LCFI227:
 3267              		.cfi_def_cfa_offset 4
 3268              		.cfi_offset 7, -4
 3269 0002 85B0     		sub	sp, sp, #20
 3270              	.LCFI228:
 3271              		.cfi_def_cfa_offset 24
 3272 0004 00AF     		add	r7, sp, #0
 3273              	.LCFI229:
 3274              		.cfi_def_cfa_register 7
 3275 0006 7860     		str	r0, [r7, #4]
 3276 0008 0B46     		mov	r3, r1
 3277 000a 7B80     		strh	r3, [r7, #2]	@ movhi
1506:../Shared/Libraries/STM32F4xx_StdPeriph_Driver/src/stm32f4xx_tim.c ****   uint16_t tmpccmr1 = 0;
 3278              		.loc 1 1506 12
 3279 000c 0023     		movs	r3, #0
 3280 000e FB81     		strh	r3, [r7, #14]	@ movhi
1507:../Shared/Libraries/STM32F4xx_StdPeriph_Driver/src/stm32f4xx_tim.c **** 
1508:../Shared/Libraries/STM32F4xx_StdPeriph_Driver/src/stm32f4xx_tim.c ****   /* Check the parameters */
1509:../Shared/Libraries/STM32F4xx_StdPeriph_Driver/src/stm32f4xx_tim.c ****   assert_param(IS_TIM_LIST2_PERIPH(TIMx));
1510:../Shared/Libraries/STM32F4xx_StdPeriph_Driver/src/stm32f4xx_tim.c ****   assert_param(IS_TIM_OCCLEAR_STATE(TIM_OCClear));
1511:../Shared/Libraries/STM32F4xx_StdPeriph_Driver/src/stm32f4xx_tim.c **** 
1512:../Shared/Libraries/STM32F4xx_StdPeriph_Driver/src/stm32f4xx_tim.c ****   tmpccmr1 = TIMx->CCMR1;
 3281              		.loc 1 1512 12
 3282 0010 7B68     		ldr	r3, [r7, #4]
 3283 0012 1B8B     		ldrh	r3, [r3, #24]	@ movhi
 3284 0014 FB81     		strh	r3, [r7, #14]	@ movhi
1513:../Shared/Libraries/STM32F4xx_StdPeriph_Driver/src/stm32f4xx_tim.c **** 
1514:../Shared/Libraries/STM32F4xx_StdPeriph_Driver/src/stm32f4xx_tim.c ****   /* Reset the OC2CE Bit */
1515:../Shared/Libraries/STM32F4xx_StdPeriph_Driver/src/stm32f4xx_tim.c ****   tmpccmr1 &= (uint16_t)~TIM_CCMR1_OC2CE;
 3285              		.loc 1 1515 12
 3286 0016 FB89     		ldrh	r3, [r7, #14]	@ movhi
 3287 0018 C3F30E03 		ubfx	r3, r3, #0, #15
 3288 001c FB81     		strh	r3, [r7, #14]	@ movhi
1516:../Shared/Libraries/STM32F4xx_StdPeriph_Driver/src/stm32f4xx_tim.c **** 
1517:../Shared/Libraries/STM32F4xx_StdPeriph_Driver/src/stm32f4xx_tim.c ****   /* Enable or Disable the Output Compare Clear Bit */
1518:../Shared/Libraries/STM32F4xx_StdPeriph_Driver/src/stm32f4xx_tim.c ****   tmpccmr1 |= (uint16_t)(TIM_OCClear << 8);
 3289              		.loc 1 1518 15
 3290 001e 7B88     		ldrh	r3, [r7, #2]	@ movhi
 3291 0020 1B02     		lsls	r3, r3, #8
 3292 0022 9AB2     		uxth	r2, r3
 3293              		.loc 1 1518 12
 3294 0024 FB89     		ldrh	r3, [r7, #14]	@ movhi
 3295 0026 1343     		orrs	r3, r3, r2
 3296 0028 FB81     		strh	r3, [r7, #14]	@ movhi
1519:../Shared/Libraries/STM32F4xx_StdPeriph_Driver/src/stm32f4xx_tim.c **** 
1520:../Shared/Libraries/STM32F4xx_StdPeriph_Driver/src/stm32f4xx_tim.c ****   /* Write to TIMx CCMR1 register */
1521:../Shared/Libraries/STM32F4xx_StdPeriph_Driver/src/stm32f4xx_tim.c ****   TIMx->CCMR1 = tmpccmr1;
 3297              		.loc 1 1521 15
ARM GAS  /tmp/cc2zcHeL.s 			page 85


 3298 002a 7B68     		ldr	r3, [r7, #4]
 3299 002c FA89     		ldrh	r2, [r7, #14]	@ movhi
 3300 002e 1A83     		strh	r2, [r3, #24]	@ movhi
1522:../Shared/Libraries/STM32F4xx_StdPeriph_Driver/src/stm32f4xx_tim.c **** }
 3301              		.loc 1 1522 1
 3302 0030 00BF     		nop
 3303 0032 1437     		adds	r7, r7, #20
 3304              	.LCFI230:
 3305              		.cfi_def_cfa_offset 4
 3306 0034 BD46     		mov	sp, r7
 3307              	.LCFI231:
 3308              		.cfi_def_cfa_register 13
 3309              		@ sp needed
 3310 0036 5DF8047B 		ldr	r7, [sp], #4
 3311              	.LCFI232:
 3312              		.cfi_restore 7
 3313              		.cfi_def_cfa_offset 0
 3314 003a 7047     		bx	lr
 3315              		.cfi_endproc
 3316              	.LFE148:
 3318              		.section	.text.TIM_ClearOC3Ref,"ax",%progbits
 3319              		.align	1
 3320              		.global	TIM_ClearOC3Ref
 3321              		.syntax unified
 3322              		.thumb
 3323              		.thumb_func
 3325              	TIM_ClearOC3Ref:
 3326              	.LFB149:
1523:../Shared/Libraries/STM32F4xx_StdPeriph_Driver/src/stm32f4xx_tim.c **** 
1524:../Shared/Libraries/STM32F4xx_StdPeriph_Driver/src/stm32f4xx_tim.c **** /**
1525:../Shared/Libraries/STM32F4xx_StdPeriph_Driver/src/stm32f4xx_tim.c ****   * @brief  Clears or safeguards the OCREF3 signal on an external event
1526:../Shared/Libraries/STM32F4xx_StdPeriph_Driver/src/stm32f4xx_tim.c ****   * @param  TIMx: where x can be  1, 2, 3, 4, 5 or 8 to select the TIM peripheral.
1527:../Shared/Libraries/STM32F4xx_StdPeriph_Driver/src/stm32f4xx_tim.c ****   * @param  TIM_OCClear: new state of the Output Compare Clear Enable Bit.
1528:../Shared/Libraries/STM32F4xx_StdPeriph_Driver/src/stm32f4xx_tim.c ****   *          This parameter can be one of the following values:
1529:../Shared/Libraries/STM32F4xx_StdPeriph_Driver/src/stm32f4xx_tim.c ****   *            @arg TIM_OCClear_Enable: TIM Output clear enable
1530:../Shared/Libraries/STM32F4xx_StdPeriph_Driver/src/stm32f4xx_tim.c ****   *            @arg TIM_OCClear_Disable: TIM Output clear disable
1531:../Shared/Libraries/STM32F4xx_StdPeriph_Driver/src/stm32f4xx_tim.c ****   * @retval None
1532:../Shared/Libraries/STM32F4xx_StdPeriph_Driver/src/stm32f4xx_tim.c ****   */
1533:../Shared/Libraries/STM32F4xx_StdPeriph_Driver/src/stm32f4xx_tim.c **** void TIM_ClearOC3Ref(TIM_TypeDef* TIMx, uint16_t TIM_OCClear)
1534:../Shared/Libraries/STM32F4xx_StdPeriph_Driver/src/stm32f4xx_tim.c **** {
 3327              		.loc 1 1534 1
 3328              		.cfi_startproc
 3329              		@ args = 0, pretend = 0, frame = 16
 3330              		@ frame_needed = 1, uses_anonymous_args = 0
 3331              		@ link register save eliminated.
 3332 0000 80B4     		push	{r7}
 3333              	.LCFI233:
 3334              		.cfi_def_cfa_offset 4
 3335              		.cfi_offset 7, -4
 3336 0002 85B0     		sub	sp, sp, #20
 3337              	.LCFI234:
 3338              		.cfi_def_cfa_offset 24
 3339 0004 00AF     		add	r7, sp, #0
 3340              	.LCFI235:
 3341              		.cfi_def_cfa_register 7
 3342 0006 7860     		str	r0, [r7, #4]
 3343 0008 0B46     		mov	r3, r1
ARM GAS  /tmp/cc2zcHeL.s 			page 86


 3344 000a 7B80     		strh	r3, [r7, #2]	@ movhi
1535:../Shared/Libraries/STM32F4xx_StdPeriph_Driver/src/stm32f4xx_tim.c ****   uint16_t tmpccmr2 = 0;
 3345              		.loc 1 1535 12
 3346 000c 0023     		movs	r3, #0
 3347 000e FB81     		strh	r3, [r7, #14]	@ movhi
1536:../Shared/Libraries/STM32F4xx_StdPeriph_Driver/src/stm32f4xx_tim.c **** 
1537:../Shared/Libraries/STM32F4xx_StdPeriph_Driver/src/stm32f4xx_tim.c ****   /* Check the parameters */
1538:../Shared/Libraries/STM32F4xx_StdPeriph_Driver/src/stm32f4xx_tim.c ****   assert_param(IS_TIM_LIST3_PERIPH(TIMx));
1539:../Shared/Libraries/STM32F4xx_StdPeriph_Driver/src/stm32f4xx_tim.c ****   assert_param(IS_TIM_OCCLEAR_STATE(TIM_OCClear));
1540:../Shared/Libraries/STM32F4xx_StdPeriph_Driver/src/stm32f4xx_tim.c **** 
1541:../Shared/Libraries/STM32F4xx_StdPeriph_Driver/src/stm32f4xx_tim.c ****   tmpccmr2 = TIMx->CCMR2;
 3348              		.loc 1 1541 12
 3349 0010 7B68     		ldr	r3, [r7, #4]
 3350 0012 9B8B     		ldrh	r3, [r3, #28]	@ movhi
 3351 0014 FB81     		strh	r3, [r7, #14]	@ movhi
1542:../Shared/Libraries/STM32F4xx_StdPeriph_Driver/src/stm32f4xx_tim.c **** 
1543:../Shared/Libraries/STM32F4xx_StdPeriph_Driver/src/stm32f4xx_tim.c ****   /* Reset the OC3CE Bit */
1544:../Shared/Libraries/STM32F4xx_StdPeriph_Driver/src/stm32f4xx_tim.c ****   tmpccmr2 &= (uint16_t)~TIM_CCMR2_OC3CE;
 3352              		.loc 1 1544 12
 3353 0016 FB89     		ldrh	r3, [r7, #14]	@ movhi
 3354 0018 23F08003 		bic	r3, r3, #128
 3355 001c FB81     		strh	r3, [r7, #14]	@ movhi
1545:../Shared/Libraries/STM32F4xx_StdPeriph_Driver/src/stm32f4xx_tim.c **** 
1546:../Shared/Libraries/STM32F4xx_StdPeriph_Driver/src/stm32f4xx_tim.c ****   /* Enable or Disable the Output Compare Clear Bit */
1547:../Shared/Libraries/STM32F4xx_StdPeriph_Driver/src/stm32f4xx_tim.c ****   tmpccmr2 |= TIM_OCClear;
 3356              		.loc 1 1547 12
 3357 001e FA89     		ldrh	r2, [r7, #14]	@ movhi
 3358 0020 7B88     		ldrh	r3, [r7, #2]	@ movhi
 3359 0022 1343     		orrs	r3, r3, r2
 3360 0024 FB81     		strh	r3, [r7, #14]	@ movhi
1548:../Shared/Libraries/STM32F4xx_StdPeriph_Driver/src/stm32f4xx_tim.c **** 
1549:../Shared/Libraries/STM32F4xx_StdPeriph_Driver/src/stm32f4xx_tim.c ****   /* Write to TIMx CCMR2 register */
1550:../Shared/Libraries/STM32F4xx_StdPeriph_Driver/src/stm32f4xx_tim.c ****   TIMx->CCMR2 = tmpccmr2;
 3361              		.loc 1 1550 15
 3362 0026 7B68     		ldr	r3, [r7, #4]
 3363 0028 FA89     		ldrh	r2, [r7, #14]	@ movhi
 3364 002a 9A83     		strh	r2, [r3, #28]	@ movhi
1551:../Shared/Libraries/STM32F4xx_StdPeriph_Driver/src/stm32f4xx_tim.c **** }
 3365              		.loc 1 1551 1
 3366 002c 00BF     		nop
 3367 002e 1437     		adds	r7, r7, #20
 3368              	.LCFI236:
 3369              		.cfi_def_cfa_offset 4
 3370 0030 BD46     		mov	sp, r7
 3371              	.LCFI237:
 3372              		.cfi_def_cfa_register 13
 3373              		@ sp needed
 3374 0032 5DF8047B 		ldr	r7, [sp], #4
 3375              	.LCFI238:
 3376              		.cfi_restore 7
 3377              		.cfi_def_cfa_offset 0
 3378 0036 7047     		bx	lr
 3379              		.cfi_endproc
 3380              	.LFE149:
 3382              		.section	.text.TIM_ClearOC4Ref,"ax",%progbits
 3383              		.align	1
 3384              		.global	TIM_ClearOC4Ref
ARM GAS  /tmp/cc2zcHeL.s 			page 87


 3385              		.syntax unified
 3386              		.thumb
 3387              		.thumb_func
 3389              	TIM_ClearOC4Ref:
 3390              	.LFB150:
1552:../Shared/Libraries/STM32F4xx_StdPeriph_Driver/src/stm32f4xx_tim.c **** 
1553:../Shared/Libraries/STM32F4xx_StdPeriph_Driver/src/stm32f4xx_tim.c **** /**
1554:../Shared/Libraries/STM32F4xx_StdPeriph_Driver/src/stm32f4xx_tim.c ****   * @brief  Clears or safeguards the OCREF4 signal on an external event
1555:../Shared/Libraries/STM32F4xx_StdPeriph_Driver/src/stm32f4xx_tim.c ****   * @param  TIMx: where x can be  1, 2, 3, 4, 5 or 8 to select the TIM peripheral.
1556:../Shared/Libraries/STM32F4xx_StdPeriph_Driver/src/stm32f4xx_tim.c ****   * @param  TIM_OCClear: new state of the Output Compare Clear Enable Bit.
1557:../Shared/Libraries/STM32F4xx_StdPeriph_Driver/src/stm32f4xx_tim.c ****   *          This parameter can be one of the following values:
1558:../Shared/Libraries/STM32F4xx_StdPeriph_Driver/src/stm32f4xx_tim.c ****   *            @arg TIM_OCClear_Enable: TIM Output clear enable
1559:../Shared/Libraries/STM32F4xx_StdPeriph_Driver/src/stm32f4xx_tim.c ****   *            @arg TIM_OCClear_Disable: TIM Output clear disable
1560:../Shared/Libraries/STM32F4xx_StdPeriph_Driver/src/stm32f4xx_tim.c ****   * @retval None
1561:../Shared/Libraries/STM32F4xx_StdPeriph_Driver/src/stm32f4xx_tim.c ****   */
1562:../Shared/Libraries/STM32F4xx_StdPeriph_Driver/src/stm32f4xx_tim.c **** void TIM_ClearOC4Ref(TIM_TypeDef* TIMx, uint16_t TIM_OCClear)
1563:../Shared/Libraries/STM32F4xx_StdPeriph_Driver/src/stm32f4xx_tim.c **** {
 3391              		.loc 1 1563 1
 3392              		.cfi_startproc
 3393              		@ args = 0, pretend = 0, frame = 16
 3394              		@ frame_needed = 1, uses_anonymous_args = 0
 3395              		@ link register save eliminated.
 3396 0000 80B4     		push	{r7}
 3397              	.LCFI239:
 3398              		.cfi_def_cfa_offset 4
 3399              		.cfi_offset 7, -4
 3400 0002 85B0     		sub	sp, sp, #20
 3401              	.LCFI240:
 3402              		.cfi_def_cfa_offset 24
 3403 0004 00AF     		add	r7, sp, #0
 3404              	.LCFI241:
 3405              		.cfi_def_cfa_register 7
 3406 0006 7860     		str	r0, [r7, #4]
 3407 0008 0B46     		mov	r3, r1
 3408 000a 7B80     		strh	r3, [r7, #2]	@ movhi
1564:../Shared/Libraries/STM32F4xx_StdPeriph_Driver/src/stm32f4xx_tim.c ****   uint16_t tmpccmr2 = 0;
 3409              		.loc 1 1564 12
 3410 000c 0023     		movs	r3, #0
 3411 000e FB81     		strh	r3, [r7, #14]	@ movhi
1565:../Shared/Libraries/STM32F4xx_StdPeriph_Driver/src/stm32f4xx_tim.c **** 
1566:../Shared/Libraries/STM32F4xx_StdPeriph_Driver/src/stm32f4xx_tim.c ****   /* Check the parameters */
1567:../Shared/Libraries/STM32F4xx_StdPeriph_Driver/src/stm32f4xx_tim.c ****   assert_param(IS_TIM_LIST3_PERIPH(TIMx));
1568:../Shared/Libraries/STM32F4xx_StdPeriph_Driver/src/stm32f4xx_tim.c ****   assert_param(IS_TIM_OCCLEAR_STATE(TIM_OCClear));
1569:../Shared/Libraries/STM32F4xx_StdPeriph_Driver/src/stm32f4xx_tim.c **** 
1570:../Shared/Libraries/STM32F4xx_StdPeriph_Driver/src/stm32f4xx_tim.c ****   tmpccmr2 = TIMx->CCMR2;
 3412              		.loc 1 1570 12
 3413 0010 7B68     		ldr	r3, [r7, #4]
 3414 0012 9B8B     		ldrh	r3, [r3, #28]	@ movhi
 3415 0014 FB81     		strh	r3, [r7, #14]	@ movhi
1571:../Shared/Libraries/STM32F4xx_StdPeriph_Driver/src/stm32f4xx_tim.c **** 
1572:../Shared/Libraries/STM32F4xx_StdPeriph_Driver/src/stm32f4xx_tim.c ****   /* Reset the OC4CE Bit */
1573:../Shared/Libraries/STM32F4xx_StdPeriph_Driver/src/stm32f4xx_tim.c ****   tmpccmr2 &= (uint16_t)~TIM_CCMR2_OC4CE;
 3416              		.loc 1 1573 12
 3417 0016 FB89     		ldrh	r3, [r7, #14]	@ movhi
 3418 0018 C3F30E03 		ubfx	r3, r3, #0, #15
 3419 001c FB81     		strh	r3, [r7, #14]	@ movhi
1574:../Shared/Libraries/STM32F4xx_StdPeriph_Driver/src/stm32f4xx_tim.c **** 
ARM GAS  /tmp/cc2zcHeL.s 			page 88


1575:../Shared/Libraries/STM32F4xx_StdPeriph_Driver/src/stm32f4xx_tim.c ****   /* Enable or Disable the Output Compare Clear Bit */
1576:../Shared/Libraries/STM32F4xx_StdPeriph_Driver/src/stm32f4xx_tim.c ****   tmpccmr2 |= (uint16_t)(TIM_OCClear << 8);
 3420              		.loc 1 1576 15
 3421 001e 7B88     		ldrh	r3, [r7, #2]	@ movhi
 3422 0020 1B02     		lsls	r3, r3, #8
 3423 0022 9AB2     		uxth	r2, r3
 3424              		.loc 1 1576 12
 3425 0024 FB89     		ldrh	r3, [r7, #14]	@ movhi
 3426 0026 1343     		orrs	r3, r3, r2
 3427 0028 FB81     		strh	r3, [r7, #14]	@ movhi
1577:../Shared/Libraries/STM32F4xx_StdPeriph_Driver/src/stm32f4xx_tim.c **** 
1578:../Shared/Libraries/STM32F4xx_StdPeriph_Driver/src/stm32f4xx_tim.c ****   /* Write to TIMx CCMR2 register */
1579:../Shared/Libraries/STM32F4xx_StdPeriph_Driver/src/stm32f4xx_tim.c ****   TIMx->CCMR2 = tmpccmr2;
 3428              		.loc 1 1579 15
 3429 002a 7B68     		ldr	r3, [r7, #4]
 3430 002c FA89     		ldrh	r2, [r7, #14]	@ movhi
 3431 002e 9A83     		strh	r2, [r3, #28]	@ movhi
1580:../Shared/Libraries/STM32F4xx_StdPeriph_Driver/src/stm32f4xx_tim.c **** }
 3432              		.loc 1 1580 1
 3433 0030 00BF     		nop
 3434 0032 1437     		adds	r7, r7, #20
 3435              	.LCFI242:
 3436              		.cfi_def_cfa_offset 4
 3437 0034 BD46     		mov	sp, r7
 3438              	.LCFI243:
 3439              		.cfi_def_cfa_register 13
 3440              		@ sp needed
 3441 0036 5DF8047B 		ldr	r7, [sp], #4
 3442              	.LCFI244:
 3443              		.cfi_restore 7
 3444              		.cfi_def_cfa_offset 0
 3445 003a 7047     		bx	lr
 3446              		.cfi_endproc
 3447              	.LFE150:
 3449              		.section	.text.TIM_OC1PolarityConfig,"ax",%progbits
 3450              		.align	1
 3451              		.global	TIM_OC1PolarityConfig
 3452              		.syntax unified
 3453              		.thumb
 3454              		.thumb_func
 3456              	TIM_OC1PolarityConfig:
 3457              	.LFB151:
1581:../Shared/Libraries/STM32F4xx_StdPeriph_Driver/src/stm32f4xx_tim.c **** 
1582:../Shared/Libraries/STM32F4xx_StdPeriph_Driver/src/stm32f4xx_tim.c **** /**
1583:../Shared/Libraries/STM32F4xx_StdPeriph_Driver/src/stm32f4xx_tim.c ****   * @brief  Configures the TIMx channel 1 polarity.
1584:../Shared/Libraries/STM32F4xx_StdPeriph_Driver/src/stm32f4xx_tim.c ****   * @param  TIMx: where x can be 1 to 14 except 6 and 7, to select the TIM peripheral.
1585:../Shared/Libraries/STM32F4xx_StdPeriph_Driver/src/stm32f4xx_tim.c ****   * @param  TIM_OCPolarity: specifies the OC1 Polarity
1586:../Shared/Libraries/STM32F4xx_StdPeriph_Driver/src/stm32f4xx_tim.c ****   *          This parameter can be one of the following values:
1587:../Shared/Libraries/STM32F4xx_StdPeriph_Driver/src/stm32f4xx_tim.c ****   *            @arg TIM_OCPolarity_High: Output Compare active high
1588:../Shared/Libraries/STM32F4xx_StdPeriph_Driver/src/stm32f4xx_tim.c ****   *            @arg TIM_OCPolarity_Low: Output Compare active low
1589:../Shared/Libraries/STM32F4xx_StdPeriph_Driver/src/stm32f4xx_tim.c ****   * @retval None
1590:../Shared/Libraries/STM32F4xx_StdPeriph_Driver/src/stm32f4xx_tim.c ****   */
1591:../Shared/Libraries/STM32F4xx_StdPeriph_Driver/src/stm32f4xx_tim.c **** void TIM_OC1PolarityConfig(TIM_TypeDef* TIMx, uint16_t TIM_OCPolarity)
1592:../Shared/Libraries/STM32F4xx_StdPeriph_Driver/src/stm32f4xx_tim.c **** {
 3458              		.loc 1 1592 1
 3459              		.cfi_startproc
 3460              		@ args = 0, pretend = 0, frame = 16
ARM GAS  /tmp/cc2zcHeL.s 			page 89


 3461              		@ frame_needed = 1, uses_anonymous_args = 0
 3462              		@ link register save eliminated.
 3463 0000 80B4     		push	{r7}
 3464              	.LCFI245:
 3465              		.cfi_def_cfa_offset 4
 3466              		.cfi_offset 7, -4
 3467 0002 85B0     		sub	sp, sp, #20
 3468              	.LCFI246:
 3469              		.cfi_def_cfa_offset 24
 3470 0004 00AF     		add	r7, sp, #0
 3471              	.LCFI247:
 3472              		.cfi_def_cfa_register 7
 3473 0006 7860     		str	r0, [r7, #4]
 3474 0008 0B46     		mov	r3, r1
 3475 000a 7B80     		strh	r3, [r7, #2]	@ movhi
1593:../Shared/Libraries/STM32F4xx_StdPeriph_Driver/src/stm32f4xx_tim.c ****   uint16_t tmpccer = 0;
 3476              		.loc 1 1593 12
 3477 000c 0023     		movs	r3, #0
 3478 000e FB81     		strh	r3, [r7, #14]	@ movhi
1594:../Shared/Libraries/STM32F4xx_StdPeriph_Driver/src/stm32f4xx_tim.c **** 
1595:../Shared/Libraries/STM32F4xx_StdPeriph_Driver/src/stm32f4xx_tim.c ****   /* Check the parameters */
1596:../Shared/Libraries/STM32F4xx_StdPeriph_Driver/src/stm32f4xx_tim.c ****   assert_param(IS_TIM_LIST1_PERIPH(TIMx));
1597:../Shared/Libraries/STM32F4xx_StdPeriph_Driver/src/stm32f4xx_tim.c ****   assert_param(IS_TIM_OC_POLARITY(TIM_OCPolarity));
1598:../Shared/Libraries/STM32F4xx_StdPeriph_Driver/src/stm32f4xx_tim.c **** 
1599:../Shared/Libraries/STM32F4xx_StdPeriph_Driver/src/stm32f4xx_tim.c ****   tmpccer = TIMx->CCER;
 3479              		.loc 1 1599 11
 3480 0010 7B68     		ldr	r3, [r7, #4]
 3481 0012 1B8C     		ldrh	r3, [r3, #32]	@ movhi
 3482 0014 FB81     		strh	r3, [r7, #14]	@ movhi
1600:../Shared/Libraries/STM32F4xx_StdPeriph_Driver/src/stm32f4xx_tim.c **** 
1601:../Shared/Libraries/STM32F4xx_StdPeriph_Driver/src/stm32f4xx_tim.c ****   /* Set or Reset the CC1P Bit */
1602:../Shared/Libraries/STM32F4xx_StdPeriph_Driver/src/stm32f4xx_tim.c ****   tmpccer &= (uint16_t)(~TIM_CCER_CC1P);
 3483              		.loc 1 1602 11
 3484 0016 FB89     		ldrh	r3, [r7, #14]	@ movhi
 3485 0018 23F00203 		bic	r3, r3, #2
 3486 001c FB81     		strh	r3, [r7, #14]	@ movhi
1603:../Shared/Libraries/STM32F4xx_StdPeriph_Driver/src/stm32f4xx_tim.c ****   tmpccer |= TIM_OCPolarity;
 3487              		.loc 1 1603 11
 3488 001e FA89     		ldrh	r2, [r7, #14]	@ movhi
 3489 0020 7B88     		ldrh	r3, [r7, #2]	@ movhi
 3490 0022 1343     		orrs	r3, r3, r2
 3491 0024 FB81     		strh	r3, [r7, #14]	@ movhi
1604:../Shared/Libraries/STM32F4xx_StdPeriph_Driver/src/stm32f4xx_tim.c **** 
1605:../Shared/Libraries/STM32F4xx_StdPeriph_Driver/src/stm32f4xx_tim.c ****   /* Write to TIMx CCER register */
1606:../Shared/Libraries/STM32F4xx_StdPeriph_Driver/src/stm32f4xx_tim.c ****   TIMx->CCER = tmpccer;
 3492              		.loc 1 1606 14
 3493 0026 7B68     		ldr	r3, [r7, #4]
 3494 0028 FA89     		ldrh	r2, [r7, #14]	@ movhi
 3495 002a 1A84     		strh	r2, [r3, #32]	@ movhi
1607:../Shared/Libraries/STM32F4xx_StdPeriph_Driver/src/stm32f4xx_tim.c **** }
 3496              		.loc 1 1607 1
 3497 002c 00BF     		nop
 3498 002e 1437     		adds	r7, r7, #20
 3499              	.LCFI248:
 3500              		.cfi_def_cfa_offset 4
 3501 0030 BD46     		mov	sp, r7
 3502              	.LCFI249:
ARM GAS  /tmp/cc2zcHeL.s 			page 90


 3503              		.cfi_def_cfa_register 13
 3504              		@ sp needed
 3505 0032 5DF8047B 		ldr	r7, [sp], #4
 3506              	.LCFI250:
 3507              		.cfi_restore 7
 3508              		.cfi_def_cfa_offset 0
 3509 0036 7047     		bx	lr
 3510              		.cfi_endproc
 3511              	.LFE151:
 3513              		.section	.text.TIM_OC1NPolarityConfig,"ax",%progbits
 3514              		.align	1
 3515              		.global	TIM_OC1NPolarityConfig
 3516              		.syntax unified
 3517              		.thumb
 3518              		.thumb_func
 3520              	TIM_OC1NPolarityConfig:
 3521              	.LFB152:
1608:../Shared/Libraries/STM32F4xx_StdPeriph_Driver/src/stm32f4xx_tim.c **** 
1609:../Shared/Libraries/STM32F4xx_StdPeriph_Driver/src/stm32f4xx_tim.c **** /**
1610:../Shared/Libraries/STM32F4xx_StdPeriph_Driver/src/stm32f4xx_tim.c ****   * @brief  Configures the TIMx Channel 1N polarity.
1611:../Shared/Libraries/STM32F4xx_StdPeriph_Driver/src/stm32f4xx_tim.c ****   * @param  TIMx: where x can be 1 or 8 to select the TIM peripheral.
1612:../Shared/Libraries/STM32F4xx_StdPeriph_Driver/src/stm32f4xx_tim.c ****   * @param  TIM_OCNPolarity: specifies the OC1N Polarity
1613:../Shared/Libraries/STM32F4xx_StdPeriph_Driver/src/stm32f4xx_tim.c ****   *          This parameter can be one of the following values:
1614:../Shared/Libraries/STM32F4xx_StdPeriph_Driver/src/stm32f4xx_tim.c ****   *            @arg TIM_OCNPolarity_High: Output Compare active high
1615:../Shared/Libraries/STM32F4xx_StdPeriph_Driver/src/stm32f4xx_tim.c ****   *            @arg TIM_OCNPolarity_Low: Output Compare active low
1616:../Shared/Libraries/STM32F4xx_StdPeriph_Driver/src/stm32f4xx_tim.c ****   * @retval None
1617:../Shared/Libraries/STM32F4xx_StdPeriph_Driver/src/stm32f4xx_tim.c ****   */
1618:../Shared/Libraries/STM32F4xx_StdPeriph_Driver/src/stm32f4xx_tim.c **** void TIM_OC1NPolarityConfig(TIM_TypeDef* TIMx, uint16_t TIM_OCNPolarity)
1619:../Shared/Libraries/STM32F4xx_StdPeriph_Driver/src/stm32f4xx_tim.c **** {
 3522              		.loc 1 1619 1
 3523              		.cfi_startproc
 3524              		@ args = 0, pretend = 0, frame = 16
 3525              		@ frame_needed = 1, uses_anonymous_args = 0
 3526              		@ link register save eliminated.
 3527 0000 80B4     		push	{r7}
 3528              	.LCFI251:
 3529              		.cfi_def_cfa_offset 4
 3530              		.cfi_offset 7, -4
 3531 0002 85B0     		sub	sp, sp, #20
 3532              	.LCFI252:
 3533              		.cfi_def_cfa_offset 24
 3534 0004 00AF     		add	r7, sp, #0
 3535              	.LCFI253:
 3536              		.cfi_def_cfa_register 7
 3537 0006 7860     		str	r0, [r7, #4]
 3538 0008 0B46     		mov	r3, r1
 3539 000a 7B80     		strh	r3, [r7, #2]	@ movhi
1620:../Shared/Libraries/STM32F4xx_StdPeriph_Driver/src/stm32f4xx_tim.c ****   uint16_t tmpccer = 0;
 3540              		.loc 1 1620 12
 3541 000c 0023     		movs	r3, #0
 3542 000e FB81     		strh	r3, [r7, #14]	@ movhi
1621:../Shared/Libraries/STM32F4xx_StdPeriph_Driver/src/stm32f4xx_tim.c ****   /* Check the parameters */
1622:../Shared/Libraries/STM32F4xx_StdPeriph_Driver/src/stm32f4xx_tim.c ****   assert_param(IS_TIM_LIST4_PERIPH(TIMx));
1623:../Shared/Libraries/STM32F4xx_StdPeriph_Driver/src/stm32f4xx_tim.c ****   assert_param(IS_TIM_OCN_POLARITY(TIM_OCNPolarity));
1624:../Shared/Libraries/STM32F4xx_StdPeriph_Driver/src/stm32f4xx_tim.c ****    
1625:../Shared/Libraries/STM32F4xx_StdPeriph_Driver/src/stm32f4xx_tim.c ****   tmpccer = TIMx->CCER;
 3543              		.loc 1 1625 11
ARM GAS  /tmp/cc2zcHeL.s 			page 91


 3544 0010 7B68     		ldr	r3, [r7, #4]
 3545 0012 1B8C     		ldrh	r3, [r3, #32]	@ movhi
 3546 0014 FB81     		strh	r3, [r7, #14]	@ movhi
1626:../Shared/Libraries/STM32F4xx_StdPeriph_Driver/src/stm32f4xx_tim.c **** 
1627:../Shared/Libraries/STM32F4xx_StdPeriph_Driver/src/stm32f4xx_tim.c ****   /* Set or Reset the CC1NP Bit */
1628:../Shared/Libraries/STM32F4xx_StdPeriph_Driver/src/stm32f4xx_tim.c ****   tmpccer &= (uint16_t)~TIM_CCER_CC1NP;
 3547              		.loc 1 1628 11
 3548 0016 FB89     		ldrh	r3, [r7, #14]	@ movhi
 3549 0018 23F00803 		bic	r3, r3, #8
 3550 001c FB81     		strh	r3, [r7, #14]	@ movhi
1629:../Shared/Libraries/STM32F4xx_StdPeriph_Driver/src/stm32f4xx_tim.c ****   tmpccer |= TIM_OCNPolarity;
 3551              		.loc 1 1629 11
 3552 001e FA89     		ldrh	r2, [r7, #14]	@ movhi
 3553 0020 7B88     		ldrh	r3, [r7, #2]	@ movhi
 3554 0022 1343     		orrs	r3, r3, r2
 3555 0024 FB81     		strh	r3, [r7, #14]	@ movhi
1630:../Shared/Libraries/STM32F4xx_StdPeriph_Driver/src/stm32f4xx_tim.c **** 
1631:../Shared/Libraries/STM32F4xx_StdPeriph_Driver/src/stm32f4xx_tim.c ****   /* Write to TIMx CCER register */
1632:../Shared/Libraries/STM32F4xx_StdPeriph_Driver/src/stm32f4xx_tim.c ****   TIMx->CCER = tmpccer;
 3556              		.loc 1 1632 14
 3557 0026 7B68     		ldr	r3, [r7, #4]
 3558 0028 FA89     		ldrh	r2, [r7, #14]	@ movhi
 3559 002a 1A84     		strh	r2, [r3, #32]	@ movhi
1633:../Shared/Libraries/STM32F4xx_StdPeriph_Driver/src/stm32f4xx_tim.c **** }
 3560              		.loc 1 1633 1
 3561 002c 00BF     		nop
 3562 002e 1437     		adds	r7, r7, #20
 3563              	.LCFI254:
 3564              		.cfi_def_cfa_offset 4
 3565 0030 BD46     		mov	sp, r7
 3566              	.LCFI255:
 3567              		.cfi_def_cfa_register 13
 3568              		@ sp needed
 3569 0032 5DF8047B 		ldr	r7, [sp], #4
 3570              	.LCFI256:
 3571              		.cfi_restore 7
 3572              		.cfi_def_cfa_offset 0
 3573 0036 7047     		bx	lr
 3574              		.cfi_endproc
 3575              	.LFE152:
 3577              		.section	.text.TIM_OC2PolarityConfig,"ax",%progbits
 3578              		.align	1
 3579              		.global	TIM_OC2PolarityConfig
 3580              		.syntax unified
 3581              		.thumb
 3582              		.thumb_func
 3584              	TIM_OC2PolarityConfig:
 3585              	.LFB153:
1634:../Shared/Libraries/STM32F4xx_StdPeriph_Driver/src/stm32f4xx_tim.c **** 
1635:../Shared/Libraries/STM32F4xx_StdPeriph_Driver/src/stm32f4xx_tim.c **** /**
1636:../Shared/Libraries/STM32F4xx_StdPeriph_Driver/src/stm32f4xx_tim.c ****   * @brief  Configures the TIMx channel 2 polarity.
1637:../Shared/Libraries/STM32F4xx_StdPeriph_Driver/src/stm32f4xx_tim.c ****   * @param  TIMx: where x can be 1, 2, 3, 4, 5, 8, 9 or 12 to select the TIM 
1638:../Shared/Libraries/STM32F4xx_StdPeriph_Driver/src/stm32f4xx_tim.c ****   *         peripheral.
1639:../Shared/Libraries/STM32F4xx_StdPeriph_Driver/src/stm32f4xx_tim.c ****   * @param  TIM_OCPolarity: specifies the OC2 Polarity
1640:../Shared/Libraries/STM32F4xx_StdPeriph_Driver/src/stm32f4xx_tim.c ****   *          This parameter can be one of the following values:
1641:../Shared/Libraries/STM32F4xx_StdPeriph_Driver/src/stm32f4xx_tim.c ****   *            @arg TIM_OCPolarity_High: Output Compare active high
1642:../Shared/Libraries/STM32F4xx_StdPeriph_Driver/src/stm32f4xx_tim.c ****   *            @arg TIM_OCPolarity_Low: Output Compare active low
ARM GAS  /tmp/cc2zcHeL.s 			page 92


1643:../Shared/Libraries/STM32F4xx_StdPeriph_Driver/src/stm32f4xx_tim.c ****   * @retval None
1644:../Shared/Libraries/STM32F4xx_StdPeriph_Driver/src/stm32f4xx_tim.c ****   */
1645:../Shared/Libraries/STM32F4xx_StdPeriph_Driver/src/stm32f4xx_tim.c **** void TIM_OC2PolarityConfig(TIM_TypeDef* TIMx, uint16_t TIM_OCPolarity)
1646:../Shared/Libraries/STM32F4xx_StdPeriph_Driver/src/stm32f4xx_tim.c **** {
 3586              		.loc 1 1646 1
 3587              		.cfi_startproc
 3588              		@ args = 0, pretend = 0, frame = 16
 3589              		@ frame_needed = 1, uses_anonymous_args = 0
 3590              		@ link register save eliminated.
 3591 0000 80B4     		push	{r7}
 3592              	.LCFI257:
 3593              		.cfi_def_cfa_offset 4
 3594              		.cfi_offset 7, -4
 3595 0002 85B0     		sub	sp, sp, #20
 3596              	.LCFI258:
 3597              		.cfi_def_cfa_offset 24
 3598 0004 00AF     		add	r7, sp, #0
 3599              	.LCFI259:
 3600              		.cfi_def_cfa_register 7
 3601 0006 7860     		str	r0, [r7, #4]
 3602 0008 0B46     		mov	r3, r1
 3603 000a 7B80     		strh	r3, [r7, #2]	@ movhi
1647:../Shared/Libraries/STM32F4xx_StdPeriph_Driver/src/stm32f4xx_tim.c ****   uint16_t tmpccer = 0;
 3604              		.loc 1 1647 12
 3605 000c 0023     		movs	r3, #0
 3606 000e FB81     		strh	r3, [r7, #14]	@ movhi
1648:../Shared/Libraries/STM32F4xx_StdPeriph_Driver/src/stm32f4xx_tim.c **** 
1649:../Shared/Libraries/STM32F4xx_StdPeriph_Driver/src/stm32f4xx_tim.c ****   /* Check the parameters */
1650:../Shared/Libraries/STM32F4xx_StdPeriph_Driver/src/stm32f4xx_tim.c ****   assert_param(IS_TIM_LIST2_PERIPH(TIMx));
1651:../Shared/Libraries/STM32F4xx_StdPeriph_Driver/src/stm32f4xx_tim.c ****   assert_param(IS_TIM_OC_POLARITY(TIM_OCPolarity));
1652:../Shared/Libraries/STM32F4xx_StdPeriph_Driver/src/stm32f4xx_tim.c **** 
1653:../Shared/Libraries/STM32F4xx_StdPeriph_Driver/src/stm32f4xx_tim.c ****   tmpccer = TIMx->CCER;
 3607              		.loc 1 1653 11
 3608 0010 7B68     		ldr	r3, [r7, #4]
 3609 0012 1B8C     		ldrh	r3, [r3, #32]	@ movhi
 3610 0014 FB81     		strh	r3, [r7, #14]	@ movhi
1654:../Shared/Libraries/STM32F4xx_StdPeriph_Driver/src/stm32f4xx_tim.c **** 
1655:../Shared/Libraries/STM32F4xx_StdPeriph_Driver/src/stm32f4xx_tim.c ****   /* Set or Reset the CC2P Bit */
1656:../Shared/Libraries/STM32F4xx_StdPeriph_Driver/src/stm32f4xx_tim.c ****   tmpccer &= (uint16_t)(~TIM_CCER_CC2P);
 3611              		.loc 1 1656 11
 3612 0016 FB89     		ldrh	r3, [r7, #14]	@ movhi
 3613 0018 23F02003 		bic	r3, r3, #32
 3614 001c FB81     		strh	r3, [r7, #14]	@ movhi
1657:../Shared/Libraries/STM32F4xx_StdPeriph_Driver/src/stm32f4xx_tim.c ****   tmpccer |= (uint16_t)(TIM_OCPolarity << 4);
 3615              		.loc 1 1657 14
 3616 001e 7B88     		ldrh	r3, [r7, #2]	@ movhi
 3617 0020 1B01     		lsls	r3, r3, #4
 3618 0022 9AB2     		uxth	r2, r3
 3619              		.loc 1 1657 11
 3620 0024 FB89     		ldrh	r3, [r7, #14]	@ movhi
 3621 0026 1343     		orrs	r3, r3, r2
 3622 0028 FB81     		strh	r3, [r7, #14]	@ movhi
1658:../Shared/Libraries/STM32F4xx_StdPeriph_Driver/src/stm32f4xx_tim.c **** 
1659:../Shared/Libraries/STM32F4xx_StdPeriph_Driver/src/stm32f4xx_tim.c ****   /* Write to TIMx CCER register */
1660:../Shared/Libraries/STM32F4xx_StdPeriph_Driver/src/stm32f4xx_tim.c ****   TIMx->CCER = tmpccer;
 3623              		.loc 1 1660 14
 3624 002a 7B68     		ldr	r3, [r7, #4]
ARM GAS  /tmp/cc2zcHeL.s 			page 93


 3625 002c FA89     		ldrh	r2, [r7, #14]	@ movhi
 3626 002e 1A84     		strh	r2, [r3, #32]	@ movhi
1661:../Shared/Libraries/STM32F4xx_StdPeriph_Driver/src/stm32f4xx_tim.c **** }
 3627              		.loc 1 1661 1
 3628 0030 00BF     		nop
 3629 0032 1437     		adds	r7, r7, #20
 3630              	.LCFI260:
 3631              		.cfi_def_cfa_offset 4
 3632 0034 BD46     		mov	sp, r7
 3633              	.LCFI261:
 3634              		.cfi_def_cfa_register 13
 3635              		@ sp needed
 3636 0036 5DF8047B 		ldr	r7, [sp], #4
 3637              	.LCFI262:
 3638              		.cfi_restore 7
 3639              		.cfi_def_cfa_offset 0
 3640 003a 7047     		bx	lr
 3641              		.cfi_endproc
 3642              	.LFE153:
 3644              		.section	.text.TIM_OC2NPolarityConfig,"ax",%progbits
 3645              		.align	1
 3646              		.global	TIM_OC2NPolarityConfig
 3647              		.syntax unified
 3648              		.thumb
 3649              		.thumb_func
 3651              	TIM_OC2NPolarityConfig:
 3652              	.LFB154:
1662:../Shared/Libraries/STM32F4xx_StdPeriph_Driver/src/stm32f4xx_tim.c **** 
1663:../Shared/Libraries/STM32F4xx_StdPeriph_Driver/src/stm32f4xx_tim.c **** /**
1664:../Shared/Libraries/STM32F4xx_StdPeriph_Driver/src/stm32f4xx_tim.c ****   * @brief  Configures the TIMx Channel 2N polarity.
1665:../Shared/Libraries/STM32F4xx_StdPeriph_Driver/src/stm32f4xx_tim.c ****   * @param  TIMx: where x can be 1 or 8 to select the TIM peripheral.
1666:../Shared/Libraries/STM32F4xx_StdPeriph_Driver/src/stm32f4xx_tim.c ****   * @param  TIM_OCNPolarity: specifies the OC2N Polarity
1667:../Shared/Libraries/STM32F4xx_StdPeriph_Driver/src/stm32f4xx_tim.c ****   *          This parameter can be one of the following values:
1668:../Shared/Libraries/STM32F4xx_StdPeriph_Driver/src/stm32f4xx_tim.c ****   *            @arg TIM_OCNPolarity_High: Output Compare active high
1669:../Shared/Libraries/STM32F4xx_StdPeriph_Driver/src/stm32f4xx_tim.c ****   *            @arg TIM_OCNPolarity_Low: Output Compare active low
1670:../Shared/Libraries/STM32F4xx_StdPeriph_Driver/src/stm32f4xx_tim.c ****   * @retval None
1671:../Shared/Libraries/STM32F4xx_StdPeriph_Driver/src/stm32f4xx_tim.c ****   */
1672:../Shared/Libraries/STM32F4xx_StdPeriph_Driver/src/stm32f4xx_tim.c **** void TIM_OC2NPolarityConfig(TIM_TypeDef* TIMx, uint16_t TIM_OCNPolarity)
1673:../Shared/Libraries/STM32F4xx_StdPeriph_Driver/src/stm32f4xx_tim.c **** {
 3653              		.loc 1 1673 1
 3654              		.cfi_startproc
 3655              		@ args = 0, pretend = 0, frame = 16
 3656              		@ frame_needed = 1, uses_anonymous_args = 0
 3657              		@ link register save eliminated.
 3658 0000 80B4     		push	{r7}
 3659              	.LCFI263:
 3660              		.cfi_def_cfa_offset 4
 3661              		.cfi_offset 7, -4
 3662 0002 85B0     		sub	sp, sp, #20
 3663              	.LCFI264:
 3664              		.cfi_def_cfa_offset 24
 3665 0004 00AF     		add	r7, sp, #0
 3666              	.LCFI265:
 3667              		.cfi_def_cfa_register 7
 3668 0006 7860     		str	r0, [r7, #4]
 3669 0008 0B46     		mov	r3, r1
 3670 000a 7B80     		strh	r3, [r7, #2]	@ movhi
ARM GAS  /tmp/cc2zcHeL.s 			page 94


1674:../Shared/Libraries/STM32F4xx_StdPeriph_Driver/src/stm32f4xx_tim.c ****   uint16_t tmpccer = 0;
 3671              		.loc 1 1674 12
 3672 000c 0023     		movs	r3, #0
 3673 000e FB81     		strh	r3, [r7, #14]	@ movhi
1675:../Shared/Libraries/STM32F4xx_StdPeriph_Driver/src/stm32f4xx_tim.c **** 
1676:../Shared/Libraries/STM32F4xx_StdPeriph_Driver/src/stm32f4xx_tim.c ****   /* Check the parameters */
1677:../Shared/Libraries/STM32F4xx_StdPeriph_Driver/src/stm32f4xx_tim.c ****   assert_param(IS_TIM_LIST4_PERIPH(TIMx));
1678:../Shared/Libraries/STM32F4xx_StdPeriph_Driver/src/stm32f4xx_tim.c ****   assert_param(IS_TIM_OCN_POLARITY(TIM_OCNPolarity));
1679:../Shared/Libraries/STM32F4xx_StdPeriph_Driver/src/stm32f4xx_tim.c ****   
1680:../Shared/Libraries/STM32F4xx_StdPeriph_Driver/src/stm32f4xx_tim.c ****   tmpccer = TIMx->CCER;
 3674              		.loc 1 1680 11
 3675 0010 7B68     		ldr	r3, [r7, #4]
 3676 0012 1B8C     		ldrh	r3, [r3, #32]	@ movhi
 3677 0014 FB81     		strh	r3, [r7, #14]	@ movhi
1681:../Shared/Libraries/STM32F4xx_StdPeriph_Driver/src/stm32f4xx_tim.c **** 
1682:../Shared/Libraries/STM32F4xx_StdPeriph_Driver/src/stm32f4xx_tim.c ****   /* Set or Reset the CC2NP Bit */
1683:../Shared/Libraries/STM32F4xx_StdPeriph_Driver/src/stm32f4xx_tim.c ****   tmpccer &= (uint16_t)~TIM_CCER_CC2NP;
 3678              		.loc 1 1683 11
 3679 0016 FB89     		ldrh	r3, [r7, #14]	@ movhi
 3680 0018 23F08003 		bic	r3, r3, #128
 3681 001c FB81     		strh	r3, [r7, #14]	@ movhi
1684:../Shared/Libraries/STM32F4xx_StdPeriph_Driver/src/stm32f4xx_tim.c ****   tmpccer |= (uint16_t)(TIM_OCNPolarity << 4);
 3682              		.loc 1 1684 14
 3683 001e 7B88     		ldrh	r3, [r7, #2]	@ movhi
 3684 0020 1B01     		lsls	r3, r3, #4
 3685 0022 9AB2     		uxth	r2, r3
 3686              		.loc 1 1684 11
 3687 0024 FB89     		ldrh	r3, [r7, #14]	@ movhi
 3688 0026 1343     		orrs	r3, r3, r2
 3689 0028 FB81     		strh	r3, [r7, #14]	@ movhi
1685:../Shared/Libraries/STM32F4xx_StdPeriph_Driver/src/stm32f4xx_tim.c **** 
1686:../Shared/Libraries/STM32F4xx_StdPeriph_Driver/src/stm32f4xx_tim.c ****   /* Write to TIMx CCER register */
1687:../Shared/Libraries/STM32F4xx_StdPeriph_Driver/src/stm32f4xx_tim.c ****   TIMx->CCER = tmpccer;
 3690              		.loc 1 1687 14
 3691 002a 7B68     		ldr	r3, [r7, #4]
 3692 002c FA89     		ldrh	r2, [r7, #14]	@ movhi
 3693 002e 1A84     		strh	r2, [r3, #32]	@ movhi
1688:../Shared/Libraries/STM32F4xx_StdPeriph_Driver/src/stm32f4xx_tim.c **** }
 3694              		.loc 1 1688 1
 3695 0030 00BF     		nop
 3696 0032 1437     		adds	r7, r7, #20
 3697              	.LCFI266:
 3698              		.cfi_def_cfa_offset 4
 3699 0034 BD46     		mov	sp, r7
 3700              	.LCFI267:
 3701              		.cfi_def_cfa_register 13
 3702              		@ sp needed
 3703 0036 5DF8047B 		ldr	r7, [sp], #4
 3704              	.LCFI268:
 3705              		.cfi_restore 7
 3706              		.cfi_def_cfa_offset 0
 3707 003a 7047     		bx	lr
 3708              		.cfi_endproc
 3709              	.LFE154:
 3711              		.section	.text.TIM_OC3PolarityConfig,"ax",%progbits
 3712              		.align	1
 3713              		.global	TIM_OC3PolarityConfig
ARM GAS  /tmp/cc2zcHeL.s 			page 95


 3714              		.syntax unified
 3715              		.thumb
 3716              		.thumb_func
 3718              	TIM_OC3PolarityConfig:
 3719              	.LFB155:
1689:../Shared/Libraries/STM32F4xx_StdPeriph_Driver/src/stm32f4xx_tim.c **** 
1690:../Shared/Libraries/STM32F4xx_StdPeriph_Driver/src/stm32f4xx_tim.c **** /**
1691:../Shared/Libraries/STM32F4xx_StdPeriph_Driver/src/stm32f4xx_tim.c ****   * @brief  Configures the TIMx channel 3 polarity.
1692:../Shared/Libraries/STM32F4xx_StdPeriph_Driver/src/stm32f4xx_tim.c ****   * @param  TIMx: where x can be 1, 2, 3, 4, 5 or 8 to select the TIM peripheral.
1693:../Shared/Libraries/STM32F4xx_StdPeriph_Driver/src/stm32f4xx_tim.c ****   * @param  TIM_OCPolarity: specifies the OC3 Polarity
1694:../Shared/Libraries/STM32F4xx_StdPeriph_Driver/src/stm32f4xx_tim.c ****   *          This parameter can be one of the following values:
1695:../Shared/Libraries/STM32F4xx_StdPeriph_Driver/src/stm32f4xx_tim.c ****   *            @arg TIM_OCPolarity_High: Output Compare active high
1696:../Shared/Libraries/STM32F4xx_StdPeriph_Driver/src/stm32f4xx_tim.c ****   *            @arg TIM_OCPolarity_Low: Output Compare active low
1697:../Shared/Libraries/STM32F4xx_StdPeriph_Driver/src/stm32f4xx_tim.c ****   * @retval None
1698:../Shared/Libraries/STM32F4xx_StdPeriph_Driver/src/stm32f4xx_tim.c ****   */
1699:../Shared/Libraries/STM32F4xx_StdPeriph_Driver/src/stm32f4xx_tim.c **** void TIM_OC3PolarityConfig(TIM_TypeDef* TIMx, uint16_t TIM_OCPolarity)
1700:../Shared/Libraries/STM32F4xx_StdPeriph_Driver/src/stm32f4xx_tim.c **** {
 3720              		.loc 1 1700 1
 3721              		.cfi_startproc
 3722              		@ args = 0, pretend = 0, frame = 16
 3723              		@ frame_needed = 1, uses_anonymous_args = 0
 3724              		@ link register save eliminated.
 3725 0000 80B4     		push	{r7}
 3726              	.LCFI269:
 3727              		.cfi_def_cfa_offset 4
 3728              		.cfi_offset 7, -4
 3729 0002 85B0     		sub	sp, sp, #20
 3730              	.LCFI270:
 3731              		.cfi_def_cfa_offset 24
 3732 0004 00AF     		add	r7, sp, #0
 3733              	.LCFI271:
 3734              		.cfi_def_cfa_register 7
 3735 0006 7860     		str	r0, [r7, #4]
 3736 0008 0B46     		mov	r3, r1
 3737 000a 7B80     		strh	r3, [r7, #2]	@ movhi
1701:../Shared/Libraries/STM32F4xx_StdPeriph_Driver/src/stm32f4xx_tim.c ****   uint16_t tmpccer = 0;
 3738              		.loc 1 1701 12
 3739 000c 0023     		movs	r3, #0
 3740 000e FB81     		strh	r3, [r7, #14]	@ movhi
1702:../Shared/Libraries/STM32F4xx_StdPeriph_Driver/src/stm32f4xx_tim.c **** 
1703:../Shared/Libraries/STM32F4xx_StdPeriph_Driver/src/stm32f4xx_tim.c ****   /* Check the parameters */
1704:../Shared/Libraries/STM32F4xx_StdPeriph_Driver/src/stm32f4xx_tim.c ****   assert_param(IS_TIM_LIST3_PERIPH(TIMx));
1705:../Shared/Libraries/STM32F4xx_StdPeriph_Driver/src/stm32f4xx_tim.c ****   assert_param(IS_TIM_OC_POLARITY(TIM_OCPolarity));
1706:../Shared/Libraries/STM32F4xx_StdPeriph_Driver/src/stm32f4xx_tim.c **** 
1707:../Shared/Libraries/STM32F4xx_StdPeriph_Driver/src/stm32f4xx_tim.c ****   tmpccer = TIMx->CCER;
 3741              		.loc 1 1707 11
 3742 0010 7B68     		ldr	r3, [r7, #4]
 3743 0012 1B8C     		ldrh	r3, [r3, #32]	@ movhi
 3744 0014 FB81     		strh	r3, [r7, #14]	@ movhi
1708:../Shared/Libraries/STM32F4xx_StdPeriph_Driver/src/stm32f4xx_tim.c **** 
1709:../Shared/Libraries/STM32F4xx_StdPeriph_Driver/src/stm32f4xx_tim.c ****   /* Set or Reset the CC3P Bit */
1710:../Shared/Libraries/STM32F4xx_StdPeriph_Driver/src/stm32f4xx_tim.c ****   tmpccer &= (uint16_t)~TIM_CCER_CC3P;
 3745              		.loc 1 1710 11
 3746 0016 FB89     		ldrh	r3, [r7, #14]	@ movhi
 3747 0018 23F40073 		bic	r3, r3, #512
 3748 001c FB81     		strh	r3, [r7, #14]	@ movhi
1711:../Shared/Libraries/STM32F4xx_StdPeriph_Driver/src/stm32f4xx_tim.c ****   tmpccer |= (uint16_t)(TIM_OCPolarity << 8);
ARM GAS  /tmp/cc2zcHeL.s 			page 96


 3749              		.loc 1 1711 14
 3750 001e 7B88     		ldrh	r3, [r7, #2]	@ movhi
 3751 0020 1B02     		lsls	r3, r3, #8
 3752 0022 9AB2     		uxth	r2, r3
 3753              		.loc 1 1711 11
 3754 0024 FB89     		ldrh	r3, [r7, #14]	@ movhi
 3755 0026 1343     		orrs	r3, r3, r2
 3756 0028 FB81     		strh	r3, [r7, #14]	@ movhi
1712:../Shared/Libraries/STM32F4xx_StdPeriph_Driver/src/stm32f4xx_tim.c **** 
1713:../Shared/Libraries/STM32F4xx_StdPeriph_Driver/src/stm32f4xx_tim.c ****   /* Write to TIMx CCER register */
1714:../Shared/Libraries/STM32F4xx_StdPeriph_Driver/src/stm32f4xx_tim.c ****   TIMx->CCER = tmpccer;
 3757              		.loc 1 1714 14
 3758 002a 7B68     		ldr	r3, [r7, #4]
 3759 002c FA89     		ldrh	r2, [r7, #14]	@ movhi
 3760 002e 1A84     		strh	r2, [r3, #32]	@ movhi
1715:../Shared/Libraries/STM32F4xx_StdPeriph_Driver/src/stm32f4xx_tim.c **** }
 3761              		.loc 1 1715 1
 3762 0030 00BF     		nop
 3763 0032 1437     		adds	r7, r7, #20
 3764              	.LCFI272:
 3765              		.cfi_def_cfa_offset 4
 3766 0034 BD46     		mov	sp, r7
 3767              	.LCFI273:
 3768              		.cfi_def_cfa_register 13
 3769              		@ sp needed
 3770 0036 5DF8047B 		ldr	r7, [sp], #4
 3771              	.LCFI274:
 3772              		.cfi_restore 7
 3773              		.cfi_def_cfa_offset 0
 3774 003a 7047     		bx	lr
 3775              		.cfi_endproc
 3776              	.LFE155:
 3778              		.section	.text.TIM_OC3NPolarityConfig,"ax",%progbits
 3779              		.align	1
 3780              		.global	TIM_OC3NPolarityConfig
 3781              		.syntax unified
 3782              		.thumb
 3783              		.thumb_func
 3785              	TIM_OC3NPolarityConfig:
 3786              	.LFB156:
1716:../Shared/Libraries/STM32F4xx_StdPeriph_Driver/src/stm32f4xx_tim.c **** 
1717:../Shared/Libraries/STM32F4xx_StdPeriph_Driver/src/stm32f4xx_tim.c **** /**
1718:../Shared/Libraries/STM32F4xx_StdPeriph_Driver/src/stm32f4xx_tim.c ****   * @brief  Configures the TIMx Channel 3N polarity.
1719:../Shared/Libraries/STM32F4xx_StdPeriph_Driver/src/stm32f4xx_tim.c ****   * @param  TIMx: where x can be 1 or 8 to select the TIM peripheral.
1720:../Shared/Libraries/STM32F4xx_StdPeriph_Driver/src/stm32f4xx_tim.c ****   * @param  TIM_OCNPolarity: specifies the OC3N Polarity
1721:../Shared/Libraries/STM32F4xx_StdPeriph_Driver/src/stm32f4xx_tim.c ****   *          This parameter can be one of the following values:
1722:../Shared/Libraries/STM32F4xx_StdPeriph_Driver/src/stm32f4xx_tim.c ****   *            @arg TIM_OCNPolarity_High: Output Compare active high
1723:../Shared/Libraries/STM32F4xx_StdPeriph_Driver/src/stm32f4xx_tim.c ****   *            @arg TIM_OCNPolarity_Low: Output Compare active low
1724:../Shared/Libraries/STM32F4xx_StdPeriph_Driver/src/stm32f4xx_tim.c ****   * @retval None
1725:../Shared/Libraries/STM32F4xx_StdPeriph_Driver/src/stm32f4xx_tim.c ****   */
1726:../Shared/Libraries/STM32F4xx_StdPeriph_Driver/src/stm32f4xx_tim.c **** void TIM_OC3NPolarityConfig(TIM_TypeDef* TIMx, uint16_t TIM_OCNPolarity)
1727:../Shared/Libraries/STM32F4xx_StdPeriph_Driver/src/stm32f4xx_tim.c **** {
 3787              		.loc 1 1727 1
 3788              		.cfi_startproc
 3789              		@ args = 0, pretend = 0, frame = 16
 3790              		@ frame_needed = 1, uses_anonymous_args = 0
 3791              		@ link register save eliminated.
ARM GAS  /tmp/cc2zcHeL.s 			page 97


 3792 0000 80B4     		push	{r7}
 3793              	.LCFI275:
 3794              		.cfi_def_cfa_offset 4
 3795              		.cfi_offset 7, -4
 3796 0002 85B0     		sub	sp, sp, #20
 3797              	.LCFI276:
 3798              		.cfi_def_cfa_offset 24
 3799 0004 00AF     		add	r7, sp, #0
 3800              	.LCFI277:
 3801              		.cfi_def_cfa_register 7
 3802 0006 7860     		str	r0, [r7, #4]
 3803 0008 0B46     		mov	r3, r1
 3804 000a 7B80     		strh	r3, [r7, #2]	@ movhi
1728:../Shared/Libraries/STM32F4xx_StdPeriph_Driver/src/stm32f4xx_tim.c ****   uint16_t tmpccer = 0;
 3805              		.loc 1 1728 12
 3806 000c 0023     		movs	r3, #0
 3807 000e FB81     		strh	r3, [r7, #14]	@ movhi
1729:../Shared/Libraries/STM32F4xx_StdPeriph_Driver/src/stm32f4xx_tim.c ****  
1730:../Shared/Libraries/STM32F4xx_StdPeriph_Driver/src/stm32f4xx_tim.c ****   /* Check the parameters */
1731:../Shared/Libraries/STM32F4xx_StdPeriph_Driver/src/stm32f4xx_tim.c ****   assert_param(IS_TIM_LIST4_PERIPH(TIMx));
1732:../Shared/Libraries/STM32F4xx_StdPeriph_Driver/src/stm32f4xx_tim.c ****   assert_param(IS_TIM_OCN_POLARITY(TIM_OCNPolarity));
1733:../Shared/Libraries/STM32F4xx_StdPeriph_Driver/src/stm32f4xx_tim.c ****     
1734:../Shared/Libraries/STM32F4xx_StdPeriph_Driver/src/stm32f4xx_tim.c ****   tmpccer = TIMx->CCER;
 3808              		.loc 1 1734 11
 3809 0010 7B68     		ldr	r3, [r7, #4]
 3810 0012 1B8C     		ldrh	r3, [r3, #32]	@ movhi
 3811 0014 FB81     		strh	r3, [r7, #14]	@ movhi
1735:../Shared/Libraries/STM32F4xx_StdPeriph_Driver/src/stm32f4xx_tim.c **** 
1736:../Shared/Libraries/STM32F4xx_StdPeriph_Driver/src/stm32f4xx_tim.c ****   /* Set or Reset the CC3NP Bit */
1737:../Shared/Libraries/STM32F4xx_StdPeriph_Driver/src/stm32f4xx_tim.c ****   tmpccer &= (uint16_t)~TIM_CCER_CC3NP;
 3812              		.loc 1 1737 11
 3813 0016 FB89     		ldrh	r3, [r7, #14]	@ movhi
 3814 0018 23F40063 		bic	r3, r3, #2048
 3815 001c FB81     		strh	r3, [r7, #14]	@ movhi
1738:../Shared/Libraries/STM32F4xx_StdPeriph_Driver/src/stm32f4xx_tim.c ****   tmpccer |= (uint16_t)(TIM_OCNPolarity << 8);
 3816              		.loc 1 1738 14
 3817 001e 7B88     		ldrh	r3, [r7, #2]	@ movhi
 3818 0020 1B02     		lsls	r3, r3, #8
 3819 0022 9AB2     		uxth	r2, r3
 3820              		.loc 1 1738 11
 3821 0024 FB89     		ldrh	r3, [r7, #14]	@ movhi
 3822 0026 1343     		orrs	r3, r3, r2
 3823 0028 FB81     		strh	r3, [r7, #14]	@ movhi
1739:../Shared/Libraries/STM32F4xx_StdPeriph_Driver/src/stm32f4xx_tim.c **** 
1740:../Shared/Libraries/STM32F4xx_StdPeriph_Driver/src/stm32f4xx_tim.c ****   /* Write to TIMx CCER register */
1741:../Shared/Libraries/STM32F4xx_StdPeriph_Driver/src/stm32f4xx_tim.c ****   TIMx->CCER = tmpccer;
 3824              		.loc 1 1741 14
 3825 002a 7B68     		ldr	r3, [r7, #4]
 3826 002c FA89     		ldrh	r2, [r7, #14]	@ movhi
 3827 002e 1A84     		strh	r2, [r3, #32]	@ movhi
1742:../Shared/Libraries/STM32F4xx_StdPeriph_Driver/src/stm32f4xx_tim.c **** }
 3828              		.loc 1 1742 1
 3829 0030 00BF     		nop
 3830 0032 1437     		adds	r7, r7, #20
 3831              	.LCFI278:
 3832              		.cfi_def_cfa_offset 4
 3833 0034 BD46     		mov	sp, r7
ARM GAS  /tmp/cc2zcHeL.s 			page 98


 3834              	.LCFI279:
 3835              		.cfi_def_cfa_register 13
 3836              		@ sp needed
 3837 0036 5DF8047B 		ldr	r7, [sp], #4
 3838              	.LCFI280:
 3839              		.cfi_restore 7
 3840              		.cfi_def_cfa_offset 0
 3841 003a 7047     		bx	lr
 3842              		.cfi_endproc
 3843              	.LFE156:
 3845              		.section	.text.TIM_OC4PolarityConfig,"ax",%progbits
 3846              		.align	1
 3847              		.global	TIM_OC4PolarityConfig
 3848              		.syntax unified
 3849              		.thumb
 3850              		.thumb_func
 3852              	TIM_OC4PolarityConfig:
 3853              	.LFB157:
1743:../Shared/Libraries/STM32F4xx_StdPeriph_Driver/src/stm32f4xx_tim.c **** 
1744:../Shared/Libraries/STM32F4xx_StdPeriph_Driver/src/stm32f4xx_tim.c **** /**
1745:../Shared/Libraries/STM32F4xx_StdPeriph_Driver/src/stm32f4xx_tim.c ****   * @brief  Configures the TIMx channel 4 polarity.
1746:../Shared/Libraries/STM32F4xx_StdPeriph_Driver/src/stm32f4xx_tim.c ****   * @param  TIMx: where x can be 1, 2, 3, 4, 5 or 8 to select the TIM peripheral.
1747:../Shared/Libraries/STM32F4xx_StdPeriph_Driver/src/stm32f4xx_tim.c ****   * @param  TIM_OCPolarity: specifies the OC4 Polarity
1748:../Shared/Libraries/STM32F4xx_StdPeriph_Driver/src/stm32f4xx_tim.c ****   *          This parameter can be one of the following values:
1749:../Shared/Libraries/STM32F4xx_StdPeriph_Driver/src/stm32f4xx_tim.c ****   *            @arg TIM_OCPolarity_High: Output Compare active high
1750:../Shared/Libraries/STM32F4xx_StdPeriph_Driver/src/stm32f4xx_tim.c ****   *            @arg TIM_OCPolarity_Low: Output Compare active low
1751:../Shared/Libraries/STM32F4xx_StdPeriph_Driver/src/stm32f4xx_tim.c ****   * @retval None
1752:../Shared/Libraries/STM32F4xx_StdPeriph_Driver/src/stm32f4xx_tim.c ****   */
1753:../Shared/Libraries/STM32F4xx_StdPeriph_Driver/src/stm32f4xx_tim.c **** void TIM_OC4PolarityConfig(TIM_TypeDef* TIMx, uint16_t TIM_OCPolarity)
1754:../Shared/Libraries/STM32F4xx_StdPeriph_Driver/src/stm32f4xx_tim.c **** {
 3854              		.loc 1 1754 1
 3855              		.cfi_startproc
 3856              		@ args = 0, pretend = 0, frame = 16
 3857              		@ frame_needed = 1, uses_anonymous_args = 0
 3858              		@ link register save eliminated.
 3859 0000 80B4     		push	{r7}
 3860              	.LCFI281:
 3861              		.cfi_def_cfa_offset 4
 3862              		.cfi_offset 7, -4
 3863 0002 85B0     		sub	sp, sp, #20
 3864              	.LCFI282:
 3865              		.cfi_def_cfa_offset 24
 3866 0004 00AF     		add	r7, sp, #0
 3867              	.LCFI283:
 3868              		.cfi_def_cfa_register 7
 3869 0006 7860     		str	r0, [r7, #4]
 3870 0008 0B46     		mov	r3, r1
 3871 000a 7B80     		strh	r3, [r7, #2]	@ movhi
1755:../Shared/Libraries/STM32F4xx_StdPeriph_Driver/src/stm32f4xx_tim.c ****   uint16_t tmpccer = 0;
 3872              		.loc 1 1755 12
 3873 000c 0023     		movs	r3, #0
 3874 000e FB81     		strh	r3, [r7, #14]	@ movhi
1756:../Shared/Libraries/STM32F4xx_StdPeriph_Driver/src/stm32f4xx_tim.c **** 
1757:../Shared/Libraries/STM32F4xx_StdPeriph_Driver/src/stm32f4xx_tim.c ****   /* Check the parameters */
1758:../Shared/Libraries/STM32F4xx_StdPeriph_Driver/src/stm32f4xx_tim.c ****   assert_param(IS_TIM_LIST3_PERIPH(TIMx));
1759:../Shared/Libraries/STM32F4xx_StdPeriph_Driver/src/stm32f4xx_tim.c ****   assert_param(IS_TIM_OC_POLARITY(TIM_OCPolarity));
1760:../Shared/Libraries/STM32F4xx_StdPeriph_Driver/src/stm32f4xx_tim.c **** 
ARM GAS  /tmp/cc2zcHeL.s 			page 99


1761:../Shared/Libraries/STM32F4xx_StdPeriph_Driver/src/stm32f4xx_tim.c ****   tmpccer = TIMx->CCER;
 3875              		.loc 1 1761 11
 3876 0010 7B68     		ldr	r3, [r7, #4]
 3877 0012 1B8C     		ldrh	r3, [r3, #32]	@ movhi
 3878 0014 FB81     		strh	r3, [r7, #14]	@ movhi
1762:../Shared/Libraries/STM32F4xx_StdPeriph_Driver/src/stm32f4xx_tim.c **** 
1763:../Shared/Libraries/STM32F4xx_StdPeriph_Driver/src/stm32f4xx_tim.c ****   /* Set or Reset the CC4P Bit */
1764:../Shared/Libraries/STM32F4xx_StdPeriph_Driver/src/stm32f4xx_tim.c ****   tmpccer &= (uint16_t)~TIM_CCER_CC4P;
 3879              		.loc 1 1764 11
 3880 0016 FB89     		ldrh	r3, [r7, #14]	@ movhi
 3881 0018 23F40053 		bic	r3, r3, #8192
 3882 001c FB81     		strh	r3, [r7, #14]	@ movhi
1765:../Shared/Libraries/STM32F4xx_StdPeriph_Driver/src/stm32f4xx_tim.c ****   tmpccer |= (uint16_t)(TIM_OCPolarity << 12);
 3883              		.loc 1 1765 14
 3884 001e 7B88     		ldrh	r3, [r7, #2]	@ movhi
 3885 0020 1B03     		lsls	r3, r3, #12
 3886 0022 9AB2     		uxth	r2, r3
 3887              		.loc 1 1765 11
 3888 0024 FB89     		ldrh	r3, [r7, #14]	@ movhi
 3889 0026 1343     		orrs	r3, r3, r2
 3890 0028 FB81     		strh	r3, [r7, #14]	@ movhi
1766:../Shared/Libraries/STM32F4xx_StdPeriph_Driver/src/stm32f4xx_tim.c **** 
1767:../Shared/Libraries/STM32F4xx_StdPeriph_Driver/src/stm32f4xx_tim.c ****   /* Write to TIMx CCER register */
1768:../Shared/Libraries/STM32F4xx_StdPeriph_Driver/src/stm32f4xx_tim.c ****   TIMx->CCER = tmpccer;
 3891              		.loc 1 1768 14
 3892 002a 7B68     		ldr	r3, [r7, #4]
 3893 002c FA89     		ldrh	r2, [r7, #14]	@ movhi
 3894 002e 1A84     		strh	r2, [r3, #32]	@ movhi
1769:../Shared/Libraries/STM32F4xx_StdPeriph_Driver/src/stm32f4xx_tim.c **** }
 3895              		.loc 1 1769 1
 3896 0030 00BF     		nop
 3897 0032 1437     		adds	r7, r7, #20
 3898              	.LCFI284:
 3899              		.cfi_def_cfa_offset 4
 3900 0034 BD46     		mov	sp, r7
 3901              	.LCFI285:
 3902              		.cfi_def_cfa_register 13
 3903              		@ sp needed
 3904 0036 5DF8047B 		ldr	r7, [sp], #4
 3905              	.LCFI286:
 3906              		.cfi_restore 7
 3907              		.cfi_def_cfa_offset 0
 3908 003a 7047     		bx	lr
 3909              		.cfi_endproc
 3910              	.LFE157:
 3912              		.section	.text.TIM_CCxCmd,"ax",%progbits
 3913              		.align	1
 3914              		.global	TIM_CCxCmd
 3915              		.syntax unified
 3916              		.thumb
 3917              		.thumb_func
 3919              	TIM_CCxCmd:
 3920              	.LFB158:
1770:../Shared/Libraries/STM32F4xx_StdPeriph_Driver/src/stm32f4xx_tim.c **** 
1771:../Shared/Libraries/STM32F4xx_StdPeriph_Driver/src/stm32f4xx_tim.c **** /**
1772:../Shared/Libraries/STM32F4xx_StdPeriph_Driver/src/stm32f4xx_tim.c ****   * @brief  Enables or disables the TIM Capture Compare Channel x.
1773:../Shared/Libraries/STM32F4xx_StdPeriph_Driver/src/stm32f4xx_tim.c ****   * @param  TIMx: where x can be 1 to 14 except 6 and 7, to select the TIM peripheral.
ARM GAS  /tmp/cc2zcHeL.s 			page 100


1774:../Shared/Libraries/STM32F4xx_StdPeriph_Driver/src/stm32f4xx_tim.c ****   * @param  TIM_Channel: specifies the TIM Channel
1775:../Shared/Libraries/STM32F4xx_StdPeriph_Driver/src/stm32f4xx_tim.c ****   *          This parameter can be one of the following values:
1776:../Shared/Libraries/STM32F4xx_StdPeriph_Driver/src/stm32f4xx_tim.c ****   *            @arg TIM_Channel_1: TIM Channel 1
1777:../Shared/Libraries/STM32F4xx_StdPeriph_Driver/src/stm32f4xx_tim.c ****   *            @arg TIM_Channel_2: TIM Channel 2
1778:../Shared/Libraries/STM32F4xx_StdPeriph_Driver/src/stm32f4xx_tim.c ****   *            @arg TIM_Channel_3: TIM Channel 3
1779:../Shared/Libraries/STM32F4xx_StdPeriph_Driver/src/stm32f4xx_tim.c ****   *            @arg TIM_Channel_4: TIM Channel 4
1780:../Shared/Libraries/STM32F4xx_StdPeriph_Driver/src/stm32f4xx_tim.c ****   * @param  TIM_CCx: specifies the TIM Channel CCxE bit new state.
1781:../Shared/Libraries/STM32F4xx_StdPeriph_Driver/src/stm32f4xx_tim.c ****   *          This parameter can be: TIM_CCx_Enable or TIM_CCx_Disable. 
1782:../Shared/Libraries/STM32F4xx_StdPeriph_Driver/src/stm32f4xx_tim.c ****   * @retval None
1783:../Shared/Libraries/STM32F4xx_StdPeriph_Driver/src/stm32f4xx_tim.c ****   */
1784:../Shared/Libraries/STM32F4xx_StdPeriph_Driver/src/stm32f4xx_tim.c **** void TIM_CCxCmd(TIM_TypeDef* TIMx, uint16_t TIM_Channel, uint16_t TIM_CCx)
1785:../Shared/Libraries/STM32F4xx_StdPeriph_Driver/src/stm32f4xx_tim.c **** {
 3921              		.loc 1 1785 1
 3922              		.cfi_startproc
 3923              		@ args = 0, pretend = 0, frame = 16
 3924              		@ frame_needed = 1, uses_anonymous_args = 0
 3925              		@ link register save eliminated.
 3926 0000 80B4     		push	{r7}
 3927              	.LCFI287:
 3928              		.cfi_def_cfa_offset 4
 3929              		.cfi_offset 7, -4
 3930 0002 85B0     		sub	sp, sp, #20
 3931              	.LCFI288:
 3932              		.cfi_def_cfa_offset 24
 3933 0004 00AF     		add	r7, sp, #0
 3934              	.LCFI289:
 3935              		.cfi_def_cfa_register 7
 3936 0006 7860     		str	r0, [r7, #4]
 3937 0008 0B46     		mov	r3, r1
 3938 000a 7B80     		strh	r3, [r7, #2]	@ movhi
 3939 000c 1346     		mov	r3, r2	@ movhi
 3940 000e 3B80     		strh	r3, [r7]	@ movhi
1786:../Shared/Libraries/STM32F4xx_StdPeriph_Driver/src/stm32f4xx_tim.c ****   uint16_t tmp = 0;
 3941              		.loc 1 1786 12
 3942 0010 0023     		movs	r3, #0
 3943 0012 FB81     		strh	r3, [r7, #14]	@ movhi
1787:../Shared/Libraries/STM32F4xx_StdPeriph_Driver/src/stm32f4xx_tim.c **** 
1788:../Shared/Libraries/STM32F4xx_StdPeriph_Driver/src/stm32f4xx_tim.c ****   /* Check the parameters */
1789:../Shared/Libraries/STM32F4xx_StdPeriph_Driver/src/stm32f4xx_tim.c ****   assert_param(IS_TIM_LIST1_PERIPH(TIMx)); 
1790:../Shared/Libraries/STM32F4xx_StdPeriph_Driver/src/stm32f4xx_tim.c ****   assert_param(IS_TIM_CHANNEL(TIM_Channel));
1791:../Shared/Libraries/STM32F4xx_StdPeriph_Driver/src/stm32f4xx_tim.c ****   assert_param(IS_TIM_CCX(TIM_CCx));
1792:../Shared/Libraries/STM32F4xx_StdPeriph_Driver/src/stm32f4xx_tim.c **** 
1793:../Shared/Libraries/STM32F4xx_StdPeriph_Driver/src/stm32f4xx_tim.c ****   tmp = CCER_CCE_SET << TIM_Channel;
 3944              		.loc 1 1793 22
 3945 0014 7B88     		ldrh	r3, [r7, #2]
 3946 0016 0122     		movs	r2, #1
 3947 0018 02FA03F3 		lsl	r3, r2, r3
 3948              		.loc 1 1793 7
 3949 001c FB81     		strh	r3, [r7, #14]	@ movhi
1794:../Shared/Libraries/STM32F4xx_StdPeriph_Driver/src/stm32f4xx_tim.c **** 
1795:../Shared/Libraries/STM32F4xx_StdPeriph_Driver/src/stm32f4xx_tim.c ****   /* Reset the CCxE Bit */
1796:../Shared/Libraries/STM32F4xx_StdPeriph_Driver/src/stm32f4xx_tim.c ****   TIMx->CCER &= (uint16_t)~ tmp;
 3950              		.loc 1 1796 7
 3951 001e 7B68     		ldr	r3, [r7, #4]
 3952 0020 1B8C     		ldrh	r3, [r3, #32]	@ movhi
 3953 0022 9AB2     		uxth	r2, r3
 3954              		.loc 1 1796 17
ARM GAS  /tmp/cc2zcHeL.s 			page 101


 3955 0024 FB89     		ldrh	r3, [r7, #14]	@ movhi
 3956 0026 DB43     		mvns	r3, r3
 3957 0028 9BB2     		uxth	r3, r3
 3958              		.loc 1 1796 14
 3959 002a 1340     		ands	r3, r3, r2
 3960 002c 9AB2     		uxth	r2, r3
 3961 002e 7B68     		ldr	r3, [r7, #4]
 3962 0030 1A84     		strh	r2, [r3, #32]	@ movhi
1797:../Shared/Libraries/STM32F4xx_StdPeriph_Driver/src/stm32f4xx_tim.c **** 
1798:../Shared/Libraries/STM32F4xx_StdPeriph_Driver/src/stm32f4xx_tim.c ****   /* Set or reset the CCxE Bit */ 
1799:../Shared/Libraries/STM32F4xx_StdPeriph_Driver/src/stm32f4xx_tim.c ****   TIMx->CCER |=  (uint16_t)(TIM_CCx << TIM_Channel);
 3963              		.loc 1 1799 7
 3964 0032 7B68     		ldr	r3, [r7, #4]
 3965 0034 1B8C     		ldrh	r3, [r3, #32]	@ movhi
 3966 0036 9AB2     		uxth	r2, r3
 3967              		.loc 1 1799 37
 3968 0038 3988     		ldrh	r1, [r7]
 3969 003a 7B88     		ldrh	r3, [r7, #2]
 3970 003c 01FA03F3 		lsl	r3, r1, r3
 3971              		.loc 1 1799 18
 3972 0040 9BB2     		uxth	r3, r3
 3973              		.loc 1 1799 14
 3974 0042 1343     		orrs	r3, r3, r2
 3975 0044 9AB2     		uxth	r2, r3
 3976 0046 7B68     		ldr	r3, [r7, #4]
 3977 0048 1A84     		strh	r2, [r3, #32]	@ movhi
1800:../Shared/Libraries/STM32F4xx_StdPeriph_Driver/src/stm32f4xx_tim.c **** }
 3978              		.loc 1 1800 1
 3979 004a 00BF     		nop
 3980 004c 1437     		adds	r7, r7, #20
 3981              	.LCFI290:
 3982              		.cfi_def_cfa_offset 4
 3983 004e BD46     		mov	sp, r7
 3984              	.LCFI291:
 3985              		.cfi_def_cfa_register 13
 3986              		@ sp needed
 3987 0050 5DF8047B 		ldr	r7, [sp], #4
 3988              	.LCFI292:
 3989              		.cfi_restore 7
 3990              		.cfi_def_cfa_offset 0
 3991 0054 7047     		bx	lr
 3992              		.cfi_endproc
 3993              	.LFE158:
 3995              		.section	.text.TIM_CCxNCmd,"ax",%progbits
 3996              		.align	1
 3997              		.global	TIM_CCxNCmd
 3998              		.syntax unified
 3999              		.thumb
 4000              		.thumb_func
 4002              	TIM_CCxNCmd:
 4003              	.LFB159:
1801:../Shared/Libraries/STM32F4xx_StdPeriph_Driver/src/stm32f4xx_tim.c **** 
1802:../Shared/Libraries/STM32F4xx_StdPeriph_Driver/src/stm32f4xx_tim.c **** /**
1803:../Shared/Libraries/STM32F4xx_StdPeriph_Driver/src/stm32f4xx_tim.c ****   * @brief  Enables or disables the TIM Capture Compare Channel xN.
1804:../Shared/Libraries/STM32F4xx_StdPeriph_Driver/src/stm32f4xx_tim.c ****   * @param  TIMx: where x can be 1 or 8 to select the TIM peripheral.
1805:../Shared/Libraries/STM32F4xx_StdPeriph_Driver/src/stm32f4xx_tim.c ****   * @param  TIM_Channel: specifies the TIM Channel
1806:../Shared/Libraries/STM32F4xx_StdPeriph_Driver/src/stm32f4xx_tim.c ****   *          This parameter can be one of the following values:
ARM GAS  /tmp/cc2zcHeL.s 			page 102


1807:../Shared/Libraries/STM32F4xx_StdPeriph_Driver/src/stm32f4xx_tim.c ****   *            @arg TIM_Channel_1: TIM Channel 1
1808:../Shared/Libraries/STM32F4xx_StdPeriph_Driver/src/stm32f4xx_tim.c ****   *            @arg TIM_Channel_2: TIM Channel 2
1809:../Shared/Libraries/STM32F4xx_StdPeriph_Driver/src/stm32f4xx_tim.c ****   *            @arg TIM_Channel_3: TIM Channel 3
1810:../Shared/Libraries/STM32F4xx_StdPeriph_Driver/src/stm32f4xx_tim.c ****   * @param  TIM_CCxN: specifies the TIM Channel CCxNE bit new state.
1811:../Shared/Libraries/STM32F4xx_StdPeriph_Driver/src/stm32f4xx_tim.c ****   *          This parameter can be: TIM_CCxN_Enable or TIM_CCxN_Disable. 
1812:../Shared/Libraries/STM32F4xx_StdPeriph_Driver/src/stm32f4xx_tim.c ****   * @retval None
1813:../Shared/Libraries/STM32F4xx_StdPeriph_Driver/src/stm32f4xx_tim.c ****   */
1814:../Shared/Libraries/STM32F4xx_StdPeriph_Driver/src/stm32f4xx_tim.c **** void TIM_CCxNCmd(TIM_TypeDef* TIMx, uint16_t TIM_Channel, uint16_t TIM_CCxN)
1815:../Shared/Libraries/STM32F4xx_StdPeriph_Driver/src/stm32f4xx_tim.c **** {
 4004              		.loc 1 1815 1
 4005              		.cfi_startproc
 4006              		@ args = 0, pretend = 0, frame = 16
 4007              		@ frame_needed = 1, uses_anonymous_args = 0
 4008              		@ link register save eliminated.
 4009 0000 80B4     		push	{r7}
 4010              	.LCFI293:
 4011              		.cfi_def_cfa_offset 4
 4012              		.cfi_offset 7, -4
 4013 0002 85B0     		sub	sp, sp, #20
 4014              	.LCFI294:
 4015              		.cfi_def_cfa_offset 24
 4016 0004 00AF     		add	r7, sp, #0
 4017              	.LCFI295:
 4018              		.cfi_def_cfa_register 7
 4019 0006 7860     		str	r0, [r7, #4]
 4020 0008 0B46     		mov	r3, r1
 4021 000a 7B80     		strh	r3, [r7, #2]	@ movhi
 4022 000c 1346     		mov	r3, r2	@ movhi
 4023 000e 3B80     		strh	r3, [r7]	@ movhi
1816:../Shared/Libraries/STM32F4xx_StdPeriph_Driver/src/stm32f4xx_tim.c ****   uint16_t tmp = 0;
 4024              		.loc 1 1816 12
 4025 0010 0023     		movs	r3, #0
 4026 0012 FB81     		strh	r3, [r7, #14]	@ movhi
1817:../Shared/Libraries/STM32F4xx_StdPeriph_Driver/src/stm32f4xx_tim.c **** 
1818:../Shared/Libraries/STM32F4xx_StdPeriph_Driver/src/stm32f4xx_tim.c ****   /* Check the parameters */
1819:../Shared/Libraries/STM32F4xx_StdPeriph_Driver/src/stm32f4xx_tim.c ****   assert_param(IS_TIM_LIST4_PERIPH(TIMx));
1820:../Shared/Libraries/STM32F4xx_StdPeriph_Driver/src/stm32f4xx_tim.c ****   assert_param(IS_TIM_COMPLEMENTARY_CHANNEL(TIM_Channel));
1821:../Shared/Libraries/STM32F4xx_StdPeriph_Driver/src/stm32f4xx_tim.c ****   assert_param(IS_TIM_CCXN(TIM_CCxN));
1822:../Shared/Libraries/STM32F4xx_StdPeriph_Driver/src/stm32f4xx_tim.c **** 
1823:../Shared/Libraries/STM32F4xx_StdPeriph_Driver/src/stm32f4xx_tim.c ****   tmp = CCER_CCNE_SET << TIM_Channel;
 4027              		.loc 1 1823 23
 4028 0014 7B88     		ldrh	r3, [r7, #2]
 4029 0016 0422     		movs	r2, #4
 4030 0018 02FA03F3 		lsl	r3, r2, r3
 4031              		.loc 1 1823 7
 4032 001c FB81     		strh	r3, [r7, #14]	@ movhi
1824:../Shared/Libraries/STM32F4xx_StdPeriph_Driver/src/stm32f4xx_tim.c **** 
1825:../Shared/Libraries/STM32F4xx_StdPeriph_Driver/src/stm32f4xx_tim.c ****   /* Reset the CCxNE Bit */
1826:../Shared/Libraries/STM32F4xx_StdPeriph_Driver/src/stm32f4xx_tim.c ****   TIMx->CCER &= (uint16_t) ~tmp;
 4033              		.loc 1 1826 7
 4034 001e 7B68     		ldr	r3, [r7, #4]
 4035 0020 1B8C     		ldrh	r3, [r3, #32]	@ movhi
 4036 0022 9AB2     		uxth	r2, r3
 4037              		.loc 1 1826 17
 4038 0024 FB89     		ldrh	r3, [r7, #14]	@ movhi
 4039 0026 DB43     		mvns	r3, r3
 4040 0028 9BB2     		uxth	r3, r3
ARM GAS  /tmp/cc2zcHeL.s 			page 103


 4041              		.loc 1 1826 14
 4042 002a 1340     		ands	r3, r3, r2
 4043 002c 9AB2     		uxth	r2, r3
 4044 002e 7B68     		ldr	r3, [r7, #4]
 4045 0030 1A84     		strh	r2, [r3, #32]	@ movhi
1827:../Shared/Libraries/STM32F4xx_StdPeriph_Driver/src/stm32f4xx_tim.c **** 
1828:../Shared/Libraries/STM32F4xx_StdPeriph_Driver/src/stm32f4xx_tim.c ****   /* Set or reset the CCxNE Bit */ 
1829:../Shared/Libraries/STM32F4xx_StdPeriph_Driver/src/stm32f4xx_tim.c ****   TIMx->CCER |=  (uint16_t)(TIM_CCxN << TIM_Channel);
 4046              		.loc 1 1829 7
 4047 0032 7B68     		ldr	r3, [r7, #4]
 4048 0034 1B8C     		ldrh	r3, [r3, #32]	@ movhi
 4049 0036 9AB2     		uxth	r2, r3
 4050              		.loc 1 1829 38
 4051 0038 3988     		ldrh	r1, [r7]
 4052 003a 7B88     		ldrh	r3, [r7, #2]
 4053 003c 01FA03F3 		lsl	r3, r1, r3
 4054              		.loc 1 1829 18
 4055 0040 9BB2     		uxth	r3, r3
 4056              		.loc 1 1829 14
 4057 0042 1343     		orrs	r3, r3, r2
 4058 0044 9AB2     		uxth	r2, r3
 4059 0046 7B68     		ldr	r3, [r7, #4]
 4060 0048 1A84     		strh	r2, [r3, #32]	@ movhi
1830:../Shared/Libraries/STM32F4xx_StdPeriph_Driver/src/stm32f4xx_tim.c **** }
 4061              		.loc 1 1830 1
 4062 004a 00BF     		nop
 4063 004c 1437     		adds	r7, r7, #20
 4064              	.LCFI296:
 4065              		.cfi_def_cfa_offset 4
 4066 004e BD46     		mov	sp, r7
 4067              	.LCFI297:
 4068              		.cfi_def_cfa_register 13
 4069              		@ sp needed
 4070 0050 5DF8047B 		ldr	r7, [sp], #4
 4071              	.LCFI298:
 4072              		.cfi_restore 7
 4073              		.cfi_def_cfa_offset 0
 4074 0054 7047     		bx	lr
 4075              		.cfi_endproc
 4076              	.LFE159:
 4078              		.section	.text.TIM_ICInit,"ax",%progbits
 4079              		.align	1
 4080              		.global	TIM_ICInit
 4081              		.syntax unified
 4082              		.thumb
 4083              		.thumb_func
 4085              	TIM_ICInit:
 4086              	.LFB160:
1831:../Shared/Libraries/STM32F4xx_StdPeriph_Driver/src/stm32f4xx_tim.c **** /**
1832:../Shared/Libraries/STM32F4xx_StdPeriph_Driver/src/stm32f4xx_tim.c ****   * @}
1833:../Shared/Libraries/STM32F4xx_StdPeriph_Driver/src/stm32f4xx_tim.c ****   */
1834:../Shared/Libraries/STM32F4xx_StdPeriph_Driver/src/stm32f4xx_tim.c **** 
1835:../Shared/Libraries/STM32F4xx_StdPeriph_Driver/src/stm32f4xx_tim.c **** /** @defgroup TIM_Group3 Input Capture management functions
1836:../Shared/Libraries/STM32F4xx_StdPeriph_Driver/src/stm32f4xx_tim.c ****  *  @brief    Input Capture management functions 
1837:../Shared/Libraries/STM32F4xx_StdPeriph_Driver/src/stm32f4xx_tim.c ****  *
1838:../Shared/Libraries/STM32F4xx_StdPeriph_Driver/src/stm32f4xx_tim.c **** @verbatim   
1839:../Shared/Libraries/STM32F4xx_StdPeriph_Driver/src/stm32f4xx_tim.c ****  ===============================================================================
ARM GAS  /tmp/cc2zcHeL.s 			page 104


1840:../Shared/Libraries/STM32F4xx_StdPeriph_Driver/src/stm32f4xx_tim.c ****                       Input Capture management functions
1841:../Shared/Libraries/STM32F4xx_StdPeriph_Driver/src/stm32f4xx_tim.c ****  ===============================================================================  
1842:../Shared/Libraries/STM32F4xx_StdPeriph_Driver/src/stm32f4xx_tim.c ****    
1843:../Shared/Libraries/STM32F4xx_StdPeriph_Driver/src/stm32f4xx_tim.c ****        ===================================================================      
1844:../Shared/Libraries/STM32F4xx_StdPeriph_Driver/src/stm32f4xx_tim.c ****               TIM Driver: how to use it in Input Capture Mode
1845:../Shared/Libraries/STM32F4xx_StdPeriph_Driver/src/stm32f4xx_tim.c ****        =================================================================== 
1846:../Shared/Libraries/STM32F4xx_StdPeriph_Driver/src/stm32f4xx_tim.c ****        To use the Timer in Input Capture mode, the following steps are mandatory:
1847:../Shared/Libraries/STM32F4xx_StdPeriph_Driver/src/stm32f4xx_tim.c ****        
1848:../Shared/Libraries/STM32F4xx_StdPeriph_Driver/src/stm32f4xx_tim.c ****        1. Enable TIM clock using RCC_APBxPeriphClockCmd(RCC_APBxPeriph_TIMx, ENABLE) function
1849:../Shared/Libraries/STM32F4xx_StdPeriph_Driver/src/stm32f4xx_tim.c ****        
1850:../Shared/Libraries/STM32F4xx_StdPeriph_Driver/src/stm32f4xx_tim.c ****        2. Configure the TIM pins by configuring the corresponding GPIO pins
1851:../Shared/Libraries/STM32F4xx_StdPeriph_Driver/src/stm32f4xx_tim.c ****        
1852:../Shared/Libraries/STM32F4xx_StdPeriph_Driver/src/stm32f4xx_tim.c ****        2. Configure the Time base unit as described in the first part of this driver,
1853:../Shared/Libraries/STM32F4xx_StdPeriph_Driver/src/stm32f4xx_tim.c ****           if needed, else the Timer will run with the default configuration:
1854:../Shared/Libraries/STM32F4xx_StdPeriph_Driver/src/stm32f4xx_tim.c ****           - Autoreload value = 0xFFFF
1855:../Shared/Libraries/STM32F4xx_StdPeriph_Driver/src/stm32f4xx_tim.c ****           - Prescaler value = 0x0000
1856:../Shared/Libraries/STM32F4xx_StdPeriph_Driver/src/stm32f4xx_tim.c ****           - Counter mode = Up counting
1857:../Shared/Libraries/STM32F4xx_StdPeriph_Driver/src/stm32f4xx_tim.c ****           - Clock Division = TIM_CKD_DIV1
1858:../Shared/Libraries/STM32F4xx_StdPeriph_Driver/src/stm32f4xx_tim.c ****           
1859:../Shared/Libraries/STM32F4xx_StdPeriph_Driver/src/stm32f4xx_tim.c ****        3. Fill the TIM_ICInitStruct with the desired parameters including:
1860:../Shared/Libraries/STM32F4xx_StdPeriph_Driver/src/stm32f4xx_tim.c ****           - TIM Channel: TIM_Channel
1861:../Shared/Libraries/STM32F4xx_StdPeriph_Driver/src/stm32f4xx_tim.c ****           - TIM Input Capture polarity: TIM_ICPolarity
1862:../Shared/Libraries/STM32F4xx_StdPeriph_Driver/src/stm32f4xx_tim.c ****           - TIM Input Capture selection: TIM_ICSelection
1863:../Shared/Libraries/STM32F4xx_StdPeriph_Driver/src/stm32f4xx_tim.c ****           - TIM Input Capture Prescaler: TIM_ICPrescaler
1864:../Shared/Libraries/STM32F4xx_StdPeriph_Driver/src/stm32f4xx_tim.c ****           - TIM Input CApture filter value: TIM_ICFilter
1865:../Shared/Libraries/STM32F4xx_StdPeriph_Driver/src/stm32f4xx_tim.c ****        
1866:../Shared/Libraries/STM32F4xx_StdPeriph_Driver/src/stm32f4xx_tim.c ****        4. Call TIM_ICInit(TIMx, &TIM_ICInitStruct) to configure the desired channel with the 
1867:../Shared/Libraries/STM32F4xx_StdPeriph_Driver/src/stm32f4xx_tim.c ****           corresponding configuration and to measure only frequency or duty cycle of the input sign
1868:../Shared/Libraries/STM32F4xx_StdPeriph_Driver/src/stm32f4xx_tim.c ****           or,
1869:../Shared/Libraries/STM32F4xx_StdPeriph_Driver/src/stm32f4xx_tim.c ****           Call TIM_PWMIConfig(TIMx, &TIM_ICInitStruct) to configure the desired channels with the 
1870:../Shared/Libraries/STM32F4xx_StdPeriph_Driver/src/stm32f4xx_tim.c ****           corresponding configuration and to measure the frequency and the duty cycle of the input 
1871:../Shared/Libraries/STM32F4xx_StdPeriph_Driver/src/stm32f4xx_tim.c ****           
1872:../Shared/Libraries/STM32F4xx_StdPeriph_Driver/src/stm32f4xx_tim.c ****        5. Enable the NVIC or the DMA to read the measured frequency. 
1873:../Shared/Libraries/STM32F4xx_StdPeriph_Driver/src/stm32f4xx_tim.c ****           
1874:../Shared/Libraries/STM32F4xx_StdPeriph_Driver/src/stm32f4xx_tim.c ****        6. Enable the corresponding interrupt (or DMA request) to read the Captured value,
1875:../Shared/Libraries/STM32F4xx_StdPeriph_Driver/src/stm32f4xx_tim.c ****           using the function TIM_ITConfig(TIMx, TIM_IT_CCx) (or TIM_DMA_Cmd(TIMx, TIM_DMA_CCx)) 
1876:../Shared/Libraries/STM32F4xx_StdPeriph_Driver/src/stm32f4xx_tim.c ****        
1877:../Shared/Libraries/STM32F4xx_StdPeriph_Driver/src/stm32f4xx_tim.c ****        7. Call the TIM_Cmd(ENABLE) function to enable the TIM counter.
1878:../Shared/Libraries/STM32F4xx_StdPeriph_Driver/src/stm32f4xx_tim.c ****        
1879:../Shared/Libraries/STM32F4xx_StdPeriph_Driver/src/stm32f4xx_tim.c ****        8. Use TIM_GetCapturex(TIMx); to read the captured value.
1880:../Shared/Libraries/STM32F4xx_StdPeriph_Driver/src/stm32f4xx_tim.c ****        
1881:../Shared/Libraries/STM32F4xx_StdPeriph_Driver/src/stm32f4xx_tim.c ****        Note1: All other functions can be used separately to modify, if needed,
1882:../Shared/Libraries/STM32F4xx_StdPeriph_Driver/src/stm32f4xx_tim.c ****               a specific feature of the Timer. 
1883:../Shared/Libraries/STM32F4xx_StdPeriph_Driver/src/stm32f4xx_tim.c **** 
1884:../Shared/Libraries/STM32F4xx_StdPeriph_Driver/src/stm32f4xx_tim.c **** @endverbatim
1885:../Shared/Libraries/STM32F4xx_StdPeriph_Driver/src/stm32f4xx_tim.c ****   * @{
1886:../Shared/Libraries/STM32F4xx_StdPeriph_Driver/src/stm32f4xx_tim.c ****   */
1887:../Shared/Libraries/STM32F4xx_StdPeriph_Driver/src/stm32f4xx_tim.c **** 
1888:../Shared/Libraries/STM32F4xx_StdPeriph_Driver/src/stm32f4xx_tim.c **** /**
1889:../Shared/Libraries/STM32F4xx_StdPeriph_Driver/src/stm32f4xx_tim.c ****   * @brief  Initializes the TIM peripheral according to the specified parameters
1890:../Shared/Libraries/STM32F4xx_StdPeriph_Driver/src/stm32f4xx_tim.c ****   *         in the TIM_ICInitStruct.
1891:../Shared/Libraries/STM32F4xx_StdPeriph_Driver/src/stm32f4xx_tim.c ****   * @param  TIMx: where x can be 1 to 14 except 6 and 7, to select the TIM peripheral.
1892:../Shared/Libraries/STM32F4xx_StdPeriph_Driver/src/stm32f4xx_tim.c ****   * @param  TIM_ICInitStruct: pointer to a TIM_ICInitTypeDef structure that contains
1893:../Shared/Libraries/STM32F4xx_StdPeriph_Driver/src/stm32f4xx_tim.c ****   *         the configuration information for the specified TIM peripheral.
1894:../Shared/Libraries/STM32F4xx_StdPeriph_Driver/src/stm32f4xx_tim.c ****   * @retval None
1895:../Shared/Libraries/STM32F4xx_StdPeriph_Driver/src/stm32f4xx_tim.c ****   */
1896:../Shared/Libraries/STM32F4xx_StdPeriph_Driver/src/stm32f4xx_tim.c **** void TIM_ICInit(TIM_TypeDef* TIMx, TIM_ICInitTypeDef* TIM_ICInitStruct)
ARM GAS  /tmp/cc2zcHeL.s 			page 105


1897:../Shared/Libraries/STM32F4xx_StdPeriph_Driver/src/stm32f4xx_tim.c **** {
 4087              		.loc 1 1897 1
 4088              		.cfi_startproc
 4089              		@ args = 0, pretend = 0, frame = 8
 4090              		@ frame_needed = 1, uses_anonymous_args = 0
 4091 0000 80B5     		push	{r7, lr}
 4092              	.LCFI299:
 4093              		.cfi_def_cfa_offset 8
 4094              		.cfi_offset 7, -8
 4095              		.cfi_offset 14, -4
 4096 0002 82B0     		sub	sp, sp, #8
 4097              	.LCFI300:
 4098              		.cfi_def_cfa_offset 16
 4099 0004 00AF     		add	r7, sp, #0
 4100              	.LCFI301:
 4101              		.cfi_def_cfa_register 7
 4102 0006 7860     		str	r0, [r7, #4]
 4103 0008 3960     		str	r1, [r7]
1898:../Shared/Libraries/STM32F4xx_StdPeriph_Driver/src/stm32f4xx_tim.c ****   /* Check the parameters */
1899:../Shared/Libraries/STM32F4xx_StdPeriph_Driver/src/stm32f4xx_tim.c ****   assert_param(IS_TIM_LIST1_PERIPH(TIMx));
1900:../Shared/Libraries/STM32F4xx_StdPeriph_Driver/src/stm32f4xx_tim.c ****   assert_param(IS_TIM_IC_POLARITY(TIM_ICInitStruct->TIM_ICPolarity));
1901:../Shared/Libraries/STM32F4xx_StdPeriph_Driver/src/stm32f4xx_tim.c ****   assert_param(IS_TIM_IC_SELECTION(TIM_ICInitStruct->TIM_ICSelection));
1902:../Shared/Libraries/STM32F4xx_StdPeriph_Driver/src/stm32f4xx_tim.c ****   assert_param(IS_TIM_IC_PRESCALER(TIM_ICInitStruct->TIM_ICPrescaler));
1903:../Shared/Libraries/STM32F4xx_StdPeriph_Driver/src/stm32f4xx_tim.c ****   assert_param(IS_TIM_IC_FILTER(TIM_ICInitStruct->TIM_ICFilter));
1904:../Shared/Libraries/STM32F4xx_StdPeriph_Driver/src/stm32f4xx_tim.c ****   
1905:../Shared/Libraries/STM32F4xx_StdPeriph_Driver/src/stm32f4xx_tim.c ****   if (TIM_ICInitStruct->TIM_Channel == TIM_Channel_1)
 4104              		.loc 1 1905 23
 4105 000a 3B68     		ldr	r3, [r7]
 4106 000c 1B88     		ldrh	r3, [r3]
 4107              		.loc 1 1905 6
 4108 000e 002B     		cmp	r3, #0
 4109 0010 0FD1     		bne	.L109
1906:../Shared/Libraries/STM32F4xx_StdPeriph_Driver/src/stm32f4xx_tim.c ****   {
1907:../Shared/Libraries/STM32F4xx_StdPeriph_Driver/src/stm32f4xx_tim.c ****     /* TI1 Configuration */
1908:../Shared/Libraries/STM32F4xx_StdPeriph_Driver/src/stm32f4xx_tim.c ****     TI1_Config(TIMx, TIM_ICInitStruct->TIM_ICPolarity,
 4110              		.loc 1 1908 5
 4111 0012 3B68     		ldr	r3, [r7]
 4112 0014 5988     		ldrh	r1, [r3, #2]
 4113 0016 3B68     		ldr	r3, [r7]
 4114 0018 9A88     		ldrh	r2, [r3, #4]
 4115 001a 3B68     		ldr	r3, [r7]
 4116 001c 1B89     		ldrh	r3, [r3, #8]
 4117 001e 7868     		ldr	r0, [r7, #4]
 4118 0020 FFF7FEFF 		bl	TI1_Config
1909:../Shared/Libraries/STM32F4xx_StdPeriph_Driver/src/stm32f4xx_tim.c ****                TIM_ICInitStruct->TIM_ICSelection,
1910:../Shared/Libraries/STM32F4xx_StdPeriph_Driver/src/stm32f4xx_tim.c ****                TIM_ICInitStruct->TIM_ICFilter);
1911:../Shared/Libraries/STM32F4xx_StdPeriph_Driver/src/stm32f4xx_tim.c ****     /* Set the Input Capture Prescaler value */
1912:../Shared/Libraries/STM32F4xx_StdPeriph_Driver/src/stm32f4xx_tim.c ****     TIM_SetIC1Prescaler(TIMx, TIM_ICInitStruct->TIM_ICPrescaler);
 4119              		.loc 1 1912 5
 4120 0024 3B68     		ldr	r3, [r7]
 4121 0026 DB88     		ldrh	r3, [r3, #6]
 4122 0028 1946     		mov	r1, r3
 4123 002a 7868     		ldr	r0, [r7, #4]
 4124 002c FFF7FEFF 		bl	TIM_SetIC1Prescaler
1913:../Shared/Libraries/STM32F4xx_StdPeriph_Driver/src/stm32f4xx_tim.c ****   }
1914:../Shared/Libraries/STM32F4xx_StdPeriph_Driver/src/stm32f4xx_tim.c ****   else if (TIM_ICInitStruct->TIM_Channel == TIM_Channel_2)
1915:../Shared/Libraries/STM32F4xx_StdPeriph_Driver/src/stm32f4xx_tim.c ****   {
ARM GAS  /tmp/cc2zcHeL.s 			page 106


1916:../Shared/Libraries/STM32F4xx_StdPeriph_Driver/src/stm32f4xx_tim.c ****     /* TI2 Configuration */
1917:../Shared/Libraries/STM32F4xx_StdPeriph_Driver/src/stm32f4xx_tim.c ****     assert_param(IS_TIM_LIST2_PERIPH(TIMx));
1918:../Shared/Libraries/STM32F4xx_StdPeriph_Driver/src/stm32f4xx_tim.c ****     TI2_Config(TIMx, TIM_ICInitStruct->TIM_ICPolarity,
1919:../Shared/Libraries/STM32F4xx_StdPeriph_Driver/src/stm32f4xx_tim.c ****                TIM_ICInitStruct->TIM_ICSelection,
1920:../Shared/Libraries/STM32F4xx_StdPeriph_Driver/src/stm32f4xx_tim.c ****                TIM_ICInitStruct->TIM_ICFilter);
1921:../Shared/Libraries/STM32F4xx_StdPeriph_Driver/src/stm32f4xx_tim.c ****     /* Set the Input Capture Prescaler value */
1922:../Shared/Libraries/STM32F4xx_StdPeriph_Driver/src/stm32f4xx_tim.c ****     TIM_SetIC2Prescaler(TIMx, TIM_ICInitStruct->TIM_ICPrescaler);
1923:../Shared/Libraries/STM32F4xx_StdPeriph_Driver/src/stm32f4xx_tim.c ****   }
1924:../Shared/Libraries/STM32F4xx_StdPeriph_Driver/src/stm32f4xx_tim.c ****   else if (TIM_ICInitStruct->TIM_Channel == TIM_Channel_3)
1925:../Shared/Libraries/STM32F4xx_StdPeriph_Driver/src/stm32f4xx_tim.c ****   {
1926:../Shared/Libraries/STM32F4xx_StdPeriph_Driver/src/stm32f4xx_tim.c ****     /* TI3 Configuration */
1927:../Shared/Libraries/STM32F4xx_StdPeriph_Driver/src/stm32f4xx_tim.c ****     assert_param(IS_TIM_LIST3_PERIPH(TIMx));
1928:../Shared/Libraries/STM32F4xx_StdPeriph_Driver/src/stm32f4xx_tim.c ****     TI3_Config(TIMx,  TIM_ICInitStruct->TIM_ICPolarity,
1929:../Shared/Libraries/STM32F4xx_StdPeriph_Driver/src/stm32f4xx_tim.c ****                TIM_ICInitStruct->TIM_ICSelection,
1930:../Shared/Libraries/STM32F4xx_StdPeriph_Driver/src/stm32f4xx_tim.c ****                TIM_ICInitStruct->TIM_ICFilter);
1931:../Shared/Libraries/STM32F4xx_StdPeriph_Driver/src/stm32f4xx_tim.c ****     /* Set the Input Capture Prescaler value */
1932:../Shared/Libraries/STM32F4xx_StdPeriph_Driver/src/stm32f4xx_tim.c ****     TIM_SetIC3Prescaler(TIMx, TIM_ICInitStruct->TIM_ICPrescaler);
1933:../Shared/Libraries/STM32F4xx_StdPeriph_Driver/src/stm32f4xx_tim.c ****   }
1934:../Shared/Libraries/STM32F4xx_StdPeriph_Driver/src/stm32f4xx_tim.c ****   else
1935:../Shared/Libraries/STM32F4xx_StdPeriph_Driver/src/stm32f4xx_tim.c ****   {
1936:../Shared/Libraries/STM32F4xx_StdPeriph_Driver/src/stm32f4xx_tim.c ****     /* TI4 Configuration */
1937:../Shared/Libraries/STM32F4xx_StdPeriph_Driver/src/stm32f4xx_tim.c ****     assert_param(IS_TIM_LIST3_PERIPH(TIMx));
1938:../Shared/Libraries/STM32F4xx_StdPeriph_Driver/src/stm32f4xx_tim.c ****     TI4_Config(TIMx, TIM_ICInitStruct->TIM_ICPolarity,
1939:../Shared/Libraries/STM32F4xx_StdPeriph_Driver/src/stm32f4xx_tim.c ****                TIM_ICInitStruct->TIM_ICSelection,
1940:../Shared/Libraries/STM32F4xx_StdPeriph_Driver/src/stm32f4xx_tim.c ****                TIM_ICInitStruct->TIM_ICFilter);
1941:../Shared/Libraries/STM32F4xx_StdPeriph_Driver/src/stm32f4xx_tim.c ****     /* Set the Input Capture Prescaler value */
1942:../Shared/Libraries/STM32F4xx_StdPeriph_Driver/src/stm32f4xx_tim.c ****     TIM_SetIC4Prescaler(TIMx, TIM_ICInitStruct->TIM_ICPrescaler);
1943:../Shared/Libraries/STM32F4xx_StdPeriph_Driver/src/stm32f4xx_tim.c ****   }
1944:../Shared/Libraries/STM32F4xx_StdPeriph_Driver/src/stm32f4xx_tim.c **** }
 4125              		.loc 1 1944 1
 4126 0030 36E0     		b	.L113
 4127              	.L109:
1914:../Shared/Libraries/STM32F4xx_StdPeriph_Driver/src/stm32f4xx_tim.c ****   {
 4128              		.loc 1 1914 28
 4129 0032 3B68     		ldr	r3, [r7]
 4130 0034 1B88     		ldrh	r3, [r3]
1914:../Shared/Libraries/STM32F4xx_StdPeriph_Driver/src/stm32f4xx_tim.c ****   {
 4131              		.loc 1 1914 11
 4132 0036 042B     		cmp	r3, #4
 4133 0038 0FD1     		bne	.L111
1918:../Shared/Libraries/STM32F4xx_StdPeriph_Driver/src/stm32f4xx_tim.c ****                TIM_ICInitStruct->TIM_ICSelection,
 4134              		.loc 1 1918 5
 4135 003a 3B68     		ldr	r3, [r7]
 4136 003c 5988     		ldrh	r1, [r3, #2]
 4137 003e 3B68     		ldr	r3, [r7]
 4138 0040 9A88     		ldrh	r2, [r3, #4]
 4139 0042 3B68     		ldr	r3, [r7]
 4140 0044 1B89     		ldrh	r3, [r3, #8]
 4141 0046 7868     		ldr	r0, [r7, #4]
 4142 0048 FFF7FEFF 		bl	TI2_Config
1922:../Shared/Libraries/STM32F4xx_StdPeriph_Driver/src/stm32f4xx_tim.c ****   }
 4143              		.loc 1 1922 5
 4144 004c 3B68     		ldr	r3, [r7]
 4145 004e DB88     		ldrh	r3, [r3, #6]
 4146 0050 1946     		mov	r1, r3
 4147 0052 7868     		ldr	r0, [r7, #4]
 4148 0054 FFF7FEFF 		bl	TIM_SetIC2Prescaler
ARM GAS  /tmp/cc2zcHeL.s 			page 107


 4149              		.loc 1 1944 1
 4150 0058 22E0     		b	.L113
 4151              	.L111:
1924:../Shared/Libraries/STM32F4xx_StdPeriph_Driver/src/stm32f4xx_tim.c ****   {
 4152              		.loc 1 1924 28
 4153 005a 3B68     		ldr	r3, [r7]
 4154 005c 1B88     		ldrh	r3, [r3]
1924:../Shared/Libraries/STM32F4xx_StdPeriph_Driver/src/stm32f4xx_tim.c ****   {
 4155              		.loc 1 1924 11
 4156 005e 082B     		cmp	r3, #8
 4157 0060 0FD1     		bne	.L112
1928:../Shared/Libraries/STM32F4xx_StdPeriph_Driver/src/stm32f4xx_tim.c ****                TIM_ICInitStruct->TIM_ICSelection,
 4158              		.loc 1 1928 5
 4159 0062 3B68     		ldr	r3, [r7]
 4160 0064 5988     		ldrh	r1, [r3, #2]
 4161 0066 3B68     		ldr	r3, [r7]
 4162 0068 9A88     		ldrh	r2, [r3, #4]
 4163 006a 3B68     		ldr	r3, [r7]
 4164 006c 1B89     		ldrh	r3, [r3, #8]
 4165 006e 7868     		ldr	r0, [r7, #4]
 4166 0070 FFF7FEFF 		bl	TI3_Config
1932:../Shared/Libraries/STM32F4xx_StdPeriph_Driver/src/stm32f4xx_tim.c ****   }
 4167              		.loc 1 1932 5
 4168 0074 3B68     		ldr	r3, [r7]
 4169 0076 DB88     		ldrh	r3, [r3, #6]
 4170 0078 1946     		mov	r1, r3
 4171 007a 7868     		ldr	r0, [r7, #4]
 4172 007c FFF7FEFF 		bl	TIM_SetIC3Prescaler
 4173              		.loc 1 1944 1
 4174 0080 0EE0     		b	.L113
 4175              	.L112:
1938:../Shared/Libraries/STM32F4xx_StdPeriph_Driver/src/stm32f4xx_tim.c ****                TIM_ICInitStruct->TIM_ICSelection,
 4176              		.loc 1 1938 5
 4177 0082 3B68     		ldr	r3, [r7]
 4178 0084 5988     		ldrh	r1, [r3, #2]
 4179 0086 3B68     		ldr	r3, [r7]
 4180 0088 9A88     		ldrh	r2, [r3, #4]
 4181 008a 3B68     		ldr	r3, [r7]
 4182 008c 1B89     		ldrh	r3, [r3, #8]
 4183 008e 7868     		ldr	r0, [r7, #4]
 4184 0090 FFF7FEFF 		bl	TI4_Config
1942:../Shared/Libraries/STM32F4xx_StdPeriph_Driver/src/stm32f4xx_tim.c ****   }
 4185              		.loc 1 1942 5
 4186 0094 3B68     		ldr	r3, [r7]
 4187 0096 DB88     		ldrh	r3, [r3, #6]
 4188 0098 1946     		mov	r1, r3
 4189 009a 7868     		ldr	r0, [r7, #4]
 4190 009c FFF7FEFF 		bl	TIM_SetIC4Prescaler
 4191              	.L113:
 4192              		.loc 1 1944 1
 4193 00a0 00BF     		nop
 4194 00a2 0837     		adds	r7, r7, #8
 4195              	.LCFI302:
 4196              		.cfi_def_cfa_offset 8
 4197 00a4 BD46     		mov	sp, r7
 4198              	.LCFI303:
 4199              		.cfi_def_cfa_register 13
ARM GAS  /tmp/cc2zcHeL.s 			page 108


 4200              		@ sp needed
 4201 00a6 80BD     		pop	{r7, pc}
 4202              		.cfi_endproc
 4203              	.LFE160:
 4205              		.section	.text.TIM_ICStructInit,"ax",%progbits
 4206              		.align	1
 4207              		.global	TIM_ICStructInit
 4208              		.syntax unified
 4209              		.thumb
 4210              		.thumb_func
 4212              	TIM_ICStructInit:
 4213              	.LFB161:
1945:../Shared/Libraries/STM32F4xx_StdPeriph_Driver/src/stm32f4xx_tim.c **** 
1946:../Shared/Libraries/STM32F4xx_StdPeriph_Driver/src/stm32f4xx_tim.c **** /**
1947:../Shared/Libraries/STM32F4xx_StdPeriph_Driver/src/stm32f4xx_tim.c ****   * @brief  Fills each TIM_ICInitStruct member with its default value.
1948:../Shared/Libraries/STM32F4xx_StdPeriph_Driver/src/stm32f4xx_tim.c ****   * @param  TIM_ICInitStruct: pointer to a TIM_ICInitTypeDef structure which will
1949:../Shared/Libraries/STM32F4xx_StdPeriph_Driver/src/stm32f4xx_tim.c ****   *         be initialized.
1950:../Shared/Libraries/STM32F4xx_StdPeriph_Driver/src/stm32f4xx_tim.c ****   * @retval None
1951:../Shared/Libraries/STM32F4xx_StdPeriph_Driver/src/stm32f4xx_tim.c ****   */
1952:../Shared/Libraries/STM32F4xx_StdPeriph_Driver/src/stm32f4xx_tim.c **** void TIM_ICStructInit(TIM_ICInitTypeDef* TIM_ICInitStruct)
1953:../Shared/Libraries/STM32F4xx_StdPeriph_Driver/src/stm32f4xx_tim.c **** {
 4214              		.loc 1 1953 1
 4215              		.cfi_startproc
 4216              		@ args = 0, pretend = 0, frame = 8
 4217              		@ frame_needed = 1, uses_anonymous_args = 0
 4218              		@ link register save eliminated.
 4219 0000 80B4     		push	{r7}
 4220              	.LCFI304:
 4221              		.cfi_def_cfa_offset 4
 4222              		.cfi_offset 7, -4
 4223 0002 83B0     		sub	sp, sp, #12
 4224              	.LCFI305:
 4225              		.cfi_def_cfa_offset 16
 4226 0004 00AF     		add	r7, sp, #0
 4227              	.LCFI306:
 4228              		.cfi_def_cfa_register 7
 4229 0006 7860     		str	r0, [r7, #4]
1954:../Shared/Libraries/STM32F4xx_StdPeriph_Driver/src/stm32f4xx_tim.c ****   /* Set the default configuration */
1955:../Shared/Libraries/STM32F4xx_StdPeriph_Driver/src/stm32f4xx_tim.c ****   TIM_ICInitStruct->TIM_Channel = TIM_Channel_1;
 4230              		.loc 1 1955 33
 4231 0008 7B68     		ldr	r3, [r7, #4]
 4232 000a 0022     		movs	r2, #0
 4233 000c 1A80     		strh	r2, [r3]	@ movhi
1956:../Shared/Libraries/STM32F4xx_StdPeriph_Driver/src/stm32f4xx_tim.c ****   TIM_ICInitStruct->TIM_ICPolarity = TIM_ICPolarity_Rising;
 4234              		.loc 1 1956 36
 4235 000e 7B68     		ldr	r3, [r7, #4]
 4236 0010 0022     		movs	r2, #0
 4237 0012 5A80     		strh	r2, [r3, #2]	@ movhi
1957:../Shared/Libraries/STM32F4xx_StdPeriph_Driver/src/stm32f4xx_tim.c ****   TIM_ICInitStruct->TIM_ICSelection = TIM_ICSelection_DirectTI;
 4238              		.loc 1 1957 37
 4239 0014 7B68     		ldr	r3, [r7, #4]
 4240 0016 0122     		movs	r2, #1
 4241 0018 9A80     		strh	r2, [r3, #4]	@ movhi
1958:../Shared/Libraries/STM32F4xx_StdPeriph_Driver/src/stm32f4xx_tim.c ****   TIM_ICInitStruct->TIM_ICPrescaler = TIM_ICPSC_DIV1;
 4242              		.loc 1 1958 37
 4243 001a 7B68     		ldr	r3, [r7, #4]
 4244 001c 0022     		movs	r2, #0
ARM GAS  /tmp/cc2zcHeL.s 			page 109


 4245 001e DA80     		strh	r2, [r3, #6]	@ movhi
1959:../Shared/Libraries/STM32F4xx_StdPeriph_Driver/src/stm32f4xx_tim.c ****   TIM_ICInitStruct->TIM_ICFilter = 0x00;
 4246              		.loc 1 1959 34
 4247 0020 7B68     		ldr	r3, [r7, #4]
 4248 0022 0022     		movs	r2, #0
 4249 0024 1A81     		strh	r2, [r3, #8]	@ movhi
1960:../Shared/Libraries/STM32F4xx_StdPeriph_Driver/src/stm32f4xx_tim.c **** }
 4250              		.loc 1 1960 1
 4251 0026 00BF     		nop
 4252 0028 0C37     		adds	r7, r7, #12
 4253              	.LCFI307:
 4254              		.cfi_def_cfa_offset 4
 4255 002a BD46     		mov	sp, r7
 4256              	.LCFI308:
 4257              		.cfi_def_cfa_register 13
 4258              		@ sp needed
 4259 002c 5DF8047B 		ldr	r7, [sp], #4
 4260              	.LCFI309:
 4261              		.cfi_restore 7
 4262              		.cfi_def_cfa_offset 0
 4263 0030 7047     		bx	lr
 4264              		.cfi_endproc
 4265              	.LFE161:
 4267              		.section	.text.TIM_PWMIConfig,"ax",%progbits
 4268              		.align	1
 4269              		.global	TIM_PWMIConfig
 4270              		.syntax unified
 4271              		.thumb
 4272              		.thumb_func
 4274              	TIM_PWMIConfig:
 4275              	.LFB162:
1961:../Shared/Libraries/STM32F4xx_StdPeriph_Driver/src/stm32f4xx_tim.c **** 
1962:../Shared/Libraries/STM32F4xx_StdPeriph_Driver/src/stm32f4xx_tim.c **** /**
1963:../Shared/Libraries/STM32F4xx_StdPeriph_Driver/src/stm32f4xx_tim.c ****   * @brief  Configures the TIM peripheral according to the specified parameters
1964:../Shared/Libraries/STM32F4xx_StdPeriph_Driver/src/stm32f4xx_tim.c ****   *         in the TIM_ICInitStruct to measure an external PWM signal.
1965:../Shared/Libraries/STM32F4xx_StdPeriph_Driver/src/stm32f4xx_tim.c ****   * @param  TIMx: where x can be  1, 2, 3, 4, 5,8, 9 or 12 to select the TIM 
1966:../Shared/Libraries/STM32F4xx_StdPeriph_Driver/src/stm32f4xx_tim.c ****   *         peripheral.
1967:../Shared/Libraries/STM32F4xx_StdPeriph_Driver/src/stm32f4xx_tim.c ****   * @param  TIM_ICInitStruct: pointer to a TIM_ICInitTypeDef structure that contains
1968:../Shared/Libraries/STM32F4xx_StdPeriph_Driver/src/stm32f4xx_tim.c ****   *         the configuration information for the specified TIM peripheral.
1969:../Shared/Libraries/STM32F4xx_StdPeriph_Driver/src/stm32f4xx_tim.c ****   * @retval None
1970:../Shared/Libraries/STM32F4xx_StdPeriph_Driver/src/stm32f4xx_tim.c ****   */
1971:../Shared/Libraries/STM32F4xx_StdPeriph_Driver/src/stm32f4xx_tim.c **** void TIM_PWMIConfig(TIM_TypeDef* TIMx, TIM_ICInitTypeDef* TIM_ICInitStruct)
1972:../Shared/Libraries/STM32F4xx_StdPeriph_Driver/src/stm32f4xx_tim.c **** {
 4276              		.loc 1 1972 1
 4277              		.cfi_startproc
 4278              		@ args = 0, pretend = 0, frame = 16
 4279              		@ frame_needed = 1, uses_anonymous_args = 0
 4280 0000 80B5     		push	{r7, lr}
 4281              	.LCFI310:
 4282              		.cfi_def_cfa_offset 8
 4283              		.cfi_offset 7, -8
 4284              		.cfi_offset 14, -4
 4285 0002 84B0     		sub	sp, sp, #16
 4286              	.LCFI311:
 4287              		.cfi_def_cfa_offset 24
 4288 0004 00AF     		add	r7, sp, #0
 4289              	.LCFI312:
ARM GAS  /tmp/cc2zcHeL.s 			page 110


 4290              		.cfi_def_cfa_register 7
 4291 0006 7860     		str	r0, [r7, #4]
 4292 0008 3960     		str	r1, [r7]
1973:../Shared/Libraries/STM32F4xx_StdPeriph_Driver/src/stm32f4xx_tim.c ****   uint16_t icoppositepolarity = TIM_ICPolarity_Rising;
 4293              		.loc 1 1973 12
 4294 000a 0023     		movs	r3, #0
 4295 000c FB81     		strh	r3, [r7, #14]	@ movhi
1974:../Shared/Libraries/STM32F4xx_StdPeriph_Driver/src/stm32f4xx_tim.c ****   uint16_t icoppositeselection = TIM_ICSelection_DirectTI;
 4296              		.loc 1 1974 12
 4297 000e 0123     		movs	r3, #1
 4298 0010 BB81     		strh	r3, [r7, #12]	@ movhi
1975:../Shared/Libraries/STM32F4xx_StdPeriph_Driver/src/stm32f4xx_tim.c **** 
1976:../Shared/Libraries/STM32F4xx_StdPeriph_Driver/src/stm32f4xx_tim.c ****   /* Check the parameters */
1977:../Shared/Libraries/STM32F4xx_StdPeriph_Driver/src/stm32f4xx_tim.c ****   assert_param(IS_TIM_LIST2_PERIPH(TIMx));
1978:../Shared/Libraries/STM32F4xx_StdPeriph_Driver/src/stm32f4xx_tim.c **** 
1979:../Shared/Libraries/STM32F4xx_StdPeriph_Driver/src/stm32f4xx_tim.c ****   /* Select the Opposite Input Polarity */
1980:../Shared/Libraries/STM32F4xx_StdPeriph_Driver/src/stm32f4xx_tim.c ****   if (TIM_ICInitStruct->TIM_ICPolarity == TIM_ICPolarity_Rising)
 4299              		.loc 1 1980 23
 4300 0012 3B68     		ldr	r3, [r7]
 4301 0014 5B88     		ldrh	r3, [r3, #2]
 4302              		.loc 1 1980 6
 4303 0016 002B     		cmp	r3, #0
 4304 0018 02D1     		bne	.L116
1981:../Shared/Libraries/STM32F4xx_StdPeriph_Driver/src/stm32f4xx_tim.c ****   {
1982:../Shared/Libraries/STM32F4xx_StdPeriph_Driver/src/stm32f4xx_tim.c ****     icoppositepolarity = TIM_ICPolarity_Falling;
 4305              		.loc 1 1982 24
 4306 001a 0223     		movs	r3, #2
 4307 001c FB81     		strh	r3, [r7, #14]	@ movhi
 4308 001e 01E0     		b	.L117
 4309              	.L116:
1983:../Shared/Libraries/STM32F4xx_StdPeriph_Driver/src/stm32f4xx_tim.c ****   }
1984:../Shared/Libraries/STM32F4xx_StdPeriph_Driver/src/stm32f4xx_tim.c ****   else
1985:../Shared/Libraries/STM32F4xx_StdPeriph_Driver/src/stm32f4xx_tim.c ****   {
1986:../Shared/Libraries/STM32F4xx_StdPeriph_Driver/src/stm32f4xx_tim.c ****     icoppositepolarity = TIM_ICPolarity_Rising;
 4310              		.loc 1 1986 24
 4311 0020 0023     		movs	r3, #0
 4312 0022 FB81     		strh	r3, [r7, #14]	@ movhi
 4313              	.L117:
1987:../Shared/Libraries/STM32F4xx_StdPeriph_Driver/src/stm32f4xx_tim.c ****   }
1988:../Shared/Libraries/STM32F4xx_StdPeriph_Driver/src/stm32f4xx_tim.c ****   /* Select the Opposite Input */
1989:../Shared/Libraries/STM32F4xx_StdPeriph_Driver/src/stm32f4xx_tim.c ****   if (TIM_ICInitStruct->TIM_ICSelection == TIM_ICSelection_DirectTI)
 4314              		.loc 1 1989 23
 4315 0024 3B68     		ldr	r3, [r7]
 4316 0026 9B88     		ldrh	r3, [r3, #4]
 4317              		.loc 1 1989 6
 4318 0028 012B     		cmp	r3, #1
 4319 002a 02D1     		bne	.L118
1990:../Shared/Libraries/STM32F4xx_StdPeriph_Driver/src/stm32f4xx_tim.c ****   {
1991:../Shared/Libraries/STM32F4xx_StdPeriph_Driver/src/stm32f4xx_tim.c ****     icoppositeselection = TIM_ICSelection_IndirectTI;
 4320              		.loc 1 1991 25
 4321 002c 0223     		movs	r3, #2
 4322 002e BB81     		strh	r3, [r7, #12]	@ movhi
 4323 0030 01E0     		b	.L119
 4324              	.L118:
1992:../Shared/Libraries/STM32F4xx_StdPeriph_Driver/src/stm32f4xx_tim.c ****   }
1993:../Shared/Libraries/STM32F4xx_StdPeriph_Driver/src/stm32f4xx_tim.c ****   else
1994:../Shared/Libraries/STM32F4xx_StdPeriph_Driver/src/stm32f4xx_tim.c ****   {
ARM GAS  /tmp/cc2zcHeL.s 			page 111


1995:../Shared/Libraries/STM32F4xx_StdPeriph_Driver/src/stm32f4xx_tim.c ****     icoppositeselection = TIM_ICSelection_DirectTI;
 4325              		.loc 1 1995 25
 4326 0032 0123     		movs	r3, #1
 4327 0034 BB81     		strh	r3, [r7, #12]	@ movhi
 4328              	.L119:
1996:../Shared/Libraries/STM32F4xx_StdPeriph_Driver/src/stm32f4xx_tim.c ****   }
1997:../Shared/Libraries/STM32F4xx_StdPeriph_Driver/src/stm32f4xx_tim.c ****   if (TIM_ICInitStruct->TIM_Channel == TIM_Channel_1)
 4329              		.loc 1 1997 23
 4330 0036 3B68     		ldr	r3, [r7]
 4331 0038 1B88     		ldrh	r3, [r3]
 4332              		.loc 1 1997 6
 4333 003a 002B     		cmp	r3, #0
 4334 003c 1CD1     		bne	.L120
1998:../Shared/Libraries/STM32F4xx_StdPeriph_Driver/src/stm32f4xx_tim.c ****   {
1999:../Shared/Libraries/STM32F4xx_StdPeriph_Driver/src/stm32f4xx_tim.c ****     /* TI1 Configuration */
2000:../Shared/Libraries/STM32F4xx_StdPeriph_Driver/src/stm32f4xx_tim.c ****     TI1_Config(TIMx, TIM_ICInitStruct->TIM_ICPolarity, TIM_ICInitStruct->TIM_ICSelection,
 4335              		.loc 1 2000 5
 4336 003e 3B68     		ldr	r3, [r7]
 4337 0040 5988     		ldrh	r1, [r3, #2]
 4338 0042 3B68     		ldr	r3, [r7]
 4339 0044 9A88     		ldrh	r2, [r3, #4]
 4340 0046 3B68     		ldr	r3, [r7]
 4341 0048 1B89     		ldrh	r3, [r3, #8]
 4342 004a 7868     		ldr	r0, [r7, #4]
 4343 004c FFF7FEFF 		bl	TI1_Config
2001:../Shared/Libraries/STM32F4xx_StdPeriph_Driver/src/stm32f4xx_tim.c ****                TIM_ICInitStruct->TIM_ICFilter);
2002:../Shared/Libraries/STM32F4xx_StdPeriph_Driver/src/stm32f4xx_tim.c ****     /* Set the Input Capture Prescaler value */
2003:../Shared/Libraries/STM32F4xx_StdPeriph_Driver/src/stm32f4xx_tim.c ****     TIM_SetIC1Prescaler(TIMx, TIM_ICInitStruct->TIM_ICPrescaler);
 4344              		.loc 1 2003 5
 4345 0050 3B68     		ldr	r3, [r7]
 4346 0052 DB88     		ldrh	r3, [r3, #6]
 4347 0054 1946     		mov	r1, r3
 4348 0056 7868     		ldr	r0, [r7, #4]
 4349 0058 FFF7FEFF 		bl	TIM_SetIC1Prescaler
2004:../Shared/Libraries/STM32F4xx_StdPeriph_Driver/src/stm32f4xx_tim.c ****     /* TI2 Configuration */
2005:../Shared/Libraries/STM32F4xx_StdPeriph_Driver/src/stm32f4xx_tim.c ****     TI2_Config(TIMx, icoppositepolarity, icoppositeselection, TIM_ICInitStruct->TIM_ICFilter);
 4350              		.loc 1 2005 5
 4351 005c 3B68     		ldr	r3, [r7]
 4352 005e 1B89     		ldrh	r3, [r3, #8]
 4353 0060 BA89     		ldrh	r2, [r7, #12]
 4354 0062 F989     		ldrh	r1, [r7, #14]
 4355 0064 7868     		ldr	r0, [r7, #4]
 4356 0066 FFF7FEFF 		bl	TI2_Config
2006:../Shared/Libraries/STM32F4xx_StdPeriph_Driver/src/stm32f4xx_tim.c ****     /* Set the Input Capture Prescaler value */
2007:../Shared/Libraries/STM32F4xx_StdPeriph_Driver/src/stm32f4xx_tim.c ****     TIM_SetIC2Prescaler(TIMx, TIM_ICInitStruct->TIM_ICPrescaler);
 4357              		.loc 1 2007 5
 4358 006a 3B68     		ldr	r3, [r7]
 4359 006c DB88     		ldrh	r3, [r3, #6]
 4360 006e 1946     		mov	r1, r3
 4361 0070 7868     		ldr	r0, [r7, #4]
 4362 0072 FFF7FEFF 		bl	TIM_SetIC2Prescaler
2008:../Shared/Libraries/STM32F4xx_StdPeriph_Driver/src/stm32f4xx_tim.c ****   }
2009:../Shared/Libraries/STM32F4xx_StdPeriph_Driver/src/stm32f4xx_tim.c ****   else
2010:../Shared/Libraries/STM32F4xx_StdPeriph_Driver/src/stm32f4xx_tim.c ****   { 
2011:../Shared/Libraries/STM32F4xx_StdPeriph_Driver/src/stm32f4xx_tim.c ****     /* TI2 Configuration */
2012:../Shared/Libraries/STM32F4xx_StdPeriph_Driver/src/stm32f4xx_tim.c ****     TI2_Config(TIMx, TIM_ICInitStruct->TIM_ICPolarity, TIM_ICInitStruct->TIM_ICSelection,
2013:../Shared/Libraries/STM32F4xx_StdPeriph_Driver/src/stm32f4xx_tim.c ****                TIM_ICInitStruct->TIM_ICFilter);
ARM GAS  /tmp/cc2zcHeL.s 			page 112


2014:../Shared/Libraries/STM32F4xx_StdPeriph_Driver/src/stm32f4xx_tim.c ****     /* Set the Input Capture Prescaler value */
2015:../Shared/Libraries/STM32F4xx_StdPeriph_Driver/src/stm32f4xx_tim.c ****     TIM_SetIC2Prescaler(TIMx, TIM_ICInitStruct->TIM_ICPrescaler);
2016:../Shared/Libraries/STM32F4xx_StdPeriph_Driver/src/stm32f4xx_tim.c ****     /* TI1 Configuration */
2017:../Shared/Libraries/STM32F4xx_StdPeriph_Driver/src/stm32f4xx_tim.c ****     TI1_Config(TIMx, icoppositepolarity, icoppositeselection, TIM_ICInitStruct->TIM_ICFilter);
2018:../Shared/Libraries/STM32F4xx_StdPeriph_Driver/src/stm32f4xx_tim.c ****     /* Set the Input Capture Prescaler value */
2019:../Shared/Libraries/STM32F4xx_StdPeriph_Driver/src/stm32f4xx_tim.c ****     TIM_SetIC1Prescaler(TIMx, TIM_ICInitStruct->TIM_ICPrescaler);
2020:../Shared/Libraries/STM32F4xx_StdPeriph_Driver/src/stm32f4xx_tim.c ****   }
2021:../Shared/Libraries/STM32F4xx_StdPeriph_Driver/src/stm32f4xx_tim.c **** }
 4363              		.loc 1 2021 1
 4364 0076 1BE0     		b	.L122
 4365              	.L120:
2012:../Shared/Libraries/STM32F4xx_StdPeriph_Driver/src/stm32f4xx_tim.c ****                TIM_ICInitStruct->TIM_ICFilter);
 4366              		.loc 1 2012 5
 4367 0078 3B68     		ldr	r3, [r7]
 4368 007a 5988     		ldrh	r1, [r3, #2]
 4369 007c 3B68     		ldr	r3, [r7]
 4370 007e 9A88     		ldrh	r2, [r3, #4]
 4371 0080 3B68     		ldr	r3, [r7]
 4372 0082 1B89     		ldrh	r3, [r3, #8]
 4373 0084 7868     		ldr	r0, [r7, #4]
 4374 0086 FFF7FEFF 		bl	TI2_Config
2015:../Shared/Libraries/STM32F4xx_StdPeriph_Driver/src/stm32f4xx_tim.c ****     /* TI1 Configuration */
 4375              		.loc 1 2015 5
 4376 008a 3B68     		ldr	r3, [r7]
 4377 008c DB88     		ldrh	r3, [r3, #6]
 4378 008e 1946     		mov	r1, r3
 4379 0090 7868     		ldr	r0, [r7, #4]
 4380 0092 FFF7FEFF 		bl	TIM_SetIC2Prescaler
2017:../Shared/Libraries/STM32F4xx_StdPeriph_Driver/src/stm32f4xx_tim.c ****     /* Set the Input Capture Prescaler value */
 4381              		.loc 1 2017 5
 4382 0096 3B68     		ldr	r3, [r7]
 4383 0098 1B89     		ldrh	r3, [r3, #8]
 4384 009a BA89     		ldrh	r2, [r7, #12]
 4385 009c F989     		ldrh	r1, [r7, #14]
 4386 009e 7868     		ldr	r0, [r7, #4]
 4387 00a0 FFF7FEFF 		bl	TI1_Config
2019:../Shared/Libraries/STM32F4xx_StdPeriph_Driver/src/stm32f4xx_tim.c ****   }
 4388              		.loc 1 2019 5
 4389 00a4 3B68     		ldr	r3, [r7]
 4390 00a6 DB88     		ldrh	r3, [r3, #6]
 4391 00a8 1946     		mov	r1, r3
 4392 00aa 7868     		ldr	r0, [r7, #4]
 4393 00ac FFF7FEFF 		bl	TIM_SetIC1Prescaler
 4394              	.L122:
 4395              		.loc 1 2021 1
 4396 00b0 00BF     		nop
 4397 00b2 1037     		adds	r7, r7, #16
 4398              	.LCFI313:
 4399              		.cfi_def_cfa_offset 8
 4400 00b4 BD46     		mov	sp, r7
 4401              	.LCFI314:
 4402              		.cfi_def_cfa_register 13
 4403              		@ sp needed
 4404 00b6 80BD     		pop	{r7, pc}
 4405              		.cfi_endproc
 4406              	.LFE162:
 4408              		.section	.text.TIM_GetCapture1,"ax",%progbits
ARM GAS  /tmp/cc2zcHeL.s 			page 113


 4409              		.align	1
 4410              		.global	TIM_GetCapture1
 4411              		.syntax unified
 4412              		.thumb
 4413              		.thumb_func
 4415              	TIM_GetCapture1:
 4416              	.LFB163:
2022:../Shared/Libraries/STM32F4xx_StdPeriph_Driver/src/stm32f4xx_tim.c **** 
2023:../Shared/Libraries/STM32F4xx_StdPeriph_Driver/src/stm32f4xx_tim.c **** /**
2024:../Shared/Libraries/STM32F4xx_StdPeriph_Driver/src/stm32f4xx_tim.c ****   * @brief  Gets the TIMx Input Capture 1 value.
2025:../Shared/Libraries/STM32F4xx_StdPeriph_Driver/src/stm32f4xx_tim.c ****   * @param  TIMx: where x can be 1 to 14 except 6 and 7, to select the TIM peripheral.
2026:../Shared/Libraries/STM32F4xx_StdPeriph_Driver/src/stm32f4xx_tim.c ****   * @retval Capture Compare 1 Register value.
2027:../Shared/Libraries/STM32F4xx_StdPeriph_Driver/src/stm32f4xx_tim.c ****   */
2028:../Shared/Libraries/STM32F4xx_StdPeriph_Driver/src/stm32f4xx_tim.c **** uint32_t TIM_GetCapture1(TIM_TypeDef* TIMx)
2029:../Shared/Libraries/STM32F4xx_StdPeriph_Driver/src/stm32f4xx_tim.c **** {
 4417              		.loc 1 2029 1
 4418              		.cfi_startproc
 4419              		@ args = 0, pretend = 0, frame = 8
 4420              		@ frame_needed = 1, uses_anonymous_args = 0
 4421              		@ link register save eliminated.
 4422 0000 80B4     		push	{r7}
 4423              	.LCFI315:
 4424              		.cfi_def_cfa_offset 4
 4425              		.cfi_offset 7, -4
 4426 0002 83B0     		sub	sp, sp, #12
 4427              	.LCFI316:
 4428              		.cfi_def_cfa_offset 16
 4429 0004 00AF     		add	r7, sp, #0
 4430              	.LCFI317:
 4431              		.cfi_def_cfa_register 7
 4432 0006 7860     		str	r0, [r7, #4]
2030:../Shared/Libraries/STM32F4xx_StdPeriph_Driver/src/stm32f4xx_tim.c ****   /* Check the parameters */
2031:../Shared/Libraries/STM32F4xx_StdPeriph_Driver/src/stm32f4xx_tim.c ****   assert_param(IS_TIM_LIST1_PERIPH(TIMx));
2032:../Shared/Libraries/STM32F4xx_StdPeriph_Driver/src/stm32f4xx_tim.c **** 
2033:../Shared/Libraries/STM32F4xx_StdPeriph_Driver/src/stm32f4xx_tim.c ****   /* Get the Capture 1 Register value */
2034:../Shared/Libraries/STM32F4xx_StdPeriph_Driver/src/stm32f4xx_tim.c ****   return TIMx->CCR1;
 4433              		.loc 1 2034 14
 4434 0008 7B68     		ldr	r3, [r7, #4]
 4435 000a 5B6B     		ldr	r3, [r3, #52]
2035:../Shared/Libraries/STM32F4xx_StdPeriph_Driver/src/stm32f4xx_tim.c **** }
 4436              		.loc 1 2035 1
 4437 000c 1846     		mov	r0, r3
 4438 000e 0C37     		adds	r7, r7, #12
 4439              	.LCFI318:
 4440              		.cfi_def_cfa_offset 4
 4441 0010 BD46     		mov	sp, r7
 4442              	.LCFI319:
 4443              		.cfi_def_cfa_register 13
 4444              		@ sp needed
 4445 0012 5DF8047B 		ldr	r7, [sp], #4
 4446              	.LCFI320:
 4447              		.cfi_restore 7
 4448              		.cfi_def_cfa_offset 0
 4449 0016 7047     		bx	lr
 4450              		.cfi_endproc
 4451              	.LFE163:
 4453              		.section	.text.TIM_GetCapture2,"ax",%progbits
ARM GAS  /tmp/cc2zcHeL.s 			page 114


 4454              		.align	1
 4455              		.global	TIM_GetCapture2
 4456              		.syntax unified
 4457              		.thumb
 4458              		.thumb_func
 4460              	TIM_GetCapture2:
 4461              	.LFB164:
2036:../Shared/Libraries/STM32F4xx_StdPeriph_Driver/src/stm32f4xx_tim.c **** 
2037:../Shared/Libraries/STM32F4xx_StdPeriph_Driver/src/stm32f4xx_tim.c **** /**
2038:../Shared/Libraries/STM32F4xx_StdPeriph_Driver/src/stm32f4xx_tim.c ****   * @brief  Gets the TIMx Input Capture 2 value.
2039:../Shared/Libraries/STM32F4xx_StdPeriph_Driver/src/stm32f4xx_tim.c ****   * @param  TIMx: where x can be 1, 2, 3, 4, 5, 8, 9 or 12 to select the TIM 
2040:../Shared/Libraries/STM32F4xx_StdPeriph_Driver/src/stm32f4xx_tim.c ****   *         peripheral.
2041:../Shared/Libraries/STM32F4xx_StdPeriph_Driver/src/stm32f4xx_tim.c ****   * @retval Capture Compare 2 Register value.
2042:../Shared/Libraries/STM32F4xx_StdPeriph_Driver/src/stm32f4xx_tim.c ****   */
2043:../Shared/Libraries/STM32F4xx_StdPeriph_Driver/src/stm32f4xx_tim.c **** uint32_t TIM_GetCapture2(TIM_TypeDef* TIMx)
2044:../Shared/Libraries/STM32F4xx_StdPeriph_Driver/src/stm32f4xx_tim.c **** {
 4462              		.loc 1 2044 1
 4463              		.cfi_startproc
 4464              		@ args = 0, pretend = 0, frame = 8
 4465              		@ frame_needed = 1, uses_anonymous_args = 0
 4466              		@ link register save eliminated.
 4467 0000 80B4     		push	{r7}
 4468              	.LCFI321:
 4469              		.cfi_def_cfa_offset 4
 4470              		.cfi_offset 7, -4
 4471 0002 83B0     		sub	sp, sp, #12
 4472              	.LCFI322:
 4473              		.cfi_def_cfa_offset 16
 4474 0004 00AF     		add	r7, sp, #0
 4475              	.LCFI323:
 4476              		.cfi_def_cfa_register 7
 4477 0006 7860     		str	r0, [r7, #4]
2045:../Shared/Libraries/STM32F4xx_StdPeriph_Driver/src/stm32f4xx_tim.c ****   /* Check the parameters */
2046:../Shared/Libraries/STM32F4xx_StdPeriph_Driver/src/stm32f4xx_tim.c ****   assert_param(IS_TIM_LIST2_PERIPH(TIMx));
2047:../Shared/Libraries/STM32F4xx_StdPeriph_Driver/src/stm32f4xx_tim.c **** 
2048:../Shared/Libraries/STM32F4xx_StdPeriph_Driver/src/stm32f4xx_tim.c ****   /* Get the Capture 2 Register value */
2049:../Shared/Libraries/STM32F4xx_StdPeriph_Driver/src/stm32f4xx_tim.c ****   return TIMx->CCR2;
 4478              		.loc 1 2049 14
 4479 0008 7B68     		ldr	r3, [r7, #4]
 4480 000a 9B6B     		ldr	r3, [r3, #56]
2050:../Shared/Libraries/STM32F4xx_StdPeriph_Driver/src/stm32f4xx_tim.c **** }
 4481              		.loc 1 2050 1
 4482 000c 1846     		mov	r0, r3
 4483 000e 0C37     		adds	r7, r7, #12
 4484              	.LCFI324:
 4485              		.cfi_def_cfa_offset 4
 4486 0010 BD46     		mov	sp, r7
 4487              	.LCFI325:
 4488              		.cfi_def_cfa_register 13
 4489              		@ sp needed
 4490 0012 5DF8047B 		ldr	r7, [sp], #4
 4491              	.LCFI326:
 4492              		.cfi_restore 7
 4493              		.cfi_def_cfa_offset 0
 4494 0016 7047     		bx	lr
 4495              		.cfi_endproc
 4496              	.LFE164:
ARM GAS  /tmp/cc2zcHeL.s 			page 115


 4498              		.section	.text.TIM_GetCapture3,"ax",%progbits
 4499              		.align	1
 4500              		.global	TIM_GetCapture3
 4501              		.syntax unified
 4502              		.thumb
 4503              		.thumb_func
 4505              	TIM_GetCapture3:
 4506              	.LFB165:
2051:../Shared/Libraries/STM32F4xx_StdPeriph_Driver/src/stm32f4xx_tim.c **** 
2052:../Shared/Libraries/STM32F4xx_StdPeriph_Driver/src/stm32f4xx_tim.c **** /**
2053:../Shared/Libraries/STM32F4xx_StdPeriph_Driver/src/stm32f4xx_tim.c ****   * @brief  Gets the TIMx Input Capture 3 value.
2054:../Shared/Libraries/STM32F4xx_StdPeriph_Driver/src/stm32f4xx_tim.c ****   * @param  TIMx: where x can be 1, 2, 3, 4, 5 or 8 to select the TIM peripheral.
2055:../Shared/Libraries/STM32F4xx_StdPeriph_Driver/src/stm32f4xx_tim.c ****   * @retval Capture Compare 3 Register value.
2056:../Shared/Libraries/STM32F4xx_StdPeriph_Driver/src/stm32f4xx_tim.c ****   */
2057:../Shared/Libraries/STM32F4xx_StdPeriph_Driver/src/stm32f4xx_tim.c **** uint32_t TIM_GetCapture3(TIM_TypeDef* TIMx)
2058:../Shared/Libraries/STM32F4xx_StdPeriph_Driver/src/stm32f4xx_tim.c **** {
 4507              		.loc 1 2058 1
 4508              		.cfi_startproc
 4509              		@ args = 0, pretend = 0, frame = 8
 4510              		@ frame_needed = 1, uses_anonymous_args = 0
 4511              		@ link register save eliminated.
 4512 0000 80B4     		push	{r7}
 4513              	.LCFI327:
 4514              		.cfi_def_cfa_offset 4
 4515              		.cfi_offset 7, -4
 4516 0002 83B0     		sub	sp, sp, #12
 4517              	.LCFI328:
 4518              		.cfi_def_cfa_offset 16
 4519 0004 00AF     		add	r7, sp, #0
 4520              	.LCFI329:
 4521              		.cfi_def_cfa_register 7
 4522 0006 7860     		str	r0, [r7, #4]
2059:../Shared/Libraries/STM32F4xx_StdPeriph_Driver/src/stm32f4xx_tim.c ****   /* Check the parameters */
2060:../Shared/Libraries/STM32F4xx_StdPeriph_Driver/src/stm32f4xx_tim.c ****   assert_param(IS_TIM_LIST3_PERIPH(TIMx)); 
2061:../Shared/Libraries/STM32F4xx_StdPeriph_Driver/src/stm32f4xx_tim.c **** 
2062:../Shared/Libraries/STM32F4xx_StdPeriph_Driver/src/stm32f4xx_tim.c ****   /* Get the Capture 3 Register value */
2063:../Shared/Libraries/STM32F4xx_StdPeriph_Driver/src/stm32f4xx_tim.c ****   return TIMx->CCR3;
 4523              		.loc 1 2063 14
 4524 0008 7B68     		ldr	r3, [r7, #4]
 4525 000a DB6B     		ldr	r3, [r3, #60]
2064:../Shared/Libraries/STM32F4xx_StdPeriph_Driver/src/stm32f4xx_tim.c **** }
 4526              		.loc 1 2064 1
 4527 000c 1846     		mov	r0, r3
 4528 000e 0C37     		adds	r7, r7, #12
 4529              	.LCFI330:
 4530              		.cfi_def_cfa_offset 4
 4531 0010 BD46     		mov	sp, r7
 4532              	.LCFI331:
 4533              		.cfi_def_cfa_register 13
 4534              		@ sp needed
 4535 0012 5DF8047B 		ldr	r7, [sp], #4
 4536              	.LCFI332:
 4537              		.cfi_restore 7
 4538              		.cfi_def_cfa_offset 0
 4539 0016 7047     		bx	lr
 4540              		.cfi_endproc
 4541              	.LFE165:
ARM GAS  /tmp/cc2zcHeL.s 			page 116


 4543              		.section	.text.TIM_GetCapture4,"ax",%progbits
 4544              		.align	1
 4545              		.global	TIM_GetCapture4
 4546              		.syntax unified
 4547              		.thumb
 4548              		.thumb_func
 4550              	TIM_GetCapture4:
 4551              	.LFB166:
2065:../Shared/Libraries/STM32F4xx_StdPeriph_Driver/src/stm32f4xx_tim.c **** 
2066:../Shared/Libraries/STM32F4xx_StdPeriph_Driver/src/stm32f4xx_tim.c **** /**
2067:../Shared/Libraries/STM32F4xx_StdPeriph_Driver/src/stm32f4xx_tim.c ****   * @brief  Gets the TIMx Input Capture 4 value.
2068:../Shared/Libraries/STM32F4xx_StdPeriph_Driver/src/stm32f4xx_tim.c ****   * @param  TIMx: where x can be 1, 2, 3, 4, 5 or 8 to select the TIM peripheral.
2069:../Shared/Libraries/STM32F4xx_StdPeriph_Driver/src/stm32f4xx_tim.c ****   * @retval Capture Compare 4 Register value.
2070:../Shared/Libraries/STM32F4xx_StdPeriph_Driver/src/stm32f4xx_tim.c ****   */
2071:../Shared/Libraries/STM32F4xx_StdPeriph_Driver/src/stm32f4xx_tim.c **** uint32_t TIM_GetCapture4(TIM_TypeDef* TIMx)
2072:../Shared/Libraries/STM32F4xx_StdPeriph_Driver/src/stm32f4xx_tim.c **** {
 4552              		.loc 1 2072 1
 4553              		.cfi_startproc
 4554              		@ args = 0, pretend = 0, frame = 8
 4555              		@ frame_needed = 1, uses_anonymous_args = 0
 4556              		@ link register save eliminated.
 4557 0000 80B4     		push	{r7}
 4558              	.LCFI333:
 4559              		.cfi_def_cfa_offset 4
 4560              		.cfi_offset 7, -4
 4561 0002 83B0     		sub	sp, sp, #12
 4562              	.LCFI334:
 4563              		.cfi_def_cfa_offset 16
 4564 0004 00AF     		add	r7, sp, #0
 4565              	.LCFI335:
 4566              		.cfi_def_cfa_register 7
 4567 0006 7860     		str	r0, [r7, #4]
2073:../Shared/Libraries/STM32F4xx_StdPeriph_Driver/src/stm32f4xx_tim.c ****   /* Check the parameters */
2074:../Shared/Libraries/STM32F4xx_StdPeriph_Driver/src/stm32f4xx_tim.c ****   assert_param(IS_TIM_LIST3_PERIPH(TIMx));
2075:../Shared/Libraries/STM32F4xx_StdPeriph_Driver/src/stm32f4xx_tim.c **** 
2076:../Shared/Libraries/STM32F4xx_StdPeriph_Driver/src/stm32f4xx_tim.c ****   /* Get the Capture 4 Register value */
2077:../Shared/Libraries/STM32F4xx_StdPeriph_Driver/src/stm32f4xx_tim.c ****   return TIMx->CCR4;
 4568              		.loc 1 2077 14
 4569 0008 7B68     		ldr	r3, [r7, #4]
 4570 000a 1B6C     		ldr	r3, [r3, #64]
2078:../Shared/Libraries/STM32F4xx_StdPeriph_Driver/src/stm32f4xx_tim.c **** }
 4571              		.loc 1 2078 1
 4572 000c 1846     		mov	r0, r3
 4573 000e 0C37     		adds	r7, r7, #12
 4574              	.LCFI336:
 4575              		.cfi_def_cfa_offset 4
 4576 0010 BD46     		mov	sp, r7
 4577              	.LCFI337:
 4578              		.cfi_def_cfa_register 13
 4579              		@ sp needed
 4580 0012 5DF8047B 		ldr	r7, [sp], #4
 4581              	.LCFI338:
 4582              		.cfi_restore 7
 4583              		.cfi_def_cfa_offset 0
 4584 0016 7047     		bx	lr
 4585              		.cfi_endproc
 4586              	.LFE166:
ARM GAS  /tmp/cc2zcHeL.s 			page 117


 4588              		.section	.text.TIM_SetIC1Prescaler,"ax",%progbits
 4589              		.align	1
 4590              		.global	TIM_SetIC1Prescaler
 4591              		.syntax unified
 4592              		.thumb
 4593              		.thumb_func
 4595              	TIM_SetIC1Prescaler:
 4596              	.LFB167:
2079:../Shared/Libraries/STM32F4xx_StdPeriph_Driver/src/stm32f4xx_tim.c **** 
2080:../Shared/Libraries/STM32F4xx_StdPeriph_Driver/src/stm32f4xx_tim.c **** /**
2081:../Shared/Libraries/STM32F4xx_StdPeriph_Driver/src/stm32f4xx_tim.c ****   * @brief  Sets the TIMx Input Capture 1 prescaler.
2082:../Shared/Libraries/STM32F4xx_StdPeriph_Driver/src/stm32f4xx_tim.c ****   * @param  TIMx: where x can be 1 to 14 except 6 and 7, to select the TIM peripheral.
2083:../Shared/Libraries/STM32F4xx_StdPeriph_Driver/src/stm32f4xx_tim.c ****   * @param  TIM_ICPSC: specifies the Input Capture1 prescaler new value.
2084:../Shared/Libraries/STM32F4xx_StdPeriph_Driver/src/stm32f4xx_tim.c ****   *          This parameter can be one of the following values:
2085:../Shared/Libraries/STM32F4xx_StdPeriph_Driver/src/stm32f4xx_tim.c ****   *            @arg TIM_ICPSC_DIV1: no prescaler
2086:../Shared/Libraries/STM32F4xx_StdPeriph_Driver/src/stm32f4xx_tim.c ****   *            @arg TIM_ICPSC_DIV2: capture is done once every 2 events
2087:../Shared/Libraries/STM32F4xx_StdPeriph_Driver/src/stm32f4xx_tim.c ****   *            @arg TIM_ICPSC_DIV4: capture is done once every 4 events
2088:../Shared/Libraries/STM32F4xx_StdPeriph_Driver/src/stm32f4xx_tim.c ****   *            @arg TIM_ICPSC_DIV8: capture is done once every 8 events
2089:../Shared/Libraries/STM32F4xx_StdPeriph_Driver/src/stm32f4xx_tim.c ****   * @retval None
2090:../Shared/Libraries/STM32F4xx_StdPeriph_Driver/src/stm32f4xx_tim.c ****   */
2091:../Shared/Libraries/STM32F4xx_StdPeriph_Driver/src/stm32f4xx_tim.c **** void TIM_SetIC1Prescaler(TIM_TypeDef* TIMx, uint16_t TIM_ICPSC)
2092:../Shared/Libraries/STM32F4xx_StdPeriph_Driver/src/stm32f4xx_tim.c **** {
 4597              		.loc 1 2092 1
 4598              		.cfi_startproc
 4599              		@ args = 0, pretend = 0, frame = 8
 4600              		@ frame_needed = 1, uses_anonymous_args = 0
 4601              		@ link register save eliminated.
 4602 0000 80B4     		push	{r7}
 4603              	.LCFI339:
 4604              		.cfi_def_cfa_offset 4
 4605              		.cfi_offset 7, -4
 4606 0002 83B0     		sub	sp, sp, #12
 4607              	.LCFI340:
 4608              		.cfi_def_cfa_offset 16
 4609 0004 00AF     		add	r7, sp, #0
 4610              	.LCFI341:
 4611              		.cfi_def_cfa_register 7
 4612 0006 7860     		str	r0, [r7, #4]
 4613 0008 0B46     		mov	r3, r1
 4614 000a 7B80     		strh	r3, [r7, #2]	@ movhi
2093:../Shared/Libraries/STM32F4xx_StdPeriph_Driver/src/stm32f4xx_tim.c ****   /* Check the parameters */
2094:../Shared/Libraries/STM32F4xx_StdPeriph_Driver/src/stm32f4xx_tim.c ****   assert_param(IS_TIM_LIST1_PERIPH(TIMx));
2095:../Shared/Libraries/STM32F4xx_StdPeriph_Driver/src/stm32f4xx_tim.c ****   assert_param(IS_TIM_IC_PRESCALER(TIM_ICPSC));
2096:../Shared/Libraries/STM32F4xx_StdPeriph_Driver/src/stm32f4xx_tim.c **** 
2097:../Shared/Libraries/STM32F4xx_StdPeriph_Driver/src/stm32f4xx_tim.c ****   /* Reset the IC1PSC Bits */
2098:../Shared/Libraries/STM32F4xx_StdPeriph_Driver/src/stm32f4xx_tim.c ****   TIMx->CCMR1 &= (uint16_t)~TIM_CCMR1_IC1PSC;
 4615              		.loc 1 2098 7
 4616 000c 7B68     		ldr	r3, [r7, #4]
 4617 000e 1B8B     		ldrh	r3, [r3, #24]	@ movhi
 4618 0010 9BB2     		uxth	r3, r3
 4619              		.loc 1 2098 15
 4620 0012 23F00C03 		bic	r3, r3, #12
 4621 0016 9AB2     		uxth	r2, r3
 4622 0018 7B68     		ldr	r3, [r7, #4]
 4623 001a 1A83     		strh	r2, [r3, #24]	@ movhi
2099:../Shared/Libraries/STM32F4xx_StdPeriph_Driver/src/stm32f4xx_tim.c **** 
2100:../Shared/Libraries/STM32F4xx_StdPeriph_Driver/src/stm32f4xx_tim.c ****   /* Set the IC1PSC value */
ARM GAS  /tmp/cc2zcHeL.s 			page 118


2101:../Shared/Libraries/STM32F4xx_StdPeriph_Driver/src/stm32f4xx_tim.c ****   TIMx->CCMR1 |= TIM_ICPSC;
 4624              		.loc 1 2101 7
 4625 001c 7B68     		ldr	r3, [r7, #4]
 4626 001e 1B8B     		ldrh	r3, [r3, #24]	@ movhi
 4627 0020 9AB2     		uxth	r2, r3
 4628              		.loc 1 2101 15
 4629 0022 7B88     		ldrh	r3, [r7, #2]	@ movhi
 4630 0024 1343     		orrs	r3, r3, r2
 4631 0026 9AB2     		uxth	r2, r3
 4632 0028 7B68     		ldr	r3, [r7, #4]
 4633 002a 1A83     		strh	r2, [r3, #24]	@ movhi
2102:../Shared/Libraries/STM32F4xx_StdPeriph_Driver/src/stm32f4xx_tim.c **** }
 4634              		.loc 1 2102 1
 4635 002c 00BF     		nop
 4636 002e 0C37     		adds	r7, r7, #12
 4637              	.LCFI342:
 4638              		.cfi_def_cfa_offset 4
 4639 0030 BD46     		mov	sp, r7
 4640              	.LCFI343:
 4641              		.cfi_def_cfa_register 13
 4642              		@ sp needed
 4643 0032 5DF8047B 		ldr	r7, [sp], #4
 4644              	.LCFI344:
 4645              		.cfi_restore 7
 4646              		.cfi_def_cfa_offset 0
 4647 0036 7047     		bx	lr
 4648              		.cfi_endproc
 4649              	.LFE167:
 4651              		.section	.text.TIM_SetIC2Prescaler,"ax",%progbits
 4652              		.align	1
 4653              		.global	TIM_SetIC2Prescaler
 4654              		.syntax unified
 4655              		.thumb
 4656              		.thumb_func
 4658              	TIM_SetIC2Prescaler:
 4659              	.LFB168:
2103:../Shared/Libraries/STM32F4xx_StdPeriph_Driver/src/stm32f4xx_tim.c **** 
2104:../Shared/Libraries/STM32F4xx_StdPeriph_Driver/src/stm32f4xx_tim.c **** /**
2105:../Shared/Libraries/STM32F4xx_StdPeriph_Driver/src/stm32f4xx_tim.c ****   * @brief  Sets the TIMx Input Capture 2 prescaler.
2106:../Shared/Libraries/STM32F4xx_StdPeriph_Driver/src/stm32f4xx_tim.c ****   * @param  TIMx: where x can be 1, 2, 3, 4, 5, 8, 9 or 12 to select the TIM 
2107:../Shared/Libraries/STM32F4xx_StdPeriph_Driver/src/stm32f4xx_tim.c ****   *         peripheral.
2108:../Shared/Libraries/STM32F4xx_StdPeriph_Driver/src/stm32f4xx_tim.c ****   * @param  TIM_ICPSC: specifies the Input Capture2 prescaler new value.
2109:../Shared/Libraries/STM32F4xx_StdPeriph_Driver/src/stm32f4xx_tim.c ****   *          This parameter can be one of the following values:
2110:../Shared/Libraries/STM32F4xx_StdPeriph_Driver/src/stm32f4xx_tim.c ****   *            @arg TIM_ICPSC_DIV1: no prescaler
2111:../Shared/Libraries/STM32F4xx_StdPeriph_Driver/src/stm32f4xx_tim.c ****   *            @arg TIM_ICPSC_DIV2: capture is done once every 2 events
2112:../Shared/Libraries/STM32F4xx_StdPeriph_Driver/src/stm32f4xx_tim.c ****   *            @arg TIM_ICPSC_DIV4: capture is done once every 4 events
2113:../Shared/Libraries/STM32F4xx_StdPeriph_Driver/src/stm32f4xx_tim.c ****   *            @arg TIM_ICPSC_DIV8: capture is done once every 8 events
2114:../Shared/Libraries/STM32F4xx_StdPeriph_Driver/src/stm32f4xx_tim.c ****   * @retval None
2115:../Shared/Libraries/STM32F4xx_StdPeriph_Driver/src/stm32f4xx_tim.c ****   */
2116:../Shared/Libraries/STM32F4xx_StdPeriph_Driver/src/stm32f4xx_tim.c **** void TIM_SetIC2Prescaler(TIM_TypeDef* TIMx, uint16_t TIM_ICPSC)
2117:../Shared/Libraries/STM32F4xx_StdPeriph_Driver/src/stm32f4xx_tim.c **** {
 4660              		.loc 1 2117 1
 4661              		.cfi_startproc
 4662              		@ args = 0, pretend = 0, frame = 8
 4663              		@ frame_needed = 1, uses_anonymous_args = 0
 4664              		@ link register save eliminated.
 4665 0000 80B4     		push	{r7}
ARM GAS  /tmp/cc2zcHeL.s 			page 119


 4666              	.LCFI345:
 4667              		.cfi_def_cfa_offset 4
 4668              		.cfi_offset 7, -4
 4669 0002 83B0     		sub	sp, sp, #12
 4670              	.LCFI346:
 4671              		.cfi_def_cfa_offset 16
 4672 0004 00AF     		add	r7, sp, #0
 4673              	.LCFI347:
 4674              		.cfi_def_cfa_register 7
 4675 0006 7860     		str	r0, [r7, #4]
 4676 0008 0B46     		mov	r3, r1
 4677 000a 7B80     		strh	r3, [r7, #2]	@ movhi
2118:../Shared/Libraries/STM32F4xx_StdPeriph_Driver/src/stm32f4xx_tim.c ****   /* Check the parameters */
2119:../Shared/Libraries/STM32F4xx_StdPeriph_Driver/src/stm32f4xx_tim.c ****   assert_param(IS_TIM_LIST2_PERIPH(TIMx));
2120:../Shared/Libraries/STM32F4xx_StdPeriph_Driver/src/stm32f4xx_tim.c ****   assert_param(IS_TIM_IC_PRESCALER(TIM_ICPSC));
2121:../Shared/Libraries/STM32F4xx_StdPeriph_Driver/src/stm32f4xx_tim.c **** 
2122:../Shared/Libraries/STM32F4xx_StdPeriph_Driver/src/stm32f4xx_tim.c ****   /* Reset the IC2PSC Bits */
2123:../Shared/Libraries/STM32F4xx_StdPeriph_Driver/src/stm32f4xx_tim.c ****   TIMx->CCMR1 &= (uint16_t)~TIM_CCMR1_IC2PSC;
 4678              		.loc 1 2123 7
 4679 000c 7B68     		ldr	r3, [r7, #4]
 4680 000e 1B8B     		ldrh	r3, [r3, #24]	@ movhi
 4681 0010 9BB2     		uxth	r3, r3
 4682              		.loc 1 2123 15
 4683 0012 23F44063 		bic	r3, r3, #3072
 4684 0016 9AB2     		uxth	r2, r3
 4685 0018 7B68     		ldr	r3, [r7, #4]
 4686 001a 1A83     		strh	r2, [r3, #24]	@ movhi
2124:../Shared/Libraries/STM32F4xx_StdPeriph_Driver/src/stm32f4xx_tim.c **** 
2125:../Shared/Libraries/STM32F4xx_StdPeriph_Driver/src/stm32f4xx_tim.c ****   /* Set the IC2PSC value */
2126:../Shared/Libraries/STM32F4xx_StdPeriph_Driver/src/stm32f4xx_tim.c ****   TIMx->CCMR1 |= (uint16_t)(TIM_ICPSC << 8);
 4687              		.loc 1 2126 7
 4688 001c 7B68     		ldr	r3, [r7, #4]
 4689 001e 1B8B     		ldrh	r3, [r3, #24]	@ movhi
 4690 0020 9AB2     		uxth	r2, r3
 4691              		.loc 1 2126 18
 4692 0022 7B88     		ldrh	r3, [r7, #2]	@ movhi
 4693 0024 1B02     		lsls	r3, r3, #8
 4694 0026 9BB2     		uxth	r3, r3
 4695              		.loc 1 2126 15
 4696 0028 1343     		orrs	r3, r3, r2
 4697 002a 9AB2     		uxth	r2, r3
 4698 002c 7B68     		ldr	r3, [r7, #4]
 4699 002e 1A83     		strh	r2, [r3, #24]	@ movhi
2127:../Shared/Libraries/STM32F4xx_StdPeriph_Driver/src/stm32f4xx_tim.c **** }
 4700              		.loc 1 2127 1
 4701 0030 00BF     		nop
 4702 0032 0C37     		adds	r7, r7, #12
 4703              	.LCFI348:
 4704              		.cfi_def_cfa_offset 4
 4705 0034 BD46     		mov	sp, r7
 4706              	.LCFI349:
 4707              		.cfi_def_cfa_register 13
 4708              		@ sp needed
 4709 0036 5DF8047B 		ldr	r7, [sp], #4
 4710              	.LCFI350:
 4711              		.cfi_restore 7
 4712              		.cfi_def_cfa_offset 0
ARM GAS  /tmp/cc2zcHeL.s 			page 120


 4713 003a 7047     		bx	lr
 4714              		.cfi_endproc
 4715              	.LFE168:
 4717              		.section	.text.TIM_SetIC3Prescaler,"ax",%progbits
 4718              		.align	1
 4719              		.global	TIM_SetIC3Prescaler
 4720              		.syntax unified
 4721              		.thumb
 4722              		.thumb_func
 4724              	TIM_SetIC3Prescaler:
 4725              	.LFB169:
2128:../Shared/Libraries/STM32F4xx_StdPeriph_Driver/src/stm32f4xx_tim.c **** 
2129:../Shared/Libraries/STM32F4xx_StdPeriph_Driver/src/stm32f4xx_tim.c **** /**
2130:../Shared/Libraries/STM32F4xx_StdPeriph_Driver/src/stm32f4xx_tim.c ****   * @brief  Sets the TIMx Input Capture 3 prescaler.
2131:../Shared/Libraries/STM32F4xx_StdPeriph_Driver/src/stm32f4xx_tim.c ****   * @param  TIMx: where x can be 1, 2, 3, 4, 5 or 8 to select the TIM peripheral.
2132:../Shared/Libraries/STM32F4xx_StdPeriph_Driver/src/stm32f4xx_tim.c ****   * @param  TIM_ICPSC: specifies the Input Capture3 prescaler new value.
2133:../Shared/Libraries/STM32F4xx_StdPeriph_Driver/src/stm32f4xx_tim.c ****   *          This parameter can be one of the following values:
2134:../Shared/Libraries/STM32F4xx_StdPeriph_Driver/src/stm32f4xx_tim.c ****   *            @arg TIM_ICPSC_DIV1: no prescaler
2135:../Shared/Libraries/STM32F4xx_StdPeriph_Driver/src/stm32f4xx_tim.c ****   *            @arg TIM_ICPSC_DIV2: capture is done once every 2 events
2136:../Shared/Libraries/STM32F4xx_StdPeriph_Driver/src/stm32f4xx_tim.c ****   *            @arg TIM_ICPSC_DIV4: capture is done once every 4 events
2137:../Shared/Libraries/STM32F4xx_StdPeriph_Driver/src/stm32f4xx_tim.c ****   *            @arg TIM_ICPSC_DIV8: capture is done once every 8 events
2138:../Shared/Libraries/STM32F4xx_StdPeriph_Driver/src/stm32f4xx_tim.c ****   * @retval None
2139:../Shared/Libraries/STM32F4xx_StdPeriph_Driver/src/stm32f4xx_tim.c ****   */
2140:../Shared/Libraries/STM32F4xx_StdPeriph_Driver/src/stm32f4xx_tim.c **** void TIM_SetIC3Prescaler(TIM_TypeDef* TIMx, uint16_t TIM_ICPSC)
2141:../Shared/Libraries/STM32F4xx_StdPeriph_Driver/src/stm32f4xx_tim.c **** {
 4726              		.loc 1 2141 1
 4727              		.cfi_startproc
 4728              		@ args = 0, pretend = 0, frame = 8
 4729              		@ frame_needed = 1, uses_anonymous_args = 0
 4730              		@ link register save eliminated.
 4731 0000 80B4     		push	{r7}
 4732              	.LCFI351:
 4733              		.cfi_def_cfa_offset 4
 4734              		.cfi_offset 7, -4
 4735 0002 83B0     		sub	sp, sp, #12
 4736              	.LCFI352:
 4737              		.cfi_def_cfa_offset 16
 4738 0004 00AF     		add	r7, sp, #0
 4739              	.LCFI353:
 4740              		.cfi_def_cfa_register 7
 4741 0006 7860     		str	r0, [r7, #4]
 4742 0008 0B46     		mov	r3, r1
 4743 000a 7B80     		strh	r3, [r7, #2]	@ movhi
2142:../Shared/Libraries/STM32F4xx_StdPeriph_Driver/src/stm32f4xx_tim.c ****   /* Check the parameters */
2143:../Shared/Libraries/STM32F4xx_StdPeriph_Driver/src/stm32f4xx_tim.c ****   assert_param(IS_TIM_LIST3_PERIPH(TIMx));
2144:../Shared/Libraries/STM32F4xx_StdPeriph_Driver/src/stm32f4xx_tim.c ****   assert_param(IS_TIM_IC_PRESCALER(TIM_ICPSC));
2145:../Shared/Libraries/STM32F4xx_StdPeriph_Driver/src/stm32f4xx_tim.c **** 
2146:../Shared/Libraries/STM32F4xx_StdPeriph_Driver/src/stm32f4xx_tim.c ****   /* Reset the IC3PSC Bits */
2147:../Shared/Libraries/STM32F4xx_StdPeriph_Driver/src/stm32f4xx_tim.c ****   TIMx->CCMR2 &= (uint16_t)~TIM_CCMR2_IC3PSC;
 4744              		.loc 1 2147 7
 4745 000c 7B68     		ldr	r3, [r7, #4]
 4746 000e 9B8B     		ldrh	r3, [r3, #28]	@ movhi
 4747 0010 9BB2     		uxth	r3, r3
 4748              		.loc 1 2147 15
 4749 0012 23F00C03 		bic	r3, r3, #12
 4750 0016 9AB2     		uxth	r2, r3
 4751 0018 7B68     		ldr	r3, [r7, #4]
ARM GAS  /tmp/cc2zcHeL.s 			page 121


 4752 001a 9A83     		strh	r2, [r3, #28]	@ movhi
2148:../Shared/Libraries/STM32F4xx_StdPeriph_Driver/src/stm32f4xx_tim.c **** 
2149:../Shared/Libraries/STM32F4xx_StdPeriph_Driver/src/stm32f4xx_tim.c ****   /* Set the IC3PSC value */
2150:../Shared/Libraries/STM32F4xx_StdPeriph_Driver/src/stm32f4xx_tim.c ****   TIMx->CCMR2 |= TIM_ICPSC;
 4753              		.loc 1 2150 7
 4754 001c 7B68     		ldr	r3, [r7, #4]
 4755 001e 9B8B     		ldrh	r3, [r3, #28]	@ movhi
 4756 0020 9AB2     		uxth	r2, r3
 4757              		.loc 1 2150 15
 4758 0022 7B88     		ldrh	r3, [r7, #2]	@ movhi
 4759 0024 1343     		orrs	r3, r3, r2
 4760 0026 9AB2     		uxth	r2, r3
 4761 0028 7B68     		ldr	r3, [r7, #4]
 4762 002a 9A83     		strh	r2, [r3, #28]	@ movhi
2151:../Shared/Libraries/STM32F4xx_StdPeriph_Driver/src/stm32f4xx_tim.c **** }
 4763              		.loc 1 2151 1
 4764 002c 00BF     		nop
 4765 002e 0C37     		adds	r7, r7, #12
 4766              	.LCFI354:
 4767              		.cfi_def_cfa_offset 4
 4768 0030 BD46     		mov	sp, r7
 4769              	.LCFI355:
 4770              		.cfi_def_cfa_register 13
 4771              		@ sp needed
 4772 0032 5DF8047B 		ldr	r7, [sp], #4
 4773              	.LCFI356:
 4774              		.cfi_restore 7
 4775              		.cfi_def_cfa_offset 0
 4776 0036 7047     		bx	lr
 4777              		.cfi_endproc
 4778              	.LFE169:
 4780              		.section	.text.TIM_SetIC4Prescaler,"ax",%progbits
 4781              		.align	1
 4782              		.global	TIM_SetIC4Prescaler
 4783              		.syntax unified
 4784              		.thumb
 4785              		.thumb_func
 4787              	TIM_SetIC4Prescaler:
 4788              	.LFB170:
2152:../Shared/Libraries/STM32F4xx_StdPeriph_Driver/src/stm32f4xx_tim.c **** 
2153:../Shared/Libraries/STM32F4xx_StdPeriph_Driver/src/stm32f4xx_tim.c **** /**
2154:../Shared/Libraries/STM32F4xx_StdPeriph_Driver/src/stm32f4xx_tim.c ****   * @brief  Sets the TIMx Input Capture 4 prescaler.
2155:../Shared/Libraries/STM32F4xx_StdPeriph_Driver/src/stm32f4xx_tim.c ****   * @param  TIMx: where x can be 1, 2, 3, 4, 5 or 8 to select the TIM peripheral.
2156:../Shared/Libraries/STM32F4xx_StdPeriph_Driver/src/stm32f4xx_tim.c ****   * @param  TIM_ICPSC: specifies the Input Capture4 prescaler new value.
2157:../Shared/Libraries/STM32F4xx_StdPeriph_Driver/src/stm32f4xx_tim.c ****   *          This parameter can be one of the following values:
2158:../Shared/Libraries/STM32F4xx_StdPeriph_Driver/src/stm32f4xx_tim.c ****   *            @arg TIM_ICPSC_DIV1: no prescaler
2159:../Shared/Libraries/STM32F4xx_StdPeriph_Driver/src/stm32f4xx_tim.c ****   *            @arg TIM_ICPSC_DIV2: capture is done once every 2 events
2160:../Shared/Libraries/STM32F4xx_StdPeriph_Driver/src/stm32f4xx_tim.c ****   *            @arg TIM_ICPSC_DIV4: capture is done once every 4 events
2161:../Shared/Libraries/STM32F4xx_StdPeriph_Driver/src/stm32f4xx_tim.c ****   *            @arg TIM_ICPSC_DIV8: capture is done once every 8 events
2162:../Shared/Libraries/STM32F4xx_StdPeriph_Driver/src/stm32f4xx_tim.c ****   * @retval None
2163:../Shared/Libraries/STM32F4xx_StdPeriph_Driver/src/stm32f4xx_tim.c ****   */
2164:../Shared/Libraries/STM32F4xx_StdPeriph_Driver/src/stm32f4xx_tim.c **** void TIM_SetIC4Prescaler(TIM_TypeDef* TIMx, uint16_t TIM_ICPSC)
2165:../Shared/Libraries/STM32F4xx_StdPeriph_Driver/src/stm32f4xx_tim.c **** {  
 4789              		.loc 1 2165 1
 4790              		.cfi_startproc
 4791              		@ args = 0, pretend = 0, frame = 8
 4792              		@ frame_needed = 1, uses_anonymous_args = 0
ARM GAS  /tmp/cc2zcHeL.s 			page 122


 4793              		@ link register save eliminated.
 4794 0000 80B4     		push	{r7}
 4795              	.LCFI357:
 4796              		.cfi_def_cfa_offset 4
 4797              		.cfi_offset 7, -4
 4798 0002 83B0     		sub	sp, sp, #12
 4799              	.LCFI358:
 4800              		.cfi_def_cfa_offset 16
 4801 0004 00AF     		add	r7, sp, #0
 4802              	.LCFI359:
 4803              		.cfi_def_cfa_register 7
 4804 0006 7860     		str	r0, [r7, #4]
 4805 0008 0B46     		mov	r3, r1
 4806 000a 7B80     		strh	r3, [r7, #2]	@ movhi
2166:../Shared/Libraries/STM32F4xx_StdPeriph_Driver/src/stm32f4xx_tim.c ****   /* Check the parameters */
2167:../Shared/Libraries/STM32F4xx_StdPeriph_Driver/src/stm32f4xx_tim.c ****   assert_param(IS_TIM_LIST3_PERIPH(TIMx));
2168:../Shared/Libraries/STM32F4xx_StdPeriph_Driver/src/stm32f4xx_tim.c ****   assert_param(IS_TIM_IC_PRESCALER(TIM_ICPSC));
2169:../Shared/Libraries/STM32F4xx_StdPeriph_Driver/src/stm32f4xx_tim.c **** 
2170:../Shared/Libraries/STM32F4xx_StdPeriph_Driver/src/stm32f4xx_tim.c ****   /* Reset the IC4PSC Bits */
2171:../Shared/Libraries/STM32F4xx_StdPeriph_Driver/src/stm32f4xx_tim.c ****   TIMx->CCMR2 &= (uint16_t)~TIM_CCMR2_IC4PSC;
 4807              		.loc 1 2171 7
 4808 000c 7B68     		ldr	r3, [r7, #4]
 4809 000e 9B8B     		ldrh	r3, [r3, #28]	@ movhi
 4810 0010 9BB2     		uxth	r3, r3
 4811              		.loc 1 2171 15
 4812 0012 23F44063 		bic	r3, r3, #3072
 4813 0016 9AB2     		uxth	r2, r3
 4814 0018 7B68     		ldr	r3, [r7, #4]
 4815 001a 9A83     		strh	r2, [r3, #28]	@ movhi
2172:../Shared/Libraries/STM32F4xx_StdPeriph_Driver/src/stm32f4xx_tim.c **** 
2173:../Shared/Libraries/STM32F4xx_StdPeriph_Driver/src/stm32f4xx_tim.c ****   /* Set the IC4PSC value */
2174:../Shared/Libraries/STM32F4xx_StdPeriph_Driver/src/stm32f4xx_tim.c ****   TIMx->CCMR2 |= (uint16_t)(TIM_ICPSC << 8);
 4816              		.loc 1 2174 7
 4817 001c 7B68     		ldr	r3, [r7, #4]
 4818 001e 9B8B     		ldrh	r3, [r3, #28]	@ movhi
 4819 0020 9AB2     		uxth	r2, r3
 4820              		.loc 1 2174 18
 4821 0022 7B88     		ldrh	r3, [r7, #2]	@ movhi
 4822 0024 1B02     		lsls	r3, r3, #8
 4823 0026 9BB2     		uxth	r3, r3
 4824              		.loc 1 2174 15
 4825 0028 1343     		orrs	r3, r3, r2
 4826 002a 9AB2     		uxth	r2, r3
 4827 002c 7B68     		ldr	r3, [r7, #4]
 4828 002e 9A83     		strh	r2, [r3, #28]	@ movhi
2175:../Shared/Libraries/STM32F4xx_StdPeriph_Driver/src/stm32f4xx_tim.c **** }
 4829              		.loc 1 2175 1
 4830 0030 00BF     		nop
 4831 0032 0C37     		adds	r7, r7, #12
 4832              	.LCFI360:
 4833              		.cfi_def_cfa_offset 4
 4834 0034 BD46     		mov	sp, r7
 4835              	.LCFI361:
 4836              		.cfi_def_cfa_register 13
 4837              		@ sp needed
 4838 0036 5DF8047B 		ldr	r7, [sp], #4
 4839              	.LCFI362:
ARM GAS  /tmp/cc2zcHeL.s 			page 123


 4840              		.cfi_restore 7
 4841              		.cfi_def_cfa_offset 0
 4842 003a 7047     		bx	lr
 4843              		.cfi_endproc
 4844              	.LFE170:
 4846              		.section	.text.TIM_BDTRConfig,"ax",%progbits
 4847              		.align	1
 4848              		.global	TIM_BDTRConfig
 4849              		.syntax unified
 4850              		.thumb
 4851              		.thumb_func
 4853              	TIM_BDTRConfig:
 4854              	.LFB171:
2176:../Shared/Libraries/STM32F4xx_StdPeriph_Driver/src/stm32f4xx_tim.c **** /**
2177:../Shared/Libraries/STM32F4xx_StdPeriph_Driver/src/stm32f4xx_tim.c ****   * @}
2178:../Shared/Libraries/STM32F4xx_StdPeriph_Driver/src/stm32f4xx_tim.c ****   */
2179:../Shared/Libraries/STM32F4xx_StdPeriph_Driver/src/stm32f4xx_tim.c **** 
2180:../Shared/Libraries/STM32F4xx_StdPeriph_Driver/src/stm32f4xx_tim.c **** /** @defgroup TIM_Group4 Advanced-control timers (TIM1 and TIM8) specific features
2181:../Shared/Libraries/STM32F4xx_StdPeriph_Driver/src/stm32f4xx_tim.c ****  *  @brief   Advanced-control timers (TIM1 and TIM8) specific features
2182:../Shared/Libraries/STM32F4xx_StdPeriph_Driver/src/stm32f4xx_tim.c ****  *
2183:../Shared/Libraries/STM32F4xx_StdPeriph_Driver/src/stm32f4xx_tim.c **** @verbatim   
2184:../Shared/Libraries/STM32F4xx_StdPeriph_Driver/src/stm32f4xx_tim.c ****  ===============================================================================
2185:../Shared/Libraries/STM32F4xx_StdPeriph_Driver/src/stm32f4xx_tim.c ****           Advanced-control timers (TIM1 and TIM8) specific features
2186:../Shared/Libraries/STM32F4xx_StdPeriph_Driver/src/stm32f4xx_tim.c ****  ===============================================================================  
2187:../Shared/Libraries/STM32F4xx_StdPeriph_Driver/src/stm32f4xx_tim.c ****   
2188:../Shared/Libraries/STM32F4xx_StdPeriph_Driver/src/stm32f4xx_tim.c ****        ===================================================================      
2189:../Shared/Libraries/STM32F4xx_StdPeriph_Driver/src/stm32f4xx_tim.c ****               TIM Driver: how to use the Break feature
2190:../Shared/Libraries/STM32F4xx_StdPeriph_Driver/src/stm32f4xx_tim.c ****        =================================================================== 
2191:../Shared/Libraries/STM32F4xx_StdPeriph_Driver/src/stm32f4xx_tim.c ****        After configuring the Timer channel(s) in the appropriate Output Compare mode: 
2192:../Shared/Libraries/STM32F4xx_StdPeriph_Driver/src/stm32f4xx_tim.c ****                          
2193:../Shared/Libraries/STM32F4xx_StdPeriph_Driver/src/stm32f4xx_tim.c ****        1. Fill the TIM_BDTRInitStruct with the desired parameters for the Timer
2194:../Shared/Libraries/STM32F4xx_StdPeriph_Driver/src/stm32f4xx_tim.c ****           Break Polarity, dead time, Lock level, the OSSI/OSSR State and the 
2195:../Shared/Libraries/STM32F4xx_StdPeriph_Driver/src/stm32f4xx_tim.c ****           AOE(automatic output enable).
2196:../Shared/Libraries/STM32F4xx_StdPeriph_Driver/src/stm32f4xx_tim.c ****                
2197:../Shared/Libraries/STM32F4xx_StdPeriph_Driver/src/stm32f4xx_tim.c ****        2. Call TIM_BDTRConfig(TIMx, &TIM_BDTRInitStruct) to configure the Timer
2198:../Shared/Libraries/STM32F4xx_StdPeriph_Driver/src/stm32f4xx_tim.c ****           
2199:../Shared/Libraries/STM32F4xx_StdPeriph_Driver/src/stm32f4xx_tim.c ****        3. Enable the Main Output using TIM_CtrlPWMOutputs(TIM1, ENABLE) 
2200:../Shared/Libraries/STM32F4xx_StdPeriph_Driver/src/stm32f4xx_tim.c ****           
2201:../Shared/Libraries/STM32F4xx_StdPeriph_Driver/src/stm32f4xx_tim.c ****        4. Once the break even occurs, the Timer's output signals are put in reset
2202:../Shared/Libraries/STM32F4xx_StdPeriph_Driver/src/stm32f4xx_tim.c ****           state or in a known state (according to the configuration made in
2203:../Shared/Libraries/STM32F4xx_StdPeriph_Driver/src/stm32f4xx_tim.c ****           TIM_BDTRConfig() function).
2204:../Shared/Libraries/STM32F4xx_StdPeriph_Driver/src/stm32f4xx_tim.c **** 
2205:../Shared/Libraries/STM32F4xx_StdPeriph_Driver/src/stm32f4xx_tim.c **** @endverbatim
2206:../Shared/Libraries/STM32F4xx_StdPeriph_Driver/src/stm32f4xx_tim.c ****   * @{
2207:../Shared/Libraries/STM32F4xx_StdPeriph_Driver/src/stm32f4xx_tim.c ****   */
2208:../Shared/Libraries/STM32F4xx_StdPeriph_Driver/src/stm32f4xx_tim.c **** 
2209:../Shared/Libraries/STM32F4xx_StdPeriph_Driver/src/stm32f4xx_tim.c **** /**
2210:../Shared/Libraries/STM32F4xx_StdPeriph_Driver/src/stm32f4xx_tim.c ****   * @brief  Configures the Break feature, dead time, Lock level, OSSI/OSSR State
2211:../Shared/Libraries/STM32F4xx_StdPeriph_Driver/src/stm32f4xx_tim.c ****   *         and the AOE(automatic output enable).
2212:../Shared/Libraries/STM32F4xx_StdPeriph_Driver/src/stm32f4xx_tim.c ****   * @param  TIMx: where x can be  1 or 8 to select the TIM 
2213:../Shared/Libraries/STM32F4xx_StdPeriph_Driver/src/stm32f4xx_tim.c ****   * @param  TIM_BDTRInitStruct: pointer to a TIM_BDTRInitTypeDef structure that
2214:../Shared/Libraries/STM32F4xx_StdPeriph_Driver/src/stm32f4xx_tim.c ****   *         contains the BDTR Register configuration  information for the TIM peripheral.
2215:../Shared/Libraries/STM32F4xx_StdPeriph_Driver/src/stm32f4xx_tim.c ****   * @retval None
2216:../Shared/Libraries/STM32F4xx_StdPeriph_Driver/src/stm32f4xx_tim.c ****   */
2217:../Shared/Libraries/STM32F4xx_StdPeriph_Driver/src/stm32f4xx_tim.c **** void TIM_BDTRConfig(TIM_TypeDef* TIMx, TIM_BDTRInitTypeDef *TIM_BDTRInitStruct)
2218:../Shared/Libraries/STM32F4xx_StdPeriph_Driver/src/stm32f4xx_tim.c **** {
 4855              		.loc 1 2218 1
ARM GAS  /tmp/cc2zcHeL.s 			page 124


 4856              		.cfi_startproc
 4857              		@ args = 0, pretend = 0, frame = 8
 4858              		@ frame_needed = 1, uses_anonymous_args = 0
 4859              		@ link register save eliminated.
 4860 0000 80B4     		push	{r7}
 4861              	.LCFI363:
 4862              		.cfi_def_cfa_offset 4
 4863              		.cfi_offset 7, -4
 4864 0002 83B0     		sub	sp, sp, #12
 4865              	.LCFI364:
 4866              		.cfi_def_cfa_offset 16
 4867 0004 00AF     		add	r7, sp, #0
 4868              	.LCFI365:
 4869              		.cfi_def_cfa_register 7
 4870 0006 7860     		str	r0, [r7, #4]
 4871 0008 3960     		str	r1, [r7]
2219:../Shared/Libraries/STM32F4xx_StdPeriph_Driver/src/stm32f4xx_tim.c ****   /* Check the parameters */
2220:../Shared/Libraries/STM32F4xx_StdPeriph_Driver/src/stm32f4xx_tim.c ****   assert_param(IS_TIM_LIST4_PERIPH(TIMx));
2221:../Shared/Libraries/STM32F4xx_StdPeriph_Driver/src/stm32f4xx_tim.c ****   assert_param(IS_TIM_OSSR_STATE(TIM_BDTRInitStruct->TIM_OSSRState));
2222:../Shared/Libraries/STM32F4xx_StdPeriph_Driver/src/stm32f4xx_tim.c ****   assert_param(IS_TIM_OSSI_STATE(TIM_BDTRInitStruct->TIM_OSSIState));
2223:../Shared/Libraries/STM32F4xx_StdPeriph_Driver/src/stm32f4xx_tim.c ****   assert_param(IS_TIM_LOCK_LEVEL(TIM_BDTRInitStruct->TIM_LOCKLevel));
2224:../Shared/Libraries/STM32F4xx_StdPeriph_Driver/src/stm32f4xx_tim.c ****   assert_param(IS_TIM_BREAK_STATE(TIM_BDTRInitStruct->TIM_Break));
2225:../Shared/Libraries/STM32F4xx_StdPeriph_Driver/src/stm32f4xx_tim.c ****   assert_param(IS_TIM_BREAK_POLARITY(TIM_BDTRInitStruct->TIM_BreakPolarity));
2226:../Shared/Libraries/STM32F4xx_StdPeriph_Driver/src/stm32f4xx_tim.c ****   assert_param(IS_TIM_AUTOMATIC_OUTPUT_STATE(TIM_BDTRInitStruct->TIM_AutomaticOutput));
2227:../Shared/Libraries/STM32F4xx_StdPeriph_Driver/src/stm32f4xx_tim.c **** 
2228:../Shared/Libraries/STM32F4xx_StdPeriph_Driver/src/stm32f4xx_tim.c ****   /* Set the Lock level, the Break enable Bit and the Polarity, the OSSR State,
2229:../Shared/Libraries/STM32F4xx_StdPeriph_Driver/src/stm32f4xx_tim.c ****      the OSSI State, the dead time value and the Automatic Output Enable Bit */
2230:../Shared/Libraries/STM32F4xx_StdPeriph_Driver/src/stm32f4xx_tim.c ****   TIMx->BDTR = (uint32_t)TIM_BDTRInitStruct->TIM_OSSRState | TIM_BDTRInitStruct->TIM_OSSIState |
 4872              		.loc 1 2230 44
 4873 000a 3B68     		ldr	r3, [r7]
 4874 000c 1A88     		ldrh	r2, [r3]
 4875              		.loc 1 2230 80
 4876 000e 3B68     		ldr	r3, [r7]
 4877 0010 5B88     		ldrh	r3, [r3, #2]
 4878              		.loc 1 2230 14
 4879 0012 1343     		orrs	r3, r3, r2
 4880 0014 9AB2     		uxth	r2, r3
2231:../Shared/Libraries/STM32F4xx_StdPeriph_Driver/src/stm32f4xx_tim.c ****              TIM_BDTRInitStruct->TIM_LOCKLevel | TIM_BDTRInitStruct->TIM_DeadTime |
 4881              		.loc 1 2231 32
 4882 0016 3B68     		ldr	r3, [r7]
 4883 0018 9B88     		ldrh	r3, [r3, #4]
2230:../Shared/Libraries/STM32F4xx_StdPeriph_Driver/src/stm32f4xx_tim.c ****              TIM_BDTRInitStruct->TIM_LOCKLevel | TIM_BDTRInitStruct->TIM_DeadTime |
 4884              		.loc 1 2230 14
 4885 001a 1343     		orrs	r3, r3, r2
 4886 001c 9AB2     		uxth	r2, r3
 4887              		.loc 1 2231 68
 4888 001e 3B68     		ldr	r3, [r7]
 4889 0020 DB88     		ldrh	r3, [r3, #6]
2230:../Shared/Libraries/STM32F4xx_StdPeriph_Driver/src/stm32f4xx_tim.c ****              TIM_BDTRInitStruct->TIM_LOCKLevel | TIM_BDTRInitStruct->TIM_DeadTime |
 4890              		.loc 1 2230 14
 4891 0022 1343     		orrs	r3, r3, r2
 4892 0024 9AB2     		uxth	r2, r3
2232:../Shared/Libraries/STM32F4xx_StdPeriph_Driver/src/stm32f4xx_tim.c ****              TIM_BDTRInitStruct->TIM_Break | TIM_BDTRInitStruct->TIM_BreakPolarity |
 4893              		.loc 1 2232 32
 4894 0026 3B68     		ldr	r3, [r7]
 4895 0028 1B89     		ldrh	r3, [r3, #8]
2230:../Shared/Libraries/STM32F4xx_StdPeriph_Driver/src/stm32f4xx_tim.c ****              TIM_BDTRInitStruct->TIM_LOCKLevel | TIM_BDTRInitStruct->TIM_DeadTime |
ARM GAS  /tmp/cc2zcHeL.s 			page 125


 4896              		.loc 1 2230 14
 4897 002a 1343     		orrs	r3, r3, r2
 4898 002c 9AB2     		uxth	r2, r3
 4899              		.loc 1 2232 64
 4900 002e 3B68     		ldr	r3, [r7]
 4901 0030 5B89     		ldrh	r3, [r3, #10]
2230:../Shared/Libraries/STM32F4xx_StdPeriph_Driver/src/stm32f4xx_tim.c ****              TIM_BDTRInitStruct->TIM_LOCKLevel | TIM_BDTRInitStruct->TIM_DeadTime |
 4902              		.loc 1 2230 14
 4903 0032 1343     		orrs	r3, r3, r2
 4904 0034 9AB2     		uxth	r2, r3
2233:../Shared/Libraries/STM32F4xx_StdPeriph_Driver/src/stm32f4xx_tim.c ****              TIM_BDTRInitStruct->TIM_AutomaticOutput;
 4905              		.loc 1 2233 32
 4906 0036 3B68     		ldr	r3, [r7]
 4907 0038 9B89     		ldrh	r3, [r3, #12]
2230:../Shared/Libraries/STM32F4xx_StdPeriph_Driver/src/stm32f4xx_tim.c ****              TIM_BDTRInitStruct->TIM_LOCKLevel | TIM_BDTRInitStruct->TIM_DeadTime |
 4908              		.loc 1 2230 14
 4909 003a 1343     		orrs	r3, r3, r2
 4910 003c 9AB2     		uxth	r2, r3
 4911 003e 7B68     		ldr	r3, [r7, #4]
 4912 0040 A3F84420 		strh	r2, [r3, #68]	@ movhi
2234:../Shared/Libraries/STM32F4xx_StdPeriph_Driver/src/stm32f4xx_tim.c **** }
 4913              		.loc 1 2234 1
 4914 0044 00BF     		nop
 4915 0046 0C37     		adds	r7, r7, #12
 4916              	.LCFI366:
 4917              		.cfi_def_cfa_offset 4
 4918 0048 BD46     		mov	sp, r7
 4919              	.LCFI367:
 4920              		.cfi_def_cfa_register 13
 4921              		@ sp needed
 4922 004a 5DF8047B 		ldr	r7, [sp], #4
 4923              	.LCFI368:
 4924              		.cfi_restore 7
 4925              		.cfi_def_cfa_offset 0
 4926 004e 7047     		bx	lr
 4927              		.cfi_endproc
 4928              	.LFE171:
 4930              		.section	.text.TIM_BDTRStructInit,"ax",%progbits
 4931              		.align	1
 4932              		.global	TIM_BDTRStructInit
 4933              		.syntax unified
 4934              		.thumb
 4935              		.thumb_func
 4937              	TIM_BDTRStructInit:
 4938              	.LFB172:
2235:../Shared/Libraries/STM32F4xx_StdPeriph_Driver/src/stm32f4xx_tim.c **** 
2236:../Shared/Libraries/STM32F4xx_StdPeriph_Driver/src/stm32f4xx_tim.c **** /**
2237:../Shared/Libraries/STM32F4xx_StdPeriph_Driver/src/stm32f4xx_tim.c ****   * @brief  Fills each TIM_BDTRInitStruct member with its default value.
2238:../Shared/Libraries/STM32F4xx_StdPeriph_Driver/src/stm32f4xx_tim.c ****   * @param  TIM_BDTRInitStruct: pointer to a TIM_BDTRInitTypeDef structure which
2239:../Shared/Libraries/STM32F4xx_StdPeriph_Driver/src/stm32f4xx_tim.c ****   *         will be initialized.
2240:../Shared/Libraries/STM32F4xx_StdPeriph_Driver/src/stm32f4xx_tim.c ****   * @retval None
2241:../Shared/Libraries/STM32F4xx_StdPeriph_Driver/src/stm32f4xx_tim.c ****   */
2242:../Shared/Libraries/STM32F4xx_StdPeriph_Driver/src/stm32f4xx_tim.c **** void TIM_BDTRStructInit(TIM_BDTRInitTypeDef* TIM_BDTRInitStruct)
2243:../Shared/Libraries/STM32F4xx_StdPeriph_Driver/src/stm32f4xx_tim.c **** {
 4939              		.loc 1 2243 1
 4940              		.cfi_startproc
 4941              		@ args = 0, pretend = 0, frame = 8
ARM GAS  /tmp/cc2zcHeL.s 			page 126


 4942              		@ frame_needed = 1, uses_anonymous_args = 0
 4943              		@ link register save eliminated.
 4944 0000 80B4     		push	{r7}
 4945              	.LCFI369:
 4946              		.cfi_def_cfa_offset 4
 4947              		.cfi_offset 7, -4
 4948 0002 83B0     		sub	sp, sp, #12
 4949              	.LCFI370:
 4950              		.cfi_def_cfa_offset 16
 4951 0004 00AF     		add	r7, sp, #0
 4952              	.LCFI371:
 4953              		.cfi_def_cfa_register 7
 4954 0006 7860     		str	r0, [r7, #4]
2244:../Shared/Libraries/STM32F4xx_StdPeriph_Driver/src/stm32f4xx_tim.c ****   /* Set the default configuration */
2245:../Shared/Libraries/STM32F4xx_StdPeriph_Driver/src/stm32f4xx_tim.c ****   TIM_BDTRInitStruct->TIM_OSSRState = TIM_OSSRState_Disable;
 4955              		.loc 1 2245 37
 4956 0008 7B68     		ldr	r3, [r7, #4]
 4957 000a 0022     		movs	r2, #0
 4958 000c 1A80     		strh	r2, [r3]	@ movhi
2246:../Shared/Libraries/STM32F4xx_StdPeriph_Driver/src/stm32f4xx_tim.c ****   TIM_BDTRInitStruct->TIM_OSSIState = TIM_OSSIState_Disable;
 4959              		.loc 1 2246 37
 4960 000e 7B68     		ldr	r3, [r7, #4]
 4961 0010 0022     		movs	r2, #0
 4962 0012 5A80     		strh	r2, [r3, #2]	@ movhi
2247:../Shared/Libraries/STM32F4xx_StdPeriph_Driver/src/stm32f4xx_tim.c ****   TIM_BDTRInitStruct->TIM_LOCKLevel = TIM_LOCKLevel_OFF;
 4963              		.loc 1 2247 37
 4964 0014 7B68     		ldr	r3, [r7, #4]
 4965 0016 0022     		movs	r2, #0
 4966 0018 9A80     		strh	r2, [r3, #4]	@ movhi
2248:../Shared/Libraries/STM32F4xx_StdPeriph_Driver/src/stm32f4xx_tim.c ****   TIM_BDTRInitStruct->TIM_DeadTime = 0x00;
 4967              		.loc 1 2248 36
 4968 001a 7B68     		ldr	r3, [r7, #4]
 4969 001c 0022     		movs	r2, #0
 4970 001e DA80     		strh	r2, [r3, #6]	@ movhi
2249:../Shared/Libraries/STM32F4xx_StdPeriph_Driver/src/stm32f4xx_tim.c ****   TIM_BDTRInitStruct->TIM_Break = TIM_Break_Disable;
 4971              		.loc 1 2249 33
 4972 0020 7B68     		ldr	r3, [r7, #4]
 4973 0022 0022     		movs	r2, #0
 4974 0024 1A81     		strh	r2, [r3, #8]	@ movhi
2250:../Shared/Libraries/STM32F4xx_StdPeriph_Driver/src/stm32f4xx_tim.c ****   TIM_BDTRInitStruct->TIM_BreakPolarity = TIM_BreakPolarity_Low;
 4975              		.loc 1 2250 41
 4976 0026 7B68     		ldr	r3, [r7, #4]
 4977 0028 0022     		movs	r2, #0
 4978 002a 5A81     		strh	r2, [r3, #10]	@ movhi
2251:../Shared/Libraries/STM32F4xx_StdPeriph_Driver/src/stm32f4xx_tim.c ****   TIM_BDTRInitStruct->TIM_AutomaticOutput = TIM_AutomaticOutput_Disable;
 4979              		.loc 1 2251 43
 4980 002c 7B68     		ldr	r3, [r7, #4]
 4981 002e 0022     		movs	r2, #0
 4982 0030 9A81     		strh	r2, [r3, #12]	@ movhi
2252:../Shared/Libraries/STM32F4xx_StdPeriph_Driver/src/stm32f4xx_tim.c **** }
 4983              		.loc 1 2252 1
 4984 0032 00BF     		nop
 4985 0034 0C37     		adds	r7, r7, #12
 4986              	.LCFI372:
 4987              		.cfi_def_cfa_offset 4
 4988 0036 BD46     		mov	sp, r7
 4989              	.LCFI373:
ARM GAS  /tmp/cc2zcHeL.s 			page 127


 4990              		.cfi_def_cfa_register 13
 4991              		@ sp needed
 4992 0038 5DF8047B 		ldr	r7, [sp], #4
 4993              	.LCFI374:
 4994              		.cfi_restore 7
 4995              		.cfi_def_cfa_offset 0
 4996 003c 7047     		bx	lr
 4997              		.cfi_endproc
 4998              	.LFE172:
 5000              		.section	.text.TIM_CtrlPWMOutputs,"ax",%progbits
 5001              		.align	1
 5002              		.global	TIM_CtrlPWMOutputs
 5003              		.syntax unified
 5004              		.thumb
 5005              		.thumb_func
 5007              	TIM_CtrlPWMOutputs:
 5008              	.LFB173:
2253:../Shared/Libraries/STM32F4xx_StdPeriph_Driver/src/stm32f4xx_tim.c **** 
2254:../Shared/Libraries/STM32F4xx_StdPeriph_Driver/src/stm32f4xx_tim.c **** /**
2255:../Shared/Libraries/STM32F4xx_StdPeriph_Driver/src/stm32f4xx_tim.c ****   * @brief  Enables or disables the TIM peripheral Main Outputs.
2256:../Shared/Libraries/STM32F4xx_StdPeriph_Driver/src/stm32f4xx_tim.c ****   * @param  TIMx: where x can be 1 or 8 to select the TIMx peripheral.
2257:../Shared/Libraries/STM32F4xx_StdPeriph_Driver/src/stm32f4xx_tim.c ****   * @param  NewState: new state of the TIM peripheral Main Outputs.
2258:../Shared/Libraries/STM32F4xx_StdPeriph_Driver/src/stm32f4xx_tim.c ****   *          This parameter can be: ENABLE or DISABLE.
2259:../Shared/Libraries/STM32F4xx_StdPeriph_Driver/src/stm32f4xx_tim.c ****   * @retval None
2260:../Shared/Libraries/STM32F4xx_StdPeriph_Driver/src/stm32f4xx_tim.c ****   */
2261:../Shared/Libraries/STM32F4xx_StdPeriph_Driver/src/stm32f4xx_tim.c **** void TIM_CtrlPWMOutputs(TIM_TypeDef* TIMx, FunctionalState NewState)
2262:../Shared/Libraries/STM32F4xx_StdPeriph_Driver/src/stm32f4xx_tim.c **** {
 5009              		.loc 1 2262 1
 5010              		.cfi_startproc
 5011              		@ args = 0, pretend = 0, frame = 8
 5012              		@ frame_needed = 1, uses_anonymous_args = 0
 5013              		@ link register save eliminated.
 5014 0000 80B4     		push	{r7}
 5015              	.LCFI375:
 5016              		.cfi_def_cfa_offset 4
 5017              		.cfi_offset 7, -4
 5018 0002 83B0     		sub	sp, sp, #12
 5019              	.LCFI376:
 5020              		.cfi_def_cfa_offset 16
 5021 0004 00AF     		add	r7, sp, #0
 5022              	.LCFI377:
 5023              		.cfi_def_cfa_register 7
 5024 0006 7860     		str	r0, [r7, #4]
 5025 0008 0B46     		mov	r3, r1
 5026 000a FB70     		strb	r3, [r7, #3]
2263:../Shared/Libraries/STM32F4xx_StdPeriph_Driver/src/stm32f4xx_tim.c ****   /* Check the parameters */
2264:../Shared/Libraries/STM32F4xx_StdPeriph_Driver/src/stm32f4xx_tim.c ****   assert_param(IS_TIM_LIST4_PERIPH(TIMx));
2265:../Shared/Libraries/STM32F4xx_StdPeriph_Driver/src/stm32f4xx_tim.c ****   assert_param(IS_FUNCTIONAL_STATE(NewState));
2266:../Shared/Libraries/STM32F4xx_StdPeriph_Driver/src/stm32f4xx_tim.c **** 
2267:../Shared/Libraries/STM32F4xx_StdPeriph_Driver/src/stm32f4xx_tim.c ****   if (NewState != DISABLE)
 5027              		.loc 1 2267 6
 5028 000c FB78     		ldrb	r3, [r7, #3]	@ zero_extendqisi2
 5029 000e 002B     		cmp	r3, #0
 5030 0010 0CD0     		beq	.L138
2268:../Shared/Libraries/STM32F4xx_StdPeriph_Driver/src/stm32f4xx_tim.c ****   {
2269:../Shared/Libraries/STM32F4xx_StdPeriph_Driver/src/stm32f4xx_tim.c ****     /* Enable the TIM Main Output */
2270:../Shared/Libraries/STM32F4xx_StdPeriph_Driver/src/stm32f4xx_tim.c ****     TIMx->BDTR |= TIM_BDTR_MOE;
ARM GAS  /tmp/cc2zcHeL.s 			page 128


 5031              		.loc 1 2270 9
 5032 0012 7B68     		ldr	r3, [r7, #4]
 5033 0014 B3F84430 		ldrh	r3, [r3, #68]	@ movhi
 5034 0018 9BB2     		uxth	r3, r3
 5035              		.loc 1 2270 16
 5036 001a 6FEA4343 		mvn	r3, r3, lsl #17
 5037 001e 6FEA5343 		mvn	r3, r3, lsr #17
 5038 0022 9AB2     		uxth	r2, r3
 5039 0024 7B68     		ldr	r3, [r7, #4]
 5040 0026 A3F84420 		strh	r2, [r3, #68]	@ movhi
2271:../Shared/Libraries/STM32F4xx_StdPeriph_Driver/src/stm32f4xx_tim.c ****   }
2272:../Shared/Libraries/STM32F4xx_StdPeriph_Driver/src/stm32f4xx_tim.c ****   else
2273:../Shared/Libraries/STM32F4xx_StdPeriph_Driver/src/stm32f4xx_tim.c ****   {
2274:../Shared/Libraries/STM32F4xx_StdPeriph_Driver/src/stm32f4xx_tim.c ****     /* Disable the TIM Main Output */
2275:../Shared/Libraries/STM32F4xx_StdPeriph_Driver/src/stm32f4xx_tim.c ****     TIMx->BDTR &= (uint16_t)~TIM_BDTR_MOE;
2276:../Shared/Libraries/STM32F4xx_StdPeriph_Driver/src/stm32f4xx_tim.c ****   }  
2277:../Shared/Libraries/STM32F4xx_StdPeriph_Driver/src/stm32f4xx_tim.c **** }
 5041              		.loc 1 2277 1
 5042 002a 09E0     		b	.L140
 5043              	.L138:
2275:../Shared/Libraries/STM32F4xx_StdPeriph_Driver/src/stm32f4xx_tim.c ****   }  
 5044              		.loc 1 2275 9
 5045 002c 7B68     		ldr	r3, [r7, #4]
 5046 002e B3F84430 		ldrh	r3, [r3, #68]	@ movhi
 5047 0032 9BB2     		uxth	r3, r3
2275:../Shared/Libraries/STM32F4xx_StdPeriph_Driver/src/stm32f4xx_tim.c ****   }  
 5048              		.loc 1 2275 16
 5049 0034 C3F30E03 		ubfx	r3, r3, #0, #15
 5050 0038 9AB2     		uxth	r2, r3
 5051 003a 7B68     		ldr	r3, [r7, #4]
 5052 003c A3F84420 		strh	r2, [r3, #68]	@ movhi
 5053              	.L140:
 5054              		.loc 1 2277 1
 5055 0040 00BF     		nop
 5056 0042 0C37     		adds	r7, r7, #12
 5057              	.LCFI378:
 5058              		.cfi_def_cfa_offset 4
 5059 0044 BD46     		mov	sp, r7
 5060              	.LCFI379:
 5061              		.cfi_def_cfa_register 13
 5062              		@ sp needed
 5063 0046 5DF8047B 		ldr	r7, [sp], #4
 5064              	.LCFI380:
 5065              		.cfi_restore 7
 5066              		.cfi_def_cfa_offset 0
 5067 004a 7047     		bx	lr
 5068              		.cfi_endproc
 5069              	.LFE173:
 5071              		.section	.text.TIM_SelectCOM,"ax",%progbits
 5072              		.align	1
 5073              		.global	TIM_SelectCOM
 5074              		.syntax unified
 5075              		.thumb
 5076              		.thumb_func
 5078              	TIM_SelectCOM:
 5079              	.LFB174:
2278:../Shared/Libraries/STM32F4xx_StdPeriph_Driver/src/stm32f4xx_tim.c **** 
ARM GAS  /tmp/cc2zcHeL.s 			page 129


2279:../Shared/Libraries/STM32F4xx_StdPeriph_Driver/src/stm32f4xx_tim.c **** /**
2280:../Shared/Libraries/STM32F4xx_StdPeriph_Driver/src/stm32f4xx_tim.c ****   * @brief  Selects the TIM peripheral Commutation event.
2281:../Shared/Libraries/STM32F4xx_StdPeriph_Driver/src/stm32f4xx_tim.c ****   * @param  TIMx: where x can be  1 or 8 to select the TIMx peripheral
2282:../Shared/Libraries/STM32F4xx_StdPeriph_Driver/src/stm32f4xx_tim.c ****   * @param  NewState: new state of the Commutation event.
2283:../Shared/Libraries/STM32F4xx_StdPeriph_Driver/src/stm32f4xx_tim.c ****   *          This parameter can be: ENABLE or DISABLE.
2284:../Shared/Libraries/STM32F4xx_StdPeriph_Driver/src/stm32f4xx_tim.c ****   * @retval None
2285:../Shared/Libraries/STM32F4xx_StdPeriph_Driver/src/stm32f4xx_tim.c ****   */
2286:../Shared/Libraries/STM32F4xx_StdPeriph_Driver/src/stm32f4xx_tim.c **** void TIM_SelectCOM(TIM_TypeDef* TIMx, FunctionalState NewState)
2287:../Shared/Libraries/STM32F4xx_StdPeriph_Driver/src/stm32f4xx_tim.c **** {
 5080              		.loc 1 2287 1
 5081              		.cfi_startproc
 5082              		@ args = 0, pretend = 0, frame = 8
 5083              		@ frame_needed = 1, uses_anonymous_args = 0
 5084              		@ link register save eliminated.
 5085 0000 80B4     		push	{r7}
 5086              	.LCFI381:
 5087              		.cfi_def_cfa_offset 4
 5088              		.cfi_offset 7, -4
 5089 0002 83B0     		sub	sp, sp, #12
 5090              	.LCFI382:
 5091              		.cfi_def_cfa_offset 16
 5092 0004 00AF     		add	r7, sp, #0
 5093              	.LCFI383:
 5094              		.cfi_def_cfa_register 7
 5095 0006 7860     		str	r0, [r7, #4]
 5096 0008 0B46     		mov	r3, r1
 5097 000a FB70     		strb	r3, [r7, #3]
2288:../Shared/Libraries/STM32F4xx_StdPeriph_Driver/src/stm32f4xx_tim.c ****   /* Check the parameters */
2289:../Shared/Libraries/STM32F4xx_StdPeriph_Driver/src/stm32f4xx_tim.c ****   assert_param(IS_TIM_LIST4_PERIPH(TIMx));
2290:../Shared/Libraries/STM32F4xx_StdPeriph_Driver/src/stm32f4xx_tim.c ****   assert_param(IS_FUNCTIONAL_STATE(NewState));
2291:../Shared/Libraries/STM32F4xx_StdPeriph_Driver/src/stm32f4xx_tim.c **** 
2292:../Shared/Libraries/STM32F4xx_StdPeriph_Driver/src/stm32f4xx_tim.c ****   if (NewState != DISABLE)
 5098              		.loc 1 2292 6
 5099 000c FB78     		ldrb	r3, [r7, #3]	@ zero_extendqisi2
 5100 000e 002B     		cmp	r3, #0
 5101 0010 08D0     		beq	.L142
2293:../Shared/Libraries/STM32F4xx_StdPeriph_Driver/src/stm32f4xx_tim.c ****   {
2294:../Shared/Libraries/STM32F4xx_StdPeriph_Driver/src/stm32f4xx_tim.c ****     /* Set the COM Bit */
2295:../Shared/Libraries/STM32F4xx_StdPeriph_Driver/src/stm32f4xx_tim.c ****     TIMx->CR2 |= TIM_CR2_CCUS;
 5102              		.loc 1 2295 9
 5103 0012 7B68     		ldr	r3, [r7, #4]
 5104 0014 9B88     		ldrh	r3, [r3, #4]	@ movhi
 5105 0016 9BB2     		uxth	r3, r3
 5106              		.loc 1 2295 15
 5107 0018 43F00403 		orr	r3, r3, #4
 5108 001c 9AB2     		uxth	r2, r3
 5109 001e 7B68     		ldr	r3, [r7, #4]
 5110 0020 9A80     		strh	r2, [r3, #4]	@ movhi
2296:../Shared/Libraries/STM32F4xx_StdPeriph_Driver/src/stm32f4xx_tim.c ****   }
2297:../Shared/Libraries/STM32F4xx_StdPeriph_Driver/src/stm32f4xx_tim.c ****   else
2298:../Shared/Libraries/STM32F4xx_StdPeriph_Driver/src/stm32f4xx_tim.c ****   {
2299:../Shared/Libraries/STM32F4xx_StdPeriph_Driver/src/stm32f4xx_tim.c ****     /* Reset the COM Bit */
2300:../Shared/Libraries/STM32F4xx_StdPeriph_Driver/src/stm32f4xx_tim.c ****     TIMx->CR2 &= (uint16_t)~TIM_CR2_CCUS;
2301:../Shared/Libraries/STM32F4xx_StdPeriph_Driver/src/stm32f4xx_tim.c ****   }
2302:../Shared/Libraries/STM32F4xx_StdPeriph_Driver/src/stm32f4xx_tim.c **** }
 5111              		.loc 1 2302 1
 5112 0022 07E0     		b	.L144
ARM GAS  /tmp/cc2zcHeL.s 			page 130


 5113              	.L142:
2300:../Shared/Libraries/STM32F4xx_StdPeriph_Driver/src/stm32f4xx_tim.c ****   }
 5114              		.loc 1 2300 9
 5115 0024 7B68     		ldr	r3, [r7, #4]
 5116 0026 9B88     		ldrh	r3, [r3, #4]	@ movhi
 5117 0028 9BB2     		uxth	r3, r3
2300:../Shared/Libraries/STM32F4xx_StdPeriph_Driver/src/stm32f4xx_tim.c ****   }
 5118              		.loc 1 2300 15
 5119 002a 23F00403 		bic	r3, r3, #4
 5120 002e 9AB2     		uxth	r2, r3
 5121 0030 7B68     		ldr	r3, [r7, #4]
 5122 0032 9A80     		strh	r2, [r3, #4]	@ movhi
 5123              	.L144:
 5124              		.loc 1 2302 1
 5125 0034 00BF     		nop
 5126 0036 0C37     		adds	r7, r7, #12
 5127              	.LCFI384:
 5128              		.cfi_def_cfa_offset 4
 5129 0038 BD46     		mov	sp, r7
 5130              	.LCFI385:
 5131              		.cfi_def_cfa_register 13
 5132              		@ sp needed
 5133 003a 5DF8047B 		ldr	r7, [sp], #4
 5134              	.LCFI386:
 5135              		.cfi_restore 7
 5136              		.cfi_def_cfa_offset 0
 5137 003e 7047     		bx	lr
 5138              		.cfi_endproc
 5139              	.LFE174:
 5141              		.section	.text.TIM_CCPreloadControl,"ax",%progbits
 5142              		.align	1
 5143              		.global	TIM_CCPreloadControl
 5144              		.syntax unified
 5145              		.thumb
 5146              		.thumb_func
 5148              	TIM_CCPreloadControl:
 5149              	.LFB175:
2303:../Shared/Libraries/STM32F4xx_StdPeriph_Driver/src/stm32f4xx_tim.c **** 
2304:../Shared/Libraries/STM32F4xx_StdPeriph_Driver/src/stm32f4xx_tim.c **** /**
2305:../Shared/Libraries/STM32F4xx_StdPeriph_Driver/src/stm32f4xx_tim.c ****   * @brief  Sets or Resets the TIM peripheral Capture Compare Preload Control bit.
2306:../Shared/Libraries/STM32F4xx_StdPeriph_Driver/src/stm32f4xx_tim.c ****   * @param  TIMx: where x can be  1 or 8 to select the TIMx peripheral
2307:../Shared/Libraries/STM32F4xx_StdPeriph_Driver/src/stm32f4xx_tim.c ****   * @param  NewState: new state of the Capture Compare Preload Control bit
2308:../Shared/Libraries/STM32F4xx_StdPeriph_Driver/src/stm32f4xx_tim.c ****   *          This parameter can be: ENABLE or DISABLE.
2309:../Shared/Libraries/STM32F4xx_StdPeriph_Driver/src/stm32f4xx_tim.c ****   * @retval None
2310:../Shared/Libraries/STM32F4xx_StdPeriph_Driver/src/stm32f4xx_tim.c ****   */
2311:../Shared/Libraries/STM32F4xx_StdPeriph_Driver/src/stm32f4xx_tim.c **** void TIM_CCPreloadControl(TIM_TypeDef* TIMx, FunctionalState NewState)
2312:../Shared/Libraries/STM32F4xx_StdPeriph_Driver/src/stm32f4xx_tim.c **** { 
 5150              		.loc 1 2312 1
 5151              		.cfi_startproc
 5152              		@ args = 0, pretend = 0, frame = 8
 5153              		@ frame_needed = 1, uses_anonymous_args = 0
 5154              		@ link register save eliminated.
 5155 0000 80B4     		push	{r7}
 5156              	.LCFI387:
 5157              		.cfi_def_cfa_offset 4
 5158              		.cfi_offset 7, -4
 5159 0002 83B0     		sub	sp, sp, #12
ARM GAS  /tmp/cc2zcHeL.s 			page 131


 5160              	.LCFI388:
 5161              		.cfi_def_cfa_offset 16
 5162 0004 00AF     		add	r7, sp, #0
 5163              	.LCFI389:
 5164              		.cfi_def_cfa_register 7
 5165 0006 7860     		str	r0, [r7, #4]
 5166 0008 0B46     		mov	r3, r1
 5167 000a FB70     		strb	r3, [r7, #3]
2313:../Shared/Libraries/STM32F4xx_StdPeriph_Driver/src/stm32f4xx_tim.c ****   /* Check the parameters */
2314:../Shared/Libraries/STM32F4xx_StdPeriph_Driver/src/stm32f4xx_tim.c ****   assert_param(IS_TIM_LIST4_PERIPH(TIMx));
2315:../Shared/Libraries/STM32F4xx_StdPeriph_Driver/src/stm32f4xx_tim.c ****   assert_param(IS_FUNCTIONAL_STATE(NewState));
2316:../Shared/Libraries/STM32F4xx_StdPeriph_Driver/src/stm32f4xx_tim.c ****   if (NewState != DISABLE)
 5168              		.loc 1 2316 6
 5169 000c FB78     		ldrb	r3, [r7, #3]	@ zero_extendqisi2
 5170 000e 002B     		cmp	r3, #0
 5171 0010 08D0     		beq	.L146
2317:../Shared/Libraries/STM32F4xx_StdPeriph_Driver/src/stm32f4xx_tim.c ****   {
2318:../Shared/Libraries/STM32F4xx_StdPeriph_Driver/src/stm32f4xx_tim.c ****     /* Set the CCPC Bit */
2319:../Shared/Libraries/STM32F4xx_StdPeriph_Driver/src/stm32f4xx_tim.c ****     TIMx->CR2 |= TIM_CR2_CCPC;
 5172              		.loc 1 2319 9
 5173 0012 7B68     		ldr	r3, [r7, #4]
 5174 0014 9B88     		ldrh	r3, [r3, #4]	@ movhi
 5175 0016 9BB2     		uxth	r3, r3
 5176              		.loc 1 2319 15
 5177 0018 43F00103 		orr	r3, r3, #1
 5178 001c 9AB2     		uxth	r2, r3
 5179 001e 7B68     		ldr	r3, [r7, #4]
 5180 0020 9A80     		strh	r2, [r3, #4]	@ movhi
2320:../Shared/Libraries/STM32F4xx_StdPeriph_Driver/src/stm32f4xx_tim.c ****   }
2321:../Shared/Libraries/STM32F4xx_StdPeriph_Driver/src/stm32f4xx_tim.c ****   else
2322:../Shared/Libraries/STM32F4xx_StdPeriph_Driver/src/stm32f4xx_tim.c ****   {
2323:../Shared/Libraries/STM32F4xx_StdPeriph_Driver/src/stm32f4xx_tim.c ****     /* Reset the CCPC Bit */
2324:../Shared/Libraries/STM32F4xx_StdPeriph_Driver/src/stm32f4xx_tim.c ****     TIMx->CR2 &= (uint16_t)~TIM_CR2_CCPC;
2325:../Shared/Libraries/STM32F4xx_StdPeriph_Driver/src/stm32f4xx_tim.c ****   }
2326:../Shared/Libraries/STM32F4xx_StdPeriph_Driver/src/stm32f4xx_tim.c **** }
 5181              		.loc 1 2326 1
 5182 0022 07E0     		b	.L148
 5183              	.L146:
2324:../Shared/Libraries/STM32F4xx_StdPeriph_Driver/src/stm32f4xx_tim.c ****   }
 5184              		.loc 1 2324 9
 5185 0024 7B68     		ldr	r3, [r7, #4]
 5186 0026 9B88     		ldrh	r3, [r3, #4]	@ movhi
 5187 0028 9BB2     		uxth	r3, r3
2324:../Shared/Libraries/STM32F4xx_StdPeriph_Driver/src/stm32f4xx_tim.c ****   }
 5188              		.loc 1 2324 15
 5189 002a 23F00103 		bic	r3, r3, #1
 5190 002e 9AB2     		uxth	r2, r3
 5191 0030 7B68     		ldr	r3, [r7, #4]
 5192 0032 9A80     		strh	r2, [r3, #4]	@ movhi
 5193              	.L148:
 5194              		.loc 1 2326 1
 5195 0034 00BF     		nop
 5196 0036 0C37     		adds	r7, r7, #12
 5197              	.LCFI390:
 5198              		.cfi_def_cfa_offset 4
 5199 0038 BD46     		mov	sp, r7
 5200              	.LCFI391:
ARM GAS  /tmp/cc2zcHeL.s 			page 132


 5201              		.cfi_def_cfa_register 13
 5202              		@ sp needed
 5203 003a 5DF8047B 		ldr	r7, [sp], #4
 5204              	.LCFI392:
 5205              		.cfi_restore 7
 5206              		.cfi_def_cfa_offset 0
 5207 003e 7047     		bx	lr
 5208              		.cfi_endproc
 5209              	.LFE175:
 5211              		.section	.text.TIM_ITConfig,"ax",%progbits
 5212              		.align	1
 5213              		.global	TIM_ITConfig
 5214              		.syntax unified
 5215              		.thumb
 5216              		.thumb_func
 5218              	TIM_ITConfig:
 5219              	.LFB176:
2327:../Shared/Libraries/STM32F4xx_StdPeriph_Driver/src/stm32f4xx_tim.c **** /**
2328:../Shared/Libraries/STM32F4xx_StdPeriph_Driver/src/stm32f4xx_tim.c ****   * @}
2329:../Shared/Libraries/STM32F4xx_StdPeriph_Driver/src/stm32f4xx_tim.c ****   */
2330:../Shared/Libraries/STM32F4xx_StdPeriph_Driver/src/stm32f4xx_tim.c **** 
2331:../Shared/Libraries/STM32F4xx_StdPeriph_Driver/src/stm32f4xx_tim.c **** /** @defgroup TIM_Group5 Interrupts DMA and flags management functions
2332:../Shared/Libraries/STM32F4xx_StdPeriph_Driver/src/stm32f4xx_tim.c ****  *  @brief    Interrupts, DMA and flags management functions 
2333:../Shared/Libraries/STM32F4xx_StdPeriph_Driver/src/stm32f4xx_tim.c ****  *
2334:../Shared/Libraries/STM32F4xx_StdPeriph_Driver/src/stm32f4xx_tim.c **** @verbatim   
2335:../Shared/Libraries/STM32F4xx_StdPeriph_Driver/src/stm32f4xx_tim.c ****  ===============================================================================
2336:../Shared/Libraries/STM32F4xx_StdPeriph_Driver/src/stm32f4xx_tim.c ****                  Interrupts, DMA and flags management functions
2337:../Shared/Libraries/STM32F4xx_StdPeriph_Driver/src/stm32f4xx_tim.c ****  ===============================================================================  
2338:../Shared/Libraries/STM32F4xx_StdPeriph_Driver/src/stm32f4xx_tim.c **** 
2339:../Shared/Libraries/STM32F4xx_StdPeriph_Driver/src/stm32f4xx_tim.c **** @endverbatim
2340:../Shared/Libraries/STM32F4xx_StdPeriph_Driver/src/stm32f4xx_tim.c ****   * @{
2341:../Shared/Libraries/STM32F4xx_StdPeriph_Driver/src/stm32f4xx_tim.c ****   */
2342:../Shared/Libraries/STM32F4xx_StdPeriph_Driver/src/stm32f4xx_tim.c **** 
2343:../Shared/Libraries/STM32F4xx_StdPeriph_Driver/src/stm32f4xx_tim.c **** /**
2344:../Shared/Libraries/STM32F4xx_StdPeriph_Driver/src/stm32f4xx_tim.c ****   * @brief  Enables or disables the specified TIM interrupts.
2345:../Shared/Libraries/STM32F4xx_StdPeriph_Driver/src/stm32f4xx_tim.c ****   * @param  TIMx: where x can be 1 to 14 to select the TIMx peripheral.
2346:../Shared/Libraries/STM32F4xx_StdPeriph_Driver/src/stm32f4xx_tim.c ****   * @param  TIM_IT: specifies the TIM interrupts sources to be enabled or disabled.
2347:../Shared/Libraries/STM32F4xx_StdPeriph_Driver/src/stm32f4xx_tim.c ****   *          This parameter can be any combination of the following values:
2348:../Shared/Libraries/STM32F4xx_StdPeriph_Driver/src/stm32f4xx_tim.c ****   *            @arg TIM_IT_Update: TIM update Interrupt source
2349:../Shared/Libraries/STM32F4xx_StdPeriph_Driver/src/stm32f4xx_tim.c ****   *            @arg TIM_IT_CC1: TIM Capture Compare 1 Interrupt source
2350:../Shared/Libraries/STM32F4xx_StdPeriph_Driver/src/stm32f4xx_tim.c ****   *            @arg TIM_IT_CC2: TIM Capture Compare 2 Interrupt source
2351:../Shared/Libraries/STM32F4xx_StdPeriph_Driver/src/stm32f4xx_tim.c ****   *            @arg TIM_IT_CC3: TIM Capture Compare 3 Interrupt source
2352:../Shared/Libraries/STM32F4xx_StdPeriph_Driver/src/stm32f4xx_tim.c ****   *            @arg TIM_IT_CC4: TIM Capture Compare 4 Interrupt source
2353:../Shared/Libraries/STM32F4xx_StdPeriph_Driver/src/stm32f4xx_tim.c ****   *            @arg TIM_IT_COM: TIM Commutation Interrupt source
2354:../Shared/Libraries/STM32F4xx_StdPeriph_Driver/src/stm32f4xx_tim.c ****   *            @arg TIM_IT_Trigger: TIM Trigger Interrupt source
2355:../Shared/Libraries/STM32F4xx_StdPeriph_Driver/src/stm32f4xx_tim.c ****   *            @arg TIM_IT_Break: TIM Break Interrupt source
2356:../Shared/Libraries/STM32F4xx_StdPeriph_Driver/src/stm32f4xx_tim.c ****   *  
2357:../Shared/Libraries/STM32F4xx_StdPeriph_Driver/src/stm32f4xx_tim.c ****   * @note   For TIM6 and TIM7 only the parameter TIM_IT_Update can be used
2358:../Shared/Libraries/STM32F4xx_StdPeriph_Driver/src/stm32f4xx_tim.c ****   * @note   For TIM9 and TIM12 only one of the following parameters can be used: TIM_IT_Update,
2359:../Shared/Libraries/STM32F4xx_StdPeriph_Driver/src/stm32f4xx_tim.c ****   *          TIM_IT_CC1, TIM_IT_CC2 or TIM_IT_Trigger. 
2360:../Shared/Libraries/STM32F4xx_StdPeriph_Driver/src/stm32f4xx_tim.c ****   * @note   For TIM10, TIM11, TIM13 and TIM14 only one of the following parameters can
2361:../Shared/Libraries/STM32F4xx_StdPeriph_Driver/src/stm32f4xx_tim.c ****   *          be used: TIM_IT_Update or TIM_IT_CC1   
2362:../Shared/Libraries/STM32F4xx_StdPeriph_Driver/src/stm32f4xx_tim.c ****   * @note   TIM_IT_COM and TIM_IT_Break can be used only with TIM1 and TIM8 
2363:../Shared/Libraries/STM32F4xx_StdPeriph_Driver/src/stm32f4xx_tim.c ****   *        
2364:../Shared/Libraries/STM32F4xx_StdPeriph_Driver/src/stm32f4xx_tim.c ****   * @param  NewState: new state of the TIM interrupts.
2365:../Shared/Libraries/STM32F4xx_StdPeriph_Driver/src/stm32f4xx_tim.c ****   *          This parameter can be: ENABLE or DISABLE.
2366:../Shared/Libraries/STM32F4xx_StdPeriph_Driver/src/stm32f4xx_tim.c ****   * @retval None
ARM GAS  /tmp/cc2zcHeL.s 			page 133


2367:../Shared/Libraries/STM32F4xx_StdPeriph_Driver/src/stm32f4xx_tim.c ****   */
2368:../Shared/Libraries/STM32F4xx_StdPeriph_Driver/src/stm32f4xx_tim.c **** void TIM_ITConfig(TIM_TypeDef* TIMx, uint16_t TIM_IT, FunctionalState NewState)
2369:../Shared/Libraries/STM32F4xx_StdPeriph_Driver/src/stm32f4xx_tim.c **** {  
 5220              		.loc 1 2369 1
 5221              		.cfi_startproc
 5222              		@ args = 0, pretend = 0, frame = 8
 5223              		@ frame_needed = 1, uses_anonymous_args = 0
 5224              		@ link register save eliminated.
 5225 0000 80B4     		push	{r7}
 5226              	.LCFI393:
 5227              		.cfi_def_cfa_offset 4
 5228              		.cfi_offset 7, -4
 5229 0002 83B0     		sub	sp, sp, #12
 5230              	.LCFI394:
 5231              		.cfi_def_cfa_offset 16
 5232 0004 00AF     		add	r7, sp, #0
 5233              	.LCFI395:
 5234              		.cfi_def_cfa_register 7
 5235 0006 7860     		str	r0, [r7, #4]
 5236 0008 0B46     		mov	r3, r1
 5237 000a 7B80     		strh	r3, [r7, #2]	@ movhi
 5238 000c 1346     		mov	r3, r2
 5239 000e 7B70     		strb	r3, [r7, #1]
2370:../Shared/Libraries/STM32F4xx_StdPeriph_Driver/src/stm32f4xx_tim.c ****   /* Check the parameters */
2371:../Shared/Libraries/STM32F4xx_StdPeriph_Driver/src/stm32f4xx_tim.c ****   assert_param(IS_TIM_ALL_PERIPH(TIMx));
2372:../Shared/Libraries/STM32F4xx_StdPeriph_Driver/src/stm32f4xx_tim.c ****   assert_param(IS_TIM_IT(TIM_IT));
2373:../Shared/Libraries/STM32F4xx_StdPeriph_Driver/src/stm32f4xx_tim.c ****   assert_param(IS_FUNCTIONAL_STATE(NewState));
2374:../Shared/Libraries/STM32F4xx_StdPeriph_Driver/src/stm32f4xx_tim.c ****   
2375:../Shared/Libraries/STM32F4xx_StdPeriph_Driver/src/stm32f4xx_tim.c ****   if (NewState != DISABLE)
 5240              		.loc 1 2375 6
 5241 0010 7B78     		ldrb	r3, [r7, #1]	@ zero_extendqisi2
 5242 0012 002B     		cmp	r3, #0
 5243 0014 08D0     		beq	.L150
2376:../Shared/Libraries/STM32F4xx_StdPeriph_Driver/src/stm32f4xx_tim.c ****   {
2377:../Shared/Libraries/STM32F4xx_StdPeriph_Driver/src/stm32f4xx_tim.c ****     /* Enable the Interrupt sources */
2378:../Shared/Libraries/STM32F4xx_StdPeriph_Driver/src/stm32f4xx_tim.c ****     TIMx->DIER |= TIM_IT;
 5244              		.loc 1 2378 9
 5245 0016 7B68     		ldr	r3, [r7, #4]
 5246 0018 9B89     		ldrh	r3, [r3, #12]	@ movhi
 5247 001a 9AB2     		uxth	r2, r3
 5248              		.loc 1 2378 16
 5249 001c 7B88     		ldrh	r3, [r7, #2]	@ movhi
 5250 001e 1343     		orrs	r3, r3, r2
 5251 0020 9AB2     		uxth	r2, r3
 5252 0022 7B68     		ldr	r3, [r7, #4]
 5253 0024 9A81     		strh	r2, [r3, #12]	@ movhi
2379:../Shared/Libraries/STM32F4xx_StdPeriph_Driver/src/stm32f4xx_tim.c ****   }
2380:../Shared/Libraries/STM32F4xx_StdPeriph_Driver/src/stm32f4xx_tim.c ****   else
2381:../Shared/Libraries/STM32F4xx_StdPeriph_Driver/src/stm32f4xx_tim.c ****   {
2382:../Shared/Libraries/STM32F4xx_StdPeriph_Driver/src/stm32f4xx_tim.c ****     /* Disable the Interrupt sources */
2383:../Shared/Libraries/STM32F4xx_StdPeriph_Driver/src/stm32f4xx_tim.c ****     TIMx->DIER &= (uint16_t)~TIM_IT;
2384:../Shared/Libraries/STM32F4xx_StdPeriph_Driver/src/stm32f4xx_tim.c ****   }
2385:../Shared/Libraries/STM32F4xx_StdPeriph_Driver/src/stm32f4xx_tim.c **** }
 5254              		.loc 1 2385 1
 5255 0026 09E0     		b	.L152
 5256              	.L150:
2383:../Shared/Libraries/STM32F4xx_StdPeriph_Driver/src/stm32f4xx_tim.c ****   }
ARM GAS  /tmp/cc2zcHeL.s 			page 134


 5257              		.loc 1 2383 9
 5258 0028 7B68     		ldr	r3, [r7, #4]
 5259 002a 9B89     		ldrh	r3, [r3, #12]	@ movhi
 5260 002c 9AB2     		uxth	r2, r3
2383:../Shared/Libraries/STM32F4xx_StdPeriph_Driver/src/stm32f4xx_tim.c ****   }
 5261              		.loc 1 2383 19
 5262 002e 7B88     		ldrh	r3, [r7, #2]	@ movhi
 5263 0030 DB43     		mvns	r3, r3
 5264 0032 9BB2     		uxth	r3, r3
2383:../Shared/Libraries/STM32F4xx_StdPeriph_Driver/src/stm32f4xx_tim.c ****   }
 5265              		.loc 1 2383 16
 5266 0034 1340     		ands	r3, r3, r2
 5267 0036 9AB2     		uxth	r2, r3
 5268 0038 7B68     		ldr	r3, [r7, #4]
 5269 003a 9A81     		strh	r2, [r3, #12]	@ movhi
 5270              	.L152:
 5271              		.loc 1 2385 1
 5272 003c 00BF     		nop
 5273 003e 0C37     		adds	r7, r7, #12
 5274              	.LCFI396:
 5275              		.cfi_def_cfa_offset 4
 5276 0040 BD46     		mov	sp, r7
 5277              	.LCFI397:
 5278              		.cfi_def_cfa_register 13
 5279              		@ sp needed
 5280 0042 5DF8047B 		ldr	r7, [sp], #4
 5281              	.LCFI398:
 5282              		.cfi_restore 7
 5283              		.cfi_def_cfa_offset 0
 5284 0046 7047     		bx	lr
 5285              		.cfi_endproc
 5286              	.LFE176:
 5288              		.section	.text.TIM_GenerateEvent,"ax",%progbits
 5289              		.align	1
 5290              		.global	TIM_GenerateEvent
 5291              		.syntax unified
 5292              		.thumb
 5293              		.thumb_func
 5295              	TIM_GenerateEvent:
 5296              	.LFB177:
2386:../Shared/Libraries/STM32F4xx_StdPeriph_Driver/src/stm32f4xx_tim.c **** 
2387:../Shared/Libraries/STM32F4xx_StdPeriph_Driver/src/stm32f4xx_tim.c **** /**
2388:../Shared/Libraries/STM32F4xx_StdPeriph_Driver/src/stm32f4xx_tim.c ****   * @brief  Configures the TIMx event to be generate by software.
2389:../Shared/Libraries/STM32F4xx_StdPeriph_Driver/src/stm32f4xx_tim.c ****   * @param  TIMx: where x can be 1 to 14 to select the TIM peripheral.
2390:../Shared/Libraries/STM32F4xx_StdPeriph_Driver/src/stm32f4xx_tim.c ****   * @param  TIM_EventSource: specifies the event source.
2391:../Shared/Libraries/STM32F4xx_StdPeriph_Driver/src/stm32f4xx_tim.c ****   *          This parameter can be one or more of the following values:	   
2392:../Shared/Libraries/STM32F4xx_StdPeriph_Driver/src/stm32f4xx_tim.c ****   *            @arg TIM_EventSource_Update: Timer update Event source
2393:../Shared/Libraries/STM32F4xx_StdPeriph_Driver/src/stm32f4xx_tim.c ****   *            @arg TIM_EventSource_CC1: Timer Capture Compare 1 Event source
2394:../Shared/Libraries/STM32F4xx_StdPeriph_Driver/src/stm32f4xx_tim.c ****   *            @arg TIM_EventSource_CC2: Timer Capture Compare 2 Event source
2395:../Shared/Libraries/STM32F4xx_StdPeriph_Driver/src/stm32f4xx_tim.c ****   *            @arg TIM_EventSource_CC3: Timer Capture Compare 3 Event source
2396:../Shared/Libraries/STM32F4xx_StdPeriph_Driver/src/stm32f4xx_tim.c ****   *            @arg TIM_EventSource_CC4: Timer Capture Compare 4 Event source
2397:../Shared/Libraries/STM32F4xx_StdPeriph_Driver/src/stm32f4xx_tim.c ****   *            @arg TIM_EventSource_COM: Timer COM event source  
2398:../Shared/Libraries/STM32F4xx_StdPeriph_Driver/src/stm32f4xx_tim.c ****   *            @arg TIM_EventSource_Trigger: Timer Trigger Event source
2399:../Shared/Libraries/STM32F4xx_StdPeriph_Driver/src/stm32f4xx_tim.c ****   *            @arg TIM_EventSource_Break: Timer Break event source
2400:../Shared/Libraries/STM32F4xx_StdPeriph_Driver/src/stm32f4xx_tim.c ****   * 
2401:../Shared/Libraries/STM32F4xx_StdPeriph_Driver/src/stm32f4xx_tim.c ****   * @note   TIM6 and TIM7 can only generate an update event. 
2402:../Shared/Libraries/STM32F4xx_StdPeriph_Driver/src/stm32f4xx_tim.c ****   * @note   TIM_EventSource_COM and TIM_EventSource_Break are used only with TIM1 and TIM8.
ARM GAS  /tmp/cc2zcHeL.s 			page 135


2403:../Shared/Libraries/STM32F4xx_StdPeriph_Driver/src/stm32f4xx_tim.c ****   *        
2404:../Shared/Libraries/STM32F4xx_StdPeriph_Driver/src/stm32f4xx_tim.c ****   * @retval None
2405:../Shared/Libraries/STM32F4xx_StdPeriph_Driver/src/stm32f4xx_tim.c ****   */
2406:../Shared/Libraries/STM32F4xx_StdPeriph_Driver/src/stm32f4xx_tim.c **** void TIM_GenerateEvent(TIM_TypeDef* TIMx, uint16_t TIM_EventSource)
2407:../Shared/Libraries/STM32F4xx_StdPeriph_Driver/src/stm32f4xx_tim.c **** { 
 5297              		.loc 1 2407 1
 5298              		.cfi_startproc
 5299              		@ args = 0, pretend = 0, frame = 8
 5300              		@ frame_needed = 1, uses_anonymous_args = 0
 5301              		@ link register save eliminated.
 5302 0000 80B4     		push	{r7}
 5303              	.LCFI399:
 5304              		.cfi_def_cfa_offset 4
 5305              		.cfi_offset 7, -4
 5306 0002 83B0     		sub	sp, sp, #12
 5307              	.LCFI400:
 5308              		.cfi_def_cfa_offset 16
 5309 0004 00AF     		add	r7, sp, #0
 5310              	.LCFI401:
 5311              		.cfi_def_cfa_register 7
 5312 0006 7860     		str	r0, [r7, #4]
 5313 0008 0B46     		mov	r3, r1
 5314 000a 7B80     		strh	r3, [r7, #2]	@ movhi
2408:../Shared/Libraries/STM32F4xx_StdPeriph_Driver/src/stm32f4xx_tim.c ****   /* Check the parameters */
2409:../Shared/Libraries/STM32F4xx_StdPeriph_Driver/src/stm32f4xx_tim.c ****   assert_param(IS_TIM_ALL_PERIPH(TIMx));
2410:../Shared/Libraries/STM32F4xx_StdPeriph_Driver/src/stm32f4xx_tim.c ****   assert_param(IS_TIM_EVENT_SOURCE(TIM_EventSource));
2411:../Shared/Libraries/STM32F4xx_StdPeriph_Driver/src/stm32f4xx_tim.c ****  
2412:../Shared/Libraries/STM32F4xx_StdPeriph_Driver/src/stm32f4xx_tim.c ****   /* Set the event sources */
2413:../Shared/Libraries/STM32F4xx_StdPeriph_Driver/src/stm32f4xx_tim.c ****   TIMx->EGR = TIM_EventSource;
 5315              		.loc 1 2413 13
 5316 000c 7B68     		ldr	r3, [r7, #4]
 5317 000e 7A88     		ldrh	r2, [r7, #2]	@ movhi
 5318 0010 9A82     		strh	r2, [r3, #20]	@ movhi
2414:../Shared/Libraries/STM32F4xx_StdPeriph_Driver/src/stm32f4xx_tim.c **** }
 5319              		.loc 1 2414 1
 5320 0012 00BF     		nop
 5321 0014 0C37     		adds	r7, r7, #12
 5322              	.LCFI402:
 5323              		.cfi_def_cfa_offset 4
 5324 0016 BD46     		mov	sp, r7
 5325              	.LCFI403:
 5326              		.cfi_def_cfa_register 13
 5327              		@ sp needed
 5328 0018 5DF8047B 		ldr	r7, [sp], #4
 5329              	.LCFI404:
 5330              		.cfi_restore 7
 5331              		.cfi_def_cfa_offset 0
 5332 001c 7047     		bx	lr
 5333              		.cfi_endproc
 5334              	.LFE177:
 5336              		.section	.text.TIM_GetFlagStatus,"ax",%progbits
 5337              		.align	1
 5338              		.global	TIM_GetFlagStatus
 5339              		.syntax unified
 5340              		.thumb
 5341              		.thumb_func
 5343              	TIM_GetFlagStatus:
ARM GAS  /tmp/cc2zcHeL.s 			page 136


 5344              	.LFB178:
2415:../Shared/Libraries/STM32F4xx_StdPeriph_Driver/src/stm32f4xx_tim.c **** 
2416:../Shared/Libraries/STM32F4xx_StdPeriph_Driver/src/stm32f4xx_tim.c **** /**
2417:../Shared/Libraries/STM32F4xx_StdPeriph_Driver/src/stm32f4xx_tim.c ****   * @brief  Checks whether the specified TIM flag is set or not.
2418:../Shared/Libraries/STM32F4xx_StdPeriph_Driver/src/stm32f4xx_tim.c ****   * @param  TIMx: where x can be 1 to 14 to select the TIM peripheral.
2419:../Shared/Libraries/STM32F4xx_StdPeriph_Driver/src/stm32f4xx_tim.c ****   * @param  TIM_FLAG: specifies the flag to check.
2420:../Shared/Libraries/STM32F4xx_StdPeriph_Driver/src/stm32f4xx_tim.c ****   *          This parameter can be one of the following values:
2421:../Shared/Libraries/STM32F4xx_StdPeriph_Driver/src/stm32f4xx_tim.c ****   *            @arg TIM_FLAG_Update: TIM update Flag
2422:../Shared/Libraries/STM32F4xx_StdPeriph_Driver/src/stm32f4xx_tim.c ****   *            @arg TIM_FLAG_CC1: TIM Capture Compare 1 Flag
2423:../Shared/Libraries/STM32F4xx_StdPeriph_Driver/src/stm32f4xx_tim.c ****   *            @arg TIM_FLAG_CC2: TIM Capture Compare 2 Flag
2424:../Shared/Libraries/STM32F4xx_StdPeriph_Driver/src/stm32f4xx_tim.c ****   *            @arg TIM_FLAG_CC3: TIM Capture Compare 3 Flag
2425:../Shared/Libraries/STM32F4xx_StdPeriph_Driver/src/stm32f4xx_tim.c ****   *            @arg TIM_FLAG_CC4: TIM Capture Compare 4 Flag
2426:../Shared/Libraries/STM32F4xx_StdPeriph_Driver/src/stm32f4xx_tim.c ****   *            @arg TIM_FLAG_COM: TIM Commutation Flag
2427:../Shared/Libraries/STM32F4xx_StdPeriph_Driver/src/stm32f4xx_tim.c ****   *            @arg TIM_FLAG_Trigger: TIM Trigger Flag
2428:../Shared/Libraries/STM32F4xx_StdPeriph_Driver/src/stm32f4xx_tim.c ****   *            @arg TIM_FLAG_Break: TIM Break Flag
2429:../Shared/Libraries/STM32F4xx_StdPeriph_Driver/src/stm32f4xx_tim.c ****   *            @arg TIM_FLAG_CC1OF: TIM Capture Compare 1 over capture Flag
2430:../Shared/Libraries/STM32F4xx_StdPeriph_Driver/src/stm32f4xx_tim.c ****   *            @arg TIM_FLAG_CC2OF: TIM Capture Compare 2 over capture Flag
2431:../Shared/Libraries/STM32F4xx_StdPeriph_Driver/src/stm32f4xx_tim.c ****   *            @arg TIM_FLAG_CC3OF: TIM Capture Compare 3 over capture Flag
2432:../Shared/Libraries/STM32F4xx_StdPeriph_Driver/src/stm32f4xx_tim.c ****   *            @arg TIM_FLAG_CC4OF: TIM Capture Compare 4 over capture Flag
2433:../Shared/Libraries/STM32F4xx_StdPeriph_Driver/src/stm32f4xx_tim.c ****   *
2434:../Shared/Libraries/STM32F4xx_StdPeriph_Driver/src/stm32f4xx_tim.c ****   * @note   TIM6 and TIM7 can have only one update flag. 
2435:../Shared/Libraries/STM32F4xx_StdPeriph_Driver/src/stm32f4xx_tim.c ****   * @note   TIM_FLAG_COM and TIM_FLAG_Break are used only with TIM1 and TIM8.    
2436:../Shared/Libraries/STM32F4xx_StdPeriph_Driver/src/stm32f4xx_tim.c ****   *
2437:../Shared/Libraries/STM32F4xx_StdPeriph_Driver/src/stm32f4xx_tim.c ****   * @retval The new state of TIM_FLAG (SET or RESET).
2438:../Shared/Libraries/STM32F4xx_StdPeriph_Driver/src/stm32f4xx_tim.c ****   */
2439:../Shared/Libraries/STM32F4xx_StdPeriph_Driver/src/stm32f4xx_tim.c **** FlagStatus TIM_GetFlagStatus(TIM_TypeDef* TIMx, uint16_t TIM_FLAG)
2440:../Shared/Libraries/STM32F4xx_StdPeriph_Driver/src/stm32f4xx_tim.c **** { 
 5345              		.loc 1 2440 1
 5346              		.cfi_startproc
 5347              		@ args = 0, pretend = 0, frame = 16
 5348              		@ frame_needed = 1, uses_anonymous_args = 0
 5349              		@ link register save eliminated.
 5350 0000 80B4     		push	{r7}
 5351              	.LCFI405:
 5352              		.cfi_def_cfa_offset 4
 5353              		.cfi_offset 7, -4
 5354 0002 85B0     		sub	sp, sp, #20
 5355              	.LCFI406:
 5356              		.cfi_def_cfa_offset 24
 5357 0004 00AF     		add	r7, sp, #0
 5358              	.LCFI407:
 5359              		.cfi_def_cfa_register 7
 5360 0006 7860     		str	r0, [r7, #4]
 5361 0008 0B46     		mov	r3, r1
 5362 000a 7B80     		strh	r3, [r7, #2]	@ movhi
2441:../Shared/Libraries/STM32F4xx_StdPeriph_Driver/src/stm32f4xx_tim.c ****   ITStatus bitstatus = RESET;  
 5363              		.loc 1 2441 12
 5364 000c 0023     		movs	r3, #0
 5365 000e FB73     		strb	r3, [r7, #15]
2442:../Shared/Libraries/STM32F4xx_StdPeriph_Driver/src/stm32f4xx_tim.c ****   /* Check the parameters */
2443:../Shared/Libraries/STM32F4xx_StdPeriph_Driver/src/stm32f4xx_tim.c ****   assert_param(IS_TIM_ALL_PERIPH(TIMx));
2444:../Shared/Libraries/STM32F4xx_StdPeriph_Driver/src/stm32f4xx_tim.c ****   assert_param(IS_TIM_GET_FLAG(TIM_FLAG));
2445:../Shared/Libraries/STM32F4xx_StdPeriph_Driver/src/stm32f4xx_tim.c **** 
2446:../Shared/Libraries/STM32F4xx_StdPeriph_Driver/src/stm32f4xx_tim.c ****   
2447:../Shared/Libraries/STM32F4xx_StdPeriph_Driver/src/stm32f4xx_tim.c ****   if ((TIMx->SR & TIM_FLAG) != (uint16_t)RESET)
 5366              		.loc 1 2447 12
 5367 0010 7B68     		ldr	r3, [r7, #4]
ARM GAS  /tmp/cc2zcHeL.s 			page 137


 5368 0012 1B8A     		ldrh	r3, [r3, #16]	@ movhi
 5369 0014 9AB2     		uxth	r2, r3
 5370              		.loc 1 2447 29
 5371 0016 7B88     		ldrh	r3, [r7, #2]	@ movhi
 5372 0018 1340     		ands	r3, r3, r2
 5373 001a 9BB2     		uxth	r3, r3
 5374              		.loc 1 2447 6
 5375 001c 002B     		cmp	r3, #0
 5376 001e 02D0     		beq	.L155
2448:../Shared/Libraries/STM32F4xx_StdPeriph_Driver/src/stm32f4xx_tim.c ****   {
2449:../Shared/Libraries/STM32F4xx_StdPeriph_Driver/src/stm32f4xx_tim.c ****     bitstatus = SET;
 5377              		.loc 1 2449 15
 5378 0020 0123     		movs	r3, #1
 5379 0022 FB73     		strb	r3, [r7, #15]
 5380 0024 01E0     		b	.L156
 5381              	.L155:
2450:../Shared/Libraries/STM32F4xx_StdPeriph_Driver/src/stm32f4xx_tim.c ****   }
2451:../Shared/Libraries/STM32F4xx_StdPeriph_Driver/src/stm32f4xx_tim.c ****   else
2452:../Shared/Libraries/STM32F4xx_StdPeriph_Driver/src/stm32f4xx_tim.c ****   {
2453:../Shared/Libraries/STM32F4xx_StdPeriph_Driver/src/stm32f4xx_tim.c ****     bitstatus = RESET;
 5382              		.loc 1 2453 15
 5383 0026 0023     		movs	r3, #0
 5384 0028 FB73     		strb	r3, [r7, #15]
 5385              	.L156:
2454:../Shared/Libraries/STM32F4xx_StdPeriph_Driver/src/stm32f4xx_tim.c ****   }
2455:../Shared/Libraries/STM32F4xx_StdPeriph_Driver/src/stm32f4xx_tim.c ****   return bitstatus;
 5386              		.loc 1 2455 10
 5387 002a FB7B     		ldrb	r3, [r7, #15]	@ zero_extendqisi2
2456:../Shared/Libraries/STM32F4xx_StdPeriph_Driver/src/stm32f4xx_tim.c **** }
 5388              		.loc 1 2456 1
 5389 002c 1846     		mov	r0, r3
 5390 002e 1437     		adds	r7, r7, #20
 5391              	.LCFI408:
 5392              		.cfi_def_cfa_offset 4
 5393 0030 BD46     		mov	sp, r7
 5394              	.LCFI409:
 5395              		.cfi_def_cfa_register 13
 5396              		@ sp needed
 5397 0032 5DF8047B 		ldr	r7, [sp], #4
 5398              	.LCFI410:
 5399              		.cfi_restore 7
 5400              		.cfi_def_cfa_offset 0
 5401 0036 7047     		bx	lr
 5402              		.cfi_endproc
 5403              	.LFE178:
 5405              		.section	.text.TIM_ClearFlag,"ax",%progbits
 5406              		.align	1
 5407              		.global	TIM_ClearFlag
 5408              		.syntax unified
 5409              		.thumb
 5410              		.thumb_func
 5412              	TIM_ClearFlag:
 5413              	.LFB179:
2457:../Shared/Libraries/STM32F4xx_StdPeriph_Driver/src/stm32f4xx_tim.c **** 
2458:../Shared/Libraries/STM32F4xx_StdPeriph_Driver/src/stm32f4xx_tim.c **** /**
2459:../Shared/Libraries/STM32F4xx_StdPeriph_Driver/src/stm32f4xx_tim.c ****   * @brief  Clears the TIMx's pending flags.
2460:../Shared/Libraries/STM32F4xx_StdPeriph_Driver/src/stm32f4xx_tim.c ****   * @param  TIMx: where x can be 1 to 14 to select the TIM peripheral.
ARM GAS  /tmp/cc2zcHeL.s 			page 138


2461:../Shared/Libraries/STM32F4xx_StdPeriph_Driver/src/stm32f4xx_tim.c ****   * @param  TIM_FLAG: specifies the flag bit to clear.
2462:../Shared/Libraries/STM32F4xx_StdPeriph_Driver/src/stm32f4xx_tim.c ****   *          This parameter can be any combination of the following values:
2463:../Shared/Libraries/STM32F4xx_StdPeriph_Driver/src/stm32f4xx_tim.c ****   *            @arg TIM_FLAG_Update: TIM update Flag
2464:../Shared/Libraries/STM32F4xx_StdPeriph_Driver/src/stm32f4xx_tim.c ****   *            @arg TIM_FLAG_CC1: TIM Capture Compare 1 Flag
2465:../Shared/Libraries/STM32F4xx_StdPeriph_Driver/src/stm32f4xx_tim.c ****   *            @arg TIM_FLAG_CC2: TIM Capture Compare 2 Flag
2466:../Shared/Libraries/STM32F4xx_StdPeriph_Driver/src/stm32f4xx_tim.c ****   *            @arg TIM_FLAG_CC3: TIM Capture Compare 3 Flag
2467:../Shared/Libraries/STM32F4xx_StdPeriph_Driver/src/stm32f4xx_tim.c ****   *            @arg TIM_FLAG_CC4: TIM Capture Compare 4 Flag
2468:../Shared/Libraries/STM32F4xx_StdPeriph_Driver/src/stm32f4xx_tim.c ****   *            @arg TIM_FLAG_COM: TIM Commutation Flag
2469:../Shared/Libraries/STM32F4xx_StdPeriph_Driver/src/stm32f4xx_tim.c ****   *            @arg TIM_FLAG_Trigger: TIM Trigger Flag
2470:../Shared/Libraries/STM32F4xx_StdPeriph_Driver/src/stm32f4xx_tim.c ****   *            @arg TIM_FLAG_Break: TIM Break Flag
2471:../Shared/Libraries/STM32F4xx_StdPeriph_Driver/src/stm32f4xx_tim.c ****   *            @arg TIM_FLAG_CC1OF: TIM Capture Compare 1 over capture Flag
2472:../Shared/Libraries/STM32F4xx_StdPeriph_Driver/src/stm32f4xx_tim.c ****   *            @arg TIM_FLAG_CC2OF: TIM Capture Compare 2 over capture Flag
2473:../Shared/Libraries/STM32F4xx_StdPeriph_Driver/src/stm32f4xx_tim.c ****   *            @arg TIM_FLAG_CC3OF: TIM Capture Compare 3 over capture Flag
2474:../Shared/Libraries/STM32F4xx_StdPeriph_Driver/src/stm32f4xx_tim.c ****   *            @arg TIM_FLAG_CC4OF: TIM Capture Compare 4 over capture Flag
2475:../Shared/Libraries/STM32F4xx_StdPeriph_Driver/src/stm32f4xx_tim.c ****   *
2476:../Shared/Libraries/STM32F4xx_StdPeriph_Driver/src/stm32f4xx_tim.c ****   * @note   TIM6 and TIM7 can have only one update flag. 
2477:../Shared/Libraries/STM32F4xx_StdPeriph_Driver/src/stm32f4xx_tim.c ****   * @note   TIM_FLAG_COM and TIM_FLAG_Break are used only with TIM1 and TIM8.
2478:../Shared/Libraries/STM32F4xx_StdPeriph_Driver/src/stm32f4xx_tim.c ****   *    
2479:../Shared/Libraries/STM32F4xx_StdPeriph_Driver/src/stm32f4xx_tim.c ****   * @retval None
2480:../Shared/Libraries/STM32F4xx_StdPeriph_Driver/src/stm32f4xx_tim.c ****   */
2481:../Shared/Libraries/STM32F4xx_StdPeriph_Driver/src/stm32f4xx_tim.c **** void TIM_ClearFlag(TIM_TypeDef* TIMx, uint16_t TIM_FLAG)
2482:../Shared/Libraries/STM32F4xx_StdPeriph_Driver/src/stm32f4xx_tim.c **** {  
 5414              		.loc 1 2482 1
 5415              		.cfi_startproc
 5416              		@ args = 0, pretend = 0, frame = 8
 5417              		@ frame_needed = 1, uses_anonymous_args = 0
 5418              		@ link register save eliminated.
 5419 0000 80B4     		push	{r7}
 5420              	.LCFI411:
 5421              		.cfi_def_cfa_offset 4
 5422              		.cfi_offset 7, -4
 5423 0002 83B0     		sub	sp, sp, #12
 5424              	.LCFI412:
 5425              		.cfi_def_cfa_offset 16
 5426 0004 00AF     		add	r7, sp, #0
 5427              	.LCFI413:
 5428              		.cfi_def_cfa_register 7
 5429 0006 7860     		str	r0, [r7, #4]
 5430 0008 0B46     		mov	r3, r1
 5431 000a 7B80     		strh	r3, [r7, #2]	@ movhi
2483:../Shared/Libraries/STM32F4xx_StdPeriph_Driver/src/stm32f4xx_tim.c ****   /* Check the parameters */
2484:../Shared/Libraries/STM32F4xx_StdPeriph_Driver/src/stm32f4xx_tim.c ****   assert_param(IS_TIM_ALL_PERIPH(TIMx));
2485:../Shared/Libraries/STM32F4xx_StdPeriph_Driver/src/stm32f4xx_tim.c ****    
2486:../Shared/Libraries/STM32F4xx_StdPeriph_Driver/src/stm32f4xx_tim.c ****   /* Clear the flags */
2487:../Shared/Libraries/STM32F4xx_StdPeriph_Driver/src/stm32f4xx_tim.c ****   TIMx->SR = (uint16_t)~TIM_FLAG;
 5432              		.loc 1 2487 14
 5433 000c 7B88     		ldrh	r3, [r7, #2]	@ movhi
 5434 000e DB43     		mvns	r3, r3
 5435 0010 9AB2     		uxth	r2, r3
 5436              		.loc 1 2487 12
 5437 0012 7B68     		ldr	r3, [r7, #4]
 5438 0014 1A82     		strh	r2, [r3, #16]	@ movhi
2488:../Shared/Libraries/STM32F4xx_StdPeriph_Driver/src/stm32f4xx_tim.c **** }
 5439              		.loc 1 2488 1
 5440 0016 00BF     		nop
 5441 0018 0C37     		adds	r7, r7, #12
 5442              	.LCFI414:
ARM GAS  /tmp/cc2zcHeL.s 			page 139


 5443              		.cfi_def_cfa_offset 4
 5444 001a BD46     		mov	sp, r7
 5445              	.LCFI415:
 5446              		.cfi_def_cfa_register 13
 5447              		@ sp needed
 5448 001c 5DF8047B 		ldr	r7, [sp], #4
 5449              	.LCFI416:
 5450              		.cfi_restore 7
 5451              		.cfi_def_cfa_offset 0
 5452 0020 7047     		bx	lr
 5453              		.cfi_endproc
 5454              	.LFE179:
 5456              		.section	.text.TIM_GetITStatus,"ax",%progbits
 5457              		.align	1
 5458              		.global	TIM_GetITStatus
 5459              		.syntax unified
 5460              		.thumb
 5461              		.thumb_func
 5463              	TIM_GetITStatus:
 5464              	.LFB180:
2489:../Shared/Libraries/STM32F4xx_StdPeriph_Driver/src/stm32f4xx_tim.c **** 
2490:../Shared/Libraries/STM32F4xx_StdPeriph_Driver/src/stm32f4xx_tim.c **** /**
2491:../Shared/Libraries/STM32F4xx_StdPeriph_Driver/src/stm32f4xx_tim.c ****   * @brief  Checks whether the TIM interrupt has occurred or not.
2492:../Shared/Libraries/STM32F4xx_StdPeriph_Driver/src/stm32f4xx_tim.c ****   * @param  TIMx: where x can be 1 to 14 to select the TIM peripheral.
2493:../Shared/Libraries/STM32F4xx_StdPeriph_Driver/src/stm32f4xx_tim.c ****   * @param  TIM_IT: specifies the TIM interrupt source to check.
2494:../Shared/Libraries/STM32F4xx_StdPeriph_Driver/src/stm32f4xx_tim.c ****   *          This parameter can be one of the following values:
2495:../Shared/Libraries/STM32F4xx_StdPeriph_Driver/src/stm32f4xx_tim.c ****   *            @arg TIM_IT_Update: TIM update Interrupt source
2496:../Shared/Libraries/STM32F4xx_StdPeriph_Driver/src/stm32f4xx_tim.c ****   *            @arg TIM_IT_CC1: TIM Capture Compare 1 Interrupt source
2497:../Shared/Libraries/STM32F4xx_StdPeriph_Driver/src/stm32f4xx_tim.c ****   *            @arg TIM_IT_CC2: TIM Capture Compare 2 Interrupt source
2498:../Shared/Libraries/STM32F4xx_StdPeriph_Driver/src/stm32f4xx_tim.c ****   *            @arg TIM_IT_CC3: TIM Capture Compare 3 Interrupt source
2499:../Shared/Libraries/STM32F4xx_StdPeriph_Driver/src/stm32f4xx_tim.c ****   *            @arg TIM_IT_CC4: TIM Capture Compare 4 Interrupt source
2500:../Shared/Libraries/STM32F4xx_StdPeriph_Driver/src/stm32f4xx_tim.c ****   *            @arg TIM_IT_COM: TIM Commutation Interrupt source
2501:../Shared/Libraries/STM32F4xx_StdPeriph_Driver/src/stm32f4xx_tim.c ****   *            @arg TIM_IT_Trigger: TIM Trigger Interrupt source
2502:../Shared/Libraries/STM32F4xx_StdPeriph_Driver/src/stm32f4xx_tim.c ****   *            @arg TIM_IT_Break: TIM Break Interrupt source
2503:../Shared/Libraries/STM32F4xx_StdPeriph_Driver/src/stm32f4xx_tim.c ****   *
2504:../Shared/Libraries/STM32F4xx_StdPeriph_Driver/src/stm32f4xx_tim.c ****   * @note   TIM6 and TIM7 can generate only an update interrupt.
2505:../Shared/Libraries/STM32F4xx_StdPeriph_Driver/src/stm32f4xx_tim.c ****   * @note   TIM_IT_COM and TIM_IT_Break are used only with TIM1 and TIM8.
2506:../Shared/Libraries/STM32F4xx_StdPeriph_Driver/src/stm32f4xx_tim.c ****   *     
2507:../Shared/Libraries/STM32F4xx_StdPeriph_Driver/src/stm32f4xx_tim.c ****   * @retval The new state of the TIM_IT(SET or RESET).
2508:../Shared/Libraries/STM32F4xx_StdPeriph_Driver/src/stm32f4xx_tim.c ****   */
2509:../Shared/Libraries/STM32F4xx_StdPeriph_Driver/src/stm32f4xx_tim.c **** ITStatus TIM_GetITStatus(TIM_TypeDef* TIMx, uint16_t TIM_IT)
2510:../Shared/Libraries/STM32F4xx_StdPeriph_Driver/src/stm32f4xx_tim.c **** {
 5465              		.loc 1 2510 1
 5466              		.cfi_startproc
 5467              		@ args = 0, pretend = 0, frame = 16
 5468              		@ frame_needed = 1, uses_anonymous_args = 0
 5469              		@ link register save eliminated.
 5470 0000 80B4     		push	{r7}
 5471              	.LCFI417:
 5472              		.cfi_def_cfa_offset 4
 5473              		.cfi_offset 7, -4
 5474 0002 85B0     		sub	sp, sp, #20
 5475              	.LCFI418:
 5476              		.cfi_def_cfa_offset 24
 5477 0004 00AF     		add	r7, sp, #0
 5478              	.LCFI419:
 5479              		.cfi_def_cfa_register 7
ARM GAS  /tmp/cc2zcHeL.s 			page 140


 5480 0006 7860     		str	r0, [r7, #4]
 5481 0008 0B46     		mov	r3, r1
 5482 000a 7B80     		strh	r3, [r7, #2]	@ movhi
2511:../Shared/Libraries/STM32F4xx_StdPeriph_Driver/src/stm32f4xx_tim.c ****   ITStatus bitstatus = RESET;  
 5483              		.loc 1 2511 12
 5484 000c 0023     		movs	r3, #0
 5485 000e FB73     		strb	r3, [r7, #15]
2512:../Shared/Libraries/STM32F4xx_StdPeriph_Driver/src/stm32f4xx_tim.c ****   uint16_t itstatus = 0x0, itenable = 0x0;
 5486              		.loc 1 2512 12
 5487 0010 0023     		movs	r3, #0
 5488 0012 BB81     		strh	r3, [r7, #12]	@ movhi
 5489              		.loc 1 2512 28
 5490 0014 0023     		movs	r3, #0
 5491 0016 7B81     		strh	r3, [r7, #10]	@ movhi
2513:../Shared/Libraries/STM32F4xx_StdPeriph_Driver/src/stm32f4xx_tim.c ****   /* Check the parameters */
2514:../Shared/Libraries/STM32F4xx_StdPeriph_Driver/src/stm32f4xx_tim.c ****   assert_param(IS_TIM_ALL_PERIPH(TIMx));
2515:../Shared/Libraries/STM32F4xx_StdPeriph_Driver/src/stm32f4xx_tim.c ****   assert_param(IS_TIM_GET_IT(TIM_IT));
2516:../Shared/Libraries/STM32F4xx_StdPeriph_Driver/src/stm32f4xx_tim.c ****    
2517:../Shared/Libraries/STM32F4xx_StdPeriph_Driver/src/stm32f4xx_tim.c ****   itstatus = TIMx->SR & TIM_IT;
 5492              		.loc 1 2517 18
 5493 0018 7B68     		ldr	r3, [r7, #4]
 5494 001a 1B8A     		ldrh	r3, [r3, #16]	@ movhi
 5495 001c 9AB2     		uxth	r2, r3
 5496              		.loc 1 2517 12
 5497 001e 7B88     		ldrh	r3, [r7, #2]	@ movhi
 5498 0020 1340     		ands	r3, r3, r2
 5499 0022 BB81     		strh	r3, [r7, #12]	@ movhi
2518:../Shared/Libraries/STM32F4xx_StdPeriph_Driver/src/stm32f4xx_tim.c ****   
2519:../Shared/Libraries/STM32F4xx_StdPeriph_Driver/src/stm32f4xx_tim.c ****   itenable = TIMx->DIER & TIM_IT;
 5500              		.loc 1 2519 18
 5501 0024 7B68     		ldr	r3, [r7, #4]
 5502 0026 9B89     		ldrh	r3, [r3, #12]	@ movhi
 5503 0028 9AB2     		uxth	r2, r3
 5504              		.loc 1 2519 12
 5505 002a 7B88     		ldrh	r3, [r7, #2]	@ movhi
 5506 002c 1340     		ands	r3, r3, r2
 5507 002e 7B81     		strh	r3, [r7, #10]	@ movhi
2520:../Shared/Libraries/STM32F4xx_StdPeriph_Driver/src/stm32f4xx_tim.c ****   if ((itstatus != (uint16_t)RESET) && (itenable != (uint16_t)RESET))
 5508              		.loc 1 2520 6
 5509 0030 BB89     		ldrh	r3, [r7, #12]
 5510 0032 002B     		cmp	r3, #0
 5511 0034 05D0     		beq	.L160
 5512              		.loc 1 2520 37 discriminator 1
 5513 0036 7B89     		ldrh	r3, [r7, #10]
 5514 0038 002B     		cmp	r3, #0
 5515 003a 02D0     		beq	.L160
2521:../Shared/Libraries/STM32F4xx_StdPeriph_Driver/src/stm32f4xx_tim.c ****   {
2522:../Shared/Libraries/STM32F4xx_StdPeriph_Driver/src/stm32f4xx_tim.c ****     bitstatus = SET;
 5516              		.loc 1 2522 15
 5517 003c 0123     		movs	r3, #1
 5518 003e FB73     		strb	r3, [r7, #15]
 5519 0040 01E0     		b	.L161
 5520              	.L160:
2523:../Shared/Libraries/STM32F4xx_StdPeriph_Driver/src/stm32f4xx_tim.c ****   }
2524:../Shared/Libraries/STM32F4xx_StdPeriph_Driver/src/stm32f4xx_tim.c ****   else
2525:../Shared/Libraries/STM32F4xx_StdPeriph_Driver/src/stm32f4xx_tim.c ****   {
2526:../Shared/Libraries/STM32F4xx_StdPeriph_Driver/src/stm32f4xx_tim.c ****     bitstatus = RESET;
ARM GAS  /tmp/cc2zcHeL.s 			page 141


 5521              		.loc 1 2526 15
 5522 0042 0023     		movs	r3, #0
 5523 0044 FB73     		strb	r3, [r7, #15]
 5524              	.L161:
2527:../Shared/Libraries/STM32F4xx_StdPeriph_Driver/src/stm32f4xx_tim.c ****   }
2528:../Shared/Libraries/STM32F4xx_StdPeriph_Driver/src/stm32f4xx_tim.c ****   return bitstatus;
 5525              		.loc 1 2528 10
 5526 0046 FB7B     		ldrb	r3, [r7, #15]	@ zero_extendqisi2
2529:../Shared/Libraries/STM32F4xx_StdPeriph_Driver/src/stm32f4xx_tim.c **** }
 5527              		.loc 1 2529 1
 5528 0048 1846     		mov	r0, r3
 5529 004a 1437     		adds	r7, r7, #20
 5530              	.LCFI420:
 5531              		.cfi_def_cfa_offset 4
 5532 004c BD46     		mov	sp, r7
 5533              	.LCFI421:
 5534              		.cfi_def_cfa_register 13
 5535              		@ sp needed
 5536 004e 5DF8047B 		ldr	r7, [sp], #4
 5537              	.LCFI422:
 5538              		.cfi_restore 7
 5539              		.cfi_def_cfa_offset 0
 5540 0052 7047     		bx	lr
 5541              		.cfi_endproc
 5542              	.LFE180:
 5544              		.section	.text.TIM_ClearITPendingBit,"ax",%progbits
 5545              		.align	1
 5546              		.global	TIM_ClearITPendingBit
 5547              		.syntax unified
 5548              		.thumb
 5549              		.thumb_func
 5551              	TIM_ClearITPendingBit:
 5552              	.LFB181:
2530:../Shared/Libraries/STM32F4xx_StdPeriph_Driver/src/stm32f4xx_tim.c **** 
2531:../Shared/Libraries/STM32F4xx_StdPeriph_Driver/src/stm32f4xx_tim.c **** /**
2532:../Shared/Libraries/STM32F4xx_StdPeriph_Driver/src/stm32f4xx_tim.c ****   * @brief  Clears the TIMx's interrupt pending bits.
2533:../Shared/Libraries/STM32F4xx_StdPeriph_Driver/src/stm32f4xx_tim.c ****   * @param  TIMx: where x can be 1 to 14 to select the TIM peripheral.
2534:../Shared/Libraries/STM32F4xx_StdPeriph_Driver/src/stm32f4xx_tim.c ****   * @param  TIM_IT: specifies the pending bit to clear.
2535:../Shared/Libraries/STM32F4xx_StdPeriph_Driver/src/stm32f4xx_tim.c ****   *          This parameter can be any combination of the following values:
2536:../Shared/Libraries/STM32F4xx_StdPeriph_Driver/src/stm32f4xx_tim.c ****   *            @arg TIM_IT_Update: TIM1 update Interrupt source
2537:../Shared/Libraries/STM32F4xx_StdPeriph_Driver/src/stm32f4xx_tim.c ****   *            @arg TIM_IT_CC1: TIM Capture Compare 1 Interrupt source
2538:../Shared/Libraries/STM32F4xx_StdPeriph_Driver/src/stm32f4xx_tim.c ****   *            @arg TIM_IT_CC2: TIM Capture Compare 2 Interrupt source
2539:../Shared/Libraries/STM32F4xx_StdPeriph_Driver/src/stm32f4xx_tim.c ****   *            @arg TIM_IT_CC3: TIM Capture Compare 3 Interrupt source
2540:../Shared/Libraries/STM32F4xx_StdPeriph_Driver/src/stm32f4xx_tim.c ****   *            @arg TIM_IT_CC4: TIM Capture Compare 4 Interrupt source
2541:../Shared/Libraries/STM32F4xx_StdPeriph_Driver/src/stm32f4xx_tim.c ****   *            @arg TIM_IT_COM: TIM Commutation Interrupt source
2542:../Shared/Libraries/STM32F4xx_StdPeriph_Driver/src/stm32f4xx_tim.c ****   *            @arg TIM_IT_Trigger: TIM Trigger Interrupt source
2543:../Shared/Libraries/STM32F4xx_StdPeriph_Driver/src/stm32f4xx_tim.c ****   *            @arg TIM_IT_Break: TIM Break Interrupt source
2544:../Shared/Libraries/STM32F4xx_StdPeriph_Driver/src/stm32f4xx_tim.c ****   *
2545:../Shared/Libraries/STM32F4xx_StdPeriph_Driver/src/stm32f4xx_tim.c ****   * @note   TIM6 and TIM7 can generate only an update interrupt.
2546:../Shared/Libraries/STM32F4xx_StdPeriph_Driver/src/stm32f4xx_tim.c ****   * @note   TIM_IT_COM and TIM_IT_Break are used only with TIM1 and TIM8.
2547:../Shared/Libraries/STM32F4xx_StdPeriph_Driver/src/stm32f4xx_tim.c ****   *      
2548:../Shared/Libraries/STM32F4xx_StdPeriph_Driver/src/stm32f4xx_tim.c ****   * @retval None
2549:../Shared/Libraries/STM32F4xx_StdPeriph_Driver/src/stm32f4xx_tim.c ****   */
2550:../Shared/Libraries/STM32F4xx_StdPeriph_Driver/src/stm32f4xx_tim.c **** void TIM_ClearITPendingBit(TIM_TypeDef* TIMx, uint16_t TIM_IT)
2551:../Shared/Libraries/STM32F4xx_StdPeriph_Driver/src/stm32f4xx_tim.c **** {
 5553              		.loc 1 2551 1
 5554              		.cfi_startproc
ARM GAS  /tmp/cc2zcHeL.s 			page 142


 5555              		@ args = 0, pretend = 0, frame = 8
 5556              		@ frame_needed = 1, uses_anonymous_args = 0
 5557              		@ link register save eliminated.
 5558 0000 80B4     		push	{r7}
 5559              	.LCFI423:
 5560              		.cfi_def_cfa_offset 4
 5561              		.cfi_offset 7, -4
 5562 0002 83B0     		sub	sp, sp, #12
 5563              	.LCFI424:
 5564              		.cfi_def_cfa_offset 16
 5565 0004 00AF     		add	r7, sp, #0
 5566              	.LCFI425:
 5567              		.cfi_def_cfa_register 7
 5568 0006 7860     		str	r0, [r7, #4]
 5569 0008 0B46     		mov	r3, r1
 5570 000a 7B80     		strh	r3, [r7, #2]	@ movhi
2552:../Shared/Libraries/STM32F4xx_StdPeriph_Driver/src/stm32f4xx_tim.c ****   /* Check the parameters */
2553:../Shared/Libraries/STM32F4xx_StdPeriph_Driver/src/stm32f4xx_tim.c ****   assert_param(IS_TIM_ALL_PERIPH(TIMx));
2554:../Shared/Libraries/STM32F4xx_StdPeriph_Driver/src/stm32f4xx_tim.c **** 
2555:../Shared/Libraries/STM32F4xx_StdPeriph_Driver/src/stm32f4xx_tim.c ****   /* Clear the IT pending Bit */
2556:../Shared/Libraries/STM32F4xx_StdPeriph_Driver/src/stm32f4xx_tim.c ****   TIMx->SR = (uint16_t)~TIM_IT;
 5571              		.loc 1 2556 14
 5572 000c 7B88     		ldrh	r3, [r7, #2]	@ movhi
 5573 000e DB43     		mvns	r3, r3
 5574 0010 9AB2     		uxth	r2, r3
 5575              		.loc 1 2556 12
 5576 0012 7B68     		ldr	r3, [r7, #4]
 5577 0014 1A82     		strh	r2, [r3, #16]	@ movhi
2557:../Shared/Libraries/STM32F4xx_StdPeriph_Driver/src/stm32f4xx_tim.c **** }
 5578              		.loc 1 2557 1
 5579 0016 00BF     		nop
 5580 0018 0C37     		adds	r7, r7, #12
 5581              	.LCFI426:
 5582              		.cfi_def_cfa_offset 4
 5583 001a BD46     		mov	sp, r7
 5584              	.LCFI427:
 5585              		.cfi_def_cfa_register 13
 5586              		@ sp needed
 5587 001c 5DF8047B 		ldr	r7, [sp], #4
 5588              	.LCFI428:
 5589              		.cfi_restore 7
 5590              		.cfi_def_cfa_offset 0
 5591 0020 7047     		bx	lr
 5592              		.cfi_endproc
 5593              	.LFE181:
 5595              		.section	.text.TIM_DMAConfig,"ax",%progbits
 5596              		.align	1
 5597              		.global	TIM_DMAConfig
 5598              		.syntax unified
 5599              		.thumb
 5600              		.thumb_func
 5602              	TIM_DMAConfig:
 5603              	.LFB182:
2558:../Shared/Libraries/STM32F4xx_StdPeriph_Driver/src/stm32f4xx_tim.c **** 
2559:../Shared/Libraries/STM32F4xx_StdPeriph_Driver/src/stm32f4xx_tim.c **** /**
2560:../Shared/Libraries/STM32F4xx_StdPeriph_Driver/src/stm32f4xx_tim.c ****   * @brief  Configures the TIMx's DMA interface.
2561:../Shared/Libraries/STM32F4xx_StdPeriph_Driver/src/stm32f4xx_tim.c ****   * @param  TIMx: where x can be 1, 2, 3, 4, 5 or 8 to select the TIM peripheral.
ARM GAS  /tmp/cc2zcHeL.s 			page 143


2562:../Shared/Libraries/STM32F4xx_StdPeriph_Driver/src/stm32f4xx_tim.c ****   * @param  TIM_DMABase: DMA Base address.
2563:../Shared/Libraries/STM32F4xx_StdPeriph_Driver/src/stm32f4xx_tim.c ****   *          This parameter can be one of the following values:
2564:../Shared/Libraries/STM32F4xx_StdPeriph_Driver/src/stm32f4xx_tim.c ****   *            @arg TIM_DMABase_CR1  
2565:../Shared/Libraries/STM32F4xx_StdPeriph_Driver/src/stm32f4xx_tim.c ****   *            @arg TIM_DMABase_CR2
2566:../Shared/Libraries/STM32F4xx_StdPeriph_Driver/src/stm32f4xx_tim.c ****   *            @arg TIM_DMABase_SMCR
2567:../Shared/Libraries/STM32F4xx_StdPeriph_Driver/src/stm32f4xx_tim.c ****   *            @arg TIM_DMABase_DIER
2568:../Shared/Libraries/STM32F4xx_StdPeriph_Driver/src/stm32f4xx_tim.c ****   *            @arg TIM1_DMABase_SR
2569:../Shared/Libraries/STM32F4xx_StdPeriph_Driver/src/stm32f4xx_tim.c ****   *            @arg TIM_DMABase_EGR
2570:../Shared/Libraries/STM32F4xx_StdPeriph_Driver/src/stm32f4xx_tim.c ****   *            @arg TIM_DMABase_CCMR1
2571:../Shared/Libraries/STM32F4xx_StdPeriph_Driver/src/stm32f4xx_tim.c ****   *            @arg TIM_DMABase_CCMR2
2572:../Shared/Libraries/STM32F4xx_StdPeriph_Driver/src/stm32f4xx_tim.c ****   *            @arg TIM_DMABase_CCER
2573:../Shared/Libraries/STM32F4xx_StdPeriph_Driver/src/stm32f4xx_tim.c ****   *            @arg TIM_DMABase_CNT   
2574:../Shared/Libraries/STM32F4xx_StdPeriph_Driver/src/stm32f4xx_tim.c ****   *            @arg TIM_DMABase_PSC   
2575:../Shared/Libraries/STM32F4xx_StdPeriph_Driver/src/stm32f4xx_tim.c ****   *            @arg TIM_DMABase_ARR
2576:../Shared/Libraries/STM32F4xx_StdPeriph_Driver/src/stm32f4xx_tim.c ****   *            @arg TIM_DMABase_RCR
2577:../Shared/Libraries/STM32F4xx_StdPeriph_Driver/src/stm32f4xx_tim.c ****   *            @arg TIM_DMABase_CCR1
2578:../Shared/Libraries/STM32F4xx_StdPeriph_Driver/src/stm32f4xx_tim.c ****   *            @arg TIM_DMABase_CCR2
2579:../Shared/Libraries/STM32F4xx_StdPeriph_Driver/src/stm32f4xx_tim.c ****   *            @arg TIM_DMABase_CCR3  
2580:../Shared/Libraries/STM32F4xx_StdPeriph_Driver/src/stm32f4xx_tim.c ****   *            @arg TIM_DMABase_CCR4
2581:../Shared/Libraries/STM32F4xx_StdPeriph_Driver/src/stm32f4xx_tim.c ****   *            @arg TIM_DMABase_BDTR
2582:../Shared/Libraries/STM32F4xx_StdPeriph_Driver/src/stm32f4xx_tim.c ****   *            @arg TIM_DMABase_DCR
2583:../Shared/Libraries/STM32F4xx_StdPeriph_Driver/src/stm32f4xx_tim.c ****   * @param  TIM_DMABurstLength: DMA Burst length. This parameter can be one value
2584:../Shared/Libraries/STM32F4xx_StdPeriph_Driver/src/stm32f4xx_tim.c ****   *         between: TIM_DMABurstLength_1Transfer and TIM_DMABurstLength_18Transfers.
2585:../Shared/Libraries/STM32F4xx_StdPeriph_Driver/src/stm32f4xx_tim.c ****   * @retval None
2586:../Shared/Libraries/STM32F4xx_StdPeriph_Driver/src/stm32f4xx_tim.c ****   */
2587:../Shared/Libraries/STM32F4xx_StdPeriph_Driver/src/stm32f4xx_tim.c **** void TIM_DMAConfig(TIM_TypeDef* TIMx, uint16_t TIM_DMABase, uint16_t TIM_DMABurstLength)
2588:../Shared/Libraries/STM32F4xx_StdPeriph_Driver/src/stm32f4xx_tim.c **** {
 5604              		.loc 1 2588 1
 5605              		.cfi_startproc
 5606              		@ args = 0, pretend = 0, frame = 8
 5607              		@ frame_needed = 1, uses_anonymous_args = 0
 5608              		@ link register save eliminated.
 5609 0000 80B4     		push	{r7}
 5610              	.LCFI429:
 5611              		.cfi_def_cfa_offset 4
 5612              		.cfi_offset 7, -4
 5613 0002 83B0     		sub	sp, sp, #12
 5614              	.LCFI430:
 5615              		.cfi_def_cfa_offset 16
 5616 0004 00AF     		add	r7, sp, #0
 5617              	.LCFI431:
 5618              		.cfi_def_cfa_register 7
 5619 0006 7860     		str	r0, [r7, #4]
 5620 0008 0B46     		mov	r3, r1
 5621 000a 7B80     		strh	r3, [r7, #2]	@ movhi
 5622 000c 1346     		mov	r3, r2	@ movhi
 5623 000e 3B80     		strh	r3, [r7]	@ movhi
2589:../Shared/Libraries/STM32F4xx_StdPeriph_Driver/src/stm32f4xx_tim.c ****   /* Check the parameters */
2590:../Shared/Libraries/STM32F4xx_StdPeriph_Driver/src/stm32f4xx_tim.c ****   assert_param(IS_TIM_LIST3_PERIPH(TIMx));
2591:../Shared/Libraries/STM32F4xx_StdPeriph_Driver/src/stm32f4xx_tim.c ****   assert_param(IS_TIM_DMA_BASE(TIM_DMABase)); 
2592:../Shared/Libraries/STM32F4xx_StdPeriph_Driver/src/stm32f4xx_tim.c ****   assert_param(IS_TIM_DMA_LENGTH(TIM_DMABurstLength));
2593:../Shared/Libraries/STM32F4xx_StdPeriph_Driver/src/stm32f4xx_tim.c **** 
2594:../Shared/Libraries/STM32F4xx_StdPeriph_Driver/src/stm32f4xx_tim.c ****   /* Set the DMA Base and the DMA Burst Length */
2595:../Shared/Libraries/STM32F4xx_StdPeriph_Driver/src/stm32f4xx_tim.c ****   TIMx->DCR = TIM_DMABase | TIM_DMABurstLength;
 5624              		.loc 1 2595 13
 5625 0010 7A88     		ldrh	r2, [r7, #2]	@ movhi
 5626 0012 3B88     		ldrh	r3, [r7]	@ movhi
ARM GAS  /tmp/cc2zcHeL.s 			page 144


 5627 0014 1343     		orrs	r3, r3, r2
 5628 0016 9AB2     		uxth	r2, r3
 5629 0018 7B68     		ldr	r3, [r7, #4]
 5630 001a A3F84820 		strh	r2, [r3, #72]	@ movhi
2596:../Shared/Libraries/STM32F4xx_StdPeriph_Driver/src/stm32f4xx_tim.c **** }
 5631              		.loc 1 2596 1
 5632 001e 00BF     		nop
 5633 0020 0C37     		adds	r7, r7, #12
 5634              	.LCFI432:
 5635              		.cfi_def_cfa_offset 4
 5636 0022 BD46     		mov	sp, r7
 5637              	.LCFI433:
 5638              		.cfi_def_cfa_register 13
 5639              		@ sp needed
 5640 0024 5DF8047B 		ldr	r7, [sp], #4
 5641              	.LCFI434:
 5642              		.cfi_restore 7
 5643              		.cfi_def_cfa_offset 0
 5644 0028 7047     		bx	lr
 5645              		.cfi_endproc
 5646              	.LFE182:
 5648              		.section	.text.TIM_DMACmd,"ax",%progbits
 5649              		.align	1
 5650              		.global	TIM_DMACmd
 5651              		.syntax unified
 5652              		.thumb
 5653              		.thumb_func
 5655              	TIM_DMACmd:
 5656              	.LFB183:
2597:../Shared/Libraries/STM32F4xx_StdPeriph_Driver/src/stm32f4xx_tim.c **** 
2598:../Shared/Libraries/STM32F4xx_StdPeriph_Driver/src/stm32f4xx_tim.c **** /**
2599:../Shared/Libraries/STM32F4xx_StdPeriph_Driver/src/stm32f4xx_tim.c ****   * @brief  Enables or disables the TIMx's DMA Requests.
2600:../Shared/Libraries/STM32F4xx_StdPeriph_Driver/src/stm32f4xx_tim.c ****   * @param  TIMx: where x can be 1, 2, 3, 4, 5, 6, 7 or 8 to select the TIM peripheral.
2601:../Shared/Libraries/STM32F4xx_StdPeriph_Driver/src/stm32f4xx_tim.c ****   * @param  TIM_DMASource: specifies the DMA Request sources.
2602:../Shared/Libraries/STM32F4xx_StdPeriph_Driver/src/stm32f4xx_tim.c ****   *          This parameter can be any combination of the following values:
2603:../Shared/Libraries/STM32F4xx_StdPeriph_Driver/src/stm32f4xx_tim.c ****   *            @arg TIM_DMA_Update: TIM update Interrupt source
2604:../Shared/Libraries/STM32F4xx_StdPeriph_Driver/src/stm32f4xx_tim.c ****   *            @arg TIM_DMA_CC1: TIM Capture Compare 1 DMA source
2605:../Shared/Libraries/STM32F4xx_StdPeriph_Driver/src/stm32f4xx_tim.c ****   *            @arg TIM_DMA_CC2: TIM Capture Compare 2 DMA source
2606:../Shared/Libraries/STM32F4xx_StdPeriph_Driver/src/stm32f4xx_tim.c ****   *            @arg TIM_DMA_CC3: TIM Capture Compare 3 DMA source
2607:../Shared/Libraries/STM32F4xx_StdPeriph_Driver/src/stm32f4xx_tim.c ****   *            @arg TIM_DMA_CC4: TIM Capture Compare 4 DMA source
2608:../Shared/Libraries/STM32F4xx_StdPeriph_Driver/src/stm32f4xx_tim.c ****   *            @arg TIM_DMA_COM: TIM Commutation DMA source
2609:../Shared/Libraries/STM32F4xx_StdPeriph_Driver/src/stm32f4xx_tim.c ****   *            @arg TIM_DMA_Trigger: TIM Trigger DMA source
2610:../Shared/Libraries/STM32F4xx_StdPeriph_Driver/src/stm32f4xx_tim.c ****   * @param  NewState: new state of the DMA Request sources.
2611:../Shared/Libraries/STM32F4xx_StdPeriph_Driver/src/stm32f4xx_tim.c ****   *          This parameter can be: ENABLE or DISABLE.
2612:../Shared/Libraries/STM32F4xx_StdPeriph_Driver/src/stm32f4xx_tim.c ****   * @retval None
2613:../Shared/Libraries/STM32F4xx_StdPeriph_Driver/src/stm32f4xx_tim.c ****   */
2614:../Shared/Libraries/STM32F4xx_StdPeriph_Driver/src/stm32f4xx_tim.c **** void TIM_DMACmd(TIM_TypeDef* TIMx, uint16_t TIM_DMASource, FunctionalState NewState)
2615:../Shared/Libraries/STM32F4xx_StdPeriph_Driver/src/stm32f4xx_tim.c **** { 
 5657              		.loc 1 2615 1
 5658              		.cfi_startproc
 5659              		@ args = 0, pretend = 0, frame = 8
 5660              		@ frame_needed = 1, uses_anonymous_args = 0
 5661              		@ link register save eliminated.
 5662 0000 80B4     		push	{r7}
 5663              	.LCFI435:
 5664              		.cfi_def_cfa_offset 4
 5665              		.cfi_offset 7, -4
ARM GAS  /tmp/cc2zcHeL.s 			page 145


 5666 0002 83B0     		sub	sp, sp, #12
 5667              	.LCFI436:
 5668              		.cfi_def_cfa_offset 16
 5669 0004 00AF     		add	r7, sp, #0
 5670              	.LCFI437:
 5671              		.cfi_def_cfa_register 7
 5672 0006 7860     		str	r0, [r7, #4]
 5673 0008 0B46     		mov	r3, r1
 5674 000a 7B80     		strh	r3, [r7, #2]	@ movhi
 5675 000c 1346     		mov	r3, r2
 5676 000e 7B70     		strb	r3, [r7, #1]
2616:../Shared/Libraries/STM32F4xx_StdPeriph_Driver/src/stm32f4xx_tim.c ****   /* Check the parameters */
2617:../Shared/Libraries/STM32F4xx_StdPeriph_Driver/src/stm32f4xx_tim.c ****   assert_param(IS_TIM_LIST5_PERIPH(TIMx)); 
2618:../Shared/Libraries/STM32F4xx_StdPeriph_Driver/src/stm32f4xx_tim.c ****   assert_param(IS_TIM_DMA_SOURCE(TIM_DMASource));
2619:../Shared/Libraries/STM32F4xx_StdPeriph_Driver/src/stm32f4xx_tim.c ****   assert_param(IS_FUNCTIONAL_STATE(NewState));
2620:../Shared/Libraries/STM32F4xx_StdPeriph_Driver/src/stm32f4xx_tim.c ****   
2621:../Shared/Libraries/STM32F4xx_StdPeriph_Driver/src/stm32f4xx_tim.c ****   if (NewState != DISABLE)
 5677              		.loc 1 2621 6
 5678 0010 7B78     		ldrb	r3, [r7, #1]	@ zero_extendqisi2
 5679 0012 002B     		cmp	r3, #0
 5680 0014 08D0     		beq	.L166
2622:../Shared/Libraries/STM32F4xx_StdPeriph_Driver/src/stm32f4xx_tim.c ****   {
2623:../Shared/Libraries/STM32F4xx_StdPeriph_Driver/src/stm32f4xx_tim.c ****     /* Enable the DMA sources */
2624:../Shared/Libraries/STM32F4xx_StdPeriph_Driver/src/stm32f4xx_tim.c ****     TIMx->DIER |= TIM_DMASource; 
 5681              		.loc 1 2624 9
 5682 0016 7B68     		ldr	r3, [r7, #4]
 5683 0018 9B89     		ldrh	r3, [r3, #12]	@ movhi
 5684 001a 9AB2     		uxth	r2, r3
 5685              		.loc 1 2624 16
 5686 001c 7B88     		ldrh	r3, [r7, #2]	@ movhi
 5687 001e 1343     		orrs	r3, r3, r2
 5688 0020 9AB2     		uxth	r2, r3
 5689 0022 7B68     		ldr	r3, [r7, #4]
 5690 0024 9A81     		strh	r2, [r3, #12]	@ movhi
2625:../Shared/Libraries/STM32F4xx_StdPeriph_Driver/src/stm32f4xx_tim.c ****   }
2626:../Shared/Libraries/STM32F4xx_StdPeriph_Driver/src/stm32f4xx_tim.c ****   else
2627:../Shared/Libraries/STM32F4xx_StdPeriph_Driver/src/stm32f4xx_tim.c ****   {
2628:../Shared/Libraries/STM32F4xx_StdPeriph_Driver/src/stm32f4xx_tim.c ****     /* Disable the DMA sources */
2629:../Shared/Libraries/STM32F4xx_StdPeriph_Driver/src/stm32f4xx_tim.c ****     TIMx->DIER &= (uint16_t)~TIM_DMASource;
2630:../Shared/Libraries/STM32F4xx_StdPeriph_Driver/src/stm32f4xx_tim.c ****   }
2631:../Shared/Libraries/STM32F4xx_StdPeriph_Driver/src/stm32f4xx_tim.c **** }
 5691              		.loc 1 2631 1
 5692 0026 09E0     		b	.L168
 5693              	.L166:
2629:../Shared/Libraries/STM32F4xx_StdPeriph_Driver/src/stm32f4xx_tim.c ****   }
 5694              		.loc 1 2629 9
 5695 0028 7B68     		ldr	r3, [r7, #4]
 5696 002a 9B89     		ldrh	r3, [r3, #12]	@ movhi
 5697 002c 9AB2     		uxth	r2, r3
2629:../Shared/Libraries/STM32F4xx_StdPeriph_Driver/src/stm32f4xx_tim.c ****   }
 5698              		.loc 1 2629 19
 5699 002e 7B88     		ldrh	r3, [r7, #2]	@ movhi
 5700 0030 DB43     		mvns	r3, r3
 5701 0032 9BB2     		uxth	r3, r3
2629:../Shared/Libraries/STM32F4xx_StdPeriph_Driver/src/stm32f4xx_tim.c ****   }
 5702              		.loc 1 2629 16
 5703 0034 1340     		ands	r3, r3, r2
ARM GAS  /tmp/cc2zcHeL.s 			page 146


 5704 0036 9AB2     		uxth	r2, r3
 5705 0038 7B68     		ldr	r3, [r7, #4]
 5706 003a 9A81     		strh	r2, [r3, #12]	@ movhi
 5707              	.L168:
 5708              		.loc 1 2631 1
 5709 003c 00BF     		nop
 5710 003e 0C37     		adds	r7, r7, #12
 5711              	.LCFI438:
 5712              		.cfi_def_cfa_offset 4
 5713 0040 BD46     		mov	sp, r7
 5714              	.LCFI439:
 5715              		.cfi_def_cfa_register 13
 5716              		@ sp needed
 5717 0042 5DF8047B 		ldr	r7, [sp], #4
 5718              	.LCFI440:
 5719              		.cfi_restore 7
 5720              		.cfi_def_cfa_offset 0
 5721 0046 7047     		bx	lr
 5722              		.cfi_endproc
 5723              	.LFE183:
 5725              		.section	.text.TIM_SelectCCDMA,"ax",%progbits
 5726              		.align	1
 5727              		.global	TIM_SelectCCDMA
 5728              		.syntax unified
 5729              		.thumb
 5730              		.thumb_func
 5732              	TIM_SelectCCDMA:
 5733              	.LFB184:
2632:../Shared/Libraries/STM32F4xx_StdPeriph_Driver/src/stm32f4xx_tim.c **** 
2633:../Shared/Libraries/STM32F4xx_StdPeriph_Driver/src/stm32f4xx_tim.c **** /**
2634:../Shared/Libraries/STM32F4xx_StdPeriph_Driver/src/stm32f4xx_tim.c ****   * @brief  Selects the TIMx peripheral Capture Compare DMA source.
2635:../Shared/Libraries/STM32F4xx_StdPeriph_Driver/src/stm32f4xx_tim.c ****   * @param  TIMx: where x can be  1, 2, 3, 4, 5 or 8 to select the TIM peripheral.
2636:../Shared/Libraries/STM32F4xx_StdPeriph_Driver/src/stm32f4xx_tim.c ****   * @param  NewState: new state of the Capture Compare DMA source
2637:../Shared/Libraries/STM32F4xx_StdPeriph_Driver/src/stm32f4xx_tim.c ****   *          This parameter can be: ENABLE or DISABLE.
2638:../Shared/Libraries/STM32F4xx_StdPeriph_Driver/src/stm32f4xx_tim.c ****   * @retval None
2639:../Shared/Libraries/STM32F4xx_StdPeriph_Driver/src/stm32f4xx_tim.c ****   */
2640:../Shared/Libraries/STM32F4xx_StdPeriph_Driver/src/stm32f4xx_tim.c **** void TIM_SelectCCDMA(TIM_TypeDef* TIMx, FunctionalState NewState)
2641:../Shared/Libraries/STM32F4xx_StdPeriph_Driver/src/stm32f4xx_tim.c **** {
 5734              		.loc 1 2641 1
 5735              		.cfi_startproc
 5736              		@ args = 0, pretend = 0, frame = 8
 5737              		@ frame_needed = 1, uses_anonymous_args = 0
 5738              		@ link register save eliminated.
 5739 0000 80B4     		push	{r7}
 5740              	.LCFI441:
 5741              		.cfi_def_cfa_offset 4
 5742              		.cfi_offset 7, -4
 5743 0002 83B0     		sub	sp, sp, #12
 5744              	.LCFI442:
 5745              		.cfi_def_cfa_offset 16
 5746 0004 00AF     		add	r7, sp, #0
 5747              	.LCFI443:
 5748              		.cfi_def_cfa_register 7
 5749 0006 7860     		str	r0, [r7, #4]
 5750 0008 0B46     		mov	r3, r1
 5751 000a FB70     		strb	r3, [r7, #3]
2642:../Shared/Libraries/STM32F4xx_StdPeriph_Driver/src/stm32f4xx_tim.c ****   /* Check the parameters */
ARM GAS  /tmp/cc2zcHeL.s 			page 147


2643:../Shared/Libraries/STM32F4xx_StdPeriph_Driver/src/stm32f4xx_tim.c ****   assert_param(IS_TIM_LIST3_PERIPH(TIMx));
2644:../Shared/Libraries/STM32F4xx_StdPeriph_Driver/src/stm32f4xx_tim.c ****   assert_param(IS_FUNCTIONAL_STATE(NewState));
2645:../Shared/Libraries/STM32F4xx_StdPeriph_Driver/src/stm32f4xx_tim.c **** 
2646:../Shared/Libraries/STM32F4xx_StdPeriph_Driver/src/stm32f4xx_tim.c ****   if (NewState != DISABLE)
 5752              		.loc 1 2646 6
 5753 000c FB78     		ldrb	r3, [r7, #3]	@ zero_extendqisi2
 5754 000e 002B     		cmp	r3, #0
 5755 0010 08D0     		beq	.L170
2647:../Shared/Libraries/STM32F4xx_StdPeriph_Driver/src/stm32f4xx_tim.c ****   {
2648:../Shared/Libraries/STM32F4xx_StdPeriph_Driver/src/stm32f4xx_tim.c ****     /* Set the CCDS Bit */
2649:../Shared/Libraries/STM32F4xx_StdPeriph_Driver/src/stm32f4xx_tim.c ****     TIMx->CR2 |= TIM_CR2_CCDS;
 5756              		.loc 1 2649 9
 5757 0012 7B68     		ldr	r3, [r7, #4]
 5758 0014 9B88     		ldrh	r3, [r3, #4]	@ movhi
 5759 0016 9BB2     		uxth	r3, r3
 5760              		.loc 1 2649 15
 5761 0018 43F00803 		orr	r3, r3, #8
 5762 001c 9AB2     		uxth	r2, r3
 5763 001e 7B68     		ldr	r3, [r7, #4]
 5764 0020 9A80     		strh	r2, [r3, #4]	@ movhi
2650:../Shared/Libraries/STM32F4xx_StdPeriph_Driver/src/stm32f4xx_tim.c ****   }
2651:../Shared/Libraries/STM32F4xx_StdPeriph_Driver/src/stm32f4xx_tim.c ****   else
2652:../Shared/Libraries/STM32F4xx_StdPeriph_Driver/src/stm32f4xx_tim.c ****   {
2653:../Shared/Libraries/STM32F4xx_StdPeriph_Driver/src/stm32f4xx_tim.c ****     /* Reset the CCDS Bit */
2654:../Shared/Libraries/STM32F4xx_StdPeriph_Driver/src/stm32f4xx_tim.c ****     TIMx->CR2 &= (uint16_t)~TIM_CR2_CCDS;
2655:../Shared/Libraries/STM32F4xx_StdPeriph_Driver/src/stm32f4xx_tim.c ****   }
2656:../Shared/Libraries/STM32F4xx_StdPeriph_Driver/src/stm32f4xx_tim.c **** }
 5765              		.loc 1 2656 1
 5766 0022 07E0     		b	.L172
 5767              	.L170:
2654:../Shared/Libraries/STM32F4xx_StdPeriph_Driver/src/stm32f4xx_tim.c ****   }
 5768              		.loc 1 2654 9
 5769 0024 7B68     		ldr	r3, [r7, #4]
 5770 0026 9B88     		ldrh	r3, [r3, #4]	@ movhi
 5771 0028 9BB2     		uxth	r3, r3
2654:../Shared/Libraries/STM32F4xx_StdPeriph_Driver/src/stm32f4xx_tim.c ****   }
 5772              		.loc 1 2654 15
 5773 002a 23F00803 		bic	r3, r3, #8
 5774 002e 9AB2     		uxth	r2, r3
 5775 0030 7B68     		ldr	r3, [r7, #4]
 5776 0032 9A80     		strh	r2, [r3, #4]	@ movhi
 5777              	.L172:
 5778              		.loc 1 2656 1
 5779 0034 00BF     		nop
 5780 0036 0C37     		adds	r7, r7, #12
 5781              	.LCFI444:
 5782              		.cfi_def_cfa_offset 4
 5783 0038 BD46     		mov	sp, r7
 5784              	.LCFI445:
 5785              		.cfi_def_cfa_register 13
 5786              		@ sp needed
 5787 003a 5DF8047B 		ldr	r7, [sp], #4
 5788              	.LCFI446:
 5789              		.cfi_restore 7
 5790              		.cfi_def_cfa_offset 0
 5791 003e 7047     		bx	lr
 5792              		.cfi_endproc
ARM GAS  /tmp/cc2zcHeL.s 			page 148


 5793              	.LFE184:
 5795              		.section	.text.TIM_InternalClockConfig,"ax",%progbits
 5796              		.align	1
 5797              		.global	TIM_InternalClockConfig
 5798              		.syntax unified
 5799              		.thumb
 5800              		.thumb_func
 5802              	TIM_InternalClockConfig:
 5803              	.LFB185:
2657:../Shared/Libraries/STM32F4xx_StdPeriph_Driver/src/stm32f4xx_tim.c **** /**
2658:../Shared/Libraries/STM32F4xx_StdPeriph_Driver/src/stm32f4xx_tim.c ****   * @}
2659:../Shared/Libraries/STM32F4xx_StdPeriph_Driver/src/stm32f4xx_tim.c ****   */
2660:../Shared/Libraries/STM32F4xx_StdPeriph_Driver/src/stm32f4xx_tim.c **** 
2661:../Shared/Libraries/STM32F4xx_StdPeriph_Driver/src/stm32f4xx_tim.c **** /** @defgroup TIM_Group6 Clocks management functions
2662:../Shared/Libraries/STM32F4xx_StdPeriph_Driver/src/stm32f4xx_tim.c ****  *  @brief    Clocks management functions
2663:../Shared/Libraries/STM32F4xx_StdPeriph_Driver/src/stm32f4xx_tim.c ****  *
2664:../Shared/Libraries/STM32F4xx_StdPeriph_Driver/src/stm32f4xx_tim.c **** @verbatim   
2665:../Shared/Libraries/STM32F4xx_StdPeriph_Driver/src/stm32f4xx_tim.c ****  ===============================================================================
2666:../Shared/Libraries/STM32F4xx_StdPeriph_Driver/src/stm32f4xx_tim.c ****                          Clocks management functions
2667:../Shared/Libraries/STM32F4xx_StdPeriph_Driver/src/stm32f4xx_tim.c ****  ===============================================================================  
2668:../Shared/Libraries/STM32F4xx_StdPeriph_Driver/src/stm32f4xx_tim.c **** 
2669:../Shared/Libraries/STM32F4xx_StdPeriph_Driver/src/stm32f4xx_tim.c **** @endverbatim
2670:../Shared/Libraries/STM32F4xx_StdPeriph_Driver/src/stm32f4xx_tim.c ****   * @{
2671:../Shared/Libraries/STM32F4xx_StdPeriph_Driver/src/stm32f4xx_tim.c ****   */
2672:../Shared/Libraries/STM32F4xx_StdPeriph_Driver/src/stm32f4xx_tim.c **** 
2673:../Shared/Libraries/STM32F4xx_StdPeriph_Driver/src/stm32f4xx_tim.c **** /**
2674:../Shared/Libraries/STM32F4xx_StdPeriph_Driver/src/stm32f4xx_tim.c ****   * @brief  Configures the TIMx internal Clock
2675:../Shared/Libraries/STM32F4xx_StdPeriph_Driver/src/stm32f4xx_tim.c ****   * @param  TIMx: where x can be 1, 2, 3, 4, 5, 8, 9 or 12 to select the TIM 
2676:../Shared/Libraries/STM32F4xx_StdPeriph_Driver/src/stm32f4xx_tim.c ****   *         peripheral.
2677:../Shared/Libraries/STM32F4xx_StdPeriph_Driver/src/stm32f4xx_tim.c ****   * @retval None
2678:../Shared/Libraries/STM32F4xx_StdPeriph_Driver/src/stm32f4xx_tim.c ****   */
2679:../Shared/Libraries/STM32F4xx_StdPeriph_Driver/src/stm32f4xx_tim.c **** void TIM_InternalClockConfig(TIM_TypeDef* TIMx)
2680:../Shared/Libraries/STM32F4xx_StdPeriph_Driver/src/stm32f4xx_tim.c **** {
 5804              		.loc 1 2680 1
 5805              		.cfi_startproc
 5806              		@ args = 0, pretend = 0, frame = 8
 5807              		@ frame_needed = 1, uses_anonymous_args = 0
 5808              		@ link register save eliminated.
 5809 0000 80B4     		push	{r7}
 5810              	.LCFI447:
 5811              		.cfi_def_cfa_offset 4
 5812              		.cfi_offset 7, -4
 5813 0002 83B0     		sub	sp, sp, #12
 5814              	.LCFI448:
 5815              		.cfi_def_cfa_offset 16
 5816 0004 00AF     		add	r7, sp, #0
 5817              	.LCFI449:
 5818              		.cfi_def_cfa_register 7
 5819 0006 7860     		str	r0, [r7, #4]
2681:../Shared/Libraries/STM32F4xx_StdPeriph_Driver/src/stm32f4xx_tim.c ****   /* Check the parameters */
2682:../Shared/Libraries/STM32F4xx_StdPeriph_Driver/src/stm32f4xx_tim.c ****   assert_param(IS_TIM_LIST2_PERIPH(TIMx));
2683:../Shared/Libraries/STM32F4xx_StdPeriph_Driver/src/stm32f4xx_tim.c **** 
2684:../Shared/Libraries/STM32F4xx_StdPeriph_Driver/src/stm32f4xx_tim.c ****   /* Disable slave mode to clock the prescaler directly with the internal clock */
2685:../Shared/Libraries/STM32F4xx_StdPeriph_Driver/src/stm32f4xx_tim.c ****   TIMx->SMCR &=  (uint16_t)~TIM_SMCR_SMS;
 5820              		.loc 1 2685 7
 5821 0008 7B68     		ldr	r3, [r7, #4]
 5822 000a 1B89     		ldrh	r3, [r3, #8]	@ movhi
ARM GAS  /tmp/cc2zcHeL.s 			page 149


 5823 000c 9BB2     		uxth	r3, r3
 5824              		.loc 1 2685 14
 5825 000e 23F00703 		bic	r3, r3, #7
 5826 0012 9AB2     		uxth	r2, r3
 5827 0014 7B68     		ldr	r3, [r7, #4]
 5828 0016 1A81     		strh	r2, [r3, #8]	@ movhi
2686:../Shared/Libraries/STM32F4xx_StdPeriph_Driver/src/stm32f4xx_tim.c **** }
 5829              		.loc 1 2686 1
 5830 0018 00BF     		nop
 5831 001a 0C37     		adds	r7, r7, #12
 5832              	.LCFI450:
 5833              		.cfi_def_cfa_offset 4
 5834 001c BD46     		mov	sp, r7
 5835              	.LCFI451:
 5836              		.cfi_def_cfa_register 13
 5837              		@ sp needed
 5838 001e 5DF8047B 		ldr	r7, [sp], #4
 5839              	.LCFI452:
 5840              		.cfi_restore 7
 5841              		.cfi_def_cfa_offset 0
 5842 0022 7047     		bx	lr
 5843              		.cfi_endproc
 5844              	.LFE185:
 5846              		.section	.text.TIM_ITRxExternalClockConfig,"ax",%progbits
 5847              		.align	1
 5848              		.global	TIM_ITRxExternalClockConfig
 5849              		.syntax unified
 5850              		.thumb
 5851              		.thumb_func
 5853              	TIM_ITRxExternalClockConfig:
 5854              	.LFB186:
2687:../Shared/Libraries/STM32F4xx_StdPeriph_Driver/src/stm32f4xx_tim.c **** 
2688:../Shared/Libraries/STM32F4xx_StdPeriph_Driver/src/stm32f4xx_tim.c **** /**
2689:../Shared/Libraries/STM32F4xx_StdPeriph_Driver/src/stm32f4xx_tim.c ****   * @brief  Configures the TIMx Internal Trigger as External Clock
2690:../Shared/Libraries/STM32F4xx_StdPeriph_Driver/src/stm32f4xx_tim.c ****   * @param  TIMx: where x can be 1, 2, 3, 4, 5, 8, 9 or 12 to select the TIM 
2691:../Shared/Libraries/STM32F4xx_StdPeriph_Driver/src/stm32f4xx_tim.c ****   *         peripheral.
2692:../Shared/Libraries/STM32F4xx_StdPeriph_Driver/src/stm32f4xx_tim.c ****   * @param  TIM_InputTriggerSource: Trigger source.
2693:../Shared/Libraries/STM32F4xx_StdPeriph_Driver/src/stm32f4xx_tim.c ****   *          This parameter can be one of the following values:
2694:../Shared/Libraries/STM32F4xx_StdPeriph_Driver/src/stm32f4xx_tim.c ****   *            @arg TIM_TS_ITR0: Internal Trigger 0
2695:../Shared/Libraries/STM32F4xx_StdPeriph_Driver/src/stm32f4xx_tim.c ****   *            @arg TIM_TS_ITR1: Internal Trigger 1
2696:../Shared/Libraries/STM32F4xx_StdPeriph_Driver/src/stm32f4xx_tim.c ****   *            @arg TIM_TS_ITR2: Internal Trigger 2
2697:../Shared/Libraries/STM32F4xx_StdPeriph_Driver/src/stm32f4xx_tim.c ****   *            @arg TIM_TS_ITR3: Internal Trigger 3
2698:../Shared/Libraries/STM32F4xx_StdPeriph_Driver/src/stm32f4xx_tim.c ****   * @retval None
2699:../Shared/Libraries/STM32F4xx_StdPeriph_Driver/src/stm32f4xx_tim.c ****   */
2700:../Shared/Libraries/STM32F4xx_StdPeriph_Driver/src/stm32f4xx_tim.c **** void TIM_ITRxExternalClockConfig(TIM_TypeDef* TIMx, uint16_t TIM_InputTriggerSource)
2701:../Shared/Libraries/STM32F4xx_StdPeriph_Driver/src/stm32f4xx_tim.c **** {
 5855              		.loc 1 2701 1
 5856              		.cfi_startproc
 5857              		@ args = 0, pretend = 0, frame = 8
 5858              		@ frame_needed = 1, uses_anonymous_args = 0
 5859 0000 80B5     		push	{r7, lr}
 5860              	.LCFI453:
 5861              		.cfi_def_cfa_offset 8
 5862              		.cfi_offset 7, -8
 5863              		.cfi_offset 14, -4
 5864 0002 82B0     		sub	sp, sp, #8
 5865              	.LCFI454:
ARM GAS  /tmp/cc2zcHeL.s 			page 150


 5866              		.cfi_def_cfa_offset 16
 5867 0004 00AF     		add	r7, sp, #0
 5868              	.LCFI455:
 5869              		.cfi_def_cfa_register 7
 5870 0006 7860     		str	r0, [r7, #4]
 5871 0008 0B46     		mov	r3, r1
 5872 000a 7B80     		strh	r3, [r7, #2]	@ movhi
2702:../Shared/Libraries/STM32F4xx_StdPeriph_Driver/src/stm32f4xx_tim.c ****   /* Check the parameters */
2703:../Shared/Libraries/STM32F4xx_StdPeriph_Driver/src/stm32f4xx_tim.c ****   assert_param(IS_TIM_LIST2_PERIPH(TIMx));
2704:../Shared/Libraries/STM32F4xx_StdPeriph_Driver/src/stm32f4xx_tim.c ****   assert_param(IS_TIM_INTERNAL_TRIGGER_SELECTION(TIM_InputTriggerSource));
2705:../Shared/Libraries/STM32F4xx_StdPeriph_Driver/src/stm32f4xx_tim.c **** 
2706:../Shared/Libraries/STM32F4xx_StdPeriph_Driver/src/stm32f4xx_tim.c ****   /* Select the Internal Trigger */
2707:../Shared/Libraries/STM32F4xx_StdPeriph_Driver/src/stm32f4xx_tim.c ****   TIM_SelectInputTrigger(TIMx, TIM_InputTriggerSource);
 5873              		.loc 1 2707 3
 5874 000c 7B88     		ldrh	r3, [r7, #2]
 5875 000e 1946     		mov	r1, r3
 5876 0010 7868     		ldr	r0, [r7, #4]
 5877 0012 FFF7FEFF 		bl	TIM_SelectInputTrigger
2708:../Shared/Libraries/STM32F4xx_StdPeriph_Driver/src/stm32f4xx_tim.c **** 
2709:../Shared/Libraries/STM32F4xx_StdPeriph_Driver/src/stm32f4xx_tim.c ****   /* Select the External clock mode1 */
2710:../Shared/Libraries/STM32F4xx_StdPeriph_Driver/src/stm32f4xx_tim.c ****   TIMx->SMCR |= TIM_SlaveMode_External1;
 5878              		.loc 1 2710 7
 5879 0016 7B68     		ldr	r3, [r7, #4]
 5880 0018 1B89     		ldrh	r3, [r3, #8]	@ movhi
 5881 001a 9BB2     		uxth	r3, r3
 5882              		.loc 1 2710 14
 5883 001c 43F00703 		orr	r3, r3, #7
 5884 0020 9AB2     		uxth	r2, r3
 5885 0022 7B68     		ldr	r3, [r7, #4]
 5886 0024 1A81     		strh	r2, [r3, #8]	@ movhi
2711:../Shared/Libraries/STM32F4xx_StdPeriph_Driver/src/stm32f4xx_tim.c **** }
 5887              		.loc 1 2711 1
 5888 0026 00BF     		nop
 5889 0028 0837     		adds	r7, r7, #8
 5890              	.LCFI456:
 5891              		.cfi_def_cfa_offset 8
 5892 002a BD46     		mov	sp, r7
 5893              	.LCFI457:
 5894              		.cfi_def_cfa_register 13
 5895              		@ sp needed
 5896 002c 80BD     		pop	{r7, pc}
 5897              		.cfi_endproc
 5898              	.LFE186:
 5900              		.section	.text.TIM_TIxExternalClockConfig,"ax",%progbits
 5901              		.align	1
 5902              		.global	TIM_TIxExternalClockConfig
 5903              		.syntax unified
 5904              		.thumb
 5905              		.thumb_func
 5907              	TIM_TIxExternalClockConfig:
 5908              	.LFB187:
2712:../Shared/Libraries/STM32F4xx_StdPeriph_Driver/src/stm32f4xx_tim.c **** 
2713:../Shared/Libraries/STM32F4xx_StdPeriph_Driver/src/stm32f4xx_tim.c **** /**
2714:../Shared/Libraries/STM32F4xx_StdPeriph_Driver/src/stm32f4xx_tim.c ****   * @brief  Configures the TIMx Trigger as External Clock
2715:../Shared/Libraries/STM32F4xx_StdPeriph_Driver/src/stm32f4xx_tim.c ****   * @param  TIMx: where x can be 1, 2, 3, 4, 5, 8, 9, 10, 11, 12, 13 or 14  
2716:../Shared/Libraries/STM32F4xx_StdPeriph_Driver/src/stm32f4xx_tim.c ****   *         to select the TIM peripheral.
2717:../Shared/Libraries/STM32F4xx_StdPeriph_Driver/src/stm32f4xx_tim.c ****   * @param  TIM_TIxExternalCLKSource: Trigger source.
ARM GAS  /tmp/cc2zcHeL.s 			page 151


2718:../Shared/Libraries/STM32F4xx_StdPeriph_Driver/src/stm32f4xx_tim.c ****   *          This parameter can be one of the following values:
2719:../Shared/Libraries/STM32F4xx_StdPeriph_Driver/src/stm32f4xx_tim.c ****   *            @arg TIM_TIxExternalCLK1Source_TI1ED: TI1 Edge Detector
2720:../Shared/Libraries/STM32F4xx_StdPeriph_Driver/src/stm32f4xx_tim.c ****   *            @arg TIM_TIxExternalCLK1Source_TI1: Filtered Timer Input 1
2721:../Shared/Libraries/STM32F4xx_StdPeriph_Driver/src/stm32f4xx_tim.c ****   *            @arg TIM_TIxExternalCLK1Source_TI2: Filtered Timer Input 2
2722:../Shared/Libraries/STM32F4xx_StdPeriph_Driver/src/stm32f4xx_tim.c ****   * @param  TIM_ICPolarity: specifies the TIx Polarity.
2723:../Shared/Libraries/STM32F4xx_StdPeriph_Driver/src/stm32f4xx_tim.c ****   *          This parameter can be one of the following values:
2724:../Shared/Libraries/STM32F4xx_StdPeriph_Driver/src/stm32f4xx_tim.c ****   *            @arg TIM_ICPolarity_Rising
2725:../Shared/Libraries/STM32F4xx_StdPeriph_Driver/src/stm32f4xx_tim.c ****   *            @arg TIM_ICPolarity_Falling
2726:../Shared/Libraries/STM32F4xx_StdPeriph_Driver/src/stm32f4xx_tim.c ****   * @param  ICFilter: specifies the filter value.
2727:../Shared/Libraries/STM32F4xx_StdPeriph_Driver/src/stm32f4xx_tim.c ****   *          This parameter must be a value between 0x0 and 0xF.
2728:../Shared/Libraries/STM32F4xx_StdPeriph_Driver/src/stm32f4xx_tim.c ****   * @retval None
2729:../Shared/Libraries/STM32F4xx_StdPeriph_Driver/src/stm32f4xx_tim.c ****   */
2730:../Shared/Libraries/STM32F4xx_StdPeriph_Driver/src/stm32f4xx_tim.c **** void TIM_TIxExternalClockConfig(TIM_TypeDef* TIMx, uint16_t TIM_TIxExternalCLKSource,
2731:../Shared/Libraries/STM32F4xx_StdPeriph_Driver/src/stm32f4xx_tim.c ****                                 uint16_t TIM_ICPolarity, uint16_t ICFilter)
2732:../Shared/Libraries/STM32F4xx_StdPeriph_Driver/src/stm32f4xx_tim.c **** {
 5909              		.loc 1 2732 1
 5910              		.cfi_startproc
 5911              		@ args = 0, pretend = 0, frame = 16
 5912              		@ frame_needed = 1, uses_anonymous_args = 0
 5913 0000 80B5     		push	{r7, lr}
 5914              	.LCFI458:
 5915              		.cfi_def_cfa_offset 8
 5916              		.cfi_offset 7, -8
 5917              		.cfi_offset 14, -4
 5918 0002 84B0     		sub	sp, sp, #16
 5919              	.LCFI459:
 5920              		.cfi_def_cfa_offset 24
 5921 0004 00AF     		add	r7, sp, #0
 5922              	.LCFI460:
 5923              		.cfi_def_cfa_register 7
 5924 0006 F860     		str	r0, [r7, #12]
 5925 0008 0846     		mov	r0, r1
 5926 000a 1146     		mov	r1, r2
 5927 000c 1A46     		mov	r2, r3
 5928 000e 0346     		mov	r3, r0	@ movhi
 5929 0010 7B81     		strh	r3, [r7, #10]	@ movhi
 5930 0012 0B46     		mov	r3, r1	@ movhi
 5931 0014 3B81     		strh	r3, [r7, #8]	@ movhi
 5932 0016 1346     		mov	r3, r2	@ movhi
 5933 0018 FB80     		strh	r3, [r7, #6]	@ movhi
2733:../Shared/Libraries/STM32F4xx_StdPeriph_Driver/src/stm32f4xx_tim.c ****   /* Check the parameters */
2734:../Shared/Libraries/STM32F4xx_StdPeriph_Driver/src/stm32f4xx_tim.c ****   assert_param(IS_TIM_LIST1_PERIPH(TIMx));
2735:../Shared/Libraries/STM32F4xx_StdPeriph_Driver/src/stm32f4xx_tim.c ****   assert_param(IS_TIM_IC_POLARITY(TIM_ICPolarity));
2736:../Shared/Libraries/STM32F4xx_StdPeriph_Driver/src/stm32f4xx_tim.c ****   assert_param(IS_TIM_IC_FILTER(ICFilter));
2737:../Shared/Libraries/STM32F4xx_StdPeriph_Driver/src/stm32f4xx_tim.c **** 
2738:../Shared/Libraries/STM32F4xx_StdPeriph_Driver/src/stm32f4xx_tim.c ****   /* Configure the Timer Input Clock Source */
2739:../Shared/Libraries/STM32F4xx_StdPeriph_Driver/src/stm32f4xx_tim.c ****   if (TIM_TIxExternalCLKSource == TIM_TIxExternalCLK1Source_TI2)
 5934              		.loc 1 2739 6
 5935 001a 7B89     		ldrh	r3, [r7, #10]
 5936 001c 602B     		cmp	r3, #96
 5937 001e 06D1     		bne	.L176
2740:../Shared/Libraries/STM32F4xx_StdPeriph_Driver/src/stm32f4xx_tim.c ****   {
2741:../Shared/Libraries/STM32F4xx_StdPeriph_Driver/src/stm32f4xx_tim.c ****     TI2_Config(TIMx, TIM_ICPolarity, TIM_ICSelection_DirectTI, ICFilter);
 5938              		.loc 1 2741 5
 5939 0020 FB88     		ldrh	r3, [r7, #6]
 5940 0022 3989     		ldrh	r1, [r7, #8]
 5941 0024 0122     		movs	r2, #1
ARM GAS  /tmp/cc2zcHeL.s 			page 152


 5942 0026 F868     		ldr	r0, [r7, #12]
 5943 0028 FFF7FEFF 		bl	TI2_Config
 5944 002c 05E0     		b	.L177
 5945              	.L176:
2742:../Shared/Libraries/STM32F4xx_StdPeriph_Driver/src/stm32f4xx_tim.c ****   }
2743:../Shared/Libraries/STM32F4xx_StdPeriph_Driver/src/stm32f4xx_tim.c ****   else
2744:../Shared/Libraries/STM32F4xx_StdPeriph_Driver/src/stm32f4xx_tim.c ****   {
2745:../Shared/Libraries/STM32F4xx_StdPeriph_Driver/src/stm32f4xx_tim.c ****     TI1_Config(TIMx, TIM_ICPolarity, TIM_ICSelection_DirectTI, ICFilter);
 5946              		.loc 1 2745 5
 5947 002e FB88     		ldrh	r3, [r7, #6]
 5948 0030 3989     		ldrh	r1, [r7, #8]
 5949 0032 0122     		movs	r2, #1
 5950 0034 F868     		ldr	r0, [r7, #12]
 5951 0036 FFF7FEFF 		bl	TI1_Config
 5952              	.L177:
2746:../Shared/Libraries/STM32F4xx_StdPeriph_Driver/src/stm32f4xx_tim.c ****   }
2747:../Shared/Libraries/STM32F4xx_StdPeriph_Driver/src/stm32f4xx_tim.c ****   /* Select the Trigger source */
2748:../Shared/Libraries/STM32F4xx_StdPeriph_Driver/src/stm32f4xx_tim.c ****   TIM_SelectInputTrigger(TIMx, TIM_TIxExternalCLKSource);
 5953              		.loc 1 2748 3
 5954 003a 7B89     		ldrh	r3, [r7, #10]
 5955 003c 1946     		mov	r1, r3
 5956 003e F868     		ldr	r0, [r7, #12]
 5957 0040 FFF7FEFF 		bl	TIM_SelectInputTrigger
2749:../Shared/Libraries/STM32F4xx_StdPeriph_Driver/src/stm32f4xx_tim.c ****   /* Select the External clock mode1 */
2750:../Shared/Libraries/STM32F4xx_StdPeriph_Driver/src/stm32f4xx_tim.c ****   TIMx->SMCR |= TIM_SlaveMode_External1;
 5958              		.loc 1 2750 7
 5959 0044 FB68     		ldr	r3, [r7, #12]
 5960 0046 1B89     		ldrh	r3, [r3, #8]	@ movhi
 5961 0048 9BB2     		uxth	r3, r3
 5962              		.loc 1 2750 14
 5963 004a 43F00703 		orr	r3, r3, #7
 5964 004e 9AB2     		uxth	r2, r3
 5965 0050 FB68     		ldr	r3, [r7, #12]
 5966 0052 1A81     		strh	r2, [r3, #8]	@ movhi
2751:../Shared/Libraries/STM32F4xx_StdPeriph_Driver/src/stm32f4xx_tim.c **** }
 5967              		.loc 1 2751 1
 5968 0054 00BF     		nop
 5969 0056 1037     		adds	r7, r7, #16
 5970              	.LCFI461:
 5971              		.cfi_def_cfa_offset 8
 5972 0058 BD46     		mov	sp, r7
 5973              	.LCFI462:
 5974              		.cfi_def_cfa_register 13
 5975              		@ sp needed
 5976 005a 80BD     		pop	{r7, pc}
 5977              		.cfi_endproc
 5978              	.LFE187:
 5980              		.section	.text.TIM_ETRClockMode1Config,"ax",%progbits
 5981              		.align	1
 5982              		.global	TIM_ETRClockMode1Config
 5983              		.syntax unified
 5984              		.thumb
 5985              		.thumb_func
 5987              	TIM_ETRClockMode1Config:
 5988              	.LFB188:
2752:../Shared/Libraries/STM32F4xx_StdPeriph_Driver/src/stm32f4xx_tim.c **** 
2753:../Shared/Libraries/STM32F4xx_StdPeriph_Driver/src/stm32f4xx_tim.c **** /**
ARM GAS  /tmp/cc2zcHeL.s 			page 153


2754:../Shared/Libraries/STM32F4xx_StdPeriph_Driver/src/stm32f4xx_tim.c ****   * @brief  Configures the External clock Mode1
2755:../Shared/Libraries/STM32F4xx_StdPeriph_Driver/src/stm32f4xx_tim.c ****   * @param  TIMx: where x can be  1, 2, 3, 4, 5 or 8 to select the TIM peripheral.
2756:../Shared/Libraries/STM32F4xx_StdPeriph_Driver/src/stm32f4xx_tim.c ****   * @param  TIM_ExtTRGPrescaler: The external Trigger Prescaler.
2757:../Shared/Libraries/STM32F4xx_StdPeriph_Driver/src/stm32f4xx_tim.c ****   *          This parameter can be one of the following values:
2758:../Shared/Libraries/STM32F4xx_StdPeriph_Driver/src/stm32f4xx_tim.c ****   *            @arg TIM_ExtTRGPSC_OFF: ETRP Prescaler OFF.
2759:../Shared/Libraries/STM32F4xx_StdPeriph_Driver/src/stm32f4xx_tim.c ****   *            @arg TIM_ExtTRGPSC_DIV2: ETRP frequency divided by 2.
2760:../Shared/Libraries/STM32F4xx_StdPeriph_Driver/src/stm32f4xx_tim.c ****   *            @arg TIM_ExtTRGPSC_DIV4: ETRP frequency divided by 4.
2761:../Shared/Libraries/STM32F4xx_StdPeriph_Driver/src/stm32f4xx_tim.c ****   *            @arg TIM_ExtTRGPSC_DIV8: ETRP frequency divided by 8.
2762:../Shared/Libraries/STM32F4xx_StdPeriph_Driver/src/stm32f4xx_tim.c ****   * @param  TIM_ExtTRGPolarity: The external Trigger Polarity.
2763:../Shared/Libraries/STM32F4xx_StdPeriph_Driver/src/stm32f4xx_tim.c ****   *          This parameter can be one of the following values:
2764:../Shared/Libraries/STM32F4xx_StdPeriph_Driver/src/stm32f4xx_tim.c ****   *            @arg TIM_ExtTRGPolarity_Inverted: active low or falling edge active.
2765:../Shared/Libraries/STM32F4xx_StdPeriph_Driver/src/stm32f4xx_tim.c ****   *            @arg TIM_ExtTRGPolarity_NonInverted: active high or rising edge active.
2766:../Shared/Libraries/STM32F4xx_StdPeriph_Driver/src/stm32f4xx_tim.c ****   * @param  ExtTRGFilter: External Trigger Filter.
2767:../Shared/Libraries/STM32F4xx_StdPeriph_Driver/src/stm32f4xx_tim.c ****   *          This parameter must be a value between 0x00 and 0x0F
2768:../Shared/Libraries/STM32F4xx_StdPeriph_Driver/src/stm32f4xx_tim.c ****   * @retval None
2769:../Shared/Libraries/STM32F4xx_StdPeriph_Driver/src/stm32f4xx_tim.c ****   */
2770:../Shared/Libraries/STM32F4xx_StdPeriph_Driver/src/stm32f4xx_tim.c **** void TIM_ETRClockMode1Config(TIM_TypeDef* TIMx, uint16_t TIM_ExtTRGPrescaler,
2771:../Shared/Libraries/STM32F4xx_StdPeriph_Driver/src/stm32f4xx_tim.c ****                             uint16_t TIM_ExtTRGPolarity, uint16_t ExtTRGFilter)
2772:../Shared/Libraries/STM32F4xx_StdPeriph_Driver/src/stm32f4xx_tim.c **** {
 5989              		.loc 1 2772 1
 5990              		.cfi_startproc
 5991              		@ args = 0, pretend = 0, frame = 24
 5992              		@ frame_needed = 1, uses_anonymous_args = 0
 5993 0000 80B5     		push	{r7, lr}
 5994              	.LCFI463:
 5995              		.cfi_def_cfa_offset 8
 5996              		.cfi_offset 7, -8
 5997              		.cfi_offset 14, -4
 5998 0002 86B0     		sub	sp, sp, #24
 5999              	.LCFI464:
 6000              		.cfi_def_cfa_offset 32
 6001 0004 00AF     		add	r7, sp, #0
 6002              	.LCFI465:
 6003              		.cfi_def_cfa_register 7
 6004 0006 F860     		str	r0, [r7, #12]
 6005 0008 0846     		mov	r0, r1
 6006 000a 1146     		mov	r1, r2
 6007 000c 1A46     		mov	r2, r3
 6008 000e 0346     		mov	r3, r0	@ movhi
 6009 0010 7B81     		strh	r3, [r7, #10]	@ movhi
 6010 0012 0B46     		mov	r3, r1	@ movhi
 6011 0014 3B81     		strh	r3, [r7, #8]	@ movhi
 6012 0016 1346     		mov	r3, r2	@ movhi
 6013 0018 FB80     		strh	r3, [r7, #6]	@ movhi
2773:../Shared/Libraries/STM32F4xx_StdPeriph_Driver/src/stm32f4xx_tim.c ****   uint16_t tmpsmcr = 0;
 6014              		.loc 1 2773 12
 6015 001a 0023     		movs	r3, #0
 6016 001c FB82     		strh	r3, [r7, #22]	@ movhi
2774:../Shared/Libraries/STM32F4xx_StdPeriph_Driver/src/stm32f4xx_tim.c **** 
2775:../Shared/Libraries/STM32F4xx_StdPeriph_Driver/src/stm32f4xx_tim.c ****   /* Check the parameters */
2776:../Shared/Libraries/STM32F4xx_StdPeriph_Driver/src/stm32f4xx_tim.c ****   assert_param(IS_TIM_LIST3_PERIPH(TIMx));
2777:../Shared/Libraries/STM32F4xx_StdPeriph_Driver/src/stm32f4xx_tim.c ****   assert_param(IS_TIM_EXT_PRESCALER(TIM_ExtTRGPrescaler));
2778:../Shared/Libraries/STM32F4xx_StdPeriph_Driver/src/stm32f4xx_tim.c ****   assert_param(IS_TIM_EXT_POLARITY(TIM_ExtTRGPolarity));
2779:../Shared/Libraries/STM32F4xx_StdPeriph_Driver/src/stm32f4xx_tim.c ****   assert_param(IS_TIM_EXT_FILTER(ExtTRGFilter));
2780:../Shared/Libraries/STM32F4xx_StdPeriph_Driver/src/stm32f4xx_tim.c ****   /* Configure the ETR Clock source */
2781:../Shared/Libraries/STM32F4xx_StdPeriph_Driver/src/stm32f4xx_tim.c ****   TIM_ETRConfig(TIMx, TIM_ExtTRGPrescaler, TIM_ExtTRGPolarity, ExtTRGFilter);
 6017              		.loc 1 2781 3
ARM GAS  /tmp/cc2zcHeL.s 			page 154


 6018 001e FB88     		ldrh	r3, [r7, #6]
 6019 0020 3A89     		ldrh	r2, [r7, #8]
 6020 0022 7989     		ldrh	r1, [r7, #10]
 6021 0024 F868     		ldr	r0, [r7, #12]
 6022 0026 FFF7FEFF 		bl	TIM_ETRConfig
2782:../Shared/Libraries/STM32F4xx_StdPeriph_Driver/src/stm32f4xx_tim.c ****   
2783:../Shared/Libraries/STM32F4xx_StdPeriph_Driver/src/stm32f4xx_tim.c ****   /* Get the TIMx SMCR register value */
2784:../Shared/Libraries/STM32F4xx_StdPeriph_Driver/src/stm32f4xx_tim.c ****   tmpsmcr = TIMx->SMCR;
 6023              		.loc 1 2784 11
 6024 002a FB68     		ldr	r3, [r7, #12]
 6025 002c 1B89     		ldrh	r3, [r3, #8]	@ movhi
 6026 002e FB82     		strh	r3, [r7, #22]	@ movhi
2785:../Shared/Libraries/STM32F4xx_StdPeriph_Driver/src/stm32f4xx_tim.c **** 
2786:../Shared/Libraries/STM32F4xx_StdPeriph_Driver/src/stm32f4xx_tim.c ****   /* Reset the SMS Bits */
2787:../Shared/Libraries/STM32F4xx_StdPeriph_Driver/src/stm32f4xx_tim.c ****   tmpsmcr &= (uint16_t)~TIM_SMCR_SMS;
 6027              		.loc 1 2787 11
 6028 0030 FB8A     		ldrh	r3, [r7, #22]	@ movhi
 6029 0032 23F00703 		bic	r3, r3, #7
 6030 0036 FB82     		strh	r3, [r7, #22]	@ movhi
2788:../Shared/Libraries/STM32F4xx_StdPeriph_Driver/src/stm32f4xx_tim.c **** 
2789:../Shared/Libraries/STM32F4xx_StdPeriph_Driver/src/stm32f4xx_tim.c ****   /* Select the External clock mode1 */
2790:../Shared/Libraries/STM32F4xx_StdPeriph_Driver/src/stm32f4xx_tim.c ****   tmpsmcr |= TIM_SlaveMode_External1;
 6031              		.loc 1 2790 11
 6032 0038 FB8A     		ldrh	r3, [r7, #22]	@ movhi
 6033 003a 43F00703 		orr	r3, r3, #7
 6034 003e FB82     		strh	r3, [r7, #22]	@ movhi
2791:../Shared/Libraries/STM32F4xx_StdPeriph_Driver/src/stm32f4xx_tim.c **** 
2792:../Shared/Libraries/STM32F4xx_StdPeriph_Driver/src/stm32f4xx_tim.c ****   /* Select the Trigger selection : ETRF */
2793:../Shared/Libraries/STM32F4xx_StdPeriph_Driver/src/stm32f4xx_tim.c ****   tmpsmcr &= (uint16_t)~TIM_SMCR_TS;
 6035              		.loc 1 2793 11
 6036 0040 FB8A     		ldrh	r3, [r7, #22]	@ movhi
 6037 0042 23F07003 		bic	r3, r3, #112
 6038 0046 FB82     		strh	r3, [r7, #22]	@ movhi
2794:../Shared/Libraries/STM32F4xx_StdPeriph_Driver/src/stm32f4xx_tim.c ****   tmpsmcr |= TIM_TS_ETRF;
 6039              		.loc 1 2794 11
 6040 0048 FB8A     		ldrh	r3, [r7, #22]	@ movhi
 6041 004a 43F07003 		orr	r3, r3, #112
 6042 004e FB82     		strh	r3, [r7, #22]	@ movhi
2795:../Shared/Libraries/STM32F4xx_StdPeriph_Driver/src/stm32f4xx_tim.c **** 
2796:../Shared/Libraries/STM32F4xx_StdPeriph_Driver/src/stm32f4xx_tim.c ****   /* Write to TIMx SMCR */
2797:../Shared/Libraries/STM32F4xx_StdPeriph_Driver/src/stm32f4xx_tim.c ****   TIMx->SMCR = tmpsmcr;
 6043              		.loc 1 2797 14
 6044 0050 FB68     		ldr	r3, [r7, #12]
 6045 0052 FA8A     		ldrh	r2, [r7, #22]	@ movhi
 6046 0054 1A81     		strh	r2, [r3, #8]	@ movhi
2798:../Shared/Libraries/STM32F4xx_StdPeriph_Driver/src/stm32f4xx_tim.c **** }
 6047              		.loc 1 2798 1
 6048 0056 00BF     		nop
 6049 0058 1837     		adds	r7, r7, #24
 6050              	.LCFI466:
 6051              		.cfi_def_cfa_offset 8
 6052 005a BD46     		mov	sp, r7
 6053              	.LCFI467:
 6054              		.cfi_def_cfa_register 13
 6055              		@ sp needed
 6056 005c 80BD     		pop	{r7, pc}
 6057              		.cfi_endproc
ARM GAS  /tmp/cc2zcHeL.s 			page 155


 6058              	.LFE188:
 6060              		.section	.text.TIM_ETRClockMode2Config,"ax",%progbits
 6061              		.align	1
 6062              		.global	TIM_ETRClockMode2Config
 6063              		.syntax unified
 6064              		.thumb
 6065              		.thumb_func
 6067              	TIM_ETRClockMode2Config:
 6068              	.LFB189:
2799:../Shared/Libraries/STM32F4xx_StdPeriph_Driver/src/stm32f4xx_tim.c **** 
2800:../Shared/Libraries/STM32F4xx_StdPeriph_Driver/src/stm32f4xx_tim.c **** /**
2801:../Shared/Libraries/STM32F4xx_StdPeriph_Driver/src/stm32f4xx_tim.c ****   * @brief  Configures the External clock Mode2
2802:../Shared/Libraries/STM32F4xx_StdPeriph_Driver/src/stm32f4xx_tim.c ****   * @param  TIMx: where x can be  1, 2, 3, 4, 5 or 8 to select the TIM peripheral.
2803:../Shared/Libraries/STM32F4xx_StdPeriph_Driver/src/stm32f4xx_tim.c ****   * @param  TIM_ExtTRGPrescaler: The external Trigger Prescaler.
2804:../Shared/Libraries/STM32F4xx_StdPeriph_Driver/src/stm32f4xx_tim.c ****   *          This parameter can be one of the following values:
2805:../Shared/Libraries/STM32F4xx_StdPeriph_Driver/src/stm32f4xx_tim.c ****   *            @arg TIM_ExtTRGPSC_OFF: ETRP Prescaler OFF.
2806:../Shared/Libraries/STM32F4xx_StdPeriph_Driver/src/stm32f4xx_tim.c ****   *            @arg TIM_ExtTRGPSC_DIV2: ETRP frequency divided by 2.
2807:../Shared/Libraries/STM32F4xx_StdPeriph_Driver/src/stm32f4xx_tim.c ****   *            @arg TIM_ExtTRGPSC_DIV4: ETRP frequency divided by 4.
2808:../Shared/Libraries/STM32F4xx_StdPeriph_Driver/src/stm32f4xx_tim.c ****   *            @arg TIM_ExtTRGPSC_DIV8: ETRP frequency divided by 8.
2809:../Shared/Libraries/STM32F4xx_StdPeriph_Driver/src/stm32f4xx_tim.c ****   * @param  TIM_ExtTRGPolarity: The external Trigger Polarity.
2810:../Shared/Libraries/STM32F4xx_StdPeriph_Driver/src/stm32f4xx_tim.c ****   *          This parameter can be one of the following values:
2811:../Shared/Libraries/STM32F4xx_StdPeriph_Driver/src/stm32f4xx_tim.c ****   *            @arg TIM_ExtTRGPolarity_Inverted: active low or falling edge active.
2812:../Shared/Libraries/STM32F4xx_StdPeriph_Driver/src/stm32f4xx_tim.c ****   *            @arg TIM_ExtTRGPolarity_NonInverted: active high or rising edge active.
2813:../Shared/Libraries/STM32F4xx_StdPeriph_Driver/src/stm32f4xx_tim.c ****   * @param  ExtTRGFilter: External Trigger Filter.
2814:../Shared/Libraries/STM32F4xx_StdPeriph_Driver/src/stm32f4xx_tim.c ****   *          This parameter must be a value between 0x00 and 0x0F
2815:../Shared/Libraries/STM32F4xx_StdPeriph_Driver/src/stm32f4xx_tim.c ****   * @retval None
2816:../Shared/Libraries/STM32F4xx_StdPeriph_Driver/src/stm32f4xx_tim.c ****   */
2817:../Shared/Libraries/STM32F4xx_StdPeriph_Driver/src/stm32f4xx_tim.c **** void TIM_ETRClockMode2Config(TIM_TypeDef* TIMx, uint16_t TIM_ExtTRGPrescaler, 
2818:../Shared/Libraries/STM32F4xx_StdPeriph_Driver/src/stm32f4xx_tim.c ****                              uint16_t TIM_ExtTRGPolarity, uint16_t ExtTRGFilter)
2819:../Shared/Libraries/STM32F4xx_StdPeriph_Driver/src/stm32f4xx_tim.c **** {
 6069              		.loc 1 2819 1
 6070              		.cfi_startproc
 6071              		@ args = 0, pretend = 0, frame = 16
 6072              		@ frame_needed = 1, uses_anonymous_args = 0
 6073 0000 80B5     		push	{r7, lr}
 6074              	.LCFI468:
 6075              		.cfi_def_cfa_offset 8
 6076              		.cfi_offset 7, -8
 6077              		.cfi_offset 14, -4
 6078 0002 84B0     		sub	sp, sp, #16
 6079              	.LCFI469:
 6080              		.cfi_def_cfa_offset 24
 6081 0004 00AF     		add	r7, sp, #0
 6082              	.LCFI470:
 6083              		.cfi_def_cfa_register 7
 6084 0006 F860     		str	r0, [r7, #12]
 6085 0008 0846     		mov	r0, r1
 6086 000a 1146     		mov	r1, r2
 6087 000c 1A46     		mov	r2, r3
 6088 000e 0346     		mov	r3, r0	@ movhi
 6089 0010 7B81     		strh	r3, [r7, #10]	@ movhi
 6090 0012 0B46     		mov	r3, r1	@ movhi
 6091 0014 3B81     		strh	r3, [r7, #8]	@ movhi
 6092 0016 1346     		mov	r3, r2	@ movhi
 6093 0018 FB80     		strh	r3, [r7, #6]	@ movhi
2820:../Shared/Libraries/STM32F4xx_StdPeriph_Driver/src/stm32f4xx_tim.c ****   /* Check the parameters */
2821:../Shared/Libraries/STM32F4xx_StdPeriph_Driver/src/stm32f4xx_tim.c ****   assert_param(IS_TIM_LIST3_PERIPH(TIMx));
ARM GAS  /tmp/cc2zcHeL.s 			page 156


2822:../Shared/Libraries/STM32F4xx_StdPeriph_Driver/src/stm32f4xx_tim.c ****   assert_param(IS_TIM_EXT_PRESCALER(TIM_ExtTRGPrescaler));
2823:../Shared/Libraries/STM32F4xx_StdPeriph_Driver/src/stm32f4xx_tim.c ****   assert_param(IS_TIM_EXT_POLARITY(TIM_ExtTRGPolarity));
2824:../Shared/Libraries/STM32F4xx_StdPeriph_Driver/src/stm32f4xx_tim.c ****   assert_param(IS_TIM_EXT_FILTER(ExtTRGFilter));
2825:../Shared/Libraries/STM32F4xx_StdPeriph_Driver/src/stm32f4xx_tim.c **** 
2826:../Shared/Libraries/STM32F4xx_StdPeriph_Driver/src/stm32f4xx_tim.c ****   /* Configure the ETR Clock source */
2827:../Shared/Libraries/STM32F4xx_StdPeriph_Driver/src/stm32f4xx_tim.c ****   TIM_ETRConfig(TIMx, TIM_ExtTRGPrescaler, TIM_ExtTRGPolarity, ExtTRGFilter);
 6094              		.loc 1 2827 3
 6095 001a FB88     		ldrh	r3, [r7, #6]
 6096 001c 3A89     		ldrh	r2, [r7, #8]
 6097 001e 7989     		ldrh	r1, [r7, #10]
 6098 0020 F868     		ldr	r0, [r7, #12]
 6099 0022 FFF7FEFF 		bl	TIM_ETRConfig
2828:../Shared/Libraries/STM32F4xx_StdPeriph_Driver/src/stm32f4xx_tim.c **** 
2829:../Shared/Libraries/STM32F4xx_StdPeriph_Driver/src/stm32f4xx_tim.c ****   /* Enable the External clock mode2 */
2830:../Shared/Libraries/STM32F4xx_StdPeriph_Driver/src/stm32f4xx_tim.c ****   TIMx->SMCR |= TIM_SMCR_ECE;
 6100              		.loc 1 2830 7
 6101 0026 FB68     		ldr	r3, [r7, #12]
 6102 0028 1B89     		ldrh	r3, [r3, #8]	@ movhi
 6103 002a 9BB2     		uxth	r3, r3
 6104              		.loc 1 2830 14
 6105 002c 43F48043 		orr	r3, r3, #16384
 6106 0030 9AB2     		uxth	r2, r3
 6107 0032 FB68     		ldr	r3, [r7, #12]
 6108 0034 1A81     		strh	r2, [r3, #8]	@ movhi
2831:../Shared/Libraries/STM32F4xx_StdPeriph_Driver/src/stm32f4xx_tim.c **** }
 6109              		.loc 1 2831 1
 6110 0036 00BF     		nop
 6111 0038 1037     		adds	r7, r7, #16
 6112              	.LCFI471:
 6113              		.cfi_def_cfa_offset 8
 6114 003a BD46     		mov	sp, r7
 6115              	.LCFI472:
 6116              		.cfi_def_cfa_register 13
 6117              		@ sp needed
 6118 003c 80BD     		pop	{r7, pc}
 6119              		.cfi_endproc
 6120              	.LFE189:
 6122              		.section	.text.TIM_SelectInputTrigger,"ax",%progbits
 6123              		.align	1
 6124              		.global	TIM_SelectInputTrigger
 6125              		.syntax unified
 6126              		.thumb
 6127              		.thumb_func
 6129              	TIM_SelectInputTrigger:
 6130              	.LFB190:
2832:../Shared/Libraries/STM32F4xx_StdPeriph_Driver/src/stm32f4xx_tim.c **** /**
2833:../Shared/Libraries/STM32F4xx_StdPeriph_Driver/src/stm32f4xx_tim.c ****   * @}
2834:../Shared/Libraries/STM32F4xx_StdPeriph_Driver/src/stm32f4xx_tim.c ****   */
2835:../Shared/Libraries/STM32F4xx_StdPeriph_Driver/src/stm32f4xx_tim.c **** 
2836:../Shared/Libraries/STM32F4xx_StdPeriph_Driver/src/stm32f4xx_tim.c **** /** @defgroup TIM_Group7 Synchronization management functions
2837:../Shared/Libraries/STM32F4xx_StdPeriph_Driver/src/stm32f4xx_tim.c ****  *  @brief    Synchronization management functions 
2838:../Shared/Libraries/STM32F4xx_StdPeriph_Driver/src/stm32f4xx_tim.c ****  *
2839:../Shared/Libraries/STM32F4xx_StdPeriph_Driver/src/stm32f4xx_tim.c **** @verbatim   
2840:../Shared/Libraries/STM32F4xx_StdPeriph_Driver/src/stm32f4xx_tim.c ****  ===============================================================================
2841:../Shared/Libraries/STM32F4xx_StdPeriph_Driver/src/stm32f4xx_tim.c ****                        Synchronization management functions
2842:../Shared/Libraries/STM32F4xx_StdPeriph_Driver/src/stm32f4xx_tim.c ****  ===============================================================================  
2843:../Shared/Libraries/STM32F4xx_StdPeriph_Driver/src/stm32f4xx_tim.c ****                    
ARM GAS  /tmp/cc2zcHeL.s 			page 157


2844:../Shared/Libraries/STM32F4xx_StdPeriph_Driver/src/stm32f4xx_tim.c ****        ===================================================================      
2845:../Shared/Libraries/STM32F4xx_StdPeriph_Driver/src/stm32f4xx_tim.c ****               TIM Driver: how to use it in synchronization Mode
2846:../Shared/Libraries/STM32F4xx_StdPeriph_Driver/src/stm32f4xx_tim.c ****        =================================================================== 
2847:../Shared/Libraries/STM32F4xx_StdPeriph_Driver/src/stm32f4xx_tim.c ****        Case of two/several Timers
2848:../Shared/Libraries/STM32F4xx_StdPeriph_Driver/src/stm32f4xx_tim.c ****        **************************
2849:../Shared/Libraries/STM32F4xx_StdPeriph_Driver/src/stm32f4xx_tim.c ****        1. Configure the Master Timers using the following functions:
2850:../Shared/Libraries/STM32F4xx_StdPeriph_Driver/src/stm32f4xx_tim.c ****           - void TIM_SelectOutputTrigger(TIM_TypeDef* TIMx, uint16_t TIM_TRGOSource); 
2851:../Shared/Libraries/STM32F4xx_StdPeriph_Driver/src/stm32f4xx_tim.c ****           - void TIM_SelectMasterSlaveMode(TIM_TypeDef* TIMx, uint16_t TIM_MasterSlaveMode);  
2852:../Shared/Libraries/STM32F4xx_StdPeriph_Driver/src/stm32f4xx_tim.c ****        2. Configure the Slave Timers using the following functions: 
2853:../Shared/Libraries/STM32F4xx_StdPeriph_Driver/src/stm32f4xx_tim.c ****           - void TIM_SelectInputTrigger(TIM_TypeDef* TIMx, uint16_t TIM_InputTriggerSource);  
2854:../Shared/Libraries/STM32F4xx_StdPeriph_Driver/src/stm32f4xx_tim.c ****           - void TIM_SelectSlaveMode(TIM_TypeDef* TIMx, uint16_t TIM_SlaveMode); 
2855:../Shared/Libraries/STM32F4xx_StdPeriph_Driver/src/stm32f4xx_tim.c ****           
2856:../Shared/Libraries/STM32F4xx_StdPeriph_Driver/src/stm32f4xx_tim.c ****        Case of Timers and external trigger(ETR pin)
2857:../Shared/Libraries/STM32F4xx_StdPeriph_Driver/src/stm32f4xx_tim.c ****        ********************************************       
2858:../Shared/Libraries/STM32F4xx_StdPeriph_Driver/src/stm32f4xx_tim.c ****        1. Configure the External trigger using this function:
2859:../Shared/Libraries/STM32F4xx_StdPeriph_Driver/src/stm32f4xx_tim.c ****           - void TIM_ETRConfig(TIM_TypeDef* TIMx, uint16_t TIM_ExtTRGPrescaler, uint16_t TIM_ExtTRG
2860:../Shared/Libraries/STM32F4xx_StdPeriph_Driver/src/stm32f4xx_tim.c ****                                uint16_t ExtTRGFilter);
2861:../Shared/Libraries/STM32F4xx_StdPeriph_Driver/src/stm32f4xx_tim.c ****        2. Configure the Slave Timers using the following functions: 
2862:../Shared/Libraries/STM32F4xx_StdPeriph_Driver/src/stm32f4xx_tim.c ****           - void TIM_SelectInputTrigger(TIM_TypeDef* TIMx, uint16_t TIM_InputTriggerSource);  
2863:../Shared/Libraries/STM32F4xx_StdPeriph_Driver/src/stm32f4xx_tim.c ****           - void TIM_SelectSlaveMode(TIM_TypeDef* TIMx, uint16_t TIM_SlaveMode); 
2864:../Shared/Libraries/STM32F4xx_StdPeriph_Driver/src/stm32f4xx_tim.c **** 
2865:../Shared/Libraries/STM32F4xx_StdPeriph_Driver/src/stm32f4xx_tim.c **** @endverbatim
2866:../Shared/Libraries/STM32F4xx_StdPeriph_Driver/src/stm32f4xx_tim.c ****   * @{
2867:../Shared/Libraries/STM32F4xx_StdPeriph_Driver/src/stm32f4xx_tim.c ****   */
2868:../Shared/Libraries/STM32F4xx_StdPeriph_Driver/src/stm32f4xx_tim.c **** 
2869:../Shared/Libraries/STM32F4xx_StdPeriph_Driver/src/stm32f4xx_tim.c **** /**
2870:../Shared/Libraries/STM32F4xx_StdPeriph_Driver/src/stm32f4xx_tim.c ****   * @brief  Selects the Input Trigger source
2871:../Shared/Libraries/STM32F4xx_StdPeriph_Driver/src/stm32f4xx_tim.c ****   * @param  TIMx: where x can be  1, 2, 3, 4, 5, 8, 9, 10, 11, 12, 13 or 14  
2872:../Shared/Libraries/STM32F4xx_StdPeriph_Driver/src/stm32f4xx_tim.c ****   *         to select the TIM peripheral.
2873:../Shared/Libraries/STM32F4xx_StdPeriph_Driver/src/stm32f4xx_tim.c ****   * @param  TIM_InputTriggerSource: The Input Trigger source.
2874:../Shared/Libraries/STM32F4xx_StdPeriph_Driver/src/stm32f4xx_tim.c ****   *          This parameter can be one of the following values:
2875:../Shared/Libraries/STM32F4xx_StdPeriph_Driver/src/stm32f4xx_tim.c ****   *            @arg TIM_TS_ITR0: Internal Trigger 0
2876:../Shared/Libraries/STM32F4xx_StdPeriph_Driver/src/stm32f4xx_tim.c ****   *            @arg TIM_TS_ITR1: Internal Trigger 1
2877:../Shared/Libraries/STM32F4xx_StdPeriph_Driver/src/stm32f4xx_tim.c ****   *            @arg TIM_TS_ITR2: Internal Trigger 2
2878:../Shared/Libraries/STM32F4xx_StdPeriph_Driver/src/stm32f4xx_tim.c ****   *            @arg TIM_TS_ITR3: Internal Trigger 3
2879:../Shared/Libraries/STM32F4xx_StdPeriph_Driver/src/stm32f4xx_tim.c ****   *            @arg TIM_TS_TI1F_ED: TI1 Edge Detector
2880:../Shared/Libraries/STM32F4xx_StdPeriph_Driver/src/stm32f4xx_tim.c ****   *            @arg TIM_TS_TI1FP1: Filtered Timer Input 1
2881:../Shared/Libraries/STM32F4xx_StdPeriph_Driver/src/stm32f4xx_tim.c ****   *            @arg TIM_TS_TI2FP2: Filtered Timer Input 2
2882:../Shared/Libraries/STM32F4xx_StdPeriph_Driver/src/stm32f4xx_tim.c ****   *            @arg TIM_TS_ETRF: External Trigger input
2883:../Shared/Libraries/STM32F4xx_StdPeriph_Driver/src/stm32f4xx_tim.c ****   * @retval None
2884:../Shared/Libraries/STM32F4xx_StdPeriph_Driver/src/stm32f4xx_tim.c ****   */
2885:../Shared/Libraries/STM32F4xx_StdPeriph_Driver/src/stm32f4xx_tim.c **** void TIM_SelectInputTrigger(TIM_TypeDef* TIMx, uint16_t TIM_InputTriggerSource)
2886:../Shared/Libraries/STM32F4xx_StdPeriph_Driver/src/stm32f4xx_tim.c **** {
 6131              		.loc 1 2886 1
 6132              		.cfi_startproc
 6133              		@ args = 0, pretend = 0, frame = 16
 6134              		@ frame_needed = 1, uses_anonymous_args = 0
 6135              		@ link register save eliminated.
 6136 0000 80B4     		push	{r7}
 6137              	.LCFI473:
 6138              		.cfi_def_cfa_offset 4
 6139              		.cfi_offset 7, -4
 6140 0002 85B0     		sub	sp, sp, #20
 6141              	.LCFI474:
 6142              		.cfi_def_cfa_offset 24
 6143 0004 00AF     		add	r7, sp, #0
 6144              	.LCFI475:
ARM GAS  /tmp/cc2zcHeL.s 			page 158


 6145              		.cfi_def_cfa_register 7
 6146 0006 7860     		str	r0, [r7, #4]
 6147 0008 0B46     		mov	r3, r1
 6148 000a 7B80     		strh	r3, [r7, #2]	@ movhi
2887:../Shared/Libraries/STM32F4xx_StdPeriph_Driver/src/stm32f4xx_tim.c ****   uint16_t tmpsmcr = 0;
 6149              		.loc 1 2887 12
 6150 000c 0023     		movs	r3, #0
 6151 000e FB81     		strh	r3, [r7, #14]	@ movhi
2888:../Shared/Libraries/STM32F4xx_StdPeriph_Driver/src/stm32f4xx_tim.c **** 
2889:../Shared/Libraries/STM32F4xx_StdPeriph_Driver/src/stm32f4xx_tim.c ****   /* Check the parameters */
2890:../Shared/Libraries/STM32F4xx_StdPeriph_Driver/src/stm32f4xx_tim.c ****   assert_param(IS_TIM_LIST1_PERIPH(TIMx)); 
2891:../Shared/Libraries/STM32F4xx_StdPeriph_Driver/src/stm32f4xx_tim.c ****   assert_param(IS_TIM_TRIGGER_SELECTION(TIM_InputTriggerSource));
2892:../Shared/Libraries/STM32F4xx_StdPeriph_Driver/src/stm32f4xx_tim.c **** 
2893:../Shared/Libraries/STM32F4xx_StdPeriph_Driver/src/stm32f4xx_tim.c ****   /* Get the TIMx SMCR register value */
2894:../Shared/Libraries/STM32F4xx_StdPeriph_Driver/src/stm32f4xx_tim.c ****   tmpsmcr = TIMx->SMCR;
 6152              		.loc 1 2894 11
 6153 0010 7B68     		ldr	r3, [r7, #4]
 6154 0012 1B89     		ldrh	r3, [r3, #8]	@ movhi
 6155 0014 FB81     		strh	r3, [r7, #14]	@ movhi
2895:../Shared/Libraries/STM32F4xx_StdPeriph_Driver/src/stm32f4xx_tim.c **** 
2896:../Shared/Libraries/STM32F4xx_StdPeriph_Driver/src/stm32f4xx_tim.c ****   /* Reset the TS Bits */
2897:../Shared/Libraries/STM32F4xx_StdPeriph_Driver/src/stm32f4xx_tim.c ****   tmpsmcr &= (uint16_t)~TIM_SMCR_TS;
 6156              		.loc 1 2897 11
 6157 0016 FB89     		ldrh	r3, [r7, #14]	@ movhi
 6158 0018 23F07003 		bic	r3, r3, #112
 6159 001c FB81     		strh	r3, [r7, #14]	@ movhi
2898:../Shared/Libraries/STM32F4xx_StdPeriph_Driver/src/stm32f4xx_tim.c **** 
2899:../Shared/Libraries/STM32F4xx_StdPeriph_Driver/src/stm32f4xx_tim.c ****   /* Set the Input Trigger source */
2900:../Shared/Libraries/STM32F4xx_StdPeriph_Driver/src/stm32f4xx_tim.c ****   tmpsmcr |= TIM_InputTriggerSource;
 6160              		.loc 1 2900 11
 6161 001e FA89     		ldrh	r2, [r7, #14]	@ movhi
 6162 0020 7B88     		ldrh	r3, [r7, #2]	@ movhi
 6163 0022 1343     		orrs	r3, r3, r2
 6164 0024 FB81     		strh	r3, [r7, #14]	@ movhi
2901:../Shared/Libraries/STM32F4xx_StdPeriph_Driver/src/stm32f4xx_tim.c **** 
2902:../Shared/Libraries/STM32F4xx_StdPeriph_Driver/src/stm32f4xx_tim.c ****   /* Write to TIMx SMCR */
2903:../Shared/Libraries/STM32F4xx_StdPeriph_Driver/src/stm32f4xx_tim.c ****   TIMx->SMCR = tmpsmcr;
 6165              		.loc 1 2903 14
 6166 0026 7B68     		ldr	r3, [r7, #4]
 6167 0028 FA89     		ldrh	r2, [r7, #14]	@ movhi
 6168 002a 1A81     		strh	r2, [r3, #8]	@ movhi
2904:../Shared/Libraries/STM32F4xx_StdPeriph_Driver/src/stm32f4xx_tim.c **** }
 6169              		.loc 1 2904 1
 6170 002c 00BF     		nop
 6171 002e 1437     		adds	r7, r7, #20
 6172              	.LCFI476:
 6173              		.cfi_def_cfa_offset 4
 6174 0030 BD46     		mov	sp, r7
 6175              	.LCFI477:
 6176              		.cfi_def_cfa_register 13
 6177              		@ sp needed
 6178 0032 5DF8047B 		ldr	r7, [sp], #4
 6179              	.LCFI478:
 6180              		.cfi_restore 7
 6181              		.cfi_def_cfa_offset 0
 6182 0036 7047     		bx	lr
 6183              		.cfi_endproc
ARM GAS  /tmp/cc2zcHeL.s 			page 159


 6184              	.LFE190:
 6186              		.section	.text.TIM_SelectOutputTrigger,"ax",%progbits
 6187              		.align	1
 6188              		.global	TIM_SelectOutputTrigger
 6189              		.syntax unified
 6190              		.thumb
 6191              		.thumb_func
 6193              	TIM_SelectOutputTrigger:
 6194              	.LFB191:
2905:../Shared/Libraries/STM32F4xx_StdPeriph_Driver/src/stm32f4xx_tim.c **** 
2906:../Shared/Libraries/STM32F4xx_StdPeriph_Driver/src/stm32f4xx_tim.c **** /**
2907:../Shared/Libraries/STM32F4xx_StdPeriph_Driver/src/stm32f4xx_tim.c ****   * @brief  Selects the TIMx Trigger Output Mode.
2908:../Shared/Libraries/STM32F4xx_StdPeriph_Driver/src/stm32f4xx_tim.c ****   * @param  TIMx: where x can be 1, 2, 3, 4, 5, 6, 7 or 8 to select the TIM peripheral.
2909:../Shared/Libraries/STM32F4xx_StdPeriph_Driver/src/stm32f4xx_tim.c ****   *     
2910:../Shared/Libraries/STM32F4xx_StdPeriph_Driver/src/stm32f4xx_tim.c ****   * @param  TIM_TRGOSource: specifies the Trigger Output source.
2911:../Shared/Libraries/STM32F4xx_StdPeriph_Driver/src/stm32f4xx_tim.c ****   *   This parameter can be one of the following values:
2912:../Shared/Libraries/STM32F4xx_StdPeriph_Driver/src/stm32f4xx_tim.c ****   *
2913:../Shared/Libraries/STM32F4xx_StdPeriph_Driver/src/stm32f4xx_tim.c ****   *  - For all TIMx
2914:../Shared/Libraries/STM32F4xx_StdPeriph_Driver/src/stm32f4xx_tim.c ****   *            @arg TIM_TRGOSource_Reset:  The UG bit in the TIM_EGR register is used as the trigge
2915:../Shared/Libraries/STM32F4xx_StdPeriph_Driver/src/stm32f4xx_tim.c ****   *            @arg TIM_TRGOSource_Enable: The Counter Enable CEN is used as the trigger output(TRG
2916:../Shared/Libraries/STM32F4xx_StdPeriph_Driver/src/stm32f4xx_tim.c ****   *            @arg TIM_TRGOSource_Update: The update event is selected as the trigger output(TRGO)
2917:../Shared/Libraries/STM32F4xx_StdPeriph_Driver/src/stm32f4xx_tim.c ****   *
2918:../Shared/Libraries/STM32F4xx_StdPeriph_Driver/src/stm32f4xx_tim.c ****   *  - For all TIMx except TIM6 and TIM7
2919:../Shared/Libraries/STM32F4xx_StdPeriph_Driver/src/stm32f4xx_tim.c ****   *            @arg TIM_TRGOSource_OC1: The trigger output sends a positive pulse when the CC1IF fl
2920:../Shared/Libraries/STM32F4xx_StdPeriph_Driver/src/stm32f4xx_tim.c ****   *                                     is to be set, as soon as a capture or compare match occurs(
2921:../Shared/Libraries/STM32F4xx_StdPeriph_Driver/src/stm32f4xx_tim.c ****   *            @arg TIM_TRGOSource_OC1Ref: OC1REF signal is used as the trigger output(TRGO)
2922:../Shared/Libraries/STM32F4xx_StdPeriph_Driver/src/stm32f4xx_tim.c ****   *            @arg TIM_TRGOSource_OC2Ref: OC2REF signal is used as the trigger output(TRGO)
2923:../Shared/Libraries/STM32F4xx_StdPeriph_Driver/src/stm32f4xx_tim.c ****   *            @arg TIM_TRGOSource_OC3Ref: OC3REF signal is used as the trigger output(TRGO)
2924:../Shared/Libraries/STM32F4xx_StdPeriph_Driver/src/stm32f4xx_tim.c ****   *            @arg TIM_TRGOSource_OC4Ref: OC4REF signal is used as the trigger output(TRGO)
2925:../Shared/Libraries/STM32F4xx_StdPeriph_Driver/src/stm32f4xx_tim.c ****   *
2926:../Shared/Libraries/STM32F4xx_StdPeriph_Driver/src/stm32f4xx_tim.c ****   * @retval None
2927:../Shared/Libraries/STM32F4xx_StdPeriph_Driver/src/stm32f4xx_tim.c ****   */
2928:../Shared/Libraries/STM32F4xx_StdPeriph_Driver/src/stm32f4xx_tim.c **** void TIM_SelectOutputTrigger(TIM_TypeDef* TIMx, uint16_t TIM_TRGOSource)
2929:../Shared/Libraries/STM32F4xx_StdPeriph_Driver/src/stm32f4xx_tim.c **** {
 6195              		.loc 1 2929 1
 6196              		.cfi_startproc
 6197              		@ args = 0, pretend = 0, frame = 8
 6198              		@ frame_needed = 1, uses_anonymous_args = 0
 6199              		@ link register save eliminated.
 6200 0000 80B4     		push	{r7}
 6201              	.LCFI479:
 6202              		.cfi_def_cfa_offset 4
 6203              		.cfi_offset 7, -4
 6204 0002 83B0     		sub	sp, sp, #12
 6205              	.LCFI480:
 6206              		.cfi_def_cfa_offset 16
 6207 0004 00AF     		add	r7, sp, #0
 6208              	.LCFI481:
 6209              		.cfi_def_cfa_register 7
 6210 0006 7860     		str	r0, [r7, #4]
 6211 0008 0B46     		mov	r3, r1
 6212 000a 7B80     		strh	r3, [r7, #2]	@ movhi
2930:../Shared/Libraries/STM32F4xx_StdPeriph_Driver/src/stm32f4xx_tim.c ****   /* Check the parameters */
2931:../Shared/Libraries/STM32F4xx_StdPeriph_Driver/src/stm32f4xx_tim.c ****   assert_param(IS_TIM_LIST5_PERIPH(TIMx));
2932:../Shared/Libraries/STM32F4xx_StdPeriph_Driver/src/stm32f4xx_tim.c ****   assert_param(IS_TIM_TRGO_SOURCE(TIM_TRGOSource));
2933:../Shared/Libraries/STM32F4xx_StdPeriph_Driver/src/stm32f4xx_tim.c **** 
2934:../Shared/Libraries/STM32F4xx_StdPeriph_Driver/src/stm32f4xx_tim.c ****   /* Reset the MMS Bits */
ARM GAS  /tmp/cc2zcHeL.s 			page 160


2935:../Shared/Libraries/STM32F4xx_StdPeriph_Driver/src/stm32f4xx_tim.c ****   TIMx->CR2 &= (uint16_t)~TIM_CR2_MMS;
 6213              		.loc 1 2935 7
 6214 000c 7B68     		ldr	r3, [r7, #4]
 6215 000e 9B88     		ldrh	r3, [r3, #4]	@ movhi
 6216 0010 9BB2     		uxth	r3, r3
 6217              		.loc 1 2935 13
 6218 0012 23F07003 		bic	r3, r3, #112
 6219 0016 9AB2     		uxth	r2, r3
 6220 0018 7B68     		ldr	r3, [r7, #4]
 6221 001a 9A80     		strh	r2, [r3, #4]	@ movhi
2936:../Shared/Libraries/STM32F4xx_StdPeriph_Driver/src/stm32f4xx_tim.c ****   /* Select the TRGO source */
2937:../Shared/Libraries/STM32F4xx_StdPeriph_Driver/src/stm32f4xx_tim.c ****   TIMx->CR2 |=  TIM_TRGOSource;
 6222              		.loc 1 2937 7
 6223 001c 7B68     		ldr	r3, [r7, #4]
 6224 001e 9B88     		ldrh	r3, [r3, #4]	@ movhi
 6225 0020 9AB2     		uxth	r2, r3
 6226              		.loc 1 2937 13
 6227 0022 7B88     		ldrh	r3, [r7, #2]	@ movhi
 6228 0024 1343     		orrs	r3, r3, r2
 6229 0026 9AB2     		uxth	r2, r3
 6230 0028 7B68     		ldr	r3, [r7, #4]
 6231 002a 9A80     		strh	r2, [r3, #4]	@ movhi
2938:../Shared/Libraries/STM32F4xx_StdPeriph_Driver/src/stm32f4xx_tim.c **** }
 6232              		.loc 1 2938 1
 6233 002c 00BF     		nop
 6234 002e 0C37     		adds	r7, r7, #12
 6235              	.LCFI482:
 6236              		.cfi_def_cfa_offset 4
 6237 0030 BD46     		mov	sp, r7
 6238              	.LCFI483:
 6239              		.cfi_def_cfa_register 13
 6240              		@ sp needed
 6241 0032 5DF8047B 		ldr	r7, [sp], #4
 6242              	.LCFI484:
 6243              		.cfi_restore 7
 6244              		.cfi_def_cfa_offset 0
 6245 0036 7047     		bx	lr
 6246              		.cfi_endproc
 6247              	.LFE191:
 6249              		.section	.text.TIM_SelectSlaveMode,"ax",%progbits
 6250              		.align	1
 6251              		.global	TIM_SelectSlaveMode
 6252              		.syntax unified
 6253              		.thumb
 6254              		.thumb_func
 6256              	TIM_SelectSlaveMode:
 6257              	.LFB192:
2939:../Shared/Libraries/STM32F4xx_StdPeriph_Driver/src/stm32f4xx_tim.c **** 
2940:../Shared/Libraries/STM32F4xx_StdPeriph_Driver/src/stm32f4xx_tim.c **** /**
2941:../Shared/Libraries/STM32F4xx_StdPeriph_Driver/src/stm32f4xx_tim.c ****   * @brief  Selects the TIMx Slave Mode.
2942:../Shared/Libraries/STM32F4xx_StdPeriph_Driver/src/stm32f4xx_tim.c ****   * @param  TIMx: where x can be 1, 2, 3, 4, 5, 8, 9 or 12 to select the TIM peripheral.
2943:../Shared/Libraries/STM32F4xx_StdPeriph_Driver/src/stm32f4xx_tim.c ****   * @param  TIM_SlaveMode: specifies the Timer Slave Mode.
2944:../Shared/Libraries/STM32F4xx_StdPeriph_Driver/src/stm32f4xx_tim.c ****   *          This parameter can be one of the following values:
2945:../Shared/Libraries/STM32F4xx_StdPeriph_Driver/src/stm32f4xx_tim.c ****   *            @arg TIM_SlaveMode_Reset: Rising edge of the selected trigger signal(TRGI) reinitial
2946:../Shared/Libraries/STM32F4xx_StdPeriph_Driver/src/stm32f4xx_tim.c ****   *                                      the counter and triggers an update of the registers
2947:../Shared/Libraries/STM32F4xx_StdPeriph_Driver/src/stm32f4xx_tim.c ****   *            @arg TIM_SlaveMode_Gated:     The counter clock is enabled when the trigger signal (
2948:../Shared/Libraries/STM32F4xx_StdPeriph_Driver/src/stm32f4xx_tim.c ****   *            @arg TIM_SlaveMode_Trigger:   The counter starts at a rising edge of the trigger TRG
ARM GAS  /tmp/cc2zcHeL.s 			page 161


2949:../Shared/Libraries/STM32F4xx_StdPeriph_Driver/src/stm32f4xx_tim.c ****   *            @arg TIM_SlaveMode_External1: Rising edges of the selected trigger (TRGI) clock the 
2950:../Shared/Libraries/STM32F4xx_StdPeriph_Driver/src/stm32f4xx_tim.c ****   * @retval None
2951:../Shared/Libraries/STM32F4xx_StdPeriph_Driver/src/stm32f4xx_tim.c ****   */
2952:../Shared/Libraries/STM32F4xx_StdPeriph_Driver/src/stm32f4xx_tim.c **** void TIM_SelectSlaveMode(TIM_TypeDef* TIMx, uint16_t TIM_SlaveMode)
2953:../Shared/Libraries/STM32F4xx_StdPeriph_Driver/src/stm32f4xx_tim.c **** {
 6258              		.loc 1 2953 1
 6259              		.cfi_startproc
 6260              		@ args = 0, pretend = 0, frame = 8
 6261              		@ frame_needed = 1, uses_anonymous_args = 0
 6262              		@ link register save eliminated.
 6263 0000 80B4     		push	{r7}
 6264              	.LCFI485:
 6265              		.cfi_def_cfa_offset 4
 6266              		.cfi_offset 7, -4
 6267 0002 83B0     		sub	sp, sp, #12
 6268              	.LCFI486:
 6269              		.cfi_def_cfa_offset 16
 6270 0004 00AF     		add	r7, sp, #0
 6271              	.LCFI487:
 6272              		.cfi_def_cfa_register 7
 6273 0006 7860     		str	r0, [r7, #4]
 6274 0008 0B46     		mov	r3, r1
 6275 000a 7B80     		strh	r3, [r7, #2]	@ movhi
2954:../Shared/Libraries/STM32F4xx_StdPeriph_Driver/src/stm32f4xx_tim.c ****   /* Check the parameters */
2955:../Shared/Libraries/STM32F4xx_StdPeriph_Driver/src/stm32f4xx_tim.c ****   assert_param(IS_TIM_LIST2_PERIPH(TIMx));
2956:../Shared/Libraries/STM32F4xx_StdPeriph_Driver/src/stm32f4xx_tim.c ****   assert_param(IS_TIM_SLAVE_MODE(TIM_SlaveMode));
2957:../Shared/Libraries/STM32F4xx_StdPeriph_Driver/src/stm32f4xx_tim.c **** 
2958:../Shared/Libraries/STM32F4xx_StdPeriph_Driver/src/stm32f4xx_tim.c ****   /* Reset the SMS Bits */
2959:../Shared/Libraries/STM32F4xx_StdPeriph_Driver/src/stm32f4xx_tim.c ****   TIMx->SMCR &= (uint16_t)~TIM_SMCR_SMS;
 6276              		.loc 1 2959 7
 6277 000c 7B68     		ldr	r3, [r7, #4]
 6278 000e 1B89     		ldrh	r3, [r3, #8]	@ movhi
 6279 0010 9BB2     		uxth	r3, r3
 6280              		.loc 1 2959 14
 6281 0012 23F00703 		bic	r3, r3, #7
 6282 0016 9AB2     		uxth	r2, r3
 6283 0018 7B68     		ldr	r3, [r7, #4]
 6284 001a 1A81     		strh	r2, [r3, #8]	@ movhi
2960:../Shared/Libraries/STM32F4xx_StdPeriph_Driver/src/stm32f4xx_tim.c **** 
2961:../Shared/Libraries/STM32F4xx_StdPeriph_Driver/src/stm32f4xx_tim.c ****   /* Select the Slave Mode */
2962:../Shared/Libraries/STM32F4xx_StdPeriph_Driver/src/stm32f4xx_tim.c ****   TIMx->SMCR |= TIM_SlaveMode;
 6285              		.loc 1 2962 7
 6286 001c 7B68     		ldr	r3, [r7, #4]
 6287 001e 1B89     		ldrh	r3, [r3, #8]	@ movhi
 6288 0020 9AB2     		uxth	r2, r3
 6289              		.loc 1 2962 14
 6290 0022 7B88     		ldrh	r3, [r7, #2]	@ movhi
 6291 0024 1343     		orrs	r3, r3, r2
 6292 0026 9AB2     		uxth	r2, r3
 6293 0028 7B68     		ldr	r3, [r7, #4]
 6294 002a 1A81     		strh	r2, [r3, #8]	@ movhi
2963:../Shared/Libraries/STM32F4xx_StdPeriph_Driver/src/stm32f4xx_tim.c **** }
 6295              		.loc 1 2963 1
 6296 002c 00BF     		nop
 6297 002e 0C37     		adds	r7, r7, #12
 6298              	.LCFI488:
 6299              		.cfi_def_cfa_offset 4
ARM GAS  /tmp/cc2zcHeL.s 			page 162


 6300 0030 BD46     		mov	sp, r7
 6301              	.LCFI489:
 6302              		.cfi_def_cfa_register 13
 6303              		@ sp needed
 6304 0032 5DF8047B 		ldr	r7, [sp], #4
 6305              	.LCFI490:
 6306              		.cfi_restore 7
 6307              		.cfi_def_cfa_offset 0
 6308 0036 7047     		bx	lr
 6309              		.cfi_endproc
 6310              	.LFE192:
 6312              		.section	.text.TIM_SelectMasterSlaveMode,"ax",%progbits
 6313              		.align	1
 6314              		.global	TIM_SelectMasterSlaveMode
 6315              		.syntax unified
 6316              		.thumb
 6317              		.thumb_func
 6319              	TIM_SelectMasterSlaveMode:
 6320              	.LFB193:
2964:../Shared/Libraries/STM32F4xx_StdPeriph_Driver/src/stm32f4xx_tim.c **** 
2965:../Shared/Libraries/STM32F4xx_StdPeriph_Driver/src/stm32f4xx_tim.c **** /**
2966:../Shared/Libraries/STM32F4xx_StdPeriph_Driver/src/stm32f4xx_tim.c ****   * @brief  Sets or Resets the TIMx Master/Slave Mode.
2967:../Shared/Libraries/STM32F4xx_StdPeriph_Driver/src/stm32f4xx_tim.c ****   * @param  TIMx: where x can be 1, 2, 3, 4, 5, 8, 9 or 12 to select the TIM peripheral.
2968:../Shared/Libraries/STM32F4xx_StdPeriph_Driver/src/stm32f4xx_tim.c ****   * @param  TIM_MasterSlaveMode: specifies the Timer Master Slave Mode.
2969:../Shared/Libraries/STM32F4xx_StdPeriph_Driver/src/stm32f4xx_tim.c ****   *          This parameter can be one of the following values:
2970:../Shared/Libraries/STM32F4xx_StdPeriph_Driver/src/stm32f4xx_tim.c ****   *            @arg TIM_MasterSlaveMode_Enable: synchronization between the current timer
2971:../Shared/Libraries/STM32F4xx_StdPeriph_Driver/src/stm32f4xx_tim.c ****   *                                             and its slaves (through TRGO)
2972:../Shared/Libraries/STM32F4xx_StdPeriph_Driver/src/stm32f4xx_tim.c ****   *            @arg TIM_MasterSlaveMode_Disable: No action
2973:../Shared/Libraries/STM32F4xx_StdPeriph_Driver/src/stm32f4xx_tim.c ****   * @retval None
2974:../Shared/Libraries/STM32F4xx_StdPeriph_Driver/src/stm32f4xx_tim.c ****   */
2975:../Shared/Libraries/STM32F4xx_StdPeriph_Driver/src/stm32f4xx_tim.c **** void TIM_SelectMasterSlaveMode(TIM_TypeDef* TIMx, uint16_t TIM_MasterSlaveMode)
2976:../Shared/Libraries/STM32F4xx_StdPeriph_Driver/src/stm32f4xx_tim.c **** {
 6321              		.loc 1 2976 1
 6322              		.cfi_startproc
 6323              		@ args = 0, pretend = 0, frame = 8
 6324              		@ frame_needed = 1, uses_anonymous_args = 0
 6325              		@ link register save eliminated.
 6326 0000 80B4     		push	{r7}
 6327              	.LCFI491:
 6328              		.cfi_def_cfa_offset 4
 6329              		.cfi_offset 7, -4
 6330 0002 83B0     		sub	sp, sp, #12
 6331              	.LCFI492:
 6332              		.cfi_def_cfa_offset 16
 6333 0004 00AF     		add	r7, sp, #0
 6334              	.LCFI493:
 6335              		.cfi_def_cfa_register 7
 6336 0006 7860     		str	r0, [r7, #4]
 6337 0008 0B46     		mov	r3, r1
 6338 000a 7B80     		strh	r3, [r7, #2]	@ movhi
2977:../Shared/Libraries/STM32F4xx_StdPeriph_Driver/src/stm32f4xx_tim.c ****   /* Check the parameters */
2978:../Shared/Libraries/STM32F4xx_StdPeriph_Driver/src/stm32f4xx_tim.c ****   assert_param(IS_TIM_LIST2_PERIPH(TIMx));
2979:../Shared/Libraries/STM32F4xx_StdPeriph_Driver/src/stm32f4xx_tim.c ****   assert_param(IS_TIM_MSM_STATE(TIM_MasterSlaveMode));
2980:../Shared/Libraries/STM32F4xx_StdPeriph_Driver/src/stm32f4xx_tim.c **** 
2981:../Shared/Libraries/STM32F4xx_StdPeriph_Driver/src/stm32f4xx_tim.c ****   /* Reset the MSM Bit */
2982:../Shared/Libraries/STM32F4xx_StdPeriph_Driver/src/stm32f4xx_tim.c ****   TIMx->SMCR &= (uint16_t)~TIM_SMCR_MSM;
 6339              		.loc 1 2982 7
ARM GAS  /tmp/cc2zcHeL.s 			page 163


 6340 000c 7B68     		ldr	r3, [r7, #4]
 6341 000e 1B89     		ldrh	r3, [r3, #8]	@ movhi
 6342 0010 9BB2     		uxth	r3, r3
 6343              		.loc 1 2982 14
 6344 0012 23F08003 		bic	r3, r3, #128
 6345 0016 9AB2     		uxth	r2, r3
 6346 0018 7B68     		ldr	r3, [r7, #4]
 6347 001a 1A81     		strh	r2, [r3, #8]	@ movhi
2983:../Shared/Libraries/STM32F4xx_StdPeriph_Driver/src/stm32f4xx_tim.c ****   
2984:../Shared/Libraries/STM32F4xx_StdPeriph_Driver/src/stm32f4xx_tim.c ****   /* Set or Reset the MSM Bit */
2985:../Shared/Libraries/STM32F4xx_StdPeriph_Driver/src/stm32f4xx_tim.c ****   TIMx->SMCR |= TIM_MasterSlaveMode;
 6348              		.loc 1 2985 7
 6349 001c 7B68     		ldr	r3, [r7, #4]
 6350 001e 1B89     		ldrh	r3, [r3, #8]	@ movhi
 6351 0020 9AB2     		uxth	r2, r3
 6352              		.loc 1 2985 14
 6353 0022 7B88     		ldrh	r3, [r7, #2]	@ movhi
 6354 0024 1343     		orrs	r3, r3, r2
 6355 0026 9AB2     		uxth	r2, r3
 6356 0028 7B68     		ldr	r3, [r7, #4]
 6357 002a 1A81     		strh	r2, [r3, #8]	@ movhi
2986:../Shared/Libraries/STM32F4xx_StdPeriph_Driver/src/stm32f4xx_tim.c **** }
 6358              		.loc 1 2986 1
 6359 002c 00BF     		nop
 6360 002e 0C37     		adds	r7, r7, #12
 6361              	.LCFI494:
 6362              		.cfi_def_cfa_offset 4
 6363 0030 BD46     		mov	sp, r7
 6364              	.LCFI495:
 6365              		.cfi_def_cfa_register 13
 6366              		@ sp needed
 6367 0032 5DF8047B 		ldr	r7, [sp], #4
 6368              	.LCFI496:
 6369              		.cfi_restore 7
 6370              		.cfi_def_cfa_offset 0
 6371 0036 7047     		bx	lr
 6372              		.cfi_endproc
 6373              	.LFE193:
 6375              		.section	.text.TIM_ETRConfig,"ax",%progbits
 6376              		.align	1
 6377              		.global	TIM_ETRConfig
 6378              		.syntax unified
 6379              		.thumb
 6380              		.thumb_func
 6382              	TIM_ETRConfig:
 6383              	.LFB194:
2987:../Shared/Libraries/STM32F4xx_StdPeriph_Driver/src/stm32f4xx_tim.c **** 
2988:../Shared/Libraries/STM32F4xx_StdPeriph_Driver/src/stm32f4xx_tim.c **** /**
2989:../Shared/Libraries/STM32F4xx_StdPeriph_Driver/src/stm32f4xx_tim.c ****   * @brief  Configures the TIMx External Trigger (ETR).
2990:../Shared/Libraries/STM32F4xx_StdPeriph_Driver/src/stm32f4xx_tim.c ****   * @param  TIMx: where x can be  1, 2, 3, 4, 5 or 8 to select the TIM peripheral.
2991:../Shared/Libraries/STM32F4xx_StdPeriph_Driver/src/stm32f4xx_tim.c ****   * @param  TIM_ExtTRGPrescaler: The external Trigger Prescaler.
2992:../Shared/Libraries/STM32F4xx_StdPeriph_Driver/src/stm32f4xx_tim.c ****   *          This parameter can be one of the following values:
2993:../Shared/Libraries/STM32F4xx_StdPeriph_Driver/src/stm32f4xx_tim.c ****   *            @arg TIM_ExtTRGPSC_OFF: ETRP Prescaler OFF.
2994:../Shared/Libraries/STM32F4xx_StdPeriph_Driver/src/stm32f4xx_tim.c ****   *            @arg TIM_ExtTRGPSC_DIV2: ETRP frequency divided by 2.
2995:../Shared/Libraries/STM32F4xx_StdPeriph_Driver/src/stm32f4xx_tim.c ****   *            @arg TIM_ExtTRGPSC_DIV4: ETRP frequency divided by 4.
2996:../Shared/Libraries/STM32F4xx_StdPeriph_Driver/src/stm32f4xx_tim.c ****   *            @arg TIM_ExtTRGPSC_DIV8: ETRP frequency divided by 8.
2997:../Shared/Libraries/STM32F4xx_StdPeriph_Driver/src/stm32f4xx_tim.c ****   * @param  TIM_ExtTRGPolarity: The external Trigger Polarity.
ARM GAS  /tmp/cc2zcHeL.s 			page 164


2998:../Shared/Libraries/STM32F4xx_StdPeriph_Driver/src/stm32f4xx_tim.c ****   *          This parameter can be one of the following values:
2999:../Shared/Libraries/STM32F4xx_StdPeriph_Driver/src/stm32f4xx_tim.c ****   *            @arg TIM_ExtTRGPolarity_Inverted: active low or falling edge active.
3000:../Shared/Libraries/STM32F4xx_StdPeriph_Driver/src/stm32f4xx_tim.c ****   *            @arg TIM_ExtTRGPolarity_NonInverted: active high or rising edge active.
3001:../Shared/Libraries/STM32F4xx_StdPeriph_Driver/src/stm32f4xx_tim.c ****   * @param  ExtTRGFilter: External Trigger Filter.
3002:../Shared/Libraries/STM32F4xx_StdPeriph_Driver/src/stm32f4xx_tim.c ****   *          This parameter must be a value between 0x00 and 0x0F
3003:../Shared/Libraries/STM32F4xx_StdPeriph_Driver/src/stm32f4xx_tim.c ****   * @retval None
3004:../Shared/Libraries/STM32F4xx_StdPeriph_Driver/src/stm32f4xx_tim.c ****   */
3005:../Shared/Libraries/STM32F4xx_StdPeriph_Driver/src/stm32f4xx_tim.c **** void TIM_ETRConfig(TIM_TypeDef* TIMx, uint16_t TIM_ExtTRGPrescaler,
3006:../Shared/Libraries/STM32F4xx_StdPeriph_Driver/src/stm32f4xx_tim.c ****                    uint16_t TIM_ExtTRGPolarity, uint16_t ExtTRGFilter)
3007:../Shared/Libraries/STM32F4xx_StdPeriph_Driver/src/stm32f4xx_tim.c **** {
 6384              		.loc 1 3007 1
 6385              		.cfi_startproc
 6386              		@ args = 0, pretend = 0, frame = 24
 6387              		@ frame_needed = 1, uses_anonymous_args = 0
 6388              		@ link register save eliminated.
 6389 0000 80B4     		push	{r7}
 6390              	.LCFI497:
 6391              		.cfi_def_cfa_offset 4
 6392              		.cfi_offset 7, -4
 6393 0002 87B0     		sub	sp, sp, #28
 6394              	.LCFI498:
 6395              		.cfi_def_cfa_offset 32
 6396 0004 00AF     		add	r7, sp, #0
 6397              	.LCFI499:
 6398              		.cfi_def_cfa_register 7
 6399 0006 F860     		str	r0, [r7, #12]
 6400 0008 0846     		mov	r0, r1
 6401 000a 1146     		mov	r1, r2
 6402 000c 1A46     		mov	r2, r3
 6403 000e 0346     		mov	r3, r0	@ movhi
 6404 0010 7B81     		strh	r3, [r7, #10]	@ movhi
 6405 0012 0B46     		mov	r3, r1	@ movhi
 6406 0014 3B81     		strh	r3, [r7, #8]	@ movhi
 6407 0016 1346     		mov	r3, r2	@ movhi
 6408 0018 FB80     		strh	r3, [r7, #6]	@ movhi
3008:../Shared/Libraries/STM32F4xx_StdPeriph_Driver/src/stm32f4xx_tim.c ****   uint16_t tmpsmcr = 0;
 6409              		.loc 1 3008 12
 6410 001a 0023     		movs	r3, #0
 6411 001c FB82     		strh	r3, [r7, #22]	@ movhi
3009:../Shared/Libraries/STM32F4xx_StdPeriph_Driver/src/stm32f4xx_tim.c **** 
3010:../Shared/Libraries/STM32F4xx_StdPeriph_Driver/src/stm32f4xx_tim.c ****   /* Check the parameters */
3011:../Shared/Libraries/STM32F4xx_StdPeriph_Driver/src/stm32f4xx_tim.c ****   assert_param(IS_TIM_LIST3_PERIPH(TIMx));
3012:../Shared/Libraries/STM32F4xx_StdPeriph_Driver/src/stm32f4xx_tim.c ****   assert_param(IS_TIM_EXT_PRESCALER(TIM_ExtTRGPrescaler));
3013:../Shared/Libraries/STM32F4xx_StdPeriph_Driver/src/stm32f4xx_tim.c ****   assert_param(IS_TIM_EXT_POLARITY(TIM_ExtTRGPolarity));
3014:../Shared/Libraries/STM32F4xx_StdPeriph_Driver/src/stm32f4xx_tim.c ****   assert_param(IS_TIM_EXT_FILTER(ExtTRGFilter));
3015:../Shared/Libraries/STM32F4xx_StdPeriph_Driver/src/stm32f4xx_tim.c **** 
3016:../Shared/Libraries/STM32F4xx_StdPeriph_Driver/src/stm32f4xx_tim.c ****   tmpsmcr = TIMx->SMCR;
 6412              		.loc 1 3016 11
 6413 001e FB68     		ldr	r3, [r7, #12]
 6414 0020 1B89     		ldrh	r3, [r3, #8]	@ movhi
 6415 0022 FB82     		strh	r3, [r7, #22]	@ movhi
3017:../Shared/Libraries/STM32F4xx_StdPeriph_Driver/src/stm32f4xx_tim.c **** 
3018:../Shared/Libraries/STM32F4xx_StdPeriph_Driver/src/stm32f4xx_tim.c ****   /* Reset the ETR Bits */
3019:../Shared/Libraries/STM32F4xx_StdPeriph_Driver/src/stm32f4xx_tim.c ****   tmpsmcr &= SMCR_ETR_MASK;
 6416              		.loc 1 3019 11
 6417 0024 FB8A     		ldrh	r3, [r7, #22]	@ movhi
 6418 0026 DBB2     		uxtb	r3, r3
ARM GAS  /tmp/cc2zcHeL.s 			page 165


 6419 0028 FB82     		strh	r3, [r7, #22]	@ movhi
3020:../Shared/Libraries/STM32F4xx_StdPeriph_Driver/src/stm32f4xx_tim.c **** 
3021:../Shared/Libraries/STM32F4xx_StdPeriph_Driver/src/stm32f4xx_tim.c ****   /* Set the Prescaler, the Filter value and the Polarity */
3022:../Shared/Libraries/STM32F4xx_StdPeriph_Driver/src/stm32f4xx_tim.c ****   tmpsmcr |= (uint16_t)(TIM_ExtTRGPrescaler | (uint16_t)(TIM_ExtTRGPolarity | (uint16_t)(ExtTRGFilt
 6420              		.loc 1 3022 79
 6421 002a FB88     		ldrh	r3, [r7, #6]	@ movhi
 6422 002c 1B02     		lsls	r3, r3, #8
 6423 002e 9AB2     		uxth	r2, r3
 6424              		.loc 1 3022 47
 6425 0030 3B89     		ldrh	r3, [r7, #8]	@ movhi
 6426 0032 1343     		orrs	r3, r3, r2
 6427 0034 9AB2     		uxth	r2, r3
 6428              		.loc 1 3022 14
 6429 0036 7B89     		ldrh	r3, [r7, #10]	@ movhi
 6430 0038 1343     		orrs	r3, r3, r2
 6431 003a 9AB2     		uxth	r2, r3
 6432              		.loc 1 3022 11
 6433 003c FB8A     		ldrh	r3, [r7, #22]	@ movhi
 6434 003e 1343     		orrs	r3, r3, r2
 6435 0040 FB82     		strh	r3, [r7, #22]	@ movhi
3023:../Shared/Libraries/STM32F4xx_StdPeriph_Driver/src/stm32f4xx_tim.c **** 
3024:../Shared/Libraries/STM32F4xx_StdPeriph_Driver/src/stm32f4xx_tim.c ****   /* Write to TIMx SMCR */
3025:../Shared/Libraries/STM32F4xx_StdPeriph_Driver/src/stm32f4xx_tim.c ****   TIMx->SMCR = tmpsmcr;
 6436              		.loc 1 3025 14
 6437 0042 FB68     		ldr	r3, [r7, #12]
 6438 0044 FA8A     		ldrh	r2, [r7, #22]	@ movhi
 6439 0046 1A81     		strh	r2, [r3, #8]	@ movhi
3026:../Shared/Libraries/STM32F4xx_StdPeriph_Driver/src/stm32f4xx_tim.c **** }
 6440              		.loc 1 3026 1
 6441 0048 00BF     		nop
 6442 004a 1C37     		adds	r7, r7, #28
 6443              	.LCFI500:
 6444              		.cfi_def_cfa_offset 4
 6445 004c BD46     		mov	sp, r7
 6446              	.LCFI501:
 6447              		.cfi_def_cfa_register 13
 6448              		@ sp needed
 6449 004e 5DF8047B 		ldr	r7, [sp], #4
 6450              	.LCFI502:
 6451              		.cfi_restore 7
 6452              		.cfi_def_cfa_offset 0
 6453 0052 7047     		bx	lr
 6454              		.cfi_endproc
 6455              	.LFE194:
 6457              		.section	.text.TIM_EncoderInterfaceConfig,"ax",%progbits
 6458              		.align	1
 6459              		.global	TIM_EncoderInterfaceConfig
 6460              		.syntax unified
 6461              		.thumb
 6462              		.thumb_func
 6464              	TIM_EncoderInterfaceConfig:
 6465              	.LFB195:
3027:../Shared/Libraries/STM32F4xx_StdPeriph_Driver/src/stm32f4xx_tim.c **** /**
3028:../Shared/Libraries/STM32F4xx_StdPeriph_Driver/src/stm32f4xx_tim.c ****   * @}
3029:../Shared/Libraries/STM32F4xx_StdPeriph_Driver/src/stm32f4xx_tim.c ****   */
3030:../Shared/Libraries/STM32F4xx_StdPeriph_Driver/src/stm32f4xx_tim.c **** 
3031:../Shared/Libraries/STM32F4xx_StdPeriph_Driver/src/stm32f4xx_tim.c **** /** @defgroup TIM_Group8 Specific interface management functions
ARM GAS  /tmp/cc2zcHeL.s 			page 166


3032:../Shared/Libraries/STM32F4xx_StdPeriph_Driver/src/stm32f4xx_tim.c ****  *  @brief    Specific interface management functions 
3033:../Shared/Libraries/STM32F4xx_StdPeriph_Driver/src/stm32f4xx_tim.c ****  *
3034:../Shared/Libraries/STM32F4xx_StdPeriph_Driver/src/stm32f4xx_tim.c **** @verbatim   
3035:../Shared/Libraries/STM32F4xx_StdPeriph_Driver/src/stm32f4xx_tim.c ****  ===============================================================================
3036:../Shared/Libraries/STM32F4xx_StdPeriph_Driver/src/stm32f4xx_tim.c ****                     Specific interface management functions
3037:../Shared/Libraries/STM32F4xx_StdPeriph_Driver/src/stm32f4xx_tim.c ****  ===============================================================================  
3038:../Shared/Libraries/STM32F4xx_StdPeriph_Driver/src/stm32f4xx_tim.c **** 
3039:../Shared/Libraries/STM32F4xx_StdPeriph_Driver/src/stm32f4xx_tim.c **** @endverbatim
3040:../Shared/Libraries/STM32F4xx_StdPeriph_Driver/src/stm32f4xx_tim.c ****   * @{
3041:../Shared/Libraries/STM32F4xx_StdPeriph_Driver/src/stm32f4xx_tim.c ****   */
3042:../Shared/Libraries/STM32F4xx_StdPeriph_Driver/src/stm32f4xx_tim.c **** 
3043:../Shared/Libraries/STM32F4xx_StdPeriph_Driver/src/stm32f4xx_tim.c **** /**
3044:../Shared/Libraries/STM32F4xx_StdPeriph_Driver/src/stm32f4xx_tim.c ****   * @brief  Configures the TIMx Encoder Interface.
3045:../Shared/Libraries/STM32F4xx_StdPeriph_Driver/src/stm32f4xx_tim.c ****   * @param  TIMx: where x can be 1, 2, 3, 4, 5, 8, 9 or 12 to select the TIM 
3046:../Shared/Libraries/STM32F4xx_StdPeriph_Driver/src/stm32f4xx_tim.c ****   *         peripheral.
3047:../Shared/Libraries/STM32F4xx_StdPeriph_Driver/src/stm32f4xx_tim.c ****   * @param  TIM_EncoderMode: specifies the TIMx Encoder Mode.
3048:../Shared/Libraries/STM32F4xx_StdPeriph_Driver/src/stm32f4xx_tim.c ****   *          This parameter can be one of the following values:
3049:../Shared/Libraries/STM32F4xx_StdPeriph_Driver/src/stm32f4xx_tim.c ****   *            @arg TIM_EncoderMode_TI1: Counter counts on TI1FP1 edge depending on TI2FP2 level.
3050:../Shared/Libraries/STM32F4xx_StdPeriph_Driver/src/stm32f4xx_tim.c ****   *            @arg TIM_EncoderMode_TI2: Counter counts on TI2FP2 edge depending on TI1FP1 level.
3051:../Shared/Libraries/STM32F4xx_StdPeriph_Driver/src/stm32f4xx_tim.c ****   *            @arg TIM_EncoderMode_TI12: Counter counts on both TI1FP1 and TI2FP2 edges depending
3052:../Shared/Libraries/STM32F4xx_StdPeriph_Driver/src/stm32f4xx_tim.c ****   *                                       on the level of the other input.
3053:../Shared/Libraries/STM32F4xx_StdPeriph_Driver/src/stm32f4xx_tim.c ****   * @param  TIM_IC1Polarity: specifies the IC1 Polarity
3054:../Shared/Libraries/STM32F4xx_StdPeriph_Driver/src/stm32f4xx_tim.c ****   *          This parameter can be one of the following values:
3055:../Shared/Libraries/STM32F4xx_StdPeriph_Driver/src/stm32f4xx_tim.c ****   *            @arg TIM_ICPolarity_Falling: IC Falling edge.
3056:../Shared/Libraries/STM32F4xx_StdPeriph_Driver/src/stm32f4xx_tim.c ****   *            @arg TIM_ICPolarity_Rising: IC Rising edge.
3057:../Shared/Libraries/STM32F4xx_StdPeriph_Driver/src/stm32f4xx_tim.c ****   * @param  TIM_IC2Polarity: specifies the IC2 Polarity
3058:../Shared/Libraries/STM32F4xx_StdPeriph_Driver/src/stm32f4xx_tim.c ****   *          This parameter can be one of the following values:
3059:../Shared/Libraries/STM32F4xx_StdPeriph_Driver/src/stm32f4xx_tim.c ****   *            @arg TIM_ICPolarity_Falling: IC Falling edge.
3060:../Shared/Libraries/STM32F4xx_StdPeriph_Driver/src/stm32f4xx_tim.c ****   *            @arg TIM_ICPolarity_Rising: IC Rising edge.
3061:../Shared/Libraries/STM32F4xx_StdPeriph_Driver/src/stm32f4xx_tim.c ****   * @retval None
3062:../Shared/Libraries/STM32F4xx_StdPeriph_Driver/src/stm32f4xx_tim.c ****   */
3063:../Shared/Libraries/STM32F4xx_StdPeriph_Driver/src/stm32f4xx_tim.c **** void TIM_EncoderInterfaceConfig(TIM_TypeDef* TIMx, uint16_t TIM_EncoderMode,
3064:../Shared/Libraries/STM32F4xx_StdPeriph_Driver/src/stm32f4xx_tim.c ****                                 uint16_t TIM_IC1Polarity, uint16_t TIM_IC2Polarity)
3065:../Shared/Libraries/STM32F4xx_StdPeriph_Driver/src/stm32f4xx_tim.c **** {
 6466              		.loc 1 3065 1
 6467              		.cfi_startproc
 6468              		@ args = 0, pretend = 0, frame = 24
 6469              		@ frame_needed = 1, uses_anonymous_args = 0
 6470              		@ link register save eliminated.
 6471 0000 80B4     		push	{r7}
 6472              	.LCFI503:
 6473              		.cfi_def_cfa_offset 4
 6474              		.cfi_offset 7, -4
 6475 0002 87B0     		sub	sp, sp, #28
 6476              	.LCFI504:
 6477              		.cfi_def_cfa_offset 32
 6478 0004 00AF     		add	r7, sp, #0
 6479              	.LCFI505:
 6480              		.cfi_def_cfa_register 7
 6481 0006 F860     		str	r0, [r7, #12]
 6482 0008 0846     		mov	r0, r1
 6483 000a 1146     		mov	r1, r2
 6484 000c 1A46     		mov	r2, r3
 6485 000e 0346     		mov	r3, r0	@ movhi
 6486 0010 7B81     		strh	r3, [r7, #10]	@ movhi
 6487 0012 0B46     		mov	r3, r1	@ movhi
 6488 0014 3B81     		strh	r3, [r7, #8]	@ movhi
ARM GAS  /tmp/cc2zcHeL.s 			page 167


 6489 0016 1346     		mov	r3, r2	@ movhi
 6490 0018 FB80     		strh	r3, [r7, #6]	@ movhi
3066:../Shared/Libraries/STM32F4xx_StdPeriph_Driver/src/stm32f4xx_tim.c ****   uint16_t tmpsmcr = 0;
 6491              		.loc 1 3066 12
 6492 001a 0023     		movs	r3, #0
 6493 001c FB82     		strh	r3, [r7, #22]	@ movhi
3067:../Shared/Libraries/STM32F4xx_StdPeriph_Driver/src/stm32f4xx_tim.c ****   uint16_t tmpccmr1 = 0;
 6494              		.loc 1 3067 12
 6495 001e 0023     		movs	r3, #0
 6496 0020 BB82     		strh	r3, [r7, #20]	@ movhi
3068:../Shared/Libraries/STM32F4xx_StdPeriph_Driver/src/stm32f4xx_tim.c ****   uint16_t tmpccer = 0;
 6497              		.loc 1 3068 12
 6498 0022 0023     		movs	r3, #0
 6499 0024 7B82     		strh	r3, [r7, #18]	@ movhi
3069:../Shared/Libraries/STM32F4xx_StdPeriph_Driver/src/stm32f4xx_tim.c ****     
3070:../Shared/Libraries/STM32F4xx_StdPeriph_Driver/src/stm32f4xx_tim.c ****   /* Check the parameters */
3071:../Shared/Libraries/STM32F4xx_StdPeriph_Driver/src/stm32f4xx_tim.c ****   assert_param(IS_TIM_LIST2_PERIPH(TIMx));
3072:../Shared/Libraries/STM32F4xx_StdPeriph_Driver/src/stm32f4xx_tim.c ****   assert_param(IS_TIM_ENCODER_MODE(TIM_EncoderMode));
3073:../Shared/Libraries/STM32F4xx_StdPeriph_Driver/src/stm32f4xx_tim.c ****   assert_param(IS_TIM_IC_POLARITY(TIM_IC1Polarity));
3074:../Shared/Libraries/STM32F4xx_StdPeriph_Driver/src/stm32f4xx_tim.c ****   assert_param(IS_TIM_IC_POLARITY(TIM_IC2Polarity));
3075:../Shared/Libraries/STM32F4xx_StdPeriph_Driver/src/stm32f4xx_tim.c **** 
3076:../Shared/Libraries/STM32F4xx_StdPeriph_Driver/src/stm32f4xx_tim.c ****   /* Get the TIMx SMCR register value */
3077:../Shared/Libraries/STM32F4xx_StdPeriph_Driver/src/stm32f4xx_tim.c ****   tmpsmcr = TIMx->SMCR;
 6500              		.loc 1 3077 11
 6501 0026 FB68     		ldr	r3, [r7, #12]
 6502 0028 1B89     		ldrh	r3, [r3, #8]	@ movhi
 6503 002a FB82     		strh	r3, [r7, #22]	@ movhi
3078:../Shared/Libraries/STM32F4xx_StdPeriph_Driver/src/stm32f4xx_tim.c **** 
3079:../Shared/Libraries/STM32F4xx_StdPeriph_Driver/src/stm32f4xx_tim.c ****   /* Get the TIMx CCMR1 register value */
3080:../Shared/Libraries/STM32F4xx_StdPeriph_Driver/src/stm32f4xx_tim.c ****   tmpccmr1 = TIMx->CCMR1;
 6504              		.loc 1 3080 12
 6505 002c FB68     		ldr	r3, [r7, #12]
 6506 002e 1B8B     		ldrh	r3, [r3, #24]	@ movhi
 6507 0030 BB82     		strh	r3, [r7, #20]	@ movhi
3081:../Shared/Libraries/STM32F4xx_StdPeriph_Driver/src/stm32f4xx_tim.c **** 
3082:../Shared/Libraries/STM32F4xx_StdPeriph_Driver/src/stm32f4xx_tim.c ****   /* Get the TIMx CCER register value */
3083:../Shared/Libraries/STM32F4xx_StdPeriph_Driver/src/stm32f4xx_tim.c ****   tmpccer = TIMx->CCER;
 6508              		.loc 1 3083 11
 6509 0032 FB68     		ldr	r3, [r7, #12]
 6510 0034 1B8C     		ldrh	r3, [r3, #32]	@ movhi
 6511 0036 7B82     		strh	r3, [r7, #18]	@ movhi
3084:../Shared/Libraries/STM32F4xx_StdPeriph_Driver/src/stm32f4xx_tim.c **** 
3085:../Shared/Libraries/STM32F4xx_StdPeriph_Driver/src/stm32f4xx_tim.c ****   /* Set the encoder Mode */
3086:../Shared/Libraries/STM32F4xx_StdPeriph_Driver/src/stm32f4xx_tim.c ****   tmpsmcr &= (uint16_t)~TIM_SMCR_SMS;
 6512              		.loc 1 3086 11
 6513 0038 FB8A     		ldrh	r3, [r7, #22]	@ movhi
 6514 003a 23F00703 		bic	r3, r3, #7
 6515 003e FB82     		strh	r3, [r7, #22]	@ movhi
3087:../Shared/Libraries/STM32F4xx_StdPeriph_Driver/src/stm32f4xx_tim.c ****   tmpsmcr |= TIM_EncoderMode;
 6516              		.loc 1 3087 11
 6517 0040 FA8A     		ldrh	r2, [r7, #22]	@ movhi
 6518 0042 7B89     		ldrh	r3, [r7, #10]	@ movhi
 6519 0044 1343     		orrs	r3, r3, r2
 6520 0046 FB82     		strh	r3, [r7, #22]	@ movhi
3088:../Shared/Libraries/STM32F4xx_StdPeriph_Driver/src/stm32f4xx_tim.c **** 
3089:../Shared/Libraries/STM32F4xx_StdPeriph_Driver/src/stm32f4xx_tim.c ****   /* Select the Capture Compare 1 and the Capture Compare 2 as input */
3090:../Shared/Libraries/STM32F4xx_StdPeriph_Driver/src/stm32f4xx_tim.c ****   tmpccmr1 &= ((uint16_t)~TIM_CCMR1_CC1S) & ((uint16_t)~TIM_CCMR1_CC2S);
ARM GAS  /tmp/cc2zcHeL.s 			page 168


 6521              		.loc 1 3090 12
 6522 0048 BB8A     		ldrh	r3, [r7, #20]	@ movhi
 6523 004a 23F44073 		bic	r3, r3, #768
 6524 004e 23F00303 		bic	r3, r3, #3
 6525 0052 BB82     		strh	r3, [r7, #20]	@ movhi
3091:../Shared/Libraries/STM32F4xx_StdPeriph_Driver/src/stm32f4xx_tim.c ****   tmpccmr1 |= TIM_CCMR1_CC1S_0 | TIM_CCMR1_CC2S_0;
 6526              		.loc 1 3091 12
 6527 0054 BB8A     		ldrh	r3, [r7, #20]	@ movhi
 6528 0056 43F48073 		orr	r3, r3, #256
 6529 005a 43F00103 		orr	r3, r3, #1
 6530 005e BB82     		strh	r3, [r7, #20]	@ movhi
3092:../Shared/Libraries/STM32F4xx_StdPeriph_Driver/src/stm32f4xx_tim.c **** 
3093:../Shared/Libraries/STM32F4xx_StdPeriph_Driver/src/stm32f4xx_tim.c ****   /* Set the TI1 and the TI2 Polarities */
3094:../Shared/Libraries/STM32F4xx_StdPeriph_Driver/src/stm32f4xx_tim.c ****   tmpccer &= ((uint16_t)~TIM_CCER_CC1P) & ((uint16_t)~TIM_CCER_CC2P);
 6531              		.loc 1 3094 11
 6532 0060 7B8A     		ldrh	r3, [r7, #18]	@ movhi
 6533 0062 23F02203 		bic	r3, r3, #34
 6534 0066 7B82     		strh	r3, [r7, #18]	@ movhi
3095:../Shared/Libraries/STM32F4xx_StdPeriph_Driver/src/stm32f4xx_tim.c ****   tmpccer |= (uint16_t)(TIM_IC1Polarity | (uint16_t)(TIM_IC2Polarity << (uint16_t)4));
 6535              		.loc 1 3095 43
 6536 0068 FB88     		ldrh	r3, [r7, #6]	@ movhi
 6537 006a 1B01     		lsls	r3, r3, #4
 6538 006c 9AB2     		uxth	r2, r3
 6539              		.loc 1 3095 14
 6540 006e 3B89     		ldrh	r3, [r7, #8]	@ movhi
 6541 0070 1343     		orrs	r3, r3, r2
 6542 0072 9AB2     		uxth	r2, r3
 6543              		.loc 1 3095 11
 6544 0074 7B8A     		ldrh	r3, [r7, #18]	@ movhi
 6545 0076 1343     		orrs	r3, r3, r2
 6546 0078 7B82     		strh	r3, [r7, #18]	@ movhi
3096:../Shared/Libraries/STM32F4xx_StdPeriph_Driver/src/stm32f4xx_tim.c **** 
3097:../Shared/Libraries/STM32F4xx_StdPeriph_Driver/src/stm32f4xx_tim.c ****   /* Write to TIMx SMCR */
3098:../Shared/Libraries/STM32F4xx_StdPeriph_Driver/src/stm32f4xx_tim.c ****   TIMx->SMCR = tmpsmcr;
 6547              		.loc 1 3098 14
 6548 007a FB68     		ldr	r3, [r7, #12]
 6549 007c FA8A     		ldrh	r2, [r7, #22]	@ movhi
 6550 007e 1A81     		strh	r2, [r3, #8]	@ movhi
3099:../Shared/Libraries/STM32F4xx_StdPeriph_Driver/src/stm32f4xx_tim.c **** 
3100:../Shared/Libraries/STM32F4xx_StdPeriph_Driver/src/stm32f4xx_tim.c ****   /* Write to TIMx CCMR1 */
3101:../Shared/Libraries/STM32F4xx_StdPeriph_Driver/src/stm32f4xx_tim.c ****   TIMx->CCMR1 = tmpccmr1;
 6551              		.loc 1 3101 15
 6552 0080 FB68     		ldr	r3, [r7, #12]
 6553 0082 BA8A     		ldrh	r2, [r7, #20]	@ movhi
 6554 0084 1A83     		strh	r2, [r3, #24]	@ movhi
3102:../Shared/Libraries/STM32F4xx_StdPeriph_Driver/src/stm32f4xx_tim.c **** 
3103:../Shared/Libraries/STM32F4xx_StdPeriph_Driver/src/stm32f4xx_tim.c ****   /* Write to TIMx CCER */
3104:../Shared/Libraries/STM32F4xx_StdPeriph_Driver/src/stm32f4xx_tim.c ****   TIMx->CCER = tmpccer;
 6555              		.loc 1 3104 14
 6556 0086 FB68     		ldr	r3, [r7, #12]
 6557 0088 7A8A     		ldrh	r2, [r7, #18]	@ movhi
 6558 008a 1A84     		strh	r2, [r3, #32]	@ movhi
3105:../Shared/Libraries/STM32F4xx_StdPeriph_Driver/src/stm32f4xx_tim.c **** }
 6559              		.loc 1 3105 1
 6560 008c 00BF     		nop
 6561 008e 1C37     		adds	r7, r7, #28
 6562              	.LCFI506:
ARM GAS  /tmp/cc2zcHeL.s 			page 169


 6563              		.cfi_def_cfa_offset 4
 6564 0090 BD46     		mov	sp, r7
 6565              	.LCFI507:
 6566              		.cfi_def_cfa_register 13
 6567              		@ sp needed
 6568 0092 5DF8047B 		ldr	r7, [sp], #4
 6569              	.LCFI508:
 6570              		.cfi_restore 7
 6571              		.cfi_def_cfa_offset 0
 6572 0096 7047     		bx	lr
 6573              		.cfi_endproc
 6574              	.LFE195:
 6576              		.section	.text.TIM_SelectHallSensor,"ax",%progbits
 6577              		.align	1
 6578              		.global	TIM_SelectHallSensor
 6579              		.syntax unified
 6580              		.thumb
 6581              		.thumb_func
 6583              	TIM_SelectHallSensor:
 6584              	.LFB196:
3106:../Shared/Libraries/STM32F4xx_StdPeriph_Driver/src/stm32f4xx_tim.c **** 
3107:../Shared/Libraries/STM32F4xx_StdPeriph_Driver/src/stm32f4xx_tim.c **** /**
3108:../Shared/Libraries/STM32F4xx_StdPeriph_Driver/src/stm32f4xx_tim.c ****   * @brief  Enables or disables the TIMx's Hall sensor interface.
3109:../Shared/Libraries/STM32F4xx_StdPeriph_Driver/src/stm32f4xx_tim.c ****   * @param  TIMx: where x can be 1, 2, 3, 4, 5, 8, 9 or 12 to select the TIM 
3110:../Shared/Libraries/STM32F4xx_StdPeriph_Driver/src/stm32f4xx_tim.c ****   *         peripheral.
3111:../Shared/Libraries/STM32F4xx_StdPeriph_Driver/src/stm32f4xx_tim.c ****   * @param  NewState: new state of the TIMx Hall sensor interface.
3112:../Shared/Libraries/STM32F4xx_StdPeriph_Driver/src/stm32f4xx_tim.c ****   *          This parameter can be: ENABLE or DISABLE.
3113:../Shared/Libraries/STM32F4xx_StdPeriph_Driver/src/stm32f4xx_tim.c ****   * @retval None
3114:../Shared/Libraries/STM32F4xx_StdPeriph_Driver/src/stm32f4xx_tim.c ****   */
3115:../Shared/Libraries/STM32F4xx_StdPeriph_Driver/src/stm32f4xx_tim.c **** void TIM_SelectHallSensor(TIM_TypeDef* TIMx, FunctionalState NewState)
3116:../Shared/Libraries/STM32F4xx_StdPeriph_Driver/src/stm32f4xx_tim.c **** {
 6585              		.loc 1 3116 1
 6586              		.cfi_startproc
 6587              		@ args = 0, pretend = 0, frame = 8
 6588              		@ frame_needed = 1, uses_anonymous_args = 0
 6589              		@ link register save eliminated.
 6590 0000 80B4     		push	{r7}
 6591              	.LCFI509:
 6592              		.cfi_def_cfa_offset 4
 6593              		.cfi_offset 7, -4
 6594 0002 83B0     		sub	sp, sp, #12
 6595              	.LCFI510:
 6596              		.cfi_def_cfa_offset 16
 6597 0004 00AF     		add	r7, sp, #0
 6598              	.LCFI511:
 6599              		.cfi_def_cfa_register 7
 6600 0006 7860     		str	r0, [r7, #4]
 6601 0008 0B46     		mov	r3, r1
 6602 000a FB70     		strb	r3, [r7, #3]
3117:../Shared/Libraries/STM32F4xx_StdPeriph_Driver/src/stm32f4xx_tim.c ****   /* Check the parameters */
3118:../Shared/Libraries/STM32F4xx_StdPeriph_Driver/src/stm32f4xx_tim.c ****   assert_param(IS_TIM_LIST2_PERIPH(TIMx));
3119:../Shared/Libraries/STM32F4xx_StdPeriph_Driver/src/stm32f4xx_tim.c ****   assert_param(IS_FUNCTIONAL_STATE(NewState));
3120:../Shared/Libraries/STM32F4xx_StdPeriph_Driver/src/stm32f4xx_tim.c **** 
3121:../Shared/Libraries/STM32F4xx_StdPeriph_Driver/src/stm32f4xx_tim.c ****   if (NewState != DISABLE)
 6603              		.loc 1 3121 6
 6604 000c FB78     		ldrb	r3, [r7, #3]	@ zero_extendqisi2
 6605 000e 002B     		cmp	r3, #0
ARM GAS  /tmp/cc2zcHeL.s 			page 170


 6606 0010 08D0     		beq	.L187
3122:../Shared/Libraries/STM32F4xx_StdPeriph_Driver/src/stm32f4xx_tim.c ****   {
3123:../Shared/Libraries/STM32F4xx_StdPeriph_Driver/src/stm32f4xx_tim.c ****     /* Set the TI1S Bit */
3124:../Shared/Libraries/STM32F4xx_StdPeriph_Driver/src/stm32f4xx_tim.c ****     TIMx->CR2 |= TIM_CR2_TI1S;
 6607              		.loc 1 3124 9
 6608 0012 7B68     		ldr	r3, [r7, #4]
 6609 0014 9B88     		ldrh	r3, [r3, #4]	@ movhi
 6610 0016 9BB2     		uxth	r3, r3
 6611              		.loc 1 3124 15
 6612 0018 43F08003 		orr	r3, r3, #128
 6613 001c 9AB2     		uxth	r2, r3
 6614 001e 7B68     		ldr	r3, [r7, #4]
 6615 0020 9A80     		strh	r2, [r3, #4]	@ movhi
3125:../Shared/Libraries/STM32F4xx_StdPeriph_Driver/src/stm32f4xx_tim.c ****   }
3126:../Shared/Libraries/STM32F4xx_StdPeriph_Driver/src/stm32f4xx_tim.c ****   else
3127:../Shared/Libraries/STM32F4xx_StdPeriph_Driver/src/stm32f4xx_tim.c ****   {
3128:../Shared/Libraries/STM32F4xx_StdPeriph_Driver/src/stm32f4xx_tim.c ****     /* Reset the TI1S Bit */
3129:../Shared/Libraries/STM32F4xx_StdPeriph_Driver/src/stm32f4xx_tim.c ****     TIMx->CR2 &= (uint16_t)~TIM_CR2_TI1S;
3130:../Shared/Libraries/STM32F4xx_StdPeriph_Driver/src/stm32f4xx_tim.c ****   }
3131:../Shared/Libraries/STM32F4xx_StdPeriph_Driver/src/stm32f4xx_tim.c **** }
 6616              		.loc 1 3131 1
 6617 0022 07E0     		b	.L189
 6618              	.L187:
3129:../Shared/Libraries/STM32F4xx_StdPeriph_Driver/src/stm32f4xx_tim.c ****   }
 6619              		.loc 1 3129 9
 6620 0024 7B68     		ldr	r3, [r7, #4]
 6621 0026 9B88     		ldrh	r3, [r3, #4]	@ movhi
 6622 0028 9BB2     		uxth	r3, r3
3129:../Shared/Libraries/STM32F4xx_StdPeriph_Driver/src/stm32f4xx_tim.c ****   }
 6623              		.loc 1 3129 15
 6624 002a 23F08003 		bic	r3, r3, #128
 6625 002e 9AB2     		uxth	r2, r3
 6626 0030 7B68     		ldr	r3, [r7, #4]
 6627 0032 9A80     		strh	r2, [r3, #4]	@ movhi
 6628              	.L189:
 6629              		.loc 1 3131 1
 6630 0034 00BF     		nop
 6631 0036 0C37     		adds	r7, r7, #12
 6632              	.LCFI512:
 6633              		.cfi_def_cfa_offset 4
 6634 0038 BD46     		mov	sp, r7
 6635              	.LCFI513:
 6636              		.cfi_def_cfa_register 13
 6637              		@ sp needed
 6638 003a 5DF8047B 		ldr	r7, [sp], #4
 6639              	.LCFI514:
 6640              		.cfi_restore 7
 6641              		.cfi_def_cfa_offset 0
 6642 003e 7047     		bx	lr
 6643              		.cfi_endproc
 6644              	.LFE196:
 6646              		.section	.text.TIM_RemapConfig,"ax",%progbits
 6647              		.align	1
 6648              		.global	TIM_RemapConfig
 6649              		.syntax unified
 6650              		.thumb
 6651              		.thumb_func
ARM GAS  /tmp/cc2zcHeL.s 			page 171


 6653              	TIM_RemapConfig:
 6654              	.LFB197:
3132:../Shared/Libraries/STM32F4xx_StdPeriph_Driver/src/stm32f4xx_tim.c **** /**
3133:../Shared/Libraries/STM32F4xx_StdPeriph_Driver/src/stm32f4xx_tim.c ****   * @}
3134:../Shared/Libraries/STM32F4xx_StdPeriph_Driver/src/stm32f4xx_tim.c ****   */
3135:../Shared/Libraries/STM32F4xx_StdPeriph_Driver/src/stm32f4xx_tim.c **** 
3136:../Shared/Libraries/STM32F4xx_StdPeriph_Driver/src/stm32f4xx_tim.c **** /** @defgroup TIM_Group9 Specific remapping management function
3137:../Shared/Libraries/STM32F4xx_StdPeriph_Driver/src/stm32f4xx_tim.c ****  *  @brief   Specific remapping management function
3138:../Shared/Libraries/STM32F4xx_StdPeriph_Driver/src/stm32f4xx_tim.c ****  *
3139:../Shared/Libraries/STM32F4xx_StdPeriph_Driver/src/stm32f4xx_tim.c **** @verbatim   
3140:../Shared/Libraries/STM32F4xx_StdPeriph_Driver/src/stm32f4xx_tim.c ****  ===============================================================================
3141:../Shared/Libraries/STM32F4xx_StdPeriph_Driver/src/stm32f4xx_tim.c ****                      Specific remapping management function
3142:../Shared/Libraries/STM32F4xx_StdPeriph_Driver/src/stm32f4xx_tim.c ****  ===============================================================================  
3143:../Shared/Libraries/STM32F4xx_StdPeriph_Driver/src/stm32f4xx_tim.c **** 
3144:../Shared/Libraries/STM32F4xx_StdPeriph_Driver/src/stm32f4xx_tim.c **** @endverbatim
3145:../Shared/Libraries/STM32F4xx_StdPeriph_Driver/src/stm32f4xx_tim.c ****   * @{
3146:../Shared/Libraries/STM32F4xx_StdPeriph_Driver/src/stm32f4xx_tim.c ****   */
3147:../Shared/Libraries/STM32F4xx_StdPeriph_Driver/src/stm32f4xx_tim.c **** 
3148:../Shared/Libraries/STM32F4xx_StdPeriph_Driver/src/stm32f4xx_tim.c **** /**
3149:../Shared/Libraries/STM32F4xx_StdPeriph_Driver/src/stm32f4xx_tim.c ****   * @brief  Configures the TIM2, TIM5 and TIM11 Remapping input capabilities.
3150:../Shared/Libraries/STM32F4xx_StdPeriph_Driver/src/stm32f4xx_tim.c ****   * @param  TIMx: where x can be 2, 5 or 11 to select the TIM peripheral.
3151:../Shared/Libraries/STM32F4xx_StdPeriph_Driver/src/stm32f4xx_tim.c ****   * @param  TIM_Remap: specifies the TIM input remapping source.
3152:../Shared/Libraries/STM32F4xx_StdPeriph_Driver/src/stm32f4xx_tim.c ****   *          This parameter can be one of the following values:
3153:../Shared/Libraries/STM32F4xx_StdPeriph_Driver/src/stm32f4xx_tim.c ****   *            @arg TIM2_TIM8_TRGO: TIM2 ITR1 input is connected to TIM8 Trigger output(default)
3154:../Shared/Libraries/STM32F4xx_StdPeriph_Driver/src/stm32f4xx_tim.c ****   *            @arg TIM2_ETH_PTP:   TIM2 ITR1 input is connected to ETH PTP trogger output.
3155:../Shared/Libraries/STM32F4xx_StdPeriph_Driver/src/stm32f4xx_tim.c ****   *            @arg TIM2_USBFS_SOF: TIM2 ITR1 input is connected to USB FS SOF. 
3156:../Shared/Libraries/STM32F4xx_StdPeriph_Driver/src/stm32f4xx_tim.c ****   *            @arg TIM2_USBHS_SOF: TIM2 ITR1 input is connected to USB HS SOF. 
3157:../Shared/Libraries/STM32F4xx_StdPeriph_Driver/src/stm32f4xx_tim.c ****   *            @arg TIM5_GPIO:      TIM5 CH4 input is connected to dedicated Timer pin(default)
3158:../Shared/Libraries/STM32F4xx_StdPeriph_Driver/src/stm32f4xx_tim.c ****   *            @arg TIM5_LSI:       TIM5 CH4 input is connected to LSI clock.
3159:../Shared/Libraries/STM32F4xx_StdPeriph_Driver/src/stm32f4xx_tim.c ****   *            @arg TIM5_LSE:       TIM5 CH4 input is connected to LSE clock.
3160:../Shared/Libraries/STM32F4xx_StdPeriph_Driver/src/stm32f4xx_tim.c ****   *            @arg TIM5_RTC:       TIM5 CH4 input is connected to RTC Output event.
3161:../Shared/Libraries/STM32F4xx_StdPeriph_Driver/src/stm32f4xx_tim.c ****   *            @arg TIM11_GPIO:     TIM11 CH4 input is connected to dedicated Timer pin(default) 
3162:../Shared/Libraries/STM32F4xx_StdPeriph_Driver/src/stm32f4xx_tim.c ****   *            @arg TIM11_HSE:      TIM11 CH4 input is connected to HSE_RTC clock
3163:../Shared/Libraries/STM32F4xx_StdPeriph_Driver/src/stm32f4xx_tim.c ****   *                                 (HSE divided by a programmable prescaler)  
3164:../Shared/Libraries/STM32F4xx_StdPeriph_Driver/src/stm32f4xx_tim.c ****   * @retval None
3165:../Shared/Libraries/STM32F4xx_StdPeriph_Driver/src/stm32f4xx_tim.c ****   */
3166:../Shared/Libraries/STM32F4xx_StdPeriph_Driver/src/stm32f4xx_tim.c **** void TIM_RemapConfig(TIM_TypeDef* TIMx, uint16_t TIM_Remap)
3167:../Shared/Libraries/STM32F4xx_StdPeriph_Driver/src/stm32f4xx_tim.c **** {
 6655              		.loc 1 3167 1
 6656              		.cfi_startproc
 6657              		@ args = 0, pretend = 0, frame = 8
 6658              		@ frame_needed = 1, uses_anonymous_args = 0
 6659              		@ link register save eliminated.
 6660 0000 80B4     		push	{r7}
 6661              	.LCFI515:
 6662              		.cfi_def_cfa_offset 4
 6663              		.cfi_offset 7, -4
 6664 0002 83B0     		sub	sp, sp, #12
 6665              	.LCFI516:
 6666              		.cfi_def_cfa_offset 16
 6667 0004 00AF     		add	r7, sp, #0
 6668              	.LCFI517:
 6669              		.cfi_def_cfa_register 7
 6670 0006 7860     		str	r0, [r7, #4]
 6671 0008 0B46     		mov	r3, r1
 6672 000a 7B80     		strh	r3, [r7, #2]	@ movhi
3168:../Shared/Libraries/STM32F4xx_StdPeriph_Driver/src/stm32f4xx_tim.c ****  /* Check the parameters */
ARM GAS  /tmp/cc2zcHeL.s 			page 172


3169:../Shared/Libraries/STM32F4xx_StdPeriph_Driver/src/stm32f4xx_tim.c ****   assert_param(IS_TIM_LIST6_PERIPH(TIMx));
3170:../Shared/Libraries/STM32F4xx_StdPeriph_Driver/src/stm32f4xx_tim.c ****   assert_param(IS_TIM_REMAP(TIM_Remap));
3171:../Shared/Libraries/STM32F4xx_StdPeriph_Driver/src/stm32f4xx_tim.c **** 
3172:../Shared/Libraries/STM32F4xx_StdPeriph_Driver/src/stm32f4xx_tim.c ****   /* Set the Timer remapping configuration */
3173:../Shared/Libraries/STM32F4xx_StdPeriph_Driver/src/stm32f4xx_tim.c ****   TIMx->OR =  TIM_Remap;
 6673              		.loc 1 3173 12
 6674 000c 7B68     		ldr	r3, [r7, #4]
 6675 000e 7A88     		ldrh	r2, [r7, #2]	@ movhi
 6676 0010 A3F85020 		strh	r2, [r3, #80]	@ movhi
3174:../Shared/Libraries/STM32F4xx_StdPeriph_Driver/src/stm32f4xx_tim.c **** }
 6677              		.loc 1 3174 1
 6678 0014 00BF     		nop
 6679 0016 0C37     		adds	r7, r7, #12
 6680              	.LCFI518:
 6681              		.cfi_def_cfa_offset 4
 6682 0018 BD46     		mov	sp, r7
 6683              	.LCFI519:
 6684              		.cfi_def_cfa_register 13
 6685              		@ sp needed
 6686 001a 5DF8047B 		ldr	r7, [sp], #4
 6687              	.LCFI520:
 6688              		.cfi_restore 7
 6689              		.cfi_def_cfa_offset 0
 6690 001e 7047     		bx	lr
 6691              		.cfi_endproc
 6692              	.LFE197:
 6694              		.section	.text.TI1_Config,"ax",%progbits
 6695              		.align	1
 6696              		.syntax unified
 6697              		.thumb
 6698              		.thumb_func
 6700              	TI1_Config:
 6701              	.LFB198:
3175:../Shared/Libraries/STM32F4xx_StdPeriph_Driver/src/stm32f4xx_tim.c **** /**
3176:../Shared/Libraries/STM32F4xx_StdPeriph_Driver/src/stm32f4xx_tim.c ****   * @}
3177:../Shared/Libraries/STM32F4xx_StdPeriph_Driver/src/stm32f4xx_tim.c ****   */
3178:../Shared/Libraries/STM32F4xx_StdPeriph_Driver/src/stm32f4xx_tim.c **** 
3179:../Shared/Libraries/STM32F4xx_StdPeriph_Driver/src/stm32f4xx_tim.c **** /**
3180:../Shared/Libraries/STM32F4xx_StdPeriph_Driver/src/stm32f4xx_tim.c ****   * @brief  Configure the TI1 as Input.
3181:../Shared/Libraries/STM32F4xx_StdPeriph_Driver/src/stm32f4xx_tim.c ****   * @param  TIMx: where x can be 1, 2, 3, 4, 5, 8, 9, 10, 11, 12, 13 or 14 
3182:../Shared/Libraries/STM32F4xx_StdPeriph_Driver/src/stm32f4xx_tim.c ****   *         to select the TIM peripheral.
3183:../Shared/Libraries/STM32F4xx_StdPeriph_Driver/src/stm32f4xx_tim.c ****   * @param  TIM_ICPolarity : The Input Polarity.
3184:../Shared/Libraries/STM32F4xx_StdPeriph_Driver/src/stm32f4xx_tim.c ****   *          This parameter can be one of the following values:
3185:../Shared/Libraries/STM32F4xx_StdPeriph_Driver/src/stm32f4xx_tim.c ****   *            @arg TIM_ICPolarity_Rising
3186:../Shared/Libraries/STM32F4xx_StdPeriph_Driver/src/stm32f4xx_tim.c ****   *            @arg TIM_ICPolarity_Falling
3187:../Shared/Libraries/STM32F4xx_StdPeriph_Driver/src/stm32f4xx_tim.c ****   *            @arg TIM_ICPolarity_BothEdge  
3188:../Shared/Libraries/STM32F4xx_StdPeriph_Driver/src/stm32f4xx_tim.c ****   * @param  TIM_ICSelection: specifies the input to be used.
3189:../Shared/Libraries/STM32F4xx_StdPeriph_Driver/src/stm32f4xx_tim.c ****   *          This parameter can be one of the following values:
3190:../Shared/Libraries/STM32F4xx_StdPeriph_Driver/src/stm32f4xx_tim.c ****   *            @arg TIM_ICSelection_DirectTI: TIM Input 1 is selected to be connected to IC1.
3191:../Shared/Libraries/STM32F4xx_StdPeriph_Driver/src/stm32f4xx_tim.c ****   *            @arg TIM_ICSelection_IndirectTI: TIM Input 1 is selected to be connected to IC2.
3192:../Shared/Libraries/STM32F4xx_StdPeriph_Driver/src/stm32f4xx_tim.c ****   *            @arg TIM_ICSelection_TRC: TIM Input 1 is selected to be connected to TRC.
3193:../Shared/Libraries/STM32F4xx_StdPeriph_Driver/src/stm32f4xx_tim.c ****   * @param  TIM_ICFilter: Specifies the Input Capture Filter.
3194:../Shared/Libraries/STM32F4xx_StdPeriph_Driver/src/stm32f4xx_tim.c ****   *          This parameter must be a value between 0x00 and 0x0F.
3195:../Shared/Libraries/STM32F4xx_StdPeriph_Driver/src/stm32f4xx_tim.c ****   * @retval None
3196:../Shared/Libraries/STM32F4xx_StdPeriph_Driver/src/stm32f4xx_tim.c ****   */
3197:../Shared/Libraries/STM32F4xx_StdPeriph_Driver/src/stm32f4xx_tim.c **** static void TI1_Config(TIM_TypeDef* TIMx, uint16_t TIM_ICPolarity, uint16_t TIM_ICSelection,
3198:../Shared/Libraries/STM32F4xx_StdPeriph_Driver/src/stm32f4xx_tim.c ****                        uint16_t TIM_ICFilter)
ARM GAS  /tmp/cc2zcHeL.s 			page 173


3199:../Shared/Libraries/STM32F4xx_StdPeriph_Driver/src/stm32f4xx_tim.c **** {
 6702              		.loc 1 3199 1
 6703              		.cfi_startproc
 6704              		@ args = 0, pretend = 0, frame = 24
 6705              		@ frame_needed = 1, uses_anonymous_args = 0
 6706              		@ link register save eliminated.
 6707 0000 80B4     		push	{r7}
 6708              	.LCFI521:
 6709              		.cfi_def_cfa_offset 4
 6710              		.cfi_offset 7, -4
 6711 0002 87B0     		sub	sp, sp, #28
 6712              	.LCFI522:
 6713              		.cfi_def_cfa_offset 32
 6714 0004 00AF     		add	r7, sp, #0
 6715              	.LCFI523:
 6716              		.cfi_def_cfa_register 7
 6717 0006 F860     		str	r0, [r7, #12]
 6718 0008 0846     		mov	r0, r1
 6719 000a 1146     		mov	r1, r2
 6720 000c 1A46     		mov	r2, r3
 6721 000e 0346     		mov	r3, r0	@ movhi
 6722 0010 7B81     		strh	r3, [r7, #10]	@ movhi
 6723 0012 0B46     		mov	r3, r1	@ movhi
 6724 0014 3B81     		strh	r3, [r7, #8]	@ movhi
 6725 0016 1346     		mov	r3, r2	@ movhi
 6726 0018 FB80     		strh	r3, [r7, #6]	@ movhi
3200:../Shared/Libraries/STM32F4xx_StdPeriph_Driver/src/stm32f4xx_tim.c ****   uint16_t tmpccmr1 = 0, tmpccer = 0;
 6727              		.loc 1 3200 12
 6728 001a 0023     		movs	r3, #0
 6729 001c FB82     		strh	r3, [r7, #22]	@ movhi
 6730              		.loc 1 3200 26
 6731 001e 0023     		movs	r3, #0
 6732 0020 BB82     		strh	r3, [r7, #20]	@ movhi
3201:../Shared/Libraries/STM32F4xx_StdPeriph_Driver/src/stm32f4xx_tim.c **** 
3202:../Shared/Libraries/STM32F4xx_StdPeriph_Driver/src/stm32f4xx_tim.c ****   /* Disable the Channel 1: Reset the CC1E Bit */
3203:../Shared/Libraries/STM32F4xx_StdPeriph_Driver/src/stm32f4xx_tim.c ****   TIMx->CCER &= (uint16_t)~TIM_CCER_CC1E;
 6733              		.loc 1 3203 7
 6734 0022 FB68     		ldr	r3, [r7, #12]
 6735 0024 1B8C     		ldrh	r3, [r3, #32]	@ movhi
 6736 0026 9BB2     		uxth	r3, r3
 6737              		.loc 1 3203 14
 6738 0028 23F00103 		bic	r3, r3, #1
 6739 002c 9AB2     		uxth	r2, r3
 6740 002e FB68     		ldr	r3, [r7, #12]
 6741 0030 1A84     		strh	r2, [r3, #32]	@ movhi
3204:../Shared/Libraries/STM32F4xx_StdPeriph_Driver/src/stm32f4xx_tim.c ****   tmpccmr1 = TIMx->CCMR1;
 6742              		.loc 1 3204 12
 6743 0032 FB68     		ldr	r3, [r7, #12]
 6744 0034 1B8B     		ldrh	r3, [r3, #24]	@ movhi
 6745 0036 FB82     		strh	r3, [r7, #22]	@ movhi
3205:../Shared/Libraries/STM32F4xx_StdPeriph_Driver/src/stm32f4xx_tim.c ****   tmpccer = TIMx->CCER;
 6746              		.loc 1 3205 11
 6747 0038 FB68     		ldr	r3, [r7, #12]
 6748 003a 1B8C     		ldrh	r3, [r3, #32]	@ movhi
 6749 003c BB82     		strh	r3, [r7, #20]	@ movhi
3206:../Shared/Libraries/STM32F4xx_StdPeriph_Driver/src/stm32f4xx_tim.c **** 
3207:../Shared/Libraries/STM32F4xx_StdPeriph_Driver/src/stm32f4xx_tim.c ****   /* Select the Input and set the filter */
ARM GAS  /tmp/cc2zcHeL.s 			page 174


3208:../Shared/Libraries/STM32F4xx_StdPeriph_Driver/src/stm32f4xx_tim.c ****   tmpccmr1 &= ((uint16_t)~TIM_CCMR1_CC1S) & ((uint16_t)~TIM_CCMR1_IC1F);
 6750              		.loc 1 3208 12
 6751 003e FB8A     		ldrh	r3, [r7, #22]	@ movhi
 6752 0040 23F0F303 		bic	r3, r3, #243
 6753 0044 FB82     		strh	r3, [r7, #22]	@ movhi
3209:../Shared/Libraries/STM32F4xx_StdPeriph_Driver/src/stm32f4xx_tim.c ****   tmpccmr1 |= (uint16_t)(TIM_ICSelection | (uint16_t)(TIM_ICFilter << (uint16_t)4));
 6754              		.loc 1 3209 44
 6755 0046 FB88     		ldrh	r3, [r7, #6]	@ movhi
 6756 0048 1B01     		lsls	r3, r3, #4
 6757 004a 9AB2     		uxth	r2, r3
 6758              		.loc 1 3209 15
 6759 004c 3B89     		ldrh	r3, [r7, #8]	@ movhi
 6760 004e 1343     		orrs	r3, r3, r2
 6761 0050 9AB2     		uxth	r2, r3
 6762              		.loc 1 3209 12
 6763 0052 FB8A     		ldrh	r3, [r7, #22]	@ movhi
 6764 0054 1343     		orrs	r3, r3, r2
 6765 0056 FB82     		strh	r3, [r7, #22]	@ movhi
3210:../Shared/Libraries/STM32F4xx_StdPeriph_Driver/src/stm32f4xx_tim.c **** 
3211:../Shared/Libraries/STM32F4xx_StdPeriph_Driver/src/stm32f4xx_tim.c ****   /* Select the Polarity and set the CC1E Bit */
3212:../Shared/Libraries/STM32F4xx_StdPeriph_Driver/src/stm32f4xx_tim.c ****   tmpccer &= (uint16_t)~(TIM_CCER_CC1P | TIM_CCER_CC1NP);
 6766              		.loc 1 3212 11
 6767 0058 BB8A     		ldrh	r3, [r7, #20]	@ movhi
 6768 005a 23F00A03 		bic	r3, r3, #10
 6769 005e BB82     		strh	r3, [r7, #20]	@ movhi
3213:../Shared/Libraries/STM32F4xx_StdPeriph_Driver/src/stm32f4xx_tim.c ****   tmpccer |= (uint16_t)(TIM_ICPolarity | (uint16_t)TIM_CCER_CC1E);
 6770              		.loc 1 3213 11
 6771 0060 7A89     		ldrh	r2, [r7, #10]	@ movhi
 6772 0062 BB8A     		ldrh	r3, [r7, #20]	@ movhi
 6773 0064 1343     		orrs	r3, r3, r2
 6774 0066 9BB2     		uxth	r3, r3
 6775 0068 43F00103 		orr	r3, r3, #1
 6776 006c BB82     		strh	r3, [r7, #20]	@ movhi
3214:../Shared/Libraries/STM32F4xx_StdPeriph_Driver/src/stm32f4xx_tim.c **** 
3215:../Shared/Libraries/STM32F4xx_StdPeriph_Driver/src/stm32f4xx_tim.c ****   /* Write to TIMx CCMR1 and CCER registers */
3216:../Shared/Libraries/STM32F4xx_StdPeriph_Driver/src/stm32f4xx_tim.c ****   TIMx->CCMR1 = tmpccmr1;
 6777              		.loc 1 3216 15
 6778 006e FB68     		ldr	r3, [r7, #12]
 6779 0070 FA8A     		ldrh	r2, [r7, #22]	@ movhi
 6780 0072 1A83     		strh	r2, [r3, #24]	@ movhi
3217:../Shared/Libraries/STM32F4xx_StdPeriph_Driver/src/stm32f4xx_tim.c ****   TIMx->CCER = tmpccer;
 6781              		.loc 1 3217 14
 6782 0074 FB68     		ldr	r3, [r7, #12]
 6783 0076 BA8A     		ldrh	r2, [r7, #20]	@ movhi
 6784 0078 1A84     		strh	r2, [r3, #32]	@ movhi
3218:../Shared/Libraries/STM32F4xx_StdPeriph_Driver/src/stm32f4xx_tim.c **** }
 6785              		.loc 1 3218 1
 6786 007a 00BF     		nop
 6787 007c 1C37     		adds	r7, r7, #28
 6788              	.LCFI524:
 6789              		.cfi_def_cfa_offset 4
 6790 007e BD46     		mov	sp, r7
 6791              	.LCFI525:
 6792              		.cfi_def_cfa_register 13
 6793              		@ sp needed
 6794 0080 5DF8047B 		ldr	r7, [sp], #4
 6795              	.LCFI526:
ARM GAS  /tmp/cc2zcHeL.s 			page 175


 6796              		.cfi_restore 7
 6797              		.cfi_def_cfa_offset 0
 6798 0084 7047     		bx	lr
 6799              		.cfi_endproc
 6800              	.LFE198:
 6802              		.section	.text.TI2_Config,"ax",%progbits
 6803              		.align	1
 6804              		.syntax unified
 6805              		.thumb
 6806              		.thumb_func
 6808              	TI2_Config:
 6809              	.LFB199:
3219:../Shared/Libraries/STM32F4xx_StdPeriph_Driver/src/stm32f4xx_tim.c **** 
3220:../Shared/Libraries/STM32F4xx_StdPeriph_Driver/src/stm32f4xx_tim.c **** /**
3221:../Shared/Libraries/STM32F4xx_StdPeriph_Driver/src/stm32f4xx_tim.c ****   * @brief  Configure the TI2 as Input.
3222:../Shared/Libraries/STM32F4xx_StdPeriph_Driver/src/stm32f4xx_tim.c ****   * @param  TIMx: where x can be 1, 2, 3, 4, 5, 8, 9 or 12 to select the TIM 
3223:../Shared/Libraries/STM32F4xx_StdPeriph_Driver/src/stm32f4xx_tim.c ****   *         peripheral.
3224:../Shared/Libraries/STM32F4xx_StdPeriph_Driver/src/stm32f4xx_tim.c ****   * @param  TIM_ICPolarity : The Input Polarity.
3225:../Shared/Libraries/STM32F4xx_StdPeriph_Driver/src/stm32f4xx_tim.c ****   *          This parameter can be one of the following values:
3226:../Shared/Libraries/STM32F4xx_StdPeriph_Driver/src/stm32f4xx_tim.c ****   *            @arg TIM_ICPolarity_Rising
3227:../Shared/Libraries/STM32F4xx_StdPeriph_Driver/src/stm32f4xx_tim.c ****   *            @arg TIM_ICPolarity_Falling
3228:../Shared/Libraries/STM32F4xx_StdPeriph_Driver/src/stm32f4xx_tim.c ****   *            @arg TIM_ICPolarity_BothEdge   
3229:../Shared/Libraries/STM32F4xx_StdPeriph_Driver/src/stm32f4xx_tim.c ****   * @param  TIM_ICSelection: specifies the input to be used.
3230:../Shared/Libraries/STM32F4xx_StdPeriph_Driver/src/stm32f4xx_tim.c ****   *          This parameter can be one of the following values:
3231:../Shared/Libraries/STM32F4xx_StdPeriph_Driver/src/stm32f4xx_tim.c ****   *            @arg TIM_ICSelection_DirectTI: TIM Input 2 is selected to be connected to IC2.
3232:../Shared/Libraries/STM32F4xx_StdPeriph_Driver/src/stm32f4xx_tim.c ****   *            @arg TIM_ICSelection_IndirectTI: TIM Input 2 is selected to be connected to IC1.
3233:../Shared/Libraries/STM32F4xx_StdPeriph_Driver/src/stm32f4xx_tim.c ****   *            @arg TIM_ICSelection_TRC: TIM Input 2 is selected to be connected to TRC.
3234:../Shared/Libraries/STM32F4xx_StdPeriph_Driver/src/stm32f4xx_tim.c ****   * @param  TIM_ICFilter: Specifies the Input Capture Filter.
3235:../Shared/Libraries/STM32F4xx_StdPeriph_Driver/src/stm32f4xx_tim.c ****   *          This parameter must be a value between 0x00 and 0x0F.
3236:../Shared/Libraries/STM32F4xx_StdPeriph_Driver/src/stm32f4xx_tim.c ****   * @retval None
3237:../Shared/Libraries/STM32F4xx_StdPeriph_Driver/src/stm32f4xx_tim.c ****   */
3238:../Shared/Libraries/STM32F4xx_StdPeriph_Driver/src/stm32f4xx_tim.c **** static void TI2_Config(TIM_TypeDef* TIMx, uint16_t TIM_ICPolarity, uint16_t TIM_ICSelection,
3239:../Shared/Libraries/STM32F4xx_StdPeriph_Driver/src/stm32f4xx_tim.c ****                        uint16_t TIM_ICFilter)
3240:../Shared/Libraries/STM32F4xx_StdPeriph_Driver/src/stm32f4xx_tim.c **** {
 6810              		.loc 1 3240 1
 6811              		.cfi_startproc
 6812              		@ args = 0, pretend = 0, frame = 24
 6813              		@ frame_needed = 1, uses_anonymous_args = 0
 6814              		@ link register save eliminated.
 6815 0000 80B4     		push	{r7}
 6816              	.LCFI527:
 6817              		.cfi_def_cfa_offset 4
 6818              		.cfi_offset 7, -4
 6819 0002 87B0     		sub	sp, sp, #28
 6820              	.LCFI528:
 6821              		.cfi_def_cfa_offset 32
 6822 0004 00AF     		add	r7, sp, #0
 6823              	.LCFI529:
 6824              		.cfi_def_cfa_register 7
 6825 0006 F860     		str	r0, [r7, #12]
 6826 0008 0846     		mov	r0, r1
 6827 000a 1146     		mov	r1, r2
 6828 000c 1A46     		mov	r2, r3
 6829 000e 0346     		mov	r3, r0	@ movhi
 6830 0010 7B81     		strh	r3, [r7, #10]	@ movhi
 6831 0012 0B46     		mov	r3, r1	@ movhi
 6832 0014 3B81     		strh	r3, [r7, #8]	@ movhi
ARM GAS  /tmp/cc2zcHeL.s 			page 176


 6833 0016 1346     		mov	r3, r2	@ movhi
 6834 0018 FB80     		strh	r3, [r7, #6]	@ movhi
3241:../Shared/Libraries/STM32F4xx_StdPeriph_Driver/src/stm32f4xx_tim.c ****   uint16_t tmpccmr1 = 0, tmpccer = 0, tmp = 0;
 6835              		.loc 1 3241 12
 6836 001a 0023     		movs	r3, #0
 6837 001c FB82     		strh	r3, [r7, #22]	@ movhi
 6838              		.loc 1 3241 26
 6839 001e 0023     		movs	r3, #0
 6840 0020 BB82     		strh	r3, [r7, #20]	@ movhi
 6841              		.loc 1 3241 39
 6842 0022 0023     		movs	r3, #0
 6843 0024 7B82     		strh	r3, [r7, #18]	@ movhi
3242:../Shared/Libraries/STM32F4xx_StdPeriph_Driver/src/stm32f4xx_tim.c **** 
3243:../Shared/Libraries/STM32F4xx_StdPeriph_Driver/src/stm32f4xx_tim.c ****   /* Disable the Channel 2: Reset the CC2E Bit */
3244:../Shared/Libraries/STM32F4xx_StdPeriph_Driver/src/stm32f4xx_tim.c ****   TIMx->CCER &= (uint16_t)~TIM_CCER_CC2E;
 6844              		.loc 1 3244 7
 6845 0026 FB68     		ldr	r3, [r7, #12]
 6846 0028 1B8C     		ldrh	r3, [r3, #32]	@ movhi
 6847 002a 9BB2     		uxth	r3, r3
 6848              		.loc 1 3244 14
 6849 002c 23F01003 		bic	r3, r3, #16
 6850 0030 9AB2     		uxth	r2, r3
 6851 0032 FB68     		ldr	r3, [r7, #12]
 6852 0034 1A84     		strh	r2, [r3, #32]	@ movhi
3245:../Shared/Libraries/STM32F4xx_StdPeriph_Driver/src/stm32f4xx_tim.c ****   tmpccmr1 = TIMx->CCMR1;
 6853              		.loc 1 3245 12
 6854 0036 FB68     		ldr	r3, [r7, #12]
 6855 0038 1B8B     		ldrh	r3, [r3, #24]	@ movhi
 6856 003a FB82     		strh	r3, [r7, #22]	@ movhi
3246:../Shared/Libraries/STM32F4xx_StdPeriph_Driver/src/stm32f4xx_tim.c ****   tmpccer = TIMx->CCER;
 6857              		.loc 1 3246 11
 6858 003c FB68     		ldr	r3, [r7, #12]
 6859 003e 1B8C     		ldrh	r3, [r3, #32]	@ movhi
 6860 0040 BB82     		strh	r3, [r7, #20]	@ movhi
3247:../Shared/Libraries/STM32F4xx_StdPeriph_Driver/src/stm32f4xx_tim.c ****   tmp = (uint16_t)(TIM_ICPolarity << 4);
 6861              		.loc 1 3247 7
 6862 0042 7B89     		ldrh	r3, [r7, #10]	@ movhi
 6863 0044 1B01     		lsls	r3, r3, #4
 6864 0046 7B82     		strh	r3, [r7, #18]	@ movhi
3248:../Shared/Libraries/STM32F4xx_StdPeriph_Driver/src/stm32f4xx_tim.c **** 
3249:../Shared/Libraries/STM32F4xx_StdPeriph_Driver/src/stm32f4xx_tim.c ****   /* Select the Input and set the filter */
3250:../Shared/Libraries/STM32F4xx_StdPeriph_Driver/src/stm32f4xx_tim.c ****   tmpccmr1 &= ((uint16_t)~TIM_CCMR1_CC2S) & ((uint16_t)~TIM_CCMR1_IC2F);
 6865              		.loc 1 3250 12
 6866 0048 FB8A     		ldrh	r3, [r7, #22]	@ movhi
 6867 004a 23F44073 		bic	r3, r3, #768
 6868 004e 1B05     		lsls	r3, r3, #20
 6869 0050 1B0D     		lsrs	r3, r3, #20
 6870 0052 FB82     		strh	r3, [r7, #22]	@ movhi
3251:../Shared/Libraries/STM32F4xx_StdPeriph_Driver/src/stm32f4xx_tim.c ****   tmpccmr1 |= (uint16_t)(TIM_ICFilter << 12);
 6871              		.loc 1 3251 15
 6872 0054 FB88     		ldrh	r3, [r7, #6]	@ movhi
 6873 0056 1B03     		lsls	r3, r3, #12
 6874 0058 9AB2     		uxth	r2, r3
 6875              		.loc 1 3251 12
 6876 005a FB8A     		ldrh	r3, [r7, #22]	@ movhi
 6877 005c 1343     		orrs	r3, r3, r2
 6878 005e FB82     		strh	r3, [r7, #22]	@ movhi
ARM GAS  /tmp/cc2zcHeL.s 			page 177


3252:../Shared/Libraries/STM32F4xx_StdPeriph_Driver/src/stm32f4xx_tim.c ****   tmpccmr1 |= (uint16_t)(TIM_ICSelection << 8);
 6879              		.loc 1 3252 15
 6880 0060 3B89     		ldrh	r3, [r7, #8]	@ movhi
 6881 0062 1B02     		lsls	r3, r3, #8
 6882 0064 9AB2     		uxth	r2, r3
 6883              		.loc 1 3252 12
 6884 0066 FB8A     		ldrh	r3, [r7, #22]	@ movhi
 6885 0068 1343     		orrs	r3, r3, r2
 6886 006a FB82     		strh	r3, [r7, #22]	@ movhi
3253:../Shared/Libraries/STM32F4xx_StdPeriph_Driver/src/stm32f4xx_tim.c **** 
3254:../Shared/Libraries/STM32F4xx_StdPeriph_Driver/src/stm32f4xx_tim.c ****   /* Select the Polarity and set the CC2E Bit */
3255:../Shared/Libraries/STM32F4xx_StdPeriph_Driver/src/stm32f4xx_tim.c ****   tmpccer &= (uint16_t)~(TIM_CCER_CC2P | TIM_CCER_CC2NP);
 6887              		.loc 1 3255 11
 6888 006c BB8A     		ldrh	r3, [r7, #20]	@ movhi
 6889 006e 23F0A003 		bic	r3, r3, #160
 6890 0072 BB82     		strh	r3, [r7, #20]	@ movhi
3256:../Shared/Libraries/STM32F4xx_StdPeriph_Driver/src/stm32f4xx_tim.c ****   tmpccer |=  (uint16_t)(tmp | (uint16_t)TIM_CCER_CC2E);
 6891              		.loc 1 3256 11
 6892 0074 7A8A     		ldrh	r2, [r7, #18]	@ movhi
 6893 0076 BB8A     		ldrh	r3, [r7, #20]	@ movhi
 6894 0078 1343     		orrs	r3, r3, r2
 6895 007a 9BB2     		uxth	r3, r3
 6896 007c 43F01003 		orr	r3, r3, #16
 6897 0080 BB82     		strh	r3, [r7, #20]	@ movhi
3257:../Shared/Libraries/STM32F4xx_StdPeriph_Driver/src/stm32f4xx_tim.c **** 
3258:../Shared/Libraries/STM32F4xx_StdPeriph_Driver/src/stm32f4xx_tim.c ****   /* Write to TIMx CCMR1 and CCER registers */
3259:../Shared/Libraries/STM32F4xx_StdPeriph_Driver/src/stm32f4xx_tim.c ****   TIMx->CCMR1 = tmpccmr1 ;
 6898              		.loc 1 3259 15
 6899 0082 FB68     		ldr	r3, [r7, #12]
 6900 0084 FA8A     		ldrh	r2, [r7, #22]	@ movhi
 6901 0086 1A83     		strh	r2, [r3, #24]	@ movhi
3260:../Shared/Libraries/STM32F4xx_StdPeriph_Driver/src/stm32f4xx_tim.c ****   TIMx->CCER = tmpccer;
 6902              		.loc 1 3260 14
 6903 0088 FB68     		ldr	r3, [r7, #12]
 6904 008a BA8A     		ldrh	r2, [r7, #20]	@ movhi
 6905 008c 1A84     		strh	r2, [r3, #32]	@ movhi
3261:../Shared/Libraries/STM32F4xx_StdPeriph_Driver/src/stm32f4xx_tim.c **** }
 6906              		.loc 1 3261 1
 6907 008e 00BF     		nop
 6908 0090 1C37     		adds	r7, r7, #28
 6909              	.LCFI530:
 6910              		.cfi_def_cfa_offset 4
 6911 0092 BD46     		mov	sp, r7
 6912              	.LCFI531:
 6913              		.cfi_def_cfa_register 13
 6914              		@ sp needed
 6915 0094 5DF8047B 		ldr	r7, [sp], #4
 6916              	.LCFI532:
 6917              		.cfi_restore 7
 6918              		.cfi_def_cfa_offset 0
 6919 0098 7047     		bx	lr
 6920              		.cfi_endproc
 6921              	.LFE199:
 6923              		.section	.text.TI3_Config,"ax",%progbits
 6924              		.align	1
 6925              		.syntax unified
 6926              		.thumb
ARM GAS  /tmp/cc2zcHeL.s 			page 178


 6927              		.thumb_func
 6929              	TI3_Config:
 6930              	.LFB200:
3262:../Shared/Libraries/STM32F4xx_StdPeriph_Driver/src/stm32f4xx_tim.c **** 
3263:../Shared/Libraries/STM32F4xx_StdPeriph_Driver/src/stm32f4xx_tim.c **** /**
3264:../Shared/Libraries/STM32F4xx_StdPeriph_Driver/src/stm32f4xx_tim.c ****   * @brief  Configure the TI3 as Input.
3265:../Shared/Libraries/STM32F4xx_StdPeriph_Driver/src/stm32f4xx_tim.c ****   * @param  TIMx: where x can be 1, 2, 3, 4, 5 or 8 to select the TIM peripheral.
3266:../Shared/Libraries/STM32F4xx_StdPeriph_Driver/src/stm32f4xx_tim.c ****   * @param  TIM_ICPolarity : The Input Polarity.
3267:../Shared/Libraries/STM32F4xx_StdPeriph_Driver/src/stm32f4xx_tim.c ****   *          This parameter can be one of the following values:
3268:../Shared/Libraries/STM32F4xx_StdPeriph_Driver/src/stm32f4xx_tim.c ****   *            @arg TIM_ICPolarity_Rising
3269:../Shared/Libraries/STM32F4xx_StdPeriph_Driver/src/stm32f4xx_tim.c ****   *            @arg TIM_ICPolarity_Falling
3270:../Shared/Libraries/STM32F4xx_StdPeriph_Driver/src/stm32f4xx_tim.c ****   *            @arg TIM_ICPolarity_BothEdge         
3271:../Shared/Libraries/STM32F4xx_StdPeriph_Driver/src/stm32f4xx_tim.c ****   * @param  TIM_ICSelection: specifies the input to be used.
3272:../Shared/Libraries/STM32F4xx_StdPeriph_Driver/src/stm32f4xx_tim.c ****   *          This parameter can be one of the following values:
3273:../Shared/Libraries/STM32F4xx_StdPeriph_Driver/src/stm32f4xx_tim.c ****   *            @arg TIM_ICSelection_DirectTI: TIM Input 3 is selected to be connected to IC3.
3274:../Shared/Libraries/STM32F4xx_StdPeriph_Driver/src/stm32f4xx_tim.c ****   *            @arg TIM_ICSelection_IndirectTI: TIM Input 3 is selected to be connected to IC4.
3275:../Shared/Libraries/STM32F4xx_StdPeriph_Driver/src/stm32f4xx_tim.c ****   *            @arg TIM_ICSelection_TRC: TIM Input 3 is selected to be connected to TRC.
3276:../Shared/Libraries/STM32F4xx_StdPeriph_Driver/src/stm32f4xx_tim.c ****   * @param  TIM_ICFilter: Specifies the Input Capture Filter.
3277:../Shared/Libraries/STM32F4xx_StdPeriph_Driver/src/stm32f4xx_tim.c ****   *          This parameter must be a value between 0x00 and 0x0F.
3278:../Shared/Libraries/STM32F4xx_StdPeriph_Driver/src/stm32f4xx_tim.c ****   * @retval None
3279:../Shared/Libraries/STM32F4xx_StdPeriph_Driver/src/stm32f4xx_tim.c ****   */
3280:../Shared/Libraries/STM32F4xx_StdPeriph_Driver/src/stm32f4xx_tim.c **** static void TI3_Config(TIM_TypeDef* TIMx, uint16_t TIM_ICPolarity, uint16_t TIM_ICSelection,
3281:../Shared/Libraries/STM32F4xx_StdPeriph_Driver/src/stm32f4xx_tim.c ****                        uint16_t TIM_ICFilter)
3282:../Shared/Libraries/STM32F4xx_StdPeriph_Driver/src/stm32f4xx_tim.c **** {
 6931              		.loc 1 3282 1
 6932              		.cfi_startproc
 6933              		@ args = 0, pretend = 0, frame = 24
 6934              		@ frame_needed = 1, uses_anonymous_args = 0
 6935              		@ link register save eliminated.
 6936 0000 80B4     		push	{r7}
 6937              	.LCFI533:
 6938              		.cfi_def_cfa_offset 4
 6939              		.cfi_offset 7, -4
 6940 0002 87B0     		sub	sp, sp, #28
 6941              	.LCFI534:
 6942              		.cfi_def_cfa_offset 32
 6943 0004 00AF     		add	r7, sp, #0
 6944              	.LCFI535:
 6945              		.cfi_def_cfa_register 7
 6946 0006 F860     		str	r0, [r7, #12]
 6947 0008 0846     		mov	r0, r1
 6948 000a 1146     		mov	r1, r2
 6949 000c 1A46     		mov	r2, r3
 6950 000e 0346     		mov	r3, r0	@ movhi
 6951 0010 7B81     		strh	r3, [r7, #10]	@ movhi
 6952 0012 0B46     		mov	r3, r1	@ movhi
 6953 0014 3B81     		strh	r3, [r7, #8]	@ movhi
 6954 0016 1346     		mov	r3, r2	@ movhi
 6955 0018 FB80     		strh	r3, [r7, #6]	@ movhi
3283:../Shared/Libraries/STM32F4xx_StdPeriph_Driver/src/stm32f4xx_tim.c ****   uint16_t tmpccmr2 = 0, tmpccer = 0, tmp = 0;
 6956              		.loc 1 3283 12
 6957 001a 0023     		movs	r3, #0
 6958 001c FB82     		strh	r3, [r7, #22]	@ movhi
 6959              		.loc 1 3283 26
 6960 001e 0023     		movs	r3, #0
 6961 0020 BB82     		strh	r3, [r7, #20]	@ movhi
 6962              		.loc 1 3283 39
ARM GAS  /tmp/cc2zcHeL.s 			page 179


 6963 0022 0023     		movs	r3, #0
 6964 0024 7B82     		strh	r3, [r7, #18]	@ movhi
3284:../Shared/Libraries/STM32F4xx_StdPeriph_Driver/src/stm32f4xx_tim.c **** 
3285:../Shared/Libraries/STM32F4xx_StdPeriph_Driver/src/stm32f4xx_tim.c ****   /* Disable the Channel 3: Reset the CC3E Bit */
3286:../Shared/Libraries/STM32F4xx_StdPeriph_Driver/src/stm32f4xx_tim.c ****   TIMx->CCER &= (uint16_t)~TIM_CCER_CC3E;
 6965              		.loc 1 3286 7
 6966 0026 FB68     		ldr	r3, [r7, #12]
 6967 0028 1B8C     		ldrh	r3, [r3, #32]	@ movhi
 6968 002a 9BB2     		uxth	r3, r3
 6969              		.loc 1 3286 14
 6970 002c 23F48073 		bic	r3, r3, #256
 6971 0030 9AB2     		uxth	r2, r3
 6972 0032 FB68     		ldr	r3, [r7, #12]
 6973 0034 1A84     		strh	r2, [r3, #32]	@ movhi
3287:../Shared/Libraries/STM32F4xx_StdPeriph_Driver/src/stm32f4xx_tim.c ****   tmpccmr2 = TIMx->CCMR2;
 6974              		.loc 1 3287 12
 6975 0036 FB68     		ldr	r3, [r7, #12]
 6976 0038 9B8B     		ldrh	r3, [r3, #28]	@ movhi
 6977 003a FB82     		strh	r3, [r7, #22]	@ movhi
3288:../Shared/Libraries/STM32F4xx_StdPeriph_Driver/src/stm32f4xx_tim.c ****   tmpccer = TIMx->CCER;
 6978              		.loc 1 3288 11
 6979 003c FB68     		ldr	r3, [r7, #12]
 6980 003e 1B8C     		ldrh	r3, [r3, #32]	@ movhi
 6981 0040 BB82     		strh	r3, [r7, #20]	@ movhi
3289:../Shared/Libraries/STM32F4xx_StdPeriph_Driver/src/stm32f4xx_tim.c ****   tmp = (uint16_t)(TIM_ICPolarity << 8);
 6982              		.loc 1 3289 7
 6983 0042 7B89     		ldrh	r3, [r7, #10]	@ movhi
 6984 0044 1B02     		lsls	r3, r3, #8
 6985 0046 7B82     		strh	r3, [r7, #18]	@ movhi
3290:../Shared/Libraries/STM32F4xx_StdPeriph_Driver/src/stm32f4xx_tim.c **** 
3291:../Shared/Libraries/STM32F4xx_StdPeriph_Driver/src/stm32f4xx_tim.c ****   /* Select the Input and set the filter */
3292:../Shared/Libraries/STM32F4xx_StdPeriph_Driver/src/stm32f4xx_tim.c ****   tmpccmr2 &= ((uint16_t)~TIM_CCMR1_CC1S) & ((uint16_t)~TIM_CCMR2_IC3F);
 6986              		.loc 1 3292 12
 6987 0048 FB8A     		ldrh	r3, [r7, #22]	@ movhi
 6988 004a 23F0F303 		bic	r3, r3, #243
 6989 004e FB82     		strh	r3, [r7, #22]	@ movhi
3293:../Shared/Libraries/STM32F4xx_StdPeriph_Driver/src/stm32f4xx_tim.c ****   tmpccmr2 |= (uint16_t)(TIM_ICSelection | (uint16_t)(TIM_ICFilter << (uint16_t)4));
 6990              		.loc 1 3293 44
 6991 0050 FB88     		ldrh	r3, [r7, #6]	@ movhi
 6992 0052 1B01     		lsls	r3, r3, #4
 6993 0054 9AB2     		uxth	r2, r3
 6994              		.loc 1 3293 15
 6995 0056 3B89     		ldrh	r3, [r7, #8]	@ movhi
 6996 0058 1343     		orrs	r3, r3, r2
 6997 005a 9AB2     		uxth	r2, r3
 6998              		.loc 1 3293 12
 6999 005c FB8A     		ldrh	r3, [r7, #22]	@ movhi
 7000 005e 1343     		orrs	r3, r3, r2
 7001 0060 FB82     		strh	r3, [r7, #22]	@ movhi
3294:../Shared/Libraries/STM32F4xx_StdPeriph_Driver/src/stm32f4xx_tim.c **** 
3295:../Shared/Libraries/STM32F4xx_StdPeriph_Driver/src/stm32f4xx_tim.c ****   /* Select the Polarity and set the CC3E Bit */
3296:../Shared/Libraries/STM32F4xx_StdPeriph_Driver/src/stm32f4xx_tim.c ****   tmpccer &= (uint16_t)~(TIM_CCER_CC3P | TIM_CCER_CC3NP);
 7002              		.loc 1 3296 11
 7003 0062 BB8A     		ldrh	r3, [r7, #20]	@ movhi
 7004 0064 23F42063 		bic	r3, r3, #2560
 7005 0068 BB82     		strh	r3, [r7, #20]	@ movhi
3297:../Shared/Libraries/STM32F4xx_StdPeriph_Driver/src/stm32f4xx_tim.c ****   tmpccer |= (uint16_t)(tmp | (uint16_t)TIM_CCER_CC3E);
ARM GAS  /tmp/cc2zcHeL.s 			page 180


 7006              		.loc 1 3297 11
 7007 006a 7A8A     		ldrh	r2, [r7, #18]	@ movhi
 7008 006c BB8A     		ldrh	r3, [r7, #20]	@ movhi
 7009 006e 1343     		orrs	r3, r3, r2
 7010 0070 9BB2     		uxth	r3, r3
 7011 0072 43F48073 		orr	r3, r3, #256
 7012 0076 BB82     		strh	r3, [r7, #20]	@ movhi
3298:../Shared/Libraries/STM32F4xx_StdPeriph_Driver/src/stm32f4xx_tim.c **** 
3299:../Shared/Libraries/STM32F4xx_StdPeriph_Driver/src/stm32f4xx_tim.c ****   /* Write to TIMx CCMR2 and CCER registers */
3300:../Shared/Libraries/STM32F4xx_StdPeriph_Driver/src/stm32f4xx_tim.c ****   TIMx->CCMR2 = tmpccmr2;
 7013              		.loc 1 3300 15
 7014 0078 FB68     		ldr	r3, [r7, #12]
 7015 007a FA8A     		ldrh	r2, [r7, #22]	@ movhi
 7016 007c 9A83     		strh	r2, [r3, #28]	@ movhi
3301:../Shared/Libraries/STM32F4xx_StdPeriph_Driver/src/stm32f4xx_tim.c ****   TIMx->CCER = tmpccer;
 7017              		.loc 1 3301 14
 7018 007e FB68     		ldr	r3, [r7, #12]
 7019 0080 BA8A     		ldrh	r2, [r7, #20]	@ movhi
 7020 0082 1A84     		strh	r2, [r3, #32]	@ movhi
3302:../Shared/Libraries/STM32F4xx_StdPeriph_Driver/src/stm32f4xx_tim.c **** }
 7021              		.loc 1 3302 1
 7022 0084 00BF     		nop
 7023 0086 1C37     		adds	r7, r7, #28
 7024              	.LCFI536:
 7025              		.cfi_def_cfa_offset 4
 7026 0088 BD46     		mov	sp, r7
 7027              	.LCFI537:
 7028              		.cfi_def_cfa_register 13
 7029              		@ sp needed
 7030 008a 5DF8047B 		ldr	r7, [sp], #4
 7031              	.LCFI538:
 7032              		.cfi_restore 7
 7033              		.cfi_def_cfa_offset 0
 7034 008e 7047     		bx	lr
 7035              		.cfi_endproc
 7036              	.LFE200:
 7038              		.section	.text.TI4_Config,"ax",%progbits
 7039              		.align	1
 7040              		.syntax unified
 7041              		.thumb
 7042              		.thumb_func
 7044              	TI4_Config:
 7045              	.LFB201:
3303:../Shared/Libraries/STM32F4xx_StdPeriph_Driver/src/stm32f4xx_tim.c **** 
3304:../Shared/Libraries/STM32F4xx_StdPeriph_Driver/src/stm32f4xx_tim.c **** /**
3305:../Shared/Libraries/STM32F4xx_StdPeriph_Driver/src/stm32f4xx_tim.c ****   * @brief  Configure the TI4 as Input.
3306:../Shared/Libraries/STM32F4xx_StdPeriph_Driver/src/stm32f4xx_tim.c ****   * @param  TIMx: where x can be 1, 2, 3, 4, 5 or 8 to select the TIM peripheral.
3307:../Shared/Libraries/STM32F4xx_StdPeriph_Driver/src/stm32f4xx_tim.c ****   * @param  TIM_ICPolarity : The Input Polarity.
3308:../Shared/Libraries/STM32F4xx_StdPeriph_Driver/src/stm32f4xx_tim.c ****   *          This parameter can be one of the following values:
3309:../Shared/Libraries/STM32F4xx_StdPeriph_Driver/src/stm32f4xx_tim.c ****   *            @arg TIM_ICPolarity_Rising
3310:../Shared/Libraries/STM32F4xx_StdPeriph_Driver/src/stm32f4xx_tim.c ****   *            @arg TIM_ICPolarity_Falling
3311:../Shared/Libraries/STM32F4xx_StdPeriph_Driver/src/stm32f4xx_tim.c ****   *            @arg TIM_ICPolarity_BothEdge     
3312:../Shared/Libraries/STM32F4xx_StdPeriph_Driver/src/stm32f4xx_tim.c ****   * @param  TIM_ICSelection: specifies the input to be used.
3313:../Shared/Libraries/STM32F4xx_StdPeriph_Driver/src/stm32f4xx_tim.c ****   *          This parameter can be one of the following values:
3314:../Shared/Libraries/STM32F4xx_StdPeriph_Driver/src/stm32f4xx_tim.c ****   *            @arg TIM_ICSelection_DirectTI: TIM Input 4 is selected to be connected to IC4.
3315:../Shared/Libraries/STM32F4xx_StdPeriph_Driver/src/stm32f4xx_tim.c ****   *            @arg TIM_ICSelection_IndirectTI: TIM Input 4 is selected to be connected to IC3.
3316:../Shared/Libraries/STM32F4xx_StdPeriph_Driver/src/stm32f4xx_tim.c ****   *            @arg TIM_ICSelection_TRC: TIM Input 4 is selected to be connected to TRC.
ARM GAS  /tmp/cc2zcHeL.s 			page 181


3317:../Shared/Libraries/STM32F4xx_StdPeriph_Driver/src/stm32f4xx_tim.c ****   * @param  TIM_ICFilter: Specifies the Input Capture Filter.
3318:../Shared/Libraries/STM32F4xx_StdPeriph_Driver/src/stm32f4xx_tim.c ****   *          This parameter must be a value between 0x00 and 0x0F.
3319:../Shared/Libraries/STM32F4xx_StdPeriph_Driver/src/stm32f4xx_tim.c ****   * @retval None
3320:../Shared/Libraries/STM32F4xx_StdPeriph_Driver/src/stm32f4xx_tim.c ****   */
3321:../Shared/Libraries/STM32F4xx_StdPeriph_Driver/src/stm32f4xx_tim.c **** static void TI4_Config(TIM_TypeDef* TIMx, uint16_t TIM_ICPolarity, uint16_t TIM_ICSelection,
3322:../Shared/Libraries/STM32F4xx_StdPeriph_Driver/src/stm32f4xx_tim.c ****                        uint16_t TIM_ICFilter)
3323:../Shared/Libraries/STM32F4xx_StdPeriph_Driver/src/stm32f4xx_tim.c **** {
 7046              		.loc 1 3323 1
 7047              		.cfi_startproc
 7048              		@ args = 0, pretend = 0, frame = 24
 7049              		@ frame_needed = 1, uses_anonymous_args = 0
 7050              		@ link register save eliminated.
 7051 0000 80B4     		push	{r7}
 7052              	.LCFI539:
 7053              		.cfi_def_cfa_offset 4
 7054              		.cfi_offset 7, -4
 7055 0002 87B0     		sub	sp, sp, #28
 7056              	.LCFI540:
 7057              		.cfi_def_cfa_offset 32
 7058 0004 00AF     		add	r7, sp, #0
 7059              	.LCFI541:
 7060              		.cfi_def_cfa_register 7
 7061 0006 F860     		str	r0, [r7, #12]
 7062 0008 0846     		mov	r0, r1
 7063 000a 1146     		mov	r1, r2
 7064 000c 1A46     		mov	r2, r3
 7065 000e 0346     		mov	r3, r0	@ movhi
 7066 0010 7B81     		strh	r3, [r7, #10]	@ movhi
 7067 0012 0B46     		mov	r3, r1	@ movhi
 7068 0014 3B81     		strh	r3, [r7, #8]	@ movhi
 7069 0016 1346     		mov	r3, r2	@ movhi
 7070 0018 FB80     		strh	r3, [r7, #6]	@ movhi
3324:../Shared/Libraries/STM32F4xx_StdPeriph_Driver/src/stm32f4xx_tim.c ****   uint16_t tmpccmr2 = 0, tmpccer = 0, tmp = 0;
 7071              		.loc 1 3324 12
 7072 001a 0023     		movs	r3, #0
 7073 001c FB82     		strh	r3, [r7, #22]	@ movhi
 7074              		.loc 1 3324 26
 7075 001e 0023     		movs	r3, #0
 7076 0020 BB82     		strh	r3, [r7, #20]	@ movhi
 7077              		.loc 1 3324 39
 7078 0022 0023     		movs	r3, #0
 7079 0024 7B82     		strh	r3, [r7, #18]	@ movhi
3325:../Shared/Libraries/STM32F4xx_StdPeriph_Driver/src/stm32f4xx_tim.c **** 
3326:../Shared/Libraries/STM32F4xx_StdPeriph_Driver/src/stm32f4xx_tim.c ****   /* Disable the Channel 4: Reset the CC4E Bit */
3327:../Shared/Libraries/STM32F4xx_StdPeriph_Driver/src/stm32f4xx_tim.c ****   TIMx->CCER &= (uint16_t)~TIM_CCER_CC4E;
 7080              		.loc 1 3327 7
 7081 0026 FB68     		ldr	r3, [r7, #12]
 7082 0028 1B8C     		ldrh	r3, [r3, #32]	@ movhi
 7083 002a 9BB2     		uxth	r3, r3
 7084              		.loc 1 3327 14
 7085 002c 23F48053 		bic	r3, r3, #4096
 7086 0030 9AB2     		uxth	r2, r3
 7087 0032 FB68     		ldr	r3, [r7, #12]
 7088 0034 1A84     		strh	r2, [r3, #32]	@ movhi
3328:../Shared/Libraries/STM32F4xx_StdPeriph_Driver/src/stm32f4xx_tim.c ****   tmpccmr2 = TIMx->CCMR2;
 7089              		.loc 1 3328 12
 7090 0036 FB68     		ldr	r3, [r7, #12]
ARM GAS  /tmp/cc2zcHeL.s 			page 182


 7091 0038 9B8B     		ldrh	r3, [r3, #28]	@ movhi
 7092 003a FB82     		strh	r3, [r7, #22]	@ movhi
3329:../Shared/Libraries/STM32F4xx_StdPeriph_Driver/src/stm32f4xx_tim.c ****   tmpccer = TIMx->CCER;
 7093              		.loc 1 3329 11
 7094 003c FB68     		ldr	r3, [r7, #12]
 7095 003e 1B8C     		ldrh	r3, [r3, #32]	@ movhi
 7096 0040 BB82     		strh	r3, [r7, #20]	@ movhi
3330:../Shared/Libraries/STM32F4xx_StdPeriph_Driver/src/stm32f4xx_tim.c ****   tmp = (uint16_t)(TIM_ICPolarity << 12);
 7097              		.loc 1 3330 7
 7098 0042 7B89     		ldrh	r3, [r7, #10]	@ movhi
 7099 0044 1B03     		lsls	r3, r3, #12
 7100 0046 7B82     		strh	r3, [r7, #18]	@ movhi
3331:../Shared/Libraries/STM32F4xx_StdPeriph_Driver/src/stm32f4xx_tim.c **** 
3332:../Shared/Libraries/STM32F4xx_StdPeriph_Driver/src/stm32f4xx_tim.c ****   /* Select the Input and set the filter */
3333:../Shared/Libraries/STM32F4xx_StdPeriph_Driver/src/stm32f4xx_tim.c ****   tmpccmr2 &= ((uint16_t)~TIM_CCMR1_CC2S) & ((uint16_t)~TIM_CCMR1_IC2F);
 7101              		.loc 1 3333 12
 7102 0048 FB8A     		ldrh	r3, [r7, #22]	@ movhi
 7103 004a 23F44073 		bic	r3, r3, #768
 7104 004e 1B05     		lsls	r3, r3, #20
 7105 0050 1B0D     		lsrs	r3, r3, #20
 7106 0052 FB82     		strh	r3, [r7, #22]	@ movhi
3334:../Shared/Libraries/STM32F4xx_StdPeriph_Driver/src/stm32f4xx_tim.c ****   tmpccmr2 |= (uint16_t)(TIM_ICSelection << 8);
 7107              		.loc 1 3334 15
 7108 0054 3B89     		ldrh	r3, [r7, #8]	@ movhi
 7109 0056 1B02     		lsls	r3, r3, #8
 7110 0058 9AB2     		uxth	r2, r3
 7111              		.loc 1 3334 12
 7112 005a FB8A     		ldrh	r3, [r7, #22]	@ movhi
 7113 005c 1343     		orrs	r3, r3, r2
 7114 005e FB82     		strh	r3, [r7, #22]	@ movhi
3335:../Shared/Libraries/STM32F4xx_StdPeriph_Driver/src/stm32f4xx_tim.c ****   tmpccmr2 |= (uint16_t)(TIM_ICFilter << 12);
 7115              		.loc 1 3335 15
 7116 0060 FB88     		ldrh	r3, [r7, #6]	@ movhi
 7117 0062 1B03     		lsls	r3, r3, #12
 7118 0064 9AB2     		uxth	r2, r3
 7119              		.loc 1 3335 12
 7120 0066 FB8A     		ldrh	r3, [r7, #22]	@ movhi
 7121 0068 1343     		orrs	r3, r3, r2
 7122 006a FB82     		strh	r3, [r7, #22]	@ movhi
3336:../Shared/Libraries/STM32F4xx_StdPeriph_Driver/src/stm32f4xx_tim.c **** 
3337:../Shared/Libraries/STM32F4xx_StdPeriph_Driver/src/stm32f4xx_tim.c ****   /* Select the Polarity and set the CC4E Bit */
3338:../Shared/Libraries/STM32F4xx_StdPeriph_Driver/src/stm32f4xx_tim.c ****   tmpccer &= (uint16_t)~(TIM_CCER_CC4P | TIM_CCER_CC4NP);
 7123              		.loc 1 3338 11
 7124 006c BB8A     		ldrh	r3, [r7, #20]	@ movhi
 7125 006e 23F40053 		bic	r3, r3, #8192
 7126 0072 5B04     		lsls	r3, r3, #17
 7127 0074 5B0C     		lsrs	r3, r3, #17
 7128 0076 BB82     		strh	r3, [r7, #20]	@ movhi
3339:../Shared/Libraries/STM32F4xx_StdPeriph_Driver/src/stm32f4xx_tim.c ****   tmpccer |= (uint16_t)(tmp | (uint16_t)TIM_CCER_CC4E);
 7129              		.loc 1 3339 11
 7130 0078 7A8A     		ldrh	r2, [r7, #18]	@ movhi
 7131 007a BB8A     		ldrh	r3, [r7, #20]	@ movhi
 7132 007c 1343     		orrs	r3, r3, r2
 7133 007e 9BB2     		uxth	r3, r3
 7134 0080 43F48053 		orr	r3, r3, #4096
 7135 0084 BB82     		strh	r3, [r7, #20]	@ movhi
3340:../Shared/Libraries/STM32F4xx_StdPeriph_Driver/src/stm32f4xx_tim.c **** 
ARM GAS  /tmp/cc2zcHeL.s 			page 183


3341:../Shared/Libraries/STM32F4xx_StdPeriph_Driver/src/stm32f4xx_tim.c ****   /* Write to TIMx CCMR2 and CCER registers */
3342:../Shared/Libraries/STM32F4xx_StdPeriph_Driver/src/stm32f4xx_tim.c ****   TIMx->CCMR2 = tmpccmr2;
 7136              		.loc 1 3342 15
 7137 0086 FB68     		ldr	r3, [r7, #12]
 7138 0088 FA8A     		ldrh	r2, [r7, #22]	@ movhi
 7139 008a 9A83     		strh	r2, [r3, #28]	@ movhi
3343:../Shared/Libraries/STM32F4xx_StdPeriph_Driver/src/stm32f4xx_tim.c ****   TIMx->CCER = tmpccer ;
 7140              		.loc 1 3343 14
 7141 008c FB68     		ldr	r3, [r7, #12]
 7142 008e BA8A     		ldrh	r2, [r7, #20]	@ movhi
 7143 0090 1A84     		strh	r2, [r3, #32]	@ movhi
3344:../Shared/Libraries/STM32F4xx_StdPeriph_Driver/src/stm32f4xx_tim.c **** }
 7144              		.loc 1 3344 1
 7145 0092 00BF     		nop
 7146 0094 1C37     		adds	r7, r7, #28
 7147              	.LCFI542:
 7148              		.cfi_def_cfa_offset 4
 7149 0096 BD46     		mov	sp, r7
 7150              	.LCFI543:
 7151              		.cfi_def_cfa_register 13
 7152              		@ sp needed
 7153 0098 5DF8047B 		ldr	r7, [sp], #4
 7154              	.LCFI544:
 7155              		.cfi_restore 7
 7156              		.cfi_def_cfa_offset 0
 7157 009c 7047     		bx	lr
 7158              		.cfi_endproc
 7159              	.LFE201:
 7161              		.text
 7162              	.Letext0:
 7163              		.file 2 "/usr/arm-none-eabi/include/machine/_default_types.h"
 7164              		.file 3 "/usr/arm-none-eabi/include/sys/_stdint.h"
 7165              		.file 4 "../Shared/Libraries/CMSIS/Device/ST/STM32F4xx/Include/stm32f4xx.h"
 7166              		.file 5 "../Shared/Libraries/STM32F4xx_StdPeriph_Driver/inc/stm32f4xx_tim.h"
 7167              		.file 6 "../Shared/Libraries/STM32F4xx_StdPeriph_Driver/inc/stm32f4xx_rcc.h"
ARM GAS  /tmp/cc2zcHeL.s 			page 184


DEFINED SYMBOLS
                            *ABS*:00000000 stm32f4xx_tim.c
     /tmp/cc2zcHeL.s:21     .text.TIM_DeInit:00000000 $t
     /tmp/cc2zcHeL.s:27     .text.TIM_DeInit:00000000 TIM_DeInit
     /tmp/cc2zcHeL.s:279    .text.TIM_DeInit:0000018c $d
     /tmp/cc2zcHeL.s:296    .text.TIM_TimeBaseInit:00000000 $t
     /tmp/cc2zcHeL.s:302    .text.TIM_TimeBaseInit:00000000 TIM_TimeBaseInit
     /tmp/cc2zcHeL.s:448    .text.TIM_TimeBaseInit:000000bc $d
     /tmp/cc2zcHeL.s:459    .text.TIM_TimeBaseStructInit:00000000 $t
     /tmp/cc2zcHeL.s:465    .text.TIM_TimeBaseStructInit:00000000 TIM_TimeBaseStructInit
     /tmp/cc2zcHeL.s:521    .text.TIM_PrescalerConfig:00000000 $t
     /tmp/cc2zcHeL.s:527    .text.TIM_PrescalerConfig:00000000 TIM_PrescalerConfig
     /tmp/cc2zcHeL.s:575    .text.TIM_CounterModeConfig:00000000 $t
     /tmp/cc2zcHeL.s:581    .text.TIM_CounterModeConfig:00000000 TIM_CounterModeConfig
     /tmp/cc2zcHeL.s:639    .text.TIM_SetCounter:00000000 $t
     /tmp/cc2zcHeL.s:645    .text.TIM_SetCounter:00000000 TIM_SetCounter
     /tmp/cc2zcHeL.s:686    .text.TIM_SetAutoreload:00000000 $t
     /tmp/cc2zcHeL.s:692    .text.TIM_SetAutoreload:00000000 TIM_SetAutoreload
     /tmp/cc2zcHeL.s:733    .text.TIM_GetCounter:00000000 $t
     /tmp/cc2zcHeL.s:739    .text.TIM_GetCounter:00000000 TIM_GetCounter
     /tmp/cc2zcHeL.s:778    .text.TIM_GetPrescaler:00000000 $t
     /tmp/cc2zcHeL.s:784    .text.TIM_GetPrescaler:00000000 TIM_GetPrescaler
     /tmp/cc2zcHeL.s:824    .text.TIM_UpdateDisableConfig:00000000 $t
     /tmp/cc2zcHeL.s:830    .text.TIM_UpdateDisableConfig:00000000 TIM_UpdateDisableConfig
     /tmp/cc2zcHeL.s:894    .text.TIM_UpdateRequestConfig:00000000 $t
     /tmp/cc2zcHeL.s:900    .text.TIM_UpdateRequestConfig:00000000 TIM_UpdateRequestConfig
     /tmp/cc2zcHeL.s:964    .text.TIM_ARRPreloadConfig:00000000 $t
     /tmp/cc2zcHeL.s:970    .text.TIM_ARRPreloadConfig:00000000 TIM_ARRPreloadConfig
     /tmp/cc2zcHeL.s:1034   .text.TIM_SelectOnePulseMode:00000000 $t
     /tmp/cc2zcHeL.s:1040   .text.TIM_SelectOnePulseMode:00000000 TIM_SelectOnePulseMode
     /tmp/cc2zcHeL.s:1097   .text.TIM_SetClockDivision:00000000 $t
     /tmp/cc2zcHeL.s:1103   .text.TIM_SetClockDivision:00000000 TIM_SetClockDivision
     /tmp/cc2zcHeL.s:1160   .text.TIM_Cmd:00000000 $t
     /tmp/cc2zcHeL.s:1166   .text.TIM_Cmd:00000000 TIM_Cmd
     /tmp/cc2zcHeL.s:1230   .text.TIM_OC1Init:00000000 $t
     /tmp/cc2zcHeL.s:1236   .text.TIM_OC1Init:00000000 TIM_OC1Init
     /tmp/cc2zcHeL.s:1409   .text.TIM_OC1Init:000000ec $d
     /tmp/cc2zcHeL.s:1415   .text.TIM_OC2Init:00000000 $t
     /tmp/cc2zcHeL.s:1421   .text.TIM_OC2Init:00000000 TIM_OC2Init
     /tmp/cc2zcHeL.s:1615   .text.TIM_OC2Init:00000108 $d
     /tmp/cc2zcHeL.s:1621   .text.TIM_OC3Init:00000000 $t
     /tmp/cc2zcHeL.s:1627   .text.TIM_OC3Init:00000000 TIM_OC3Init
     /tmp/cc2zcHeL.s:1818   .text.TIM_OC3Init:00000104 $d
     /tmp/cc2zcHeL.s:1824   .text.TIM_OC4Init:00000000 $t
     /tmp/cc2zcHeL.s:1830   .text.TIM_OC4Init:00000000 TIM_OC4Init
     /tmp/cc2zcHeL.s:1982   .text.TIM_OC4Init:000000c8 $d
     /tmp/cc2zcHeL.s:1988   .text.TIM_OCStructInit:00000000 $t
     /tmp/cc2zcHeL.s:1994   .text.TIM_OCStructInit:00000000 TIM_OCStructInit
     /tmp/cc2zcHeL.s:2062   .text.TIM_SelectOCxM:00000000 $t
     /tmp/cc2zcHeL.s:2068   .text.TIM_SelectOCxM:00000000 TIM_SelectOCxM
     /tmp/cc2zcHeL.s:2214   .text.TIM_SetCompare1:00000000 $t
     /tmp/cc2zcHeL.s:2220   .text.TIM_SetCompare1:00000000 TIM_SetCompare1
     /tmp/cc2zcHeL.s:2261   .text.TIM_SetCompare2:00000000 $t
     /tmp/cc2zcHeL.s:2267   .text.TIM_SetCompare2:00000000 TIM_SetCompare2
     /tmp/cc2zcHeL.s:2308   .text.TIM_SetCompare3:00000000 $t
     /tmp/cc2zcHeL.s:2314   .text.TIM_SetCompare3:00000000 TIM_SetCompare3
     /tmp/cc2zcHeL.s:2355   .text.TIM_SetCompare4:00000000 $t
ARM GAS  /tmp/cc2zcHeL.s 			page 185


     /tmp/cc2zcHeL.s:2361   .text.TIM_SetCompare4:00000000 TIM_SetCompare4
     /tmp/cc2zcHeL.s:2402   .text.TIM_ForcedOC1Config:00000000 $t
     /tmp/cc2zcHeL.s:2408   .text.TIM_ForcedOC1Config:00000000 TIM_ForcedOC1Config
     /tmp/cc2zcHeL.s:2466   .text.TIM_ForcedOC2Config:00000000 $t
     /tmp/cc2zcHeL.s:2472   .text.TIM_ForcedOC2Config:00000000 TIM_ForcedOC2Config
     /tmp/cc2zcHeL.s:2533   .text.TIM_ForcedOC3Config:00000000 $t
     /tmp/cc2zcHeL.s:2539   .text.TIM_ForcedOC3Config:00000000 TIM_ForcedOC3Config
     /tmp/cc2zcHeL.s:2597   .text.TIM_ForcedOC4Config:00000000 $t
     /tmp/cc2zcHeL.s:2603   .text.TIM_ForcedOC4Config:00000000 TIM_ForcedOC4Config
     /tmp/cc2zcHeL.s:2664   .text.TIM_OC1PreloadConfig:00000000 $t
     /tmp/cc2zcHeL.s:2670   .text.TIM_OC1PreloadConfig:00000000 TIM_OC1PreloadConfig
     /tmp/cc2zcHeL.s:2728   .text.TIM_OC2PreloadConfig:00000000 $t
     /tmp/cc2zcHeL.s:2734   .text.TIM_OC2PreloadConfig:00000000 TIM_OC2PreloadConfig
     /tmp/cc2zcHeL.s:2795   .text.TIM_OC3PreloadConfig:00000000 $t
     /tmp/cc2zcHeL.s:2801   .text.TIM_OC3PreloadConfig:00000000 TIM_OC3PreloadConfig
     /tmp/cc2zcHeL.s:2859   .text.TIM_OC4PreloadConfig:00000000 $t
     /tmp/cc2zcHeL.s:2865   .text.TIM_OC4PreloadConfig:00000000 TIM_OC4PreloadConfig
     /tmp/cc2zcHeL.s:2926   .text.TIM_OC1FastConfig:00000000 $t
     /tmp/cc2zcHeL.s:2932   .text.TIM_OC1FastConfig:00000000 TIM_OC1FastConfig
     /tmp/cc2zcHeL.s:2990   .text.TIM_OC2FastConfig:00000000 $t
     /tmp/cc2zcHeL.s:2996   .text.TIM_OC2FastConfig:00000000 TIM_OC2FastConfig
     /tmp/cc2zcHeL.s:3057   .text.TIM_OC3FastConfig:00000000 $t
     /tmp/cc2zcHeL.s:3063   .text.TIM_OC3FastConfig:00000000 TIM_OC3FastConfig
     /tmp/cc2zcHeL.s:3121   .text.TIM_OC4FastConfig:00000000 $t
     /tmp/cc2zcHeL.s:3127   .text.TIM_OC4FastConfig:00000000 TIM_OC4FastConfig
     /tmp/cc2zcHeL.s:3188   .text.TIM_ClearOC1Ref:00000000 $t
     /tmp/cc2zcHeL.s:3194   .text.TIM_ClearOC1Ref:00000000 TIM_ClearOC1Ref
     /tmp/cc2zcHeL.s:3252   .text.TIM_ClearOC2Ref:00000000 $t
     /tmp/cc2zcHeL.s:3258   .text.TIM_ClearOC2Ref:00000000 TIM_ClearOC2Ref
     /tmp/cc2zcHeL.s:3319   .text.TIM_ClearOC3Ref:00000000 $t
     /tmp/cc2zcHeL.s:3325   .text.TIM_ClearOC3Ref:00000000 TIM_ClearOC3Ref
     /tmp/cc2zcHeL.s:3383   .text.TIM_ClearOC4Ref:00000000 $t
     /tmp/cc2zcHeL.s:3389   .text.TIM_ClearOC4Ref:00000000 TIM_ClearOC4Ref
     /tmp/cc2zcHeL.s:3450   .text.TIM_OC1PolarityConfig:00000000 $t
     /tmp/cc2zcHeL.s:3456   .text.TIM_OC1PolarityConfig:00000000 TIM_OC1PolarityConfig
     /tmp/cc2zcHeL.s:3514   .text.TIM_OC1NPolarityConfig:00000000 $t
     /tmp/cc2zcHeL.s:3520   .text.TIM_OC1NPolarityConfig:00000000 TIM_OC1NPolarityConfig
     /tmp/cc2zcHeL.s:3578   .text.TIM_OC2PolarityConfig:00000000 $t
     /tmp/cc2zcHeL.s:3584   .text.TIM_OC2PolarityConfig:00000000 TIM_OC2PolarityConfig
     /tmp/cc2zcHeL.s:3645   .text.TIM_OC2NPolarityConfig:00000000 $t
     /tmp/cc2zcHeL.s:3651   .text.TIM_OC2NPolarityConfig:00000000 TIM_OC2NPolarityConfig
     /tmp/cc2zcHeL.s:3712   .text.TIM_OC3PolarityConfig:00000000 $t
     /tmp/cc2zcHeL.s:3718   .text.TIM_OC3PolarityConfig:00000000 TIM_OC3PolarityConfig
     /tmp/cc2zcHeL.s:3779   .text.TIM_OC3NPolarityConfig:00000000 $t
     /tmp/cc2zcHeL.s:3785   .text.TIM_OC3NPolarityConfig:00000000 TIM_OC3NPolarityConfig
     /tmp/cc2zcHeL.s:3846   .text.TIM_OC4PolarityConfig:00000000 $t
     /tmp/cc2zcHeL.s:3852   .text.TIM_OC4PolarityConfig:00000000 TIM_OC4PolarityConfig
     /tmp/cc2zcHeL.s:3913   .text.TIM_CCxCmd:00000000 $t
     /tmp/cc2zcHeL.s:3919   .text.TIM_CCxCmd:00000000 TIM_CCxCmd
     /tmp/cc2zcHeL.s:3996   .text.TIM_CCxNCmd:00000000 $t
     /tmp/cc2zcHeL.s:4002   .text.TIM_CCxNCmd:00000000 TIM_CCxNCmd
     /tmp/cc2zcHeL.s:4079   .text.TIM_ICInit:00000000 $t
     /tmp/cc2zcHeL.s:4085   .text.TIM_ICInit:00000000 TIM_ICInit
     /tmp/cc2zcHeL.s:6700   .text.TI1_Config:00000000 TI1_Config
     /tmp/cc2zcHeL.s:4595   .text.TIM_SetIC1Prescaler:00000000 TIM_SetIC1Prescaler
     /tmp/cc2zcHeL.s:6808   .text.TI2_Config:00000000 TI2_Config
     /tmp/cc2zcHeL.s:4658   .text.TIM_SetIC2Prescaler:00000000 TIM_SetIC2Prescaler
ARM GAS  /tmp/cc2zcHeL.s 			page 186


     /tmp/cc2zcHeL.s:6929   .text.TI3_Config:00000000 TI3_Config
     /tmp/cc2zcHeL.s:4724   .text.TIM_SetIC3Prescaler:00000000 TIM_SetIC3Prescaler
     /tmp/cc2zcHeL.s:7044   .text.TI4_Config:00000000 TI4_Config
     /tmp/cc2zcHeL.s:4787   .text.TIM_SetIC4Prescaler:00000000 TIM_SetIC4Prescaler
     /tmp/cc2zcHeL.s:4206   .text.TIM_ICStructInit:00000000 $t
     /tmp/cc2zcHeL.s:4212   .text.TIM_ICStructInit:00000000 TIM_ICStructInit
     /tmp/cc2zcHeL.s:4268   .text.TIM_PWMIConfig:00000000 $t
     /tmp/cc2zcHeL.s:4274   .text.TIM_PWMIConfig:00000000 TIM_PWMIConfig
     /tmp/cc2zcHeL.s:4409   .text.TIM_GetCapture1:00000000 $t
     /tmp/cc2zcHeL.s:4415   .text.TIM_GetCapture1:00000000 TIM_GetCapture1
     /tmp/cc2zcHeL.s:4454   .text.TIM_GetCapture2:00000000 $t
     /tmp/cc2zcHeL.s:4460   .text.TIM_GetCapture2:00000000 TIM_GetCapture2
     /tmp/cc2zcHeL.s:4499   .text.TIM_GetCapture3:00000000 $t
     /tmp/cc2zcHeL.s:4505   .text.TIM_GetCapture3:00000000 TIM_GetCapture3
     /tmp/cc2zcHeL.s:4544   .text.TIM_GetCapture4:00000000 $t
     /tmp/cc2zcHeL.s:4550   .text.TIM_GetCapture4:00000000 TIM_GetCapture4
     /tmp/cc2zcHeL.s:4589   .text.TIM_SetIC1Prescaler:00000000 $t
     /tmp/cc2zcHeL.s:4652   .text.TIM_SetIC2Prescaler:00000000 $t
     /tmp/cc2zcHeL.s:4718   .text.TIM_SetIC3Prescaler:00000000 $t
     /tmp/cc2zcHeL.s:4781   .text.TIM_SetIC4Prescaler:00000000 $t
     /tmp/cc2zcHeL.s:4847   .text.TIM_BDTRConfig:00000000 $t
     /tmp/cc2zcHeL.s:4853   .text.TIM_BDTRConfig:00000000 TIM_BDTRConfig
     /tmp/cc2zcHeL.s:4931   .text.TIM_BDTRStructInit:00000000 $t
     /tmp/cc2zcHeL.s:4937   .text.TIM_BDTRStructInit:00000000 TIM_BDTRStructInit
     /tmp/cc2zcHeL.s:5001   .text.TIM_CtrlPWMOutputs:00000000 $t
     /tmp/cc2zcHeL.s:5007   .text.TIM_CtrlPWMOutputs:00000000 TIM_CtrlPWMOutputs
     /tmp/cc2zcHeL.s:5072   .text.TIM_SelectCOM:00000000 $t
     /tmp/cc2zcHeL.s:5078   .text.TIM_SelectCOM:00000000 TIM_SelectCOM
     /tmp/cc2zcHeL.s:5142   .text.TIM_CCPreloadControl:00000000 $t
     /tmp/cc2zcHeL.s:5148   .text.TIM_CCPreloadControl:00000000 TIM_CCPreloadControl
     /tmp/cc2zcHeL.s:5212   .text.TIM_ITConfig:00000000 $t
     /tmp/cc2zcHeL.s:5218   .text.TIM_ITConfig:00000000 TIM_ITConfig
     /tmp/cc2zcHeL.s:5289   .text.TIM_GenerateEvent:00000000 $t
     /tmp/cc2zcHeL.s:5295   .text.TIM_GenerateEvent:00000000 TIM_GenerateEvent
     /tmp/cc2zcHeL.s:5337   .text.TIM_GetFlagStatus:00000000 $t
     /tmp/cc2zcHeL.s:5343   .text.TIM_GetFlagStatus:00000000 TIM_GetFlagStatus
     /tmp/cc2zcHeL.s:5406   .text.TIM_ClearFlag:00000000 $t
     /tmp/cc2zcHeL.s:5412   .text.TIM_ClearFlag:00000000 TIM_ClearFlag
     /tmp/cc2zcHeL.s:5457   .text.TIM_GetITStatus:00000000 $t
     /tmp/cc2zcHeL.s:5463   .text.TIM_GetITStatus:00000000 TIM_GetITStatus
     /tmp/cc2zcHeL.s:5545   .text.TIM_ClearITPendingBit:00000000 $t
     /tmp/cc2zcHeL.s:5551   .text.TIM_ClearITPendingBit:00000000 TIM_ClearITPendingBit
     /tmp/cc2zcHeL.s:5596   .text.TIM_DMAConfig:00000000 $t
     /tmp/cc2zcHeL.s:5602   .text.TIM_DMAConfig:00000000 TIM_DMAConfig
     /tmp/cc2zcHeL.s:5649   .text.TIM_DMACmd:00000000 $t
     /tmp/cc2zcHeL.s:5655   .text.TIM_DMACmd:00000000 TIM_DMACmd
     /tmp/cc2zcHeL.s:5726   .text.TIM_SelectCCDMA:00000000 $t
     /tmp/cc2zcHeL.s:5732   .text.TIM_SelectCCDMA:00000000 TIM_SelectCCDMA
     /tmp/cc2zcHeL.s:5796   .text.TIM_InternalClockConfig:00000000 $t
     /tmp/cc2zcHeL.s:5802   .text.TIM_InternalClockConfig:00000000 TIM_InternalClockConfig
     /tmp/cc2zcHeL.s:5847   .text.TIM_ITRxExternalClockConfig:00000000 $t
     /tmp/cc2zcHeL.s:5853   .text.TIM_ITRxExternalClockConfig:00000000 TIM_ITRxExternalClockConfig
     /tmp/cc2zcHeL.s:6129   .text.TIM_SelectInputTrigger:00000000 TIM_SelectInputTrigger
     /tmp/cc2zcHeL.s:5901   .text.TIM_TIxExternalClockConfig:00000000 $t
     /tmp/cc2zcHeL.s:5907   .text.TIM_TIxExternalClockConfig:00000000 TIM_TIxExternalClockConfig
     /tmp/cc2zcHeL.s:5981   .text.TIM_ETRClockMode1Config:00000000 $t
     /tmp/cc2zcHeL.s:5987   .text.TIM_ETRClockMode1Config:00000000 TIM_ETRClockMode1Config
ARM GAS  /tmp/cc2zcHeL.s 			page 187


     /tmp/cc2zcHeL.s:6382   .text.TIM_ETRConfig:00000000 TIM_ETRConfig
     /tmp/cc2zcHeL.s:6061   .text.TIM_ETRClockMode2Config:00000000 $t
     /tmp/cc2zcHeL.s:6067   .text.TIM_ETRClockMode2Config:00000000 TIM_ETRClockMode2Config
     /tmp/cc2zcHeL.s:6123   .text.TIM_SelectInputTrigger:00000000 $t
     /tmp/cc2zcHeL.s:6187   .text.TIM_SelectOutputTrigger:00000000 $t
     /tmp/cc2zcHeL.s:6193   .text.TIM_SelectOutputTrigger:00000000 TIM_SelectOutputTrigger
     /tmp/cc2zcHeL.s:6250   .text.TIM_SelectSlaveMode:00000000 $t
     /tmp/cc2zcHeL.s:6256   .text.TIM_SelectSlaveMode:00000000 TIM_SelectSlaveMode
     /tmp/cc2zcHeL.s:6313   .text.TIM_SelectMasterSlaveMode:00000000 $t
     /tmp/cc2zcHeL.s:6319   .text.TIM_SelectMasterSlaveMode:00000000 TIM_SelectMasterSlaveMode
     /tmp/cc2zcHeL.s:6376   .text.TIM_ETRConfig:00000000 $t
     /tmp/cc2zcHeL.s:6458   .text.TIM_EncoderInterfaceConfig:00000000 $t
     /tmp/cc2zcHeL.s:6464   .text.TIM_EncoderInterfaceConfig:00000000 TIM_EncoderInterfaceConfig
     /tmp/cc2zcHeL.s:6577   .text.TIM_SelectHallSensor:00000000 $t
     /tmp/cc2zcHeL.s:6583   .text.TIM_SelectHallSensor:00000000 TIM_SelectHallSensor
     /tmp/cc2zcHeL.s:6647   .text.TIM_RemapConfig:00000000 $t
     /tmp/cc2zcHeL.s:6653   .text.TIM_RemapConfig:00000000 TIM_RemapConfig
     /tmp/cc2zcHeL.s:6695   .text.TI1_Config:00000000 $t
     /tmp/cc2zcHeL.s:6803   .text.TI2_Config:00000000 $t
     /tmp/cc2zcHeL.s:6924   .text.TI3_Config:00000000 $t
     /tmp/cc2zcHeL.s:7039   .text.TI4_Config:00000000 $t
                           .group:00000000 wm4.0.62e24ee945655210df7a12269291771b
                           .group:00000000 wm4.stm32f4xx.h.54.f84a67a8e71ba9719846fdff1868826c
                           .group:00000000 wm4.core_cm4.h.32.5f62939b60122629d60d85d0c4a14709
                           .group:00000000 wm4._newlib_version.h.4.411db44ea2338a62eca2f0777f81481b
                           .group:00000000 wm4.features.h.33.2eefb68b261e70563a8ac654e712169f
                           .group:00000000 wm4._default_types.h.15.247e5cd201eca3442cbf5404108c4935
                           .group:00000000 wm4._intsup.h.10.48bafbb683905c4daa4565a85aeeb264
                           .group:00000000 wm4._stdint.h.10.c24fa3af3bc1706662bb5593a907e841
                           .group:00000000 wm4.stdint.h.23.d53047a68f4a85177f80b422d52785ed
                           .group:00000000 wm4.core_cmInstr.h.25.f50f886f2edf670cf199b35fd96f5c91
                           .group:00000000 wm4.core_cm4_simd.h.29.b4a3fdfb606cb3b26119424324d4b963
                           .group:00000000 wm4.core_cm4.h.153.5393ef7e6cebf34dd51ca528f9218ab3
                           .group:00000000 wm4.stm32f4xx.h.289.fa68dcae75666a037ce29b5a1b57e3b3
                           .group:00000000 wm4.stm32f4xx_conf.h.3.bc52e76ab6b5c9037500dbf5bb8f9be4
                           .group:00000000 wm4.misc.h.86.a3996e7f17199502fad3c7f62e5cdb3f
                           .group:00000000 wm4.stm32f4xx_adc.h.31.d96d805acd0f0c0392ec4633757dead3
                           .group:00000000 wm4.stm32f4xx_can.h.31.3bb56c6436c7a6e6af1611046e81f48c
                           .group:00000000 wm4.stm32f4xx_cryp.h.31.94bbbb19b99df10306f31e78c333a77b
                           .group:00000000 wm4.stm32f4xx_dac.h.31.b8d45e7eaf71ee4bf01c1317dbc06f77
                           .group:00000000 wm4.stm32f4xx_dbgmcu.h.30.70a81ec54c2707baa9fca77391eeeaaa
                           .group:00000000 wm4.stm32f4xx_dcmi.h.30.9d0942d58c357d2eed15e044bf9b4a77
                           .group:00000000 wm4.stm32f4xx_dma.h.31.815bb924b30b1c776b3cd51113fdfe60
                           .group:00000000 wm4.stm32f4xx_exti.h.31.86bd18e979f97217bb1d3b80fde0231e
                           .group:00000000 wm4.stm32f4xx_flash.h.31.74f2ed42d890f144ca7eb5ae8172f0d0
                           .group:00000000 wm4.stm32f4xx_fsmc.h.31.ff58629e0c603fb2f9b3f00c0657fdfa
                           .group:00000000 wm4.stm32f4xx_gpio.h.31.d9aeae10cfa353d85d475c0d4900c452
                           .group:00000000 wm4.stm32f4xx_hash.h.31.5c109425d30f0b9cc0a26ad38182d91f
                           .group:00000000 wm4.stm32f4xx_i2c.h.31.edf5baa611075c49ae13f56be9040be3
                           .group:00000000 wm4.stm32f4xx_iwdg.h.31.30e376e6d8d424aab7fddd66cf691c7b
                           .group:00000000 wm4.stm32f4xx_pwr.h.31.bb774fc1b632cb8d2ecaec8c6524d2c0
                           .group:00000000 wm4.stm32f4xx_rcc.h.30.820e94551583d2b835c8cf3ad722e16c
                           .group:00000000 wm4.stm32f4xx_rng.h.31.1ec493d56b7a8e5a71238519cae6dea7
                           .group:00000000 wm4.stm32f4xx_rtc.h.31.bddeb98c63c8fa06fac80b5dd8296471
                           .group:00000000 wm4.stm32f4xx_sdio.h.31.8c6dff42ffa718b444c3420717601ff2
                           .group:00000000 wm4.stm32f4xx_spi.h.31.fb1b2c8214b87a47d4457633b7c31c3c
                           .group:00000000 wm4.stm32f4xx_syscfg.h.31.5a680f88d55b7816ae613c20f199cbd9
ARM GAS  /tmp/cc2zcHeL.s 			page 188


                           .group:00000000 wm4.stm32f4xx_usart.h.31.f8d29b14aa4d39de5495adcc92749d3c
                           .group:00000000 wm4.stm32f4xx_wwdg.h.31.b45a80fa1ec64984adf786f7e489f31b
                           .group:00000000 wm4.stm32f4xx.h.6975.cdbdae9d5de06f1ba6b770f59cbe4d6c
                           .group:00000000 wm4.stm32f4xx_tim.h.175.5ab16aeded9dffb419c21a749a6e037f

UNDEFINED SYMBOLS
RCC_APB2PeriphResetCmd
RCC_APB1PeriphResetCmd
