ARM GAS  /tmp/cctIRrNQ.s 			page 1


   1              		.cpu cortex-m4
   2              		.arch armv7e-m
   3              		.fpu fpv4-sp-d16
   4              		.eabi_attribute 27, 1
   5              		.eabi_attribute 28, 1
   6              		.eabi_attribute 20, 1
   7              		.eabi_attribute 21, 1
   8              		.eabi_attribute 23, 3
   9              		.eabi_attribute 24, 1
  10              		.eabi_attribute 25, 1
  11              		.eabi_attribute 26, 1
  12              		.eabi_attribute 30, 6
  13              		.eabi_attribute 34, 1
  14              		.eabi_attribute 18, 4
  15              		.file	"stm32f4xx_rtc.c"
  16              		.text
  17              	.Ltext0:
  18              		.cfi_sections	.debug_frame
  19              		.file 1 "../Shared/Libraries/STM32F4xx_StdPeriph_Driver/src/stm32f4xx_rtc.c"
  20              		.section	.text.RTC_DeInit,"ax",%progbits
  21              		.align	1
  22              		.global	RTC_DeInit
  23              		.syntax unified
  24              		.thumb
  25              		.thumb_func
  27              	RTC_DeInit:
  28              	.LFB110:
   1:../Shared/Libraries/STM32F4xx_StdPeriph_Driver/src/stm32f4xx_rtc.c **** /**
   2:../Shared/Libraries/STM32F4xx_StdPeriph_Driver/src/stm32f4xx_rtc.c ****   ******************************************************************************
   3:../Shared/Libraries/STM32F4xx_StdPeriph_Driver/src/stm32f4xx_rtc.c ****   * @file    stm32f4xx_rtc.c
   4:../Shared/Libraries/STM32F4xx_StdPeriph_Driver/src/stm32f4xx_rtc.c ****   * @author  MCD Application Team
   5:../Shared/Libraries/STM32F4xx_StdPeriph_Driver/src/stm32f4xx_rtc.c ****   * @version V1.0.2
   6:../Shared/Libraries/STM32F4xx_StdPeriph_Driver/src/stm32f4xx_rtc.c ****   * @date    05-March-2012
   7:../Shared/Libraries/STM32F4xx_StdPeriph_Driver/src/stm32f4xx_rtc.c ****   * @brief   This file provides firmware functions to manage the following 
   8:../Shared/Libraries/STM32F4xx_StdPeriph_Driver/src/stm32f4xx_rtc.c ****   *          functionalities of the Real-Time Clock (RTC) peripheral:
   9:../Shared/Libraries/STM32F4xx_StdPeriph_Driver/src/stm32f4xx_rtc.c ****   *           - Initialization
  10:../Shared/Libraries/STM32F4xx_StdPeriph_Driver/src/stm32f4xx_rtc.c ****   *           - Calendar (Time and Date) configuration
  11:../Shared/Libraries/STM32F4xx_StdPeriph_Driver/src/stm32f4xx_rtc.c ****   *           - Alarms (Alarm A and Alarm B) configuration
  12:../Shared/Libraries/STM32F4xx_StdPeriph_Driver/src/stm32f4xx_rtc.c ****   *           - WakeUp Timer configuration
  13:../Shared/Libraries/STM32F4xx_StdPeriph_Driver/src/stm32f4xx_rtc.c ****   *           - Daylight Saving configuration
  14:../Shared/Libraries/STM32F4xx_StdPeriph_Driver/src/stm32f4xx_rtc.c ****   *           - Output pin Configuration
  15:../Shared/Libraries/STM32F4xx_StdPeriph_Driver/src/stm32f4xx_rtc.c ****   *           - Coarse digital Calibration configuration
  16:../Shared/Libraries/STM32F4xx_StdPeriph_Driver/src/stm32f4xx_rtc.c ****   *           - Smooth digital Calibration configuration
  17:../Shared/Libraries/STM32F4xx_StdPeriph_Driver/src/stm32f4xx_rtc.c ****   *           - TimeStamp configuration
  18:../Shared/Libraries/STM32F4xx_StdPeriph_Driver/src/stm32f4xx_rtc.c ****   *           - Tampers configuration
  19:../Shared/Libraries/STM32F4xx_StdPeriph_Driver/src/stm32f4xx_rtc.c ****   *           - Backup Data Registers configuration
  20:../Shared/Libraries/STM32F4xx_StdPeriph_Driver/src/stm32f4xx_rtc.c ****   *           - Shift control synchronisation    
  21:../Shared/Libraries/STM32F4xx_StdPeriph_Driver/src/stm32f4xx_rtc.c ****   *           - RTC Tamper and TimeStamp Pins Selection and Output Type Config configuration
  22:../Shared/Libraries/STM32F4xx_StdPeriph_Driver/src/stm32f4xx_rtc.c ****   *           - Interrupts and flags management
  23:../Shared/Libraries/STM32F4xx_StdPeriph_Driver/src/stm32f4xx_rtc.c ****   *
  24:../Shared/Libraries/STM32F4xx_StdPeriph_Driver/src/stm32f4xx_rtc.c ****   *  @verbatim
  25:../Shared/Libraries/STM32F4xx_StdPeriph_Driver/src/stm32f4xx_rtc.c ****   *
  26:../Shared/Libraries/STM32F4xx_StdPeriph_Driver/src/stm32f4xx_rtc.c ****   *          ===================================================================
  27:../Shared/Libraries/STM32F4xx_StdPeriph_Driver/src/stm32f4xx_rtc.c ****   *                               Backup Domain Operating Condition
  28:../Shared/Libraries/STM32F4xx_StdPeriph_Driver/src/stm32f4xx_rtc.c ****   *          ===================================================================
  29:../Shared/Libraries/STM32F4xx_StdPeriph_Driver/src/stm32f4xx_rtc.c ****   *          The real-time clock (RTC), the RTC backup registers, and the backup 
  30:../Shared/Libraries/STM32F4xx_StdPeriph_Driver/src/stm32f4xx_rtc.c ****   *          SRAM (BKP SRAM) can be powered from the VBAT voltage when the main 
ARM GAS  /tmp/cctIRrNQ.s 			page 2


  31:../Shared/Libraries/STM32F4xx_StdPeriph_Driver/src/stm32f4xx_rtc.c ****   *          VDD supply is powered off.
  32:../Shared/Libraries/STM32F4xx_StdPeriph_Driver/src/stm32f4xx_rtc.c ****   *          To retain the content of the RTC backup registers, backup SRAM, 
  33:../Shared/Libraries/STM32F4xx_StdPeriph_Driver/src/stm32f4xx_rtc.c ****   *          and supply the RTC when VDD is turned off, VBAT pin can be connected 
  34:../Shared/Libraries/STM32F4xx_StdPeriph_Driver/src/stm32f4xx_rtc.c ****   *          to an optional standby voltage supplied by a battery or by another 
  35:../Shared/Libraries/STM32F4xx_StdPeriph_Driver/src/stm32f4xx_rtc.c ****   *          source.
  36:../Shared/Libraries/STM32F4xx_StdPeriph_Driver/src/stm32f4xx_rtc.c ****   *
  37:../Shared/Libraries/STM32F4xx_StdPeriph_Driver/src/stm32f4xx_rtc.c ****   *          To allow the RTC to operate even when the main digital supply (VDD) 
  38:../Shared/Libraries/STM32F4xx_StdPeriph_Driver/src/stm32f4xx_rtc.c ****   *          is turned off, the VBAT pin powers the following blocks:
  39:../Shared/Libraries/STM32F4xx_StdPeriph_Driver/src/stm32f4xx_rtc.c ****   *            1 - The RTC
  40:../Shared/Libraries/STM32F4xx_StdPeriph_Driver/src/stm32f4xx_rtc.c ****   *            2 - The LSE oscillator
  41:../Shared/Libraries/STM32F4xx_StdPeriph_Driver/src/stm32f4xx_rtc.c ****   *            3 - The backup SRAM when the low power backup regulator is enabled
  42:../Shared/Libraries/STM32F4xx_StdPeriph_Driver/src/stm32f4xx_rtc.c ****   *            4 - PC13 to PC15 I/Os, plus PI8 I/O (when available)
  43:../Shared/Libraries/STM32F4xx_StdPeriph_Driver/src/stm32f4xx_rtc.c ****   *
  44:../Shared/Libraries/STM32F4xx_StdPeriph_Driver/src/stm32f4xx_rtc.c ****   *          When the backup domain is supplied by VDD (analog switch connected 
  45:../Shared/Libraries/STM32F4xx_StdPeriph_Driver/src/stm32f4xx_rtc.c ****   *          to VDD), the following functions are available:
  46:../Shared/Libraries/STM32F4xx_StdPeriph_Driver/src/stm32f4xx_rtc.c ****   *            1 - PC14 and PC15 can be used as either GPIO or LSE pins
  47:../Shared/Libraries/STM32F4xx_StdPeriph_Driver/src/stm32f4xx_rtc.c ****   *            2 - PC13 can be used as a GPIO or as the RTC_AF1 pin
  48:../Shared/Libraries/STM32F4xx_StdPeriph_Driver/src/stm32f4xx_rtc.c ****   *            3 - PI8 can be used as a GPIO or as the RTC_AF2 pin
  49:../Shared/Libraries/STM32F4xx_StdPeriph_Driver/src/stm32f4xx_rtc.c ****   *
  50:../Shared/Libraries/STM32F4xx_StdPeriph_Driver/src/stm32f4xx_rtc.c ****   *          When the backup domain is supplied by VBAT (analog switch connected 
  51:../Shared/Libraries/STM32F4xx_StdPeriph_Driver/src/stm32f4xx_rtc.c ****   *          to VBAT because VDD is not present), the following functions are available:
  52:../Shared/Libraries/STM32F4xx_StdPeriph_Driver/src/stm32f4xx_rtc.c ****   *            1 - PC14 and PC15 can be used as LSE pins only
  53:../Shared/Libraries/STM32F4xx_StdPeriph_Driver/src/stm32f4xx_rtc.c ****   *            2 - PC13 can be used as the RTC_AF1 pin 
  54:../Shared/Libraries/STM32F4xx_StdPeriph_Driver/src/stm32f4xx_rtc.c ****   *            3 - PI8 can be used as the RTC_AF2 pin
  55:../Shared/Libraries/STM32F4xx_StdPeriph_Driver/src/stm32f4xx_rtc.c ****   *
  56:../Shared/Libraries/STM32F4xx_StdPeriph_Driver/src/stm32f4xx_rtc.c ****   *          ===================================================================
  57:../Shared/Libraries/STM32F4xx_StdPeriph_Driver/src/stm32f4xx_rtc.c ****   *                                    Backup Domain Reset
  58:../Shared/Libraries/STM32F4xx_StdPeriph_Driver/src/stm32f4xx_rtc.c ****   *          ===================================================================
  59:../Shared/Libraries/STM32F4xx_StdPeriph_Driver/src/stm32f4xx_rtc.c ****   *          The backup domain reset sets all RTC registers and the RCC_BDCR 
  60:../Shared/Libraries/STM32F4xx_StdPeriph_Driver/src/stm32f4xx_rtc.c ****   *          register to their reset values. The BKPSRAM is not affected by this
  61:../Shared/Libraries/STM32F4xx_StdPeriph_Driver/src/stm32f4xx_rtc.c ****   *          reset. The only way of resetting the BKPSRAM is through the Flash 
  62:../Shared/Libraries/STM32F4xx_StdPeriph_Driver/src/stm32f4xx_rtc.c ****   *          interface by requesting a protection level change from 1 to 0.
  63:../Shared/Libraries/STM32F4xx_StdPeriph_Driver/src/stm32f4xx_rtc.c ****   *          A backup domain reset is generated when one of the following events
  64:../Shared/Libraries/STM32F4xx_StdPeriph_Driver/src/stm32f4xx_rtc.c ****   *          occurs:
  65:../Shared/Libraries/STM32F4xx_StdPeriph_Driver/src/stm32f4xx_rtc.c ****   *            1 - Software reset, triggered by setting the BDRST bit in the 
  66:../Shared/Libraries/STM32F4xx_StdPeriph_Driver/src/stm32f4xx_rtc.c ****   *                RCC Backup domain control register (RCC_BDCR). You can use the
  67:../Shared/Libraries/STM32F4xx_StdPeriph_Driver/src/stm32f4xx_rtc.c ****   *                RCC_BackupResetCmd().
  68:../Shared/Libraries/STM32F4xx_StdPeriph_Driver/src/stm32f4xx_rtc.c ****   *            2 - VDD or VBAT power on, if both supplies have previously been
  69:../Shared/Libraries/STM32F4xx_StdPeriph_Driver/src/stm32f4xx_rtc.c ****   *                powered off.
  70:../Shared/Libraries/STM32F4xx_StdPeriph_Driver/src/stm32f4xx_rtc.c ****   *
  71:../Shared/Libraries/STM32F4xx_StdPeriph_Driver/src/stm32f4xx_rtc.c ****   *          ===================================================================
  72:../Shared/Libraries/STM32F4xx_StdPeriph_Driver/src/stm32f4xx_rtc.c ****   *                                   Backup Domain Access
  73:../Shared/Libraries/STM32F4xx_StdPeriph_Driver/src/stm32f4xx_rtc.c ****   *          ===================================================================
  74:../Shared/Libraries/STM32F4xx_StdPeriph_Driver/src/stm32f4xx_rtc.c ****   *          After reset, the backup domain (RTC registers, RTC backup data 
  75:../Shared/Libraries/STM32F4xx_StdPeriph_Driver/src/stm32f4xx_rtc.c ****   *          registers and backup SRAM) is protected against possible unwanted 
  76:../Shared/Libraries/STM32F4xx_StdPeriph_Driver/src/stm32f4xx_rtc.c ****   *          write accesses. 
  77:../Shared/Libraries/STM32F4xx_StdPeriph_Driver/src/stm32f4xx_rtc.c ****   *          To enable access to the RTC Domain and RTC registers, proceed as follows:
  78:../Shared/Libraries/STM32F4xx_StdPeriph_Driver/src/stm32f4xx_rtc.c ****   *            - Enable the Power Controller (PWR) APB1 interface clock using the
  79:../Shared/Libraries/STM32F4xx_StdPeriph_Driver/src/stm32f4xx_rtc.c ****   *              RCC_APB1PeriphClockCmd() function.
  80:../Shared/Libraries/STM32F4xx_StdPeriph_Driver/src/stm32f4xx_rtc.c ****   *            - Enable access to RTC domain using the PWR_BackupAccessCmd() function.
  81:../Shared/Libraries/STM32F4xx_StdPeriph_Driver/src/stm32f4xx_rtc.c ****   *            - Select the RTC clock source using the RCC_RTCCLKConfig() function.
  82:../Shared/Libraries/STM32F4xx_StdPeriph_Driver/src/stm32f4xx_rtc.c ****   *            - Enable RTC Clock using the RCC_RTCCLKCmd() function.
  83:../Shared/Libraries/STM32F4xx_StdPeriph_Driver/src/stm32f4xx_rtc.c ****   *
  84:../Shared/Libraries/STM32F4xx_StdPeriph_Driver/src/stm32f4xx_rtc.c ****   *          ===================================================================
  85:../Shared/Libraries/STM32F4xx_StdPeriph_Driver/src/stm32f4xx_rtc.c ****   *                                   RTC Driver: how to use it
  86:../Shared/Libraries/STM32F4xx_StdPeriph_Driver/src/stm32f4xx_rtc.c ****   *          ===================================================================
  87:../Shared/Libraries/STM32F4xx_StdPeriph_Driver/src/stm32f4xx_rtc.c ****   *            - Enable the RTC domain access (see description in the section above)
ARM GAS  /tmp/cctIRrNQ.s 			page 3


  88:../Shared/Libraries/STM32F4xx_StdPeriph_Driver/src/stm32f4xx_rtc.c ****   *            - Configure the RTC Prescaler (Asynchronous and Synchronous) and
  89:../Shared/Libraries/STM32F4xx_StdPeriph_Driver/src/stm32f4xx_rtc.c ****   *              RTC hour format using the RTC_Init() function.
  90:../Shared/Libraries/STM32F4xx_StdPeriph_Driver/src/stm32f4xx_rtc.c ****   *
  91:../Shared/Libraries/STM32F4xx_StdPeriph_Driver/src/stm32f4xx_rtc.c ****   *          Time and Date configuration
  92:../Shared/Libraries/STM32F4xx_StdPeriph_Driver/src/stm32f4xx_rtc.c ****   *          ===========================
  93:../Shared/Libraries/STM32F4xx_StdPeriph_Driver/src/stm32f4xx_rtc.c ****   *            - To configure the RTC Calendar (Time and Date) use the RTC_SetTime()
  94:../Shared/Libraries/STM32F4xx_StdPeriph_Driver/src/stm32f4xx_rtc.c ****   *              and RTC_SetDate() functions.
  95:../Shared/Libraries/STM32F4xx_StdPeriph_Driver/src/stm32f4xx_rtc.c ****   *            - To read the RTC Calendar, use the RTC_GetTime() and RTC_GetDate()
  96:../Shared/Libraries/STM32F4xx_StdPeriph_Driver/src/stm32f4xx_rtc.c ****   *              functions.
  97:../Shared/Libraries/STM32F4xx_StdPeriph_Driver/src/stm32f4xx_rtc.c ****   *            - Use the RTC_DayLightSavingConfig() function to add or sub one
  98:../Shared/Libraries/STM32F4xx_StdPeriph_Driver/src/stm32f4xx_rtc.c ****   *              hour to the RTC Calendar.    
  99:../Shared/Libraries/STM32F4xx_StdPeriph_Driver/src/stm32f4xx_rtc.c ****   *
 100:../Shared/Libraries/STM32F4xx_StdPeriph_Driver/src/stm32f4xx_rtc.c ****   *          Alarm configuration
 101:../Shared/Libraries/STM32F4xx_StdPeriph_Driver/src/stm32f4xx_rtc.c ****   *          ===================
 102:../Shared/Libraries/STM32F4xx_StdPeriph_Driver/src/stm32f4xx_rtc.c ****   *            - To configure the RTC Alarm use the RTC_SetAlarm() function.
 103:../Shared/Libraries/STM32F4xx_StdPeriph_Driver/src/stm32f4xx_rtc.c ****   *            - Enable the selected RTC Alarm using the RTC_AlarmCmd() function
 104:../Shared/Libraries/STM32F4xx_StdPeriph_Driver/src/stm32f4xx_rtc.c ****   *            - To read the RTC Alarm, use the RTC_GetAlarm() function.
 105:../Shared/Libraries/STM32F4xx_StdPeriph_Driver/src/stm32f4xx_rtc.c ****   *            - To read the RTC alarm SubSecond, use the RTC_GetAlarmSubSecond() function.
 106:../Shared/Libraries/STM32F4xx_StdPeriph_Driver/src/stm32f4xx_rtc.c ****   *
 107:../Shared/Libraries/STM32F4xx_StdPeriph_Driver/src/stm32f4xx_rtc.c ****   *          RTC Wakeup configuration
 108:../Shared/Libraries/STM32F4xx_StdPeriph_Driver/src/stm32f4xx_rtc.c ****   *          ========================
 109:../Shared/Libraries/STM32F4xx_StdPeriph_Driver/src/stm32f4xx_rtc.c ****   *            - Configure the RTC Wakeup Clock source use the RTC_WakeUpClockConfig()
 110:../Shared/Libraries/STM32F4xx_StdPeriph_Driver/src/stm32f4xx_rtc.c ****   *              function.
 111:../Shared/Libraries/STM32F4xx_StdPeriph_Driver/src/stm32f4xx_rtc.c ****   *            - Configure the RTC WakeUp Counter using the RTC_SetWakeUpCounter() 
 112:../Shared/Libraries/STM32F4xx_StdPeriph_Driver/src/stm32f4xx_rtc.c ****   *              function  
 113:../Shared/Libraries/STM32F4xx_StdPeriph_Driver/src/stm32f4xx_rtc.c ****   *            - Enable the RTC WakeUp using the RTC_WakeUpCmd() function  
 114:../Shared/Libraries/STM32F4xx_StdPeriph_Driver/src/stm32f4xx_rtc.c ****   *            - To read the RTC WakeUp Counter register, use the RTC_GetWakeUpCounter() 
 115:../Shared/Libraries/STM32F4xx_StdPeriph_Driver/src/stm32f4xx_rtc.c ****   *              function.
 116:../Shared/Libraries/STM32F4xx_StdPeriph_Driver/src/stm32f4xx_rtc.c ****   *
 117:../Shared/Libraries/STM32F4xx_StdPeriph_Driver/src/stm32f4xx_rtc.c ****   *          Outputs configuration
 118:../Shared/Libraries/STM32F4xx_StdPeriph_Driver/src/stm32f4xx_rtc.c ****   *          =====================
 119:../Shared/Libraries/STM32F4xx_StdPeriph_Driver/src/stm32f4xx_rtc.c ****   *          The RTC has 2 different outputs:
 120:../Shared/Libraries/STM32F4xx_StdPeriph_Driver/src/stm32f4xx_rtc.c ****   *            - AFO_ALARM: this output is used to manage the RTC Alarm A, Alarm B
 121:../Shared/Libraries/STM32F4xx_StdPeriph_Driver/src/stm32f4xx_rtc.c ****   *              and WaKeUp signals.          
 122:../Shared/Libraries/STM32F4xx_StdPeriph_Driver/src/stm32f4xx_rtc.c ****   *              To output the selected RTC signal on RTC_AF1 pin, use the 
 123:../Shared/Libraries/STM32F4xx_StdPeriph_Driver/src/stm32f4xx_rtc.c ****   *              RTC_OutputConfig() function.                
 124:../Shared/Libraries/STM32F4xx_StdPeriph_Driver/src/stm32f4xx_rtc.c ****   *            - AFO_CALIB: this output is 512Hz signal or 1Hz .  
 125:../Shared/Libraries/STM32F4xx_StdPeriph_Driver/src/stm32f4xx_rtc.c ****   *              To output the RTC Clock on RTC_AF1 pin, use the RTC_CalibOutputCmd()
 126:../Shared/Libraries/STM32F4xx_StdPeriph_Driver/src/stm32f4xx_rtc.c ****   *              function.
 127:../Shared/Libraries/STM32F4xx_StdPeriph_Driver/src/stm32f4xx_rtc.c ****   *
 128:../Shared/Libraries/STM32F4xx_StdPeriph_Driver/src/stm32f4xx_rtc.c ****   *          Smooth digital Calibration configuration
 129:../Shared/Libraries/STM32F4xx_StdPeriph_Driver/src/stm32f4xx_rtc.c ****   *          =================================    
 130:../Shared/Libraries/STM32F4xx_StdPeriph_Driver/src/stm32f4xx_rtc.c ****   *            - Configure the RTC Original Digital Calibration Value and the corresponding
 131:../Shared/Libraries/STM32F4xx_StdPeriph_Driver/src/stm32f4xx_rtc.c ****   *              calibration cycle period (32s,16s and 8s) using the RTC_SmoothCalibConfig() 
 132:../Shared/Libraries/STM32F4xx_StdPeriph_Driver/src/stm32f4xx_rtc.c ****   *              function.
 133:../Shared/Libraries/STM32F4xx_StdPeriph_Driver/src/stm32f4xx_rtc.c ****   *
 134:../Shared/Libraries/STM32F4xx_StdPeriph_Driver/src/stm32f4xx_rtc.c ****   *          Coarse digital Calibration configuration
 135:../Shared/Libraries/STM32F4xx_StdPeriph_Driver/src/stm32f4xx_rtc.c ****   *          =================================
 136:../Shared/Libraries/STM32F4xx_StdPeriph_Driver/src/stm32f4xx_rtc.c ****   *            - Configure the RTC Coarse Calibration Value and the corresponding
 137:../Shared/Libraries/STM32F4xx_StdPeriph_Driver/src/stm32f4xx_rtc.c ****   *              sign using the RTC_CoarseCalibConfig() function.
 138:../Shared/Libraries/STM32F4xx_StdPeriph_Driver/src/stm32f4xx_rtc.c ****   *            - Enable the RTC Coarse Calibration using the RTC_CoarseCalibCmd() 
 139:../Shared/Libraries/STM32F4xx_StdPeriph_Driver/src/stm32f4xx_rtc.c ****   *              function  
 140:../Shared/Libraries/STM32F4xx_StdPeriph_Driver/src/stm32f4xx_rtc.c ****   *
 141:../Shared/Libraries/STM32F4xx_StdPeriph_Driver/src/stm32f4xx_rtc.c ****   *          TimeStamp configuration
 142:../Shared/Libraries/STM32F4xx_StdPeriph_Driver/src/stm32f4xx_rtc.c ****   *          =======================
 143:../Shared/Libraries/STM32F4xx_StdPeriph_Driver/src/stm32f4xx_rtc.c ****   *            - Configure the RTC_AF1 trigger and enables the RTC TimeStamp 
 144:../Shared/Libraries/STM32F4xx_StdPeriph_Driver/src/stm32f4xx_rtc.c ****   *              using the RTC_TimeStampCmd() function.
ARM GAS  /tmp/cctIRrNQ.s 			page 4


 145:../Shared/Libraries/STM32F4xx_StdPeriph_Driver/src/stm32f4xx_rtc.c ****   *            - To read the RTC TimeStamp Time and Date register, use the 
 146:../Shared/Libraries/STM32F4xx_StdPeriph_Driver/src/stm32f4xx_rtc.c ****   *              RTC_GetTimeStamp() function.
 147:../Shared/Libraries/STM32F4xx_StdPeriph_Driver/src/stm32f4xx_rtc.c ****   *            - To read the RTC TimeStamp SubSecond register, use the 
 148:../Shared/Libraries/STM32F4xx_StdPeriph_Driver/src/stm32f4xx_rtc.c ****   *              RTC_GetTimeStampSubSecond() function.
 149:../Shared/Libraries/STM32F4xx_StdPeriph_Driver/src/stm32f4xx_rtc.c ****   *            - The TAMPER1 alternate function can be mapped either to RTC_AF1(PC13)
 150:../Shared/Libraries/STM32F4xx_StdPeriph_Driver/src/stm32f4xx_rtc.c ****   *              or RTC_AF2 (PI8) depending on the value of TAMP1INSEL bit in 
 151:../Shared/Libraries/STM32F4xx_StdPeriph_Driver/src/stm32f4xx_rtc.c ****   *              RTC_TAFCR register. You can use the  RTC_TamperPinSelection()
 152:../Shared/Libraries/STM32F4xx_StdPeriph_Driver/src/stm32f4xx_rtc.c ****   *              function to select the corresponding pin.     
 153:../Shared/Libraries/STM32F4xx_StdPeriph_Driver/src/stm32f4xx_rtc.c ****   *
 154:../Shared/Libraries/STM32F4xx_StdPeriph_Driver/src/stm32f4xx_rtc.c ****   *          Tamper configuration
 155:../Shared/Libraries/STM32F4xx_StdPeriph_Driver/src/stm32f4xx_rtc.c ****   *          ====================
 156:../Shared/Libraries/STM32F4xx_StdPeriph_Driver/src/stm32f4xx_rtc.c ****   *            - Enable the RTC Tamper using the RTC_TamperCmd() function.
 157:../Shared/Libraries/STM32F4xx_StdPeriph_Driver/src/stm32f4xx_rtc.c ****   *             - Configure the Tamper filter count using RTC_TamperFilterConfig()
 158:../Shared/Libraries/STM32F4xx_StdPeriph_Driver/src/stm32f4xx_rtc.c ****   *              function. 
 159:../Shared/Libraries/STM32F4xx_StdPeriph_Driver/src/stm32f4xx_rtc.c ****   *            - Configure the RTC Tamper trigger Edge or Level according to the Tamper 
 160:../Shared/Libraries/STM32F4xx_StdPeriph_Driver/src/stm32f4xx_rtc.c ****   *              filter (if equal to 0 Edge else Level) value using the RTC_TamperConfig() function
 161:../Shared/Libraries/STM32F4xx_StdPeriph_Driver/src/stm32f4xx_rtc.c ****   *            - Configure the Tamper sampling frequency using RTC_TamperSamplingFreqConfig()
 162:../Shared/Libraries/STM32F4xx_StdPeriph_Driver/src/stm32f4xx_rtc.c ****   *              function.
 163:../Shared/Libraries/STM32F4xx_StdPeriph_Driver/src/stm32f4xx_rtc.c ****   *            - Configure the Tamper precharge or discharge duration using 
 164:../Shared/Libraries/STM32F4xx_StdPeriph_Driver/src/stm32f4xx_rtc.c ****   *              RTC_TamperPinsPrechargeDuration() function.
 165:../Shared/Libraries/STM32F4xx_StdPeriph_Driver/src/stm32f4xx_rtc.c ****   *            - Enable the Tamper Pull-UP using RTC_TamperPullUpDisableCmd() function.
 166:../Shared/Libraries/STM32F4xx_StdPeriph_Driver/src/stm32f4xx_rtc.c ****   *            - Enable the Time stamp on Tamper detection event using  
 167:../Shared/Libraries/STM32F4xx_StdPeriph_Driver/src/stm32f4xx_rtc.c ****   *              RTC_TSOnTamperDetecCmd() function.
 168:../Shared/Libraries/STM32F4xx_StdPeriph_Driver/src/stm32f4xx_rtc.c ****   *            - The TIMESTAMP alternate function can be mapped to either RTC_AF1 
 169:../Shared/Libraries/STM32F4xx_StdPeriph_Driver/src/stm32f4xx_rtc.c ****   *              or RTC_AF2 depending on the value of the TSINSEL bit in the 
 170:../Shared/Libraries/STM32F4xx_StdPeriph_Driver/src/stm32f4xx_rtc.c ****   *              RTC_TAFCR register. You can use the  RTC_TimeStampPinSelection()
 171:../Shared/Libraries/STM32F4xx_StdPeriph_Driver/src/stm32f4xx_rtc.c ****   *              function to select the corresponding pin. 
 172:../Shared/Libraries/STM32F4xx_StdPeriph_Driver/src/stm32f4xx_rtc.c ****   *
 173:../Shared/Libraries/STM32F4xx_StdPeriph_Driver/src/stm32f4xx_rtc.c ****   *          Backup Data Registers configuration
 174:../Shared/Libraries/STM32F4xx_StdPeriph_Driver/src/stm32f4xx_rtc.c ****   *          ===================================
 175:../Shared/Libraries/STM32F4xx_StdPeriph_Driver/src/stm32f4xx_rtc.c ****   *            - To write to the RTC Backup Data registers, use the RTC_WriteBackupRegister()
 176:../Shared/Libraries/STM32F4xx_StdPeriph_Driver/src/stm32f4xx_rtc.c ****   *              function.  
 177:../Shared/Libraries/STM32F4xx_StdPeriph_Driver/src/stm32f4xx_rtc.c ****   *            - To read the RTC Backup Data registers, use the RTC_ReadBackupRegister()
 178:../Shared/Libraries/STM32F4xx_StdPeriph_Driver/src/stm32f4xx_rtc.c ****   *              function.
 179:../Shared/Libraries/STM32F4xx_StdPeriph_Driver/src/stm32f4xx_rtc.c ****   * 
 180:../Shared/Libraries/STM32F4xx_StdPeriph_Driver/src/stm32f4xx_rtc.c ****   *          ===================================================================
 181:../Shared/Libraries/STM32F4xx_StdPeriph_Driver/src/stm32f4xx_rtc.c ****   *                                  RTC and low power modes
 182:../Shared/Libraries/STM32F4xx_StdPeriph_Driver/src/stm32f4xx_rtc.c ****   *          ===================================================================
 183:../Shared/Libraries/STM32F4xx_StdPeriph_Driver/src/stm32f4xx_rtc.c ****   *           The MCU can be woken up from a low power mode by an RTC alternate 
 184:../Shared/Libraries/STM32F4xx_StdPeriph_Driver/src/stm32f4xx_rtc.c ****   *           function.
 185:../Shared/Libraries/STM32F4xx_StdPeriph_Driver/src/stm32f4xx_rtc.c ****   *           The RTC alternate functions are the RTC alarms (Alarm A and Alarm B), 
 186:../Shared/Libraries/STM32F4xx_StdPeriph_Driver/src/stm32f4xx_rtc.c ****   *           RTC wakeup, RTC tamper event detection and RTC time stamp event detection.
 187:../Shared/Libraries/STM32F4xx_StdPeriph_Driver/src/stm32f4xx_rtc.c ****   *           These RTC alternate functions can wake up the system from the Stop 
 188:../Shared/Libraries/STM32F4xx_StdPeriph_Driver/src/stm32f4xx_rtc.c ****   *           and Standby lowpower modes.
 189:../Shared/Libraries/STM32F4xx_StdPeriph_Driver/src/stm32f4xx_rtc.c ****   *           The system can also wake up from low power modes without depending 
 190:../Shared/Libraries/STM32F4xx_StdPeriph_Driver/src/stm32f4xx_rtc.c ****   *           on an external interrupt (Auto-wakeup mode), by using the RTC alarm 
 191:../Shared/Libraries/STM32F4xx_StdPeriph_Driver/src/stm32f4xx_rtc.c ****   *           or the RTC wakeup events.
 192:../Shared/Libraries/STM32F4xx_StdPeriph_Driver/src/stm32f4xx_rtc.c ****   *           The RTC provides a programmable time base for waking up from the 
 193:../Shared/Libraries/STM32F4xx_StdPeriph_Driver/src/stm32f4xx_rtc.c ****   *           Stop or Standby mode at regular intervals.
 194:../Shared/Libraries/STM32F4xx_StdPeriph_Driver/src/stm32f4xx_rtc.c ****   *           Wakeup from STOP and Standby modes is possible only when the RTC 
 195:../Shared/Libraries/STM32F4xx_StdPeriph_Driver/src/stm32f4xx_rtc.c ****   *           clock source is LSE or LSI.
 196:../Shared/Libraries/STM32F4xx_StdPeriph_Driver/src/stm32f4xx_rtc.c ****   *
 197:../Shared/Libraries/STM32F4xx_StdPeriph_Driver/src/stm32f4xx_rtc.c ****   *          ===================================================================
 198:../Shared/Libraries/STM32F4xx_StdPeriph_Driver/src/stm32f4xx_rtc.c ****   *                            Selection of RTC_AF1 alternate functions
 199:../Shared/Libraries/STM32F4xx_StdPeriph_Driver/src/stm32f4xx_rtc.c ****   *          ===================================================================
 200:../Shared/Libraries/STM32F4xx_StdPeriph_Driver/src/stm32f4xx_rtc.c ****   *          The RTC_AF1 pin (PC13) can be used for the following purposes:
 201:../Shared/Libraries/STM32F4xx_StdPeriph_Driver/src/stm32f4xx_rtc.c ****   *            - AFO_ALARM output
ARM GAS  /tmp/cctIRrNQ.s 			page 5


 202:../Shared/Libraries/STM32F4xx_StdPeriph_Driver/src/stm32f4xx_rtc.c ****   *            - AFO_CALIB output
 203:../Shared/Libraries/STM32F4xx_StdPeriph_Driver/src/stm32f4xx_rtc.c ****   *            - AFI_TAMPER
 204:../Shared/Libraries/STM32F4xx_StdPeriph_Driver/src/stm32f4xx_rtc.c ****   *            - AFI_TIMESTAMP
 205:../Shared/Libraries/STM32F4xx_StdPeriph_Driver/src/stm32f4xx_rtc.c ****   *
 206:../Shared/Libraries/STM32F4xx_StdPeriph_Driver/src/stm32f4xx_rtc.c ****   * +----------------------------------------------------------------------------------------------
 207:../Shared/Libraries/STM32F4xx_StdPeriph_Driver/src/stm32f4xx_rtc.c ****   * |     Pin         |AFO_ALARM |AFO_CALIB |AFI_TAMPER |AFI_TIMESTAMP | TAMP1INSEL |   TSINSEL    
 208:../Shared/Libraries/STM32F4xx_StdPeriph_Driver/src/stm32f4xx_rtc.c ****   * |  configuration  | ENABLED  | ENABLED  |  ENABLED  |   ENABLED    |TAMPER1 pin |TIMESTAMP pin 
 209:../Shared/Libraries/STM32F4xx_StdPeriph_Driver/src/stm32f4xx_rtc.c ****   * |  and function   |          |          |           |              | selection  |  selection   
 210:../Shared/Libraries/STM32F4xx_StdPeriph_Driver/src/stm32f4xx_rtc.c ****   * |-----------------|----------|----------|-----------|--------------|------------|--------------
 211:../Shared/Libraries/STM32F4xx_StdPeriph_Driver/src/stm32f4xx_rtc.c ****   * |   Alarm out     |          |          |           |              |    Don't   |     Don't    
 212:../Shared/Libraries/STM32F4xx_StdPeriph_Driver/src/stm32f4xx_rtc.c ****   * |   output OD     |     1    |Don't care|Don't care | Don't care   |    care    |     care     
 213:../Shared/Libraries/STM32F4xx_StdPeriph_Driver/src/stm32f4xx_rtc.c ****   * |-----------------|----------|----------|-----------|--------------|------------|--------------
 214:../Shared/Libraries/STM32F4xx_StdPeriph_Driver/src/stm32f4xx_rtc.c ****   * |   Alarm out     |          |          |           |              |    Don't   |     Don't    
 215:../Shared/Libraries/STM32F4xx_StdPeriph_Driver/src/stm32f4xx_rtc.c ****   * |   output PP     |     1    |Don't care|Don't care | Don't care   |    care    |     care     
 216:../Shared/Libraries/STM32F4xx_StdPeriph_Driver/src/stm32f4xx_rtc.c ****   * |-----------------|----------|----------|-----------|--------------|------------|--------------
 217:../Shared/Libraries/STM32F4xx_StdPeriph_Driver/src/stm32f4xx_rtc.c ****   * | Calibration out |          |          |           |              |    Don't   |     Don't    
 218:../Shared/Libraries/STM32F4xx_StdPeriph_Driver/src/stm32f4xx_rtc.c ****   * |   output PP     |     0    |    1     |Don't care | Don't care   |    care    |     care     
 219:../Shared/Libraries/STM32F4xx_StdPeriph_Driver/src/stm32f4xx_rtc.c ****   * |-----------------|----------|----------|-----------|--------------|------------|--------------
 220:../Shared/Libraries/STM32F4xx_StdPeriph_Driver/src/stm32f4xx_rtc.c ****   * |  TAMPER input   |          |          |           |              |            |     Don't    
 221:../Shared/Libraries/STM32F4xx_StdPeriph_Driver/src/stm32f4xx_rtc.c ****   * |   floating      |     0    |    0     |     1     |      0       |      0     |     care     
 222:../Shared/Libraries/STM32F4xx_StdPeriph_Driver/src/stm32f4xx_rtc.c ****   * |-----------------|----------|----------|-----------|--------------|------------|--------------
 223:../Shared/Libraries/STM32F4xx_StdPeriph_Driver/src/stm32f4xx_rtc.c ****   * |  TIMESTAMP and  |          |          |           |              |            |              
 224:../Shared/Libraries/STM32F4xx_StdPeriph_Driver/src/stm32f4xx_rtc.c ****   * |  TAMPER input   |     0    |    0     |     1     |      1       |      0     |      0       
 225:../Shared/Libraries/STM32F4xx_StdPeriph_Driver/src/stm32f4xx_rtc.c ****   * |   floating      |          |          |           |              |            |              
 226:../Shared/Libraries/STM32F4xx_StdPeriph_Driver/src/stm32f4xx_rtc.c ****   * |-----------------|----------|----------|-----------|--------------|------------|--------------
 227:../Shared/Libraries/STM32F4xx_StdPeriph_Driver/src/stm32f4xx_rtc.c ****   * | TIMESTAMP input |          |          |           |              |    Don't   |              
 228:../Shared/Libraries/STM32F4xx_StdPeriph_Driver/src/stm32f4xx_rtc.c ****   * |    floating     |     0    |    0     |     0     |      1       |    care    |      0       
 229:../Shared/Libraries/STM32F4xx_StdPeriph_Driver/src/stm32f4xx_rtc.c ****   * |-----------------|----------|----------|-----------|--------------|------------|--------------
 230:../Shared/Libraries/STM32F4xx_StdPeriph_Driver/src/stm32f4xx_rtc.c ****   * |  Standard GPIO  |     0    |    0     |     0     |      0       | Don't care |  Don't care  
 231:../Shared/Libraries/STM32F4xx_StdPeriph_Driver/src/stm32f4xx_rtc.c ****   * +----------------------------------------------------------------------------------------------
 232:../Shared/Libraries/STM32F4xx_StdPeriph_Driver/src/stm32f4xx_rtc.c ****   *
 233:../Shared/Libraries/STM32F4xx_StdPeriph_Driver/src/stm32f4xx_rtc.c ****   *
 234:../Shared/Libraries/STM32F4xx_StdPeriph_Driver/src/stm32f4xx_rtc.c ****   *          ===================================================================
 235:../Shared/Libraries/STM32F4xx_StdPeriph_Driver/src/stm32f4xx_rtc.c ****   *                            Selection of RTC_AF2 alternate functions
 236:../Shared/Libraries/STM32F4xx_StdPeriph_Driver/src/stm32f4xx_rtc.c ****   *          ===================================================================
 237:../Shared/Libraries/STM32F4xx_StdPeriph_Driver/src/stm32f4xx_rtc.c ****   *          The RTC_AF2 pin (PI8) can be used for the following purposes:
 238:../Shared/Libraries/STM32F4xx_StdPeriph_Driver/src/stm32f4xx_rtc.c ****   *            - AFI_TAMPER
 239:../Shared/Libraries/STM32F4xx_StdPeriph_Driver/src/stm32f4xx_rtc.c ****   *            - AFI_TIMESTAMP
 240:../Shared/Libraries/STM32F4xx_StdPeriph_Driver/src/stm32f4xx_rtc.c ****   *
 241:../Shared/Libraries/STM32F4xx_StdPeriph_Driver/src/stm32f4xx_rtc.c ****   * +---------------------------------------------------------------------------------------+
 242:../Shared/Libraries/STM32F4xx_StdPeriph_Driver/src/stm32f4xx_rtc.c ****   * |     Pin         |AFI_TAMPER |AFI_TIMESTAMP | TAMP1INSEL |   TSINSEL    |ALARMOUTTYPE  |
 243:../Shared/Libraries/STM32F4xx_StdPeriph_Driver/src/stm32f4xx_rtc.c ****   * |  configuration  |  ENABLED  |   ENABLED    |TAMPER1 pin |TIMESTAMP pin |  AFO_ALARM   |
 244:../Shared/Libraries/STM32F4xx_StdPeriph_Driver/src/stm32f4xx_rtc.c ****   * |  and function   |           |              | selection  |  selection   |Configuration |
 245:../Shared/Libraries/STM32F4xx_StdPeriph_Driver/src/stm32f4xx_rtc.c ****   * |-----------------|-----------|--------------|------------|--------------|--------------|
 246:../Shared/Libraries/STM32F4xx_StdPeriph_Driver/src/stm32f4xx_rtc.c ****   * |  TAMPER input   |           |              |            |     Don't    |              |
 247:../Shared/Libraries/STM32F4xx_StdPeriph_Driver/src/stm32f4xx_rtc.c ****   * |   floating      |     1     |      0       |      1     |     care     |  Don't care  |
 248:../Shared/Libraries/STM32F4xx_StdPeriph_Driver/src/stm32f4xx_rtc.c ****   * |-----------------|-----------|--------------|------------|--------------|--------------|
 249:../Shared/Libraries/STM32F4xx_StdPeriph_Driver/src/stm32f4xx_rtc.c ****   * |  TIMESTAMP and  |           |              |            |              |              |
 250:../Shared/Libraries/STM32F4xx_StdPeriph_Driver/src/stm32f4xx_rtc.c ****   * |  TAMPER input   |     1     |      1       |      1     |      1       |  Don't care  |
 251:../Shared/Libraries/STM32F4xx_StdPeriph_Driver/src/stm32f4xx_rtc.c ****   * |   floating      |           |              |            |              |              |
 252:../Shared/Libraries/STM32F4xx_StdPeriph_Driver/src/stm32f4xx_rtc.c ****   * |-----------------|-----------|--------------|------------|--------------|--------------|
 253:../Shared/Libraries/STM32F4xx_StdPeriph_Driver/src/stm32f4xx_rtc.c ****   * | TIMESTAMP input |           |              |    Don't   |              |              |
 254:../Shared/Libraries/STM32F4xx_StdPeriph_Driver/src/stm32f4xx_rtc.c ****   * |    floating     |     0     |      1       |    care    |      1       |  Don't care  |
 255:../Shared/Libraries/STM32F4xx_StdPeriph_Driver/src/stm32f4xx_rtc.c ****   * |-----------------|-----------|--------------|------------|--------------|--------------|
 256:../Shared/Libraries/STM32F4xx_StdPeriph_Driver/src/stm32f4xx_rtc.c ****   * |  Standard GPIO  |     0     |      0       | Don't care |  Don't care  |  Don't care  |
 257:../Shared/Libraries/STM32F4xx_StdPeriph_Driver/src/stm32f4xx_rtc.c ****   * +---------------------------------------------------------------------------------------+
 258:../Shared/Libraries/STM32F4xx_StdPeriph_Driver/src/stm32f4xx_rtc.c ****   * 
ARM GAS  /tmp/cctIRrNQ.s 			page 6


 259:../Shared/Libraries/STM32F4xx_StdPeriph_Driver/src/stm32f4xx_rtc.c ****   *
 260:../Shared/Libraries/STM32F4xx_StdPeriph_Driver/src/stm32f4xx_rtc.c ****   *  @endverbatim
 261:../Shared/Libraries/STM32F4xx_StdPeriph_Driver/src/stm32f4xx_rtc.c ****   *
 262:../Shared/Libraries/STM32F4xx_StdPeriph_Driver/src/stm32f4xx_rtc.c ****   ******************************************************************************
 263:../Shared/Libraries/STM32F4xx_StdPeriph_Driver/src/stm32f4xx_rtc.c ****   * @attention
 264:../Shared/Libraries/STM32F4xx_StdPeriph_Driver/src/stm32f4xx_rtc.c ****   *
 265:../Shared/Libraries/STM32F4xx_StdPeriph_Driver/src/stm32f4xx_rtc.c ****   * <h2><center>&copy; COPYRIGHT 2012 STMicroelectronics</center></h2>
 266:../Shared/Libraries/STM32F4xx_StdPeriph_Driver/src/stm32f4xx_rtc.c ****   *
 267:../Shared/Libraries/STM32F4xx_StdPeriph_Driver/src/stm32f4xx_rtc.c ****   * Licensed under MCD-ST Liberty SW License Agreement V2, (the "License");
 268:../Shared/Libraries/STM32F4xx_StdPeriph_Driver/src/stm32f4xx_rtc.c ****   * You may not use this file except in compliance with the License.
 269:../Shared/Libraries/STM32F4xx_StdPeriph_Driver/src/stm32f4xx_rtc.c ****   * You may obtain a copy of the License at:
 270:../Shared/Libraries/STM32F4xx_StdPeriph_Driver/src/stm32f4xx_rtc.c ****   *
 271:../Shared/Libraries/STM32F4xx_StdPeriph_Driver/src/stm32f4xx_rtc.c ****   *        http://www.st.com/software_license_agreement_liberty_v2
 272:../Shared/Libraries/STM32F4xx_StdPeriph_Driver/src/stm32f4xx_rtc.c ****   *
 273:../Shared/Libraries/STM32F4xx_StdPeriph_Driver/src/stm32f4xx_rtc.c ****   * Unless required by applicable law or agreed to in writing, software 
 274:../Shared/Libraries/STM32F4xx_StdPeriph_Driver/src/stm32f4xx_rtc.c ****   * distributed under the License is distributed on an "AS IS" BASIS, 
 275:../Shared/Libraries/STM32F4xx_StdPeriph_Driver/src/stm32f4xx_rtc.c ****   * WITHOUT WARRANTIES OR CONDITIONS OF ANY KIND, either express or implied.
 276:../Shared/Libraries/STM32F4xx_StdPeriph_Driver/src/stm32f4xx_rtc.c ****   * See the License for the specific language governing permissions and
 277:../Shared/Libraries/STM32F4xx_StdPeriph_Driver/src/stm32f4xx_rtc.c ****   * limitations under the License.
 278:../Shared/Libraries/STM32F4xx_StdPeriph_Driver/src/stm32f4xx_rtc.c ****   *
 279:../Shared/Libraries/STM32F4xx_StdPeriph_Driver/src/stm32f4xx_rtc.c ****   ******************************************************************************
 280:../Shared/Libraries/STM32F4xx_StdPeriph_Driver/src/stm32f4xx_rtc.c ****   */ 
 281:../Shared/Libraries/STM32F4xx_StdPeriph_Driver/src/stm32f4xx_rtc.c **** 
 282:../Shared/Libraries/STM32F4xx_StdPeriph_Driver/src/stm32f4xx_rtc.c **** /* Includes ------------------------------------------------------------------*/
 283:../Shared/Libraries/STM32F4xx_StdPeriph_Driver/src/stm32f4xx_rtc.c **** #include "stm32f4xx_rtc.h"
 284:../Shared/Libraries/STM32F4xx_StdPeriph_Driver/src/stm32f4xx_rtc.c **** 
 285:../Shared/Libraries/STM32F4xx_StdPeriph_Driver/src/stm32f4xx_rtc.c **** /** @addtogroup STM32F4xx_StdPeriph_Driver
 286:../Shared/Libraries/STM32F4xx_StdPeriph_Driver/src/stm32f4xx_rtc.c ****   * @{
 287:../Shared/Libraries/STM32F4xx_StdPeriph_Driver/src/stm32f4xx_rtc.c ****   */
 288:../Shared/Libraries/STM32F4xx_StdPeriph_Driver/src/stm32f4xx_rtc.c **** 
 289:../Shared/Libraries/STM32F4xx_StdPeriph_Driver/src/stm32f4xx_rtc.c **** /** @defgroup RTC 
 290:../Shared/Libraries/STM32F4xx_StdPeriph_Driver/src/stm32f4xx_rtc.c ****   * @brief RTC driver modules
 291:../Shared/Libraries/STM32F4xx_StdPeriph_Driver/src/stm32f4xx_rtc.c ****   * @{
 292:../Shared/Libraries/STM32F4xx_StdPeriph_Driver/src/stm32f4xx_rtc.c ****   */
 293:../Shared/Libraries/STM32F4xx_StdPeriph_Driver/src/stm32f4xx_rtc.c **** 
 294:../Shared/Libraries/STM32F4xx_StdPeriph_Driver/src/stm32f4xx_rtc.c **** /* Private typedef -----------------------------------------------------------*/
 295:../Shared/Libraries/STM32F4xx_StdPeriph_Driver/src/stm32f4xx_rtc.c **** /* Private define ------------------------------------------------------------*/
 296:../Shared/Libraries/STM32F4xx_StdPeriph_Driver/src/stm32f4xx_rtc.c **** 
 297:../Shared/Libraries/STM32F4xx_StdPeriph_Driver/src/stm32f4xx_rtc.c **** /* Masks Definition */
 298:../Shared/Libraries/STM32F4xx_StdPeriph_Driver/src/stm32f4xx_rtc.c **** #define RTC_TR_RESERVED_MASK    ((uint32_t)0x007F7F7F)
 299:../Shared/Libraries/STM32F4xx_StdPeriph_Driver/src/stm32f4xx_rtc.c **** #define RTC_DR_RESERVED_MASK    ((uint32_t)0x00FFFF3F) 
 300:../Shared/Libraries/STM32F4xx_StdPeriph_Driver/src/stm32f4xx_rtc.c **** #define RTC_INIT_MASK           ((uint32_t)0xFFFFFFFF)  
 301:../Shared/Libraries/STM32F4xx_StdPeriph_Driver/src/stm32f4xx_rtc.c **** #define RTC_RSF_MASK            ((uint32_t)0xFFFFFF5F)
 302:../Shared/Libraries/STM32F4xx_StdPeriph_Driver/src/stm32f4xx_rtc.c **** #define RTC_FLAGS_MASK          ((uint32_t)(RTC_FLAG_TSOVF | RTC_FLAG_TSF | RTC_FLAG_WUTF | \
 303:../Shared/Libraries/STM32F4xx_StdPeriph_Driver/src/stm32f4xx_rtc.c ****                                             RTC_FLAG_ALRBF | RTC_FLAG_ALRAF | RTC_FLAG_INITF | \
 304:../Shared/Libraries/STM32F4xx_StdPeriph_Driver/src/stm32f4xx_rtc.c ****                                             RTC_FLAG_RSF | RTC_FLAG_INITS | RTC_FLAG_WUTWF | \
 305:../Shared/Libraries/STM32F4xx_StdPeriph_Driver/src/stm32f4xx_rtc.c ****                                             RTC_FLAG_ALRBWF | RTC_FLAG_ALRAWF | RTC_FLAG_TAMP1F | \
 306:../Shared/Libraries/STM32F4xx_StdPeriph_Driver/src/stm32f4xx_rtc.c ****                                             RTC_FLAG_RECALPF | RTC_FLAG_SHPF))
 307:../Shared/Libraries/STM32F4xx_StdPeriph_Driver/src/stm32f4xx_rtc.c **** 
 308:../Shared/Libraries/STM32F4xx_StdPeriph_Driver/src/stm32f4xx_rtc.c **** #define INITMODE_TIMEOUT         ((uint32_t) 0x00010000)
 309:../Shared/Libraries/STM32F4xx_StdPeriph_Driver/src/stm32f4xx_rtc.c **** #define SYNCHRO_TIMEOUT          ((uint32_t) 0x00020000)
 310:../Shared/Libraries/STM32F4xx_StdPeriph_Driver/src/stm32f4xx_rtc.c **** #define RECALPF_TIMEOUT          ((uint32_t) 0x00020000)
 311:../Shared/Libraries/STM32F4xx_StdPeriph_Driver/src/stm32f4xx_rtc.c **** #define SHPF_TIMEOUT             ((uint32_t) 0x00001000)
 312:../Shared/Libraries/STM32F4xx_StdPeriph_Driver/src/stm32f4xx_rtc.c **** 
 313:../Shared/Libraries/STM32F4xx_StdPeriph_Driver/src/stm32f4xx_rtc.c **** /* Private macro -------------------------------------------------------------*/
 314:../Shared/Libraries/STM32F4xx_StdPeriph_Driver/src/stm32f4xx_rtc.c **** /* Private variables ---------------------------------------------------------*/
 315:../Shared/Libraries/STM32F4xx_StdPeriph_Driver/src/stm32f4xx_rtc.c **** /* Private function prototypes -----------------------------------------------*/
ARM GAS  /tmp/cctIRrNQ.s 			page 7


 316:../Shared/Libraries/STM32F4xx_StdPeriph_Driver/src/stm32f4xx_rtc.c **** static uint8_t RTC_ByteToBcd2(uint8_t Value);
 317:../Shared/Libraries/STM32F4xx_StdPeriph_Driver/src/stm32f4xx_rtc.c **** static uint8_t RTC_Bcd2ToByte(uint8_t Value);
 318:../Shared/Libraries/STM32F4xx_StdPeriph_Driver/src/stm32f4xx_rtc.c **** 
 319:../Shared/Libraries/STM32F4xx_StdPeriph_Driver/src/stm32f4xx_rtc.c **** /* Private functions ---------------------------------------------------------*/
 320:../Shared/Libraries/STM32F4xx_StdPeriph_Driver/src/stm32f4xx_rtc.c **** 
 321:../Shared/Libraries/STM32F4xx_StdPeriph_Driver/src/stm32f4xx_rtc.c **** /** @defgroup RTC_Private_Functions
 322:../Shared/Libraries/STM32F4xx_StdPeriph_Driver/src/stm32f4xx_rtc.c ****   * @{
 323:../Shared/Libraries/STM32F4xx_StdPeriph_Driver/src/stm32f4xx_rtc.c ****   */ 
 324:../Shared/Libraries/STM32F4xx_StdPeriph_Driver/src/stm32f4xx_rtc.c **** 
 325:../Shared/Libraries/STM32F4xx_StdPeriph_Driver/src/stm32f4xx_rtc.c **** /** @defgroup RTC_Group1 Initialization and Configuration functions
 326:../Shared/Libraries/STM32F4xx_StdPeriph_Driver/src/stm32f4xx_rtc.c ****  *  @brief   Initialization and Configuration functions 
 327:../Shared/Libraries/STM32F4xx_StdPeriph_Driver/src/stm32f4xx_rtc.c ****  *
 328:../Shared/Libraries/STM32F4xx_StdPeriph_Driver/src/stm32f4xx_rtc.c **** @verbatim   
 329:../Shared/Libraries/STM32F4xx_StdPeriph_Driver/src/stm32f4xx_rtc.c ****  ===============================================================================
 330:../Shared/Libraries/STM32F4xx_StdPeriph_Driver/src/stm32f4xx_rtc.c ****                  Initialization and Configuration functions
 331:../Shared/Libraries/STM32F4xx_StdPeriph_Driver/src/stm32f4xx_rtc.c ****  ===============================================================================
 332:../Shared/Libraries/STM32F4xx_StdPeriph_Driver/src/stm32f4xx_rtc.c **** 
 333:../Shared/Libraries/STM32F4xx_StdPeriph_Driver/src/stm32f4xx_rtc.c ****   This section provide functions allowing to initialize and configure the RTC
 334:../Shared/Libraries/STM32F4xx_StdPeriph_Driver/src/stm32f4xx_rtc.c ****   Prescaler (Synchronous and Asynchronous), RTC Hour format, disable RTC registers
 335:../Shared/Libraries/STM32F4xx_StdPeriph_Driver/src/stm32f4xx_rtc.c ****   Write protection, enter and exit the RTC initialization mode, RTC registers
 336:../Shared/Libraries/STM32F4xx_StdPeriph_Driver/src/stm32f4xx_rtc.c ****   synchronization check and reference clock detection enable.
 337:../Shared/Libraries/STM32F4xx_StdPeriph_Driver/src/stm32f4xx_rtc.c ****   
 338:../Shared/Libraries/STM32F4xx_StdPeriph_Driver/src/stm32f4xx_rtc.c ****   1. The RTC Prescaler is programmed to generate the RTC 1Hz time base. It is
 339:../Shared/Libraries/STM32F4xx_StdPeriph_Driver/src/stm32f4xx_rtc.c ****      split into 2 programmable prescalers to minimize power consumption.
 340:../Shared/Libraries/STM32F4xx_StdPeriph_Driver/src/stm32f4xx_rtc.c ****      - A 7-bit asynchronous prescaler and A 13-bit synchronous prescaler.
 341:../Shared/Libraries/STM32F4xx_StdPeriph_Driver/src/stm32f4xx_rtc.c ****      - When both prescalers are used, it is recommended to configure the asynchronous
 342:../Shared/Libraries/STM32F4xx_StdPeriph_Driver/src/stm32f4xx_rtc.c ****        prescaler to a high value to minimize consumption.
 343:../Shared/Libraries/STM32F4xx_StdPeriph_Driver/src/stm32f4xx_rtc.c **** 
 344:../Shared/Libraries/STM32F4xx_StdPeriph_Driver/src/stm32f4xx_rtc.c ****   2. All RTC registers are Write protected. Writing to the RTC registers
 345:../Shared/Libraries/STM32F4xx_StdPeriph_Driver/src/stm32f4xx_rtc.c ****      is enabled by writing a key into the Write Protection register, RTC_WPR.
 346:../Shared/Libraries/STM32F4xx_StdPeriph_Driver/src/stm32f4xx_rtc.c **** 
 347:../Shared/Libraries/STM32F4xx_StdPeriph_Driver/src/stm32f4xx_rtc.c ****   3. To Configure the RTC Calendar, user application should enter initialization
 348:../Shared/Libraries/STM32F4xx_StdPeriph_Driver/src/stm32f4xx_rtc.c ****      mode. In this mode, the calendar counter is stopped and its value can be 
 349:../Shared/Libraries/STM32F4xx_StdPeriph_Driver/src/stm32f4xx_rtc.c ****      updated. When the initialization sequence is complete, the calendar restarts 
 350:../Shared/Libraries/STM32F4xx_StdPeriph_Driver/src/stm32f4xx_rtc.c ****      counting after 4 RTCCLK cycles.
 351:../Shared/Libraries/STM32F4xx_StdPeriph_Driver/src/stm32f4xx_rtc.c **** 
 352:../Shared/Libraries/STM32F4xx_StdPeriph_Driver/src/stm32f4xx_rtc.c ****   4. To read the calendar through the shadow registers after Calendar initialization,
 353:../Shared/Libraries/STM32F4xx_StdPeriph_Driver/src/stm32f4xx_rtc.c ****      calendar update or after wakeup from low power modes the software must first 
 354:../Shared/Libraries/STM32F4xx_StdPeriph_Driver/src/stm32f4xx_rtc.c ****      clear the RSF flag. The software must then wait until it is set again before 
 355:../Shared/Libraries/STM32F4xx_StdPeriph_Driver/src/stm32f4xx_rtc.c ****      reading the calendar, which means that the calendar registers have been 
 356:../Shared/Libraries/STM32F4xx_StdPeriph_Driver/src/stm32f4xx_rtc.c ****      correctly copied into the RTC_TR and RTC_DR shadow registers.
 357:../Shared/Libraries/STM32F4xx_StdPeriph_Driver/src/stm32f4xx_rtc.c ****      The RTC_WaitForSynchro() function implements the above software sequence 
 358:../Shared/Libraries/STM32F4xx_StdPeriph_Driver/src/stm32f4xx_rtc.c ****      (RSF clear and RSF check).
 359:../Shared/Libraries/STM32F4xx_StdPeriph_Driver/src/stm32f4xx_rtc.c **** 
 360:../Shared/Libraries/STM32F4xx_StdPeriph_Driver/src/stm32f4xx_rtc.c **** @endverbatim
 361:../Shared/Libraries/STM32F4xx_StdPeriph_Driver/src/stm32f4xx_rtc.c ****   * @{
 362:../Shared/Libraries/STM32F4xx_StdPeriph_Driver/src/stm32f4xx_rtc.c ****   */
 363:../Shared/Libraries/STM32F4xx_StdPeriph_Driver/src/stm32f4xx_rtc.c **** 
 364:../Shared/Libraries/STM32F4xx_StdPeriph_Driver/src/stm32f4xx_rtc.c **** /**
 365:../Shared/Libraries/STM32F4xx_StdPeriph_Driver/src/stm32f4xx_rtc.c ****   * @brief  Deinitializes the RTC registers to their default reset values.
 366:../Shared/Libraries/STM32F4xx_StdPeriph_Driver/src/stm32f4xx_rtc.c ****   * @note   This function doesn't reset the RTC Clock source and RTC Backup Data
 367:../Shared/Libraries/STM32F4xx_StdPeriph_Driver/src/stm32f4xx_rtc.c ****   *         registers.       
 368:../Shared/Libraries/STM32F4xx_StdPeriph_Driver/src/stm32f4xx_rtc.c ****   * @param  None
 369:../Shared/Libraries/STM32F4xx_StdPeriph_Driver/src/stm32f4xx_rtc.c ****   * @retval An ErrorStatus enumeration value:
 370:../Shared/Libraries/STM32F4xx_StdPeriph_Driver/src/stm32f4xx_rtc.c ****   *          - SUCCESS: RTC registers are deinitialized
 371:../Shared/Libraries/STM32F4xx_StdPeriph_Driver/src/stm32f4xx_rtc.c ****   *          - ERROR: RTC registers are not deinitialized
 372:../Shared/Libraries/STM32F4xx_StdPeriph_Driver/src/stm32f4xx_rtc.c ****   */
ARM GAS  /tmp/cctIRrNQ.s 			page 8


 373:../Shared/Libraries/STM32F4xx_StdPeriph_Driver/src/stm32f4xx_rtc.c **** ErrorStatus RTC_DeInit(void)
 374:../Shared/Libraries/STM32F4xx_StdPeriph_Driver/src/stm32f4xx_rtc.c **** {
  29              		.loc 1 374 1
  30              		.cfi_startproc
  31              		@ args = 0, pretend = 0, frame = 16
  32              		@ frame_needed = 1, uses_anonymous_args = 0
  33 0000 80B5     		push	{r7, lr}
  34              	.LCFI0:
  35              		.cfi_def_cfa_offset 8
  36              		.cfi_offset 7, -8
  37              		.cfi_offset 14, -4
  38 0002 84B0     		sub	sp, sp, #16
  39              	.LCFI1:
  40              		.cfi_def_cfa_offset 24
  41 0004 00AF     		add	r7, sp, #0
  42              	.LCFI2:
  43              		.cfi_def_cfa_register 7
 375:../Shared/Libraries/STM32F4xx_StdPeriph_Driver/src/stm32f4xx_rtc.c ****   __IO uint32_t wutcounter = 0x00;
  44              		.loc 1 375 17
  45 0006 0023     		movs	r3, #0
  46 0008 7B60     		str	r3, [r7, #4]
 376:../Shared/Libraries/STM32F4xx_StdPeriph_Driver/src/stm32f4xx_rtc.c ****   uint32_t wutwfstatus = 0x00;
  47              		.loc 1 376 12
  48 000a 0023     		movs	r3, #0
  49 000c BB60     		str	r3, [r7, #8]
 377:../Shared/Libraries/STM32F4xx_StdPeriph_Driver/src/stm32f4xx_rtc.c ****   ErrorStatus status = ERROR;
  50              		.loc 1 377 15
  51 000e 0023     		movs	r3, #0
  52 0010 FB73     		strb	r3, [r7, #15]
 378:../Shared/Libraries/STM32F4xx_StdPeriph_Driver/src/stm32f4xx_rtc.c ****   
 379:../Shared/Libraries/STM32F4xx_StdPeriph_Driver/src/stm32f4xx_rtc.c ****   /* Disable the write protection for RTC registers */
 380:../Shared/Libraries/STM32F4xx_StdPeriph_Driver/src/stm32f4xx_rtc.c ****   RTC->WPR = 0xCA;
  53              		.loc 1 380 6
  54 0012 364B     		ldr	r3, .L9
  55              		.loc 1 380 12
  56 0014 CA22     		movs	r2, #202
  57 0016 5A62     		str	r2, [r3, #36]
 381:../Shared/Libraries/STM32F4xx_StdPeriph_Driver/src/stm32f4xx_rtc.c ****   RTC->WPR = 0x53;
  58              		.loc 1 381 6
  59 0018 344B     		ldr	r3, .L9
  60              		.loc 1 381 12
  61 001a 5322     		movs	r2, #83
  62 001c 5A62     		str	r2, [r3, #36]
 382:../Shared/Libraries/STM32F4xx_StdPeriph_Driver/src/stm32f4xx_rtc.c **** 
 383:../Shared/Libraries/STM32F4xx_StdPeriph_Driver/src/stm32f4xx_rtc.c ****   /* Set Initialization mode */
 384:../Shared/Libraries/STM32F4xx_StdPeriph_Driver/src/stm32f4xx_rtc.c ****   if (RTC_EnterInitMode() == ERROR)
  63              		.loc 1 384 7
  64 001e FFF7FEFF 		bl	RTC_EnterInitMode
  65 0022 0346     		mov	r3, r0
  66              		.loc 1 384 6 discriminator 1
  67 0024 002B     		cmp	r3, #0
  68 0026 02D1     		bne	.L2
 385:../Shared/Libraries/STM32F4xx_StdPeriph_Driver/src/stm32f4xx_rtc.c ****   {
 386:../Shared/Libraries/STM32F4xx_StdPeriph_Driver/src/stm32f4xx_rtc.c ****     status = ERROR;
  69              		.loc 1 386 12
  70 0028 0023     		movs	r3, #0
  71 002a FB73     		strb	r3, [r7, #15]
ARM GAS  /tmp/cctIRrNQ.s 			page 9


  72 002c 55E0     		b	.L3
  73              	.L2:
 387:../Shared/Libraries/STM32F4xx_StdPeriph_Driver/src/stm32f4xx_rtc.c ****   }  
 388:../Shared/Libraries/STM32F4xx_StdPeriph_Driver/src/stm32f4xx_rtc.c ****   else
 389:../Shared/Libraries/STM32F4xx_StdPeriph_Driver/src/stm32f4xx_rtc.c ****   {
 390:../Shared/Libraries/STM32F4xx_StdPeriph_Driver/src/stm32f4xx_rtc.c ****     /* Reset TR, DR and CR registers */
 391:../Shared/Libraries/STM32F4xx_StdPeriph_Driver/src/stm32f4xx_rtc.c ****     RTC->TR = (uint32_t)0x00000000;
  74              		.loc 1 391 8
  75 002e 2F4B     		ldr	r3, .L9
  76              		.loc 1 391 13
  77 0030 0022     		movs	r2, #0
  78 0032 1A60     		str	r2, [r3]
 392:../Shared/Libraries/STM32F4xx_StdPeriph_Driver/src/stm32f4xx_rtc.c ****     RTC->DR = (uint32_t)0x00002101;
  79              		.loc 1 392 8
  80 0034 2D4B     		ldr	r3, .L9
  81              		.loc 1 392 13
  82 0036 42F20112 		movw	r2, #8449
  83 003a 5A60     		str	r2, [r3, #4]
 393:../Shared/Libraries/STM32F4xx_StdPeriph_Driver/src/stm32f4xx_rtc.c ****     /* Reset All CR bits except CR[2:0] */
 394:../Shared/Libraries/STM32F4xx_StdPeriph_Driver/src/stm32f4xx_rtc.c ****     RTC->CR &= (uint32_t)0x00000007;
  84              		.loc 1 394 8
  85 003c 2B4B     		ldr	r3, .L9
  86 003e 9B68     		ldr	r3, [r3, #8]
  87 0040 2A4A     		ldr	r2, .L9
  88              		.loc 1 394 13
  89 0042 03F00703 		and	r3, r3, #7
  90 0046 9360     		str	r3, [r2, #8]
  91              	.L5:
 395:../Shared/Libraries/STM32F4xx_StdPeriph_Driver/src/stm32f4xx_rtc.c ****   
 396:../Shared/Libraries/STM32F4xx_StdPeriph_Driver/src/stm32f4xx_rtc.c ****     /* Wait till RTC WUTWF flag is set and if Time out is reached exit */
 397:../Shared/Libraries/STM32F4xx_StdPeriph_Driver/src/stm32f4xx_rtc.c ****     do
 398:../Shared/Libraries/STM32F4xx_StdPeriph_Driver/src/stm32f4xx_rtc.c ****     {
 399:../Shared/Libraries/STM32F4xx_StdPeriph_Driver/src/stm32f4xx_rtc.c ****       wutwfstatus = RTC->ISR & RTC_ISR_WUTWF;
  92              		.loc 1 399 24
  93 0048 284B     		ldr	r3, .L9
  94 004a DB68     		ldr	r3, [r3, #12]
  95              		.loc 1 399 19
  96 004c 03F00403 		and	r3, r3, #4
  97 0050 BB60     		str	r3, [r7, #8]
 400:../Shared/Libraries/STM32F4xx_StdPeriph_Driver/src/stm32f4xx_rtc.c ****       wutcounter++;  
  98              		.loc 1 400 17
  99 0052 7B68     		ldr	r3, [r7, #4]
 100 0054 0133     		adds	r3, r3, #1
 101 0056 7B60     		str	r3, [r7, #4]
 401:../Shared/Libraries/STM32F4xx_StdPeriph_Driver/src/stm32f4xx_rtc.c ****     } while((wutcounter != INITMODE_TIMEOUT) && (wutwfstatus == 0x00));
 102              		.loc 1 401 25 discriminator 2
 103 0058 7B68     		ldr	r3, [r7, #4]
 104              		.loc 1 401 46 discriminator 2
 105 005a B3F5803F 		cmp	r3, #65536
 106 005e 02D0     		beq	.L4
 107              		.loc 1 401 46 is_stmt 0 discriminator 1
 108 0060 BB68     		ldr	r3, [r7, #8]
 109 0062 002B     		cmp	r3, #0
 110 0064 F0D0     		beq	.L5
 111              	.L4:
 402:../Shared/Libraries/STM32F4xx_StdPeriph_Driver/src/stm32f4xx_rtc.c ****     
 403:../Shared/Libraries/STM32F4xx_StdPeriph_Driver/src/stm32f4xx_rtc.c ****     if ((RTC->ISR & RTC_ISR_WUTWF) == RESET)
ARM GAS  /tmp/cctIRrNQ.s 			page 10


 112              		.loc 1 403 13 is_stmt 1
 113 0066 214B     		ldr	r3, .L9
 114 0068 DB68     		ldr	r3, [r3, #12]
 115              		.loc 1 403 19
 116 006a 03F00403 		and	r3, r3, #4
 117              		.loc 1 403 8
 118 006e 002B     		cmp	r3, #0
 119 0070 02D1     		bne	.L6
 404:../Shared/Libraries/STM32F4xx_StdPeriph_Driver/src/stm32f4xx_rtc.c ****     {
 405:../Shared/Libraries/STM32F4xx_StdPeriph_Driver/src/stm32f4xx_rtc.c ****       status = ERROR;
 120              		.loc 1 405 14
 121 0072 0023     		movs	r3, #0
 122 0074 FB73     		strb	r3, [r7, #15]
 123 0076 30E0     		b	.L3
 124              	.L6:
 406:../Shared/Libraries/STM32F4xx_StdPeriph_Driver/src/stm32f4xx_rtc.c ****     }
 407:../Shared/Libraries/STM32F4xx_StdPeriph_Driver/src/stm32f4xx_rtc.c ****     else
 408:../Shared/Libraries/STM32F4xx_StdPeriph_Driver/src/stm32f4xx_rtc.c ****     {
 409:../Shared/Libraries/STM32F4xx_StdPeriph_Driver/src/stm32f4xx_rtc.c ****       /* Reset all RTC CR register bits */
 410:../Shared/Libraries/STM32F4xx_StdPeriph_Driver/src/stm32f4xx_rtc.c ****       RTC->CR &= (uint32_t)0x00000000;
 125              		.loc 1 410 10
 126 0078 1C4B     		ldr	r3, .L9
 127 007a 9B68     		ldr	r3, [r3, #8]
 128 007c 1B4B     		ldr	r3, .L9
 129              		.loc 1 410 15
 130 007e 0022     		movs	r2, #0
 131 0080 9A60     		str	r2, [r3, #8]
 411:../Shared/Libraries/STM32F4xx_StdPeriph_Driver/src/stm32f4xx_rtc.c ****       RTC->WUTR = (uint32_t)0x0000FFFF;
 132              		.loc 1 411 10
 133 0082 1A4B     		ldr	r3, .L9
 134              		.loc 1 411 17
 135 0084 4FF6FF72 		movw	r2, #65535
 136 0088 5A61     		str	r2, [r3, #20]
 412:../Shared/Libraries/STM32F4xx_StdPeriph_Driver/src/stm32f4xx_rtc.c ****       RTC->PRER = (uint32_t)0x007F00FF;
 137              		.loc 1 412 10
 138 008a 184B     		ldr	r3, .L9
 139              		.loc 1 412 17
 140 008c 184A     		ldr	r2, .L9+4
 141 008e 1A61     		str	r2, [r3, #16]
 413:../Shared/Libraries/STM32F4xx_StdPeriph_Driver/src/stm32f4xx_rtc.c ****       RTC->CALIBR = (uint32_t)0x00000000;
 142              		.loc 1 413 10
 143 0090 164B     		ldr	r3, .L9
 144              		.loc 1 413 19
 145 0092 0022     		movs	r2, #0
 146 0094 9A61     		str	r2, [r3, #24]
 414:../Shared/Libraries/STM32F4xx_StdPeriph_Driver/src/stm32f4xx_rtc.c ****       RTC->ALRMAR = (uint32_t)0x00000000;        
 147              		.loc 1 414 10
 148 0096 154B     		ldr	r3, .L9
 149              		.loc 1 414 19
 150 0098 0022     		movs	r2, #0
 151 009a DA61     		str	r2, [r3, #28]
 415:../Shared/Libraries/STM32F4xx_StdPeriph_Driver/src/stm32f4xx_rtc.c ****       RTC->ALRMBR = (uint32_t)0x00000000;
 152              		.loc 1 415 10
 153 009c 134B     		ldr	r3, .L9
 154              		.loc 1 415 19
 155 009e 0022     		movs	r2, #0
 156 00a0 1A62     		str	r2, [r3, #32]
ARM GAS  /tmp/cctIRrNQ.s 			page 11


 416:../Shared/Libraries/STM32F4xx_StdPeriph_Driver/src/stm32f4xx_rtc.c ****       RTC->SHIFTR = (uint32_t)0x00000000;
 157              		.loc 1 416 10
 158 00a2 124B     		ldr	r3, .L9
 159              		.loc 1 416 19
 160 00a4 0022     		movs	r2, #0
 161 00a6 DA62     		str	r2, [r3, #44]
 417:../Shared/Libraries/STM32F4xx_StdPeriph_Driver/src/stm32f4xx_rtc.c ****       RTC->CALR = (uint32_t)0x00000000;
 162              		.loc 1 417 10
 163 00a8 104B     		ldr	r3, .L9
 164              		.loc 1 417 17
 165 00aa 0022     		movs	r2, #0
 166 00ac DA63     		str	r2, [r3, #60]
 418:../Shared/Libraries/STM32F4xx_StdPeriph_Driver/src/stm32f4xx_rtc.c ****       RTC->ALRMASSR = (uint32_t)0x00000000;
 167              		.loc 1 418 10
 168 00ae 0F4B     		ldr	r3, .L9
 169              		.loc 1 418 21
 170 00b0 0022     		movs	r2, #0
 171 00b2 5A64     		str	r2, [r3, #68]
 419:../Shared/Libraries/STM32F4xx_StdPeriph_Driver/src/stm32f4xx_rtc.c ****       RTC->ALRMBSSR = (uint32_t)0x00000000;
 172              		.loc 1 419 10
 173 00b4 0D4B     		ldr	r3, .L9
 174              		.loc 1 419 21
 175 00b6 0022     		movs	r2, #0
 176 00b8 9A64     		str	r2, [r3, #72]
 420:../Shared/Libraries/STM32F4xx_StdPeriph_Driver/src/stm32f4xx_rtc.c ****       
 421:../Shared/Libraries/STM32F4xx_StdPeriph_Driver/src/stm32f4xx_rtc.c ****       /* Reset ISR register and exit initialization mode */
 422:../Shared/Libraries/STM32F4xx_StdPeriph_Driver/src/stm32f4xx_rtc.c ****       RTC->ISR = (uint32_t)0x00000000;
 177              		.loc 1 422 10
 178 00ba 0C4B     		ldr	r3, .L9
 179              		.loc 1 422 16
 180 00bc 0022     		movs	r2, #0
 181 00be DA60     		str	r2, [r3, #12]
 423:../Shared/Libraries/STM32F4xx_StdPeriph_Driver/src/stm32f4xx_rtc.c ****       
 424:../Shared/Libraries/STM32F4xx_StdPeriph_Driver/src/stm32f4xx_rtc.c ****       /* Reset Tamper and alternate functions configuration register */
 425:../Shared/Libraries/STM32F4xx_StdPeriph_Driver/src/stm32f4xx_rtc.c ****       RTC->TAFCR = 0x00000000;
 182              		.loc 1 425 10
 183 00c0 0A4B     		ldr	r3, .L9
 184              		.loc 1 425 18
 185 00c2 0022     		movs	r2, #0
 186 00c4 1A64     		str	r2, [r3, #64]
 426:../Shared/Libraries/STM32F4xx_StdPeriph_Driver/src/stm32f4xx_rtc.c ****   
 427:../Shared/Libraries/STM32F4xx_StdPeriph_Driver/src/stm32f4xx_rtc.c ****       if(RTC_WaitForSynchro() == ERROR)
 187              		.loc 1 427 10
 188 00c6 FFF7FEFF 		bl	RTC_WaitForSynchro
 189 00ca 0346     		mov	r3, r0
 190              		.loc 1 427 9 discriminator 1
 191 00cc 002B     		cmp	r3, #0
 192 00ce 02D1     		bne	.L7
 428:../Shared/Libraries/STM32F4xx_StdPeriph_Driver/src/stm32f4xx_rtc.c ****       {
 429:../Shared/Libraries/STM32F4xx_StdPeriph_Driver/src/stm32f4xx_rtc.c ****         status = ERROR;
 193              		.loc 1 429 16
 194 00d0 0023     		movs	r3, #0
 195 00d2 FB73     		strb	r3, [r7, #15]
 196 00d4 01E0     		b	.L3
 197              	.L7:
 430:../Shared/Libraries/STM32F4xx_StdPeriph_Driver/src/stm32f4xx_rtc.c ****       }
 431:../Shared/Libraries/STM32F4xx_StdPeriph_Driver/src/stm32f4xx_rtc.c ****       else
ARM GAS  /tmp/cctIRrNQ.s 			page 12


 432:../Shared/Libraries/STM32F4xx_StdPeriph_Driver/src/stm32f4xx_rtc.c ****       {
 433:../Shared/Libraries/STM32F4xx_StdPeriph_Driver/src/stm32f4xx_rtc.c ****         status = SUCCESS;      
 198              		.loc 1 433 16
 199 00d6 0123     		movs	r3, #1
 200 00d8 FB73     		strb	r3, [r7, #15]
 201              	.L3:
 434:../Shared/Libraries/STM32F4xx_StdPeriph_Driver/src/stm32f4xx_rtc.c ****       }
 435:../Shared/Libraries/STM32F4xx_StdPeriph_Driver/src/stm32f4xx_rtc.c ****     }
 436:../Shared/Libraries/STM32F4xx_StdPeriph_Driver/src/stm32f4xx_rtc.c ****   }
 437:../Shared/Libraries/STM32F4xx_StdPeriph_Driver/src/stm32f4xx_rtc.c ****   
 438:../Shared/Libraries/STM32F4xx_StdPeriph_Driver/src/stm32f4xx_rtc.c ****   /* Enable the write protection for RTC registers */
 439:../Shared/Libraries/STM32F4xx_StdPeriph_Driver/src/stm32f4xx_rtc.c ****   RTC->WPR = 0xFF;  
 202              		.loc 1 439 6
 203 00da 044B     		ldr	r3, .L9
 204              		.loc 1 439 12
 205 00dc FF22     		movs	r2, #255
 206 00de 5A62     		str	r2, [r3, #36]
 440:../Shared/Libraries/STM32F4xx_StdPeriph_Driver/src/stm32f4xx_rtc.c ****   
 441:../Shared/Libraries/STM32F4xx_StdPeriph_Driver/src/stm32f4xx_rtc.c ****   return status;
 207              		.loc 1 441 10
 208 00e0 FB7B     		ldrb	r3, [r7, #15]	@ zero_extendqisi2
 442:../Shared/Libraries/STM32F4xx_StdPeriph_Driver/src/stm32f4xx_rtc.c **** }
 209              		.loc 1 442 1
 210 00e2 1846     		mov	r0, r3
 211 00e4 1037     		adds	r7, r7, #16
 212              	.LCFI3:
 213              		.cfi_def_cfa_offset 8
 214 00e6 BD46     		mov	sp, r7
 215              	.LCFI4:
 216              		.cfi_def_cfa_register 13
 217              		@ sp needed
 218 00e8 80BD     		pop	{r7, pc}
 219              	.L10:
 220 00ea 00BF     		.align	2
 221              	.L9:
 222 00ec 00280040 		.word	1073752064
 223 00f0 FF007F00 		.word	8323327
 224              		.cfi_endproc
 225              	.LFE110:
 227              		.section	.text.RTC_Init,"ax",%progbits
 228              		.align	1
 229              		.global	RTC_Init
 230              		.syntax unified
 231              		.thumb
 232              		.thumb_func
 234              	RTC_Init:
 235              	.LFB111:
 443:../Shared/Libraries/STM32F4xx_StdPeriph_Driver/src/stm32f4xx_rtc.c **** 
 444:../Shared/Libraries/STM32F4xx_StdPeriph_Driver/src/stm32f4xx_rtc.c **** /**
 445:../Shared/Libraries/STM32F4xx_StdPeriph_Driver/src/stm32f4xx_rtc.c ****   * @brief  Initializes the RTC registers according to the specified parameters 
 446:../Shared/Libraries/STM32F4xx_StdPeriph_Driver/src/stm32f4xx_rtc.c ****   *         in RTC_InitStruct.
 447:../Shared/Libraries/STM32F4xx_StdPeriph_Driver/src/stm32f4xx_rtc.c ****   * @param  RTC_InitStruct: pointer to a RTC_InitTypeDef structure that contains 
 448:../Shared/Libraries/STM32F4xx_StdPeriph_Driver/src/stm32f4xx_rtc.c ****   *         the configuration information for the RTC peripheral.
 449:../Shared/Libraries/STM32F4xx_StdPeriph_Driver/src/stm32f4xx_rtc.c ****   * @note   The RTC Prescaler register is write protected and can be written in 
 450:../Shared/Libraries/STM32F4xx_StdPeriph_Driver/src/stm32f4xx_rtc.c ****   *         initialization mode only.  
 451:../Shared/Libraries/STM32F4xx_StdPeriph_Driver/src/stm32f4xx_rtc.c ****   * @retval An ErrorStatus enumeration value:
 452:../Shared/Libraries/STM32F4xx_StdPeriph_Driver/src/stm32f4xx_rtc.c ****   *          - SUCCESS: RTC registers are initialized
ARM GAS  /tmp/cctIRrNQ.s 			page 13


 453:../Shared/Libraries/STM32F4xx_StdPeriph_Driver/src/stm32f4xx_rtc.c ****   *          - ERROR: RTC registers are not initialized  
 454:../Shared/Libraries/STM32F4xx_StdPeriph_Driver/src/stm32f4xx_rtc.c ****   */
 455:../Shared/Libraries/STM32F4xx_StdPeriph_Driver/src/stm32f4xx_rtc.c **** ErrorStatus RTC_Init(RTC_InitTypeDef* RTC_InitStruct)
 456:../Shared/Libraries/STM32F4xx_StdPeriph_Driver/src/stm32f4xx_rtc.c **** {
 236              		.loc 1 456 1
 237              		.cfi_startproc
 238              		@ args = 0, pretend = 0, frame = 16
 239              		@ frame_needed = 1, uses_anonymous_args = 0
 240 0000 80B5     		push	{r7, lr}
 241              	.LCFI5:
 242              		.cfi_def_cfa_offset 8
 243              		.cfi_offset 7, -8
 244              		.cfi_offset 14, -4
 245 0002 84B0     		sub	sp, sp, #16
 246              	.LCFI6:
 247              		.cfi_def_cfa_offset 24
 248 0004 00AF     		add	r7, sp, #0
 249              	.LCFI7:
 250              		.cfi_def_cfa_register 7
 251 0006 7860     		str	r0, [r7, #4]
 457:../Shared/Libraries/STM32F4xx_StdPeriph_Driver/src/stm32f4xx_rtc.c ****   ErrorStatus status = ERROR;
 252              		.loc 1 457 15
 253 0008 0023     		movs	r3, #0
 254 000a FB73     		strb	r3, [r7, #15]
 458:../Shared/Libraries/STM32F4xx_StdPeriph_Driver/src/stm32f4xx_rtc.c ****   
 459:../Shared/Libraries/STM32F4xx_StdPeriph_Driver/src/stm32f4xx_rtc.c ****   /* Check the parameters */
 460:../Shared/Libraries/STM32F4xx_StdPeriph_Driver/src/stm32f4xx_rtc.c ****   assert_param(IS_RTC_HOUR_FORMAT(RTC_InitStruct->RTC_HourFormat));
 461:../Shared/Libraries/STM32F4xx_StdPeriph_Driver/src/stm32f4xx_rtc.c ****   assert_param(IS_RTC_ASYNCH_PREDIV(RTC_InitStruct->RTC_AsynchPrediv));
 462:../Shared/Libraries/STM32F4xx_StdPeriph_Driver/src/stm32f4xx_rtc.c ****   assert_param(IS_RTC_SYNCH_PREDIV(RTC_InitStruct->RTC_SynchPrediv));
 463:../Shared/Libraries/STM32F4xx_StdPeriph_Driver/src/stm32f4xx_rtc.c **** 
 464:../Shared/Libraries/STM32F4xx_StdPeriph_Driver/src/stm32f4xx_rtc.c ****   /* Disable the write protection for RTC registers */
 465:../Shared/Libraries/STM32F4xx_StdPeriph_Driver/src/stm32f4xx_rtc.c ****   RTC->WPR = 0xCA;
 255              		.loc 1 465 6
 256 000c 194B     		ldr	r3, .L15
 257              		.loc 1 465 12
 258 000e CA22     		movs	r2, #202
 259 0010 5A62     		str	r2, [r3, #36]
 466:../Shared/Libraries/STM32F4xx_StdPeriph_Driver/src/stm32f4xx_rtc.c ****   RTC->WPR = 0x53;
 260              		.loc 1 466 6
 261 0012 184B     		ldr	r3, .L15
 262              		.loc 1 466 12
 263 0014 5322     		movs	r2, #83
 264 0016 5A62     		str	r2, [r3, #36]
 467:../Shared/Libraries/STM32F4xx_StdPeriph_Driver/src/stm32f4xx_rtc.c **** 
 468:../Shared/Libraries/STM32F4xx_StdPeriph_Driver/src/stm32f4xx_rtc.c ****   /* Set Initialization mode */
 469:../Shared/Libraries/STM32F4xx_StdPeriph_Driver/src/stm32f4xx_rtc.c ****   if (RTC_EnterInitMode() == ERROR)
 265              		.loc 1 469 7
 266 0018 FFF7FEFF 		bl	RTC_EnterInitMode
 267 001c 0346     		mov	r3, r0
 268              		.loc 1 469 6 discriminator 1
 269 001e 002B     		cmp	r3, #0
 270 0020 02D1     		bne	.L12
 470:../Shared/Libraries/STM32F4xx_StdPeriph_Driver/src/stm32f4xx_rtc.c ****   {
 471:../Shared/Libraries/STM32F4xx_StdPeriph_Driver/src/stm32f4xx_rtc.c ****     status = ERROR;
 271              		.loc 1 471 12
 272 0022 0023     		movs	r3, #0
 273 0024 FB73     		strb	r3, [r7, #15]
ARM GAS  /tmp/cctIRrNQ.s 			page 14


 274 0026 1CE0     		b	.L13
 275              	.L12:
 472:../Shared/Libraries/STM32F4xx_StdPeriph_Driver/src/stm32f4xx_rtc.c ****   } 
 473:../Shared/Libraries/STM32F4xx_StdPeriph_Driver/src/stm32f4xx_rtc.c ****   else
 474:../Shared/Libraries/STM32F4xx_StdPeriph_Driver/src/stm32f4xx_rtc.c ****   {
 475:../Shared/Libraries/STM32F4xx_StdPeriph_Driver/src/stm32f4xx_rtc.c ****     /* Clear RTC CR FMT Bit */
 476:../Shared/Libraries/STM32F4xx_StdPeriph_Driver/src/stm32f4xx_rtc.c ****     RTC->CR &= ((uint32_t)~(RTC_CR_FMT));
 276              		.loc 1 476 8
 277 0028 124B     		ldr	r3, .L15
 278 002a 9B68     		ldr	r3, [r3, #8]
 279 002c 114A     		ldr	r2, .L15
 280              		.loc 1 476 13
 281 002e 23F04003 		bic	r3, r3, #64
 282 0032 9360     		str	r3, [r2, #8]
 477:../Shared/Libraries/STM32F4xx_StdPeriph_Driver/src/stm32f4xx_rtc.c ****     /* Set RTC_CR register */
 478:../Shared/Libraries/STM32F4xx_StdPeriph_Driver/src/stm32f4xx_rtc.c ****     RTC->CR |=  ((uint32_t)(RTC_InitStruct->RTC_HourFormat));
 283              		.loc 1 478 8
 284 0034 0F4B     		ldr	r3, .L15
 285 0036 9A68     		ldr	r2, [r3, #8]
 286              		.loc 1 478 43
 287 0038 7B68     		ldr	r3, [r7, #4]
 288 003a 1B68     		ldr	r3, [r3]
 289              		.loc 1 478 8
 290 003c 0D49     		ldr	r1, .L15
 291              		.loc 1 478 13
 292 003e 1343     		orrs	r3, r3, r2
 293 0040 8B60     		str	r3, [r1, #8]
 479:../Shared/Libraries/STM32F4xx_StdPeriph_Driver/src/stm32f4xx_rtc.c ****   
 480:../Shared/Libraries/STM32F4xx_StdPeriph_Driver/src/stm32f4xx_rtc.c ****     /* Configure the RTC PRER */
 481:../Shared/Libraries/STM32F4xx_StdPeriph_Driver/src/stm32f4xx_rtc.c ****     RTC->PRER = (uint32_t)(RTC_InitStruct->RTC_SynchPrediv);
 294              		.loc 1 481 8
 295 0042 0C4A     		ldr	r2, .L15
 296              		.loc 1 481 42
 297 0044 7B68     		ldr	r3, [r7, #4]
 298 0046 9B68     		ldr	r3, [r3, #8]
 299              		.loc 1 481 15
 300 0048 1361     		str	r3, [r2, #16]
 482:../Shared/Libraries/STM32F4xx_StdPeriph_Driver/src/stm32f4xx_rtc.c ****     RTC->PRER |= (uint32_t)(RTC_InitStruct->RTC_AsynchPrediv << 16);
 301              		.loc 1 482 8
 302 004a 0A4B     		ldr	r3, .L15
 303 004c 1A69     		ldr	r2, [r3, #16]
 304              		.loc 1 482 43
 305 004e 7B68     		ldr	r3, [r7, #4]
 306 0050 5B68     		ldr	r3, [r3, #4]
 307              		.loc 1 482 18
 308 0052 1B04     		lsls	r3, r3, #16
 309              		.loc 1 482 8
 310 0054 0749     		ldr	r1, .L15
 311              		.loc 1 482 15
 312 0056 1343     		orrs	r3, r3, r2
 313 0058 0B61     		str	r3, [r1, #16]
 483:../Shared/Libraries/STM32F4xx_StdPeriph_Driver/src/stm32f4xx_rtc.c **** 
 484:../Shared/Libraries/STM32F4xx_StdPeriph_Driver/src/stm32f4xx_rtc.c ****     /* Exit Initialization mode */
 485:../Shared/Libraries/STM32F4xx_StdPeriph_Driver/src/stm32f4xx_rtc.c ****     RTC_ExitInitMode();
 314              		.loc 1 485 5
 315 005a FFF7FEFF 		bl	RTC_ExitInitMode
 486:../Shared/Libraries/STM32F4xx_StdPeriph_Driver/src/stm32f4xx_rtc.c **** 
ARM GAS  /tmp/cctIRrNQ.s 			page 15


 487:../Shared/Libraries/STM32F4xx_StdPeriph_Driver/src/stm32f4xx_rtc.c ****     status = SUCCESS;    
 316              		.loc 1 487 12
 317 005e 0123     		movs	r3, #1
 318 0060 FB73     		strb	r3, [r7, #15]
 319              	.L13:
 488:../Shared/Libraries/STM32F4xx_StdPeriph_Driver/src/stm32f4xx_rtc.c ****   }
 489:../Shared/Libraries/STM32F4xx_StdPeriph_Driver/src/stm32f4xx_rtc.c ****   /* Enable the write protection for RTC registers */
 490:../Shared/Libraries/STM32F4xx_StdPeriph_Driver/src/stm32f4xx_rtc.c ****   RTC->WPR = 0xFF; 
 320              		.loc 1 490 6
 321 0062 044B     		ldr	r3, .L15
 322              		.loc 1 490 12
 323 0064 FF22     		movs	r2, #255
 324 0066 5A62     		str	r2, [r3, #36]
 491:../Shared/Libraries/STM32F4xx_StdPeriph_Driver/src/stm32f4xx_rtc.c ****   
 492:../Shared/Libraries/STM32F4xx_StdPeriph_Driver/src/stm32f4xx_rtc.c ****   return status;
 325              		.loc 1 492 10
 326 0068 FB7B     		ldrb	r3, [r7, #15]	@ zero_extendqisi2
 493:../Shared/Libraries/STM32F4xx_StdPeriph_Driver/src/stm32f4xx_rtc.c **** }
 327              		.loc 1 493 1
 328 006a 1846     		mov	r0, r3
 329 006c 1037     		adds	r7, r7, #16
 330              	.LCFI8:
 331              		.cfi_def_cfa_offset 8
 332 006e BD46     		mov	sp, r7
 333              	.LCFI9:
 334              		.cfi_def_cfa_register 13
 335              		@ sp needed
 336 0070 80BD     		pop	{r7, pc}
 337              	.L16:
 338 0072 00BF     		.align	2
 339              	.L15:
 340 0074 00280040 		.word	1073752064
 341              		.cfi_endproc
 342              	.LFE111:
 344              		.section	.text.RTC_StructInit,"ax",%progbits
 345              		.align	1
 346              		.global	RTC_StructInit
 347              		.syntax unified
 348              		.thumb
 349              		.thumb_func
 351              	RTC_StructInit:
 352              	.LFB112:
 494:../Shared/Libraries/STM32F4xx_StdPeriph_Driver/src/stm32f4xx_rtc.c **** 
 495:../Shared/Libraries/STM32F4xx_StdPeriph_Driver/src/stm32f4xx_rtc.c **** /**
 496:../Shared/Libraries/STM32F4xx_StdPeriph_Driver/src/stm32f4xx_rtc.c ****   * @brief  Fills each RTC_InitStruct member with its default value.
 497:../Shared/Libraries/STM32F4xx_StdPeriph_Driver/src/stm32f4xx_rtc.c ****   * @param  RTC_InitStruct: pointer to a RTC_InitTypeDef structure which will be 
 498:../Shared/Libraries/STM32F4xx_StdPeriph_Driver/src/stm32f4xx_rtc.c ****   *         initialized.
 499:../Shared/Libraries/STM32F4xx_StdPeriph_Driver/src/stm32f4xx_rtc.c ****   * @retval None
 500:../Shared/Libraries/STM32F4xx_StdPeriph_Driver/src/stm32f4xx_rtc.c ****   */
 501:../Shared/Libraries/STM32F4xx_StdPeriph_Driver/src/stm32f4xx_rtc.c **** void RTC_StructInit(RTC_InitTypeDef* RTC_InitStruct)
 502:../Shared/Libraries/STM32F4xx_StdPeriph_Driver/src/stm32f4xx_rtc.c **** {
 353              		.loc 1 502 1
 354              		.cfi_startproc
 355              		@ args = 0, pretend = 0, frame = 8
 356              		@ frame_needed = 1, uses_anonymous_args = 0
 357              		@ link register save eliminated.
 358 0000 80B4     		push	{r7}
ARM GAS  /tmp/cctIRrNQ.s 			page 16


 359              	.LCFI10:
 360              		.cfi_def_cfa_offset 4
 361              		.cfi_offset 7, -4
 362 0002 83B0     		sub	sp, sp, #12
 363              	.LCFI11:
 364              		.cfi_def_cfa_offset 16
 365 0004 00AF     		add	r7, sp, #0
 366              	.LCFI12:
 367              		.cfi_def_cfa_register 7
 368 0006 7860     		str	r0, [r7, #4]
 503:../Shared/Libraries/STM32F4xx_StdPeriph_Driver/src/stm32f4xx_rtc.c ****   /* Initialize the RTC_HourFormat member */
 504:../Shared/Libraries/STM32F4xx_StdPeriph_Driver/src/stm32f4xx_rtc.c ****   RTC_InitStruct->RTC_HourFormat = RTC_HourFormat_24;
 369              		.loc 1 504 34
 370 0008 7B68     		ldr	r3, [r7, #4]
 371 000a 0022     		movs	r2, #0
 372 000c 1A60     		str	r2, [r3]
 505:../Shared/Libraries/STM32F4xx_StdPeriph_Driver/src/stm32f4xx_rtc.c ****     
 506:../Shared/Libraries/STM32F4xx_StdPeriph_Driver/src/stm32f4xx_rtc.c ****   /* Initialize the RTC_AsynchPrediv member */
 507:../Shared/Libraries/STM32F4xx_StdPeriph_Driver/src/stm32f4xx_rtc.c ****   RTC_InitStruct->RTC_AsynchPrediv = (uint32_t)0x7F;
 373              		.loc 1 507 36
 374 000e 7B68     		ldr	r3, [r7, #4]
 375 0010 7F22     		movs	r2, #127
 376 0012 5A60     		str	r2, [r3, #4]
 508:../Shared/Libraries/STM32F4xx_StdPeriph_Driver/src/stm32f4xx_rtc.c **** 
 509:../Shared/Libraries/STM32F4xx_StdPeriph_Driver/src/stm32f4xx_rtc.c ****   /* Initialize the RTC_SynchPrediv member */
 510:../Shared/Libraries/STM32F4xx_StdPeriph_Driver/src/stm32f4xx_rtc.c ****   RTC_InitStruct->RTC_SynchPrediv = (uint32_t)0xFF; 
 377              		.loc 1 510 35
 378 0014 7B68     		ldr	r3, [r7, #4]
 379 0016 FF22     		movs	r2, #255
 380 0018 9A60     		str	r2, [r3, #8]
 511:../Shared/Libraries/STM32F4xx_StdPeriph_Driver/src/stm32f4xx_rtc.c **** }
 381              		.loc 1 511 1
 382 001a 00BF     		nop
 383 001c 0C37     		adds	r7, r7, #12
 384              	.LCFI13:
 385              		.cfi_def_cfa_offset 4
 386 001e BD46     		mov	sp, r7
 387              	.LCFI14:
 388              		.cfi_def_cfa_register 13
 389              		@ sp needed
 390 0020 5DF8047B 		ldr	r7, [sp], #4
 391              	.LCFI15:
 392              		.cfi_restore 7
 393              		.cfi_def_cfa_offset 0
 394 0024 7047     		bx	lr
 395              		.cfi_endproc
 396              	.LFE112:
 398              		.section	.text.RTC_WriteProtectionCmd,"ax",%progbits
 399              		.align	1
 400              		.global	RTC_WriteProtectionCmd
 401              		.syntax unified
 402              		.thumb
 403              		.thumb_func
 405              	RTC_WriteProtectionCmd:
 406              	.LFB113:
 512:../Shared/Libraries/STM32F4xx_StdPeriph_Driver/src/stm32f4xx_rtc.c **** 
 513:../Shared/Libraries/STM32F4xx_StdPeriph_Driver/src/stm32f4xx_rtc.c **** /**
ARM GAS  /tmp/cctIRrNQ.s 			page 17


 514:../Shared/Libraries/STM32F4xx_StdPeriph_Driver/src/stm32f4xx_rtc.c ****   * @brief  Enables or disables the RTC registers write protection.
 515:../Shared/Libraries/STM32F4xx_StdPeriph_Driver/src/stm32f4xx_rtc.c ****   * @note   All the RTC registers are write protected except for RTC_ISR[13:8], 
 516:../Shared/Libraries/STM32F4xx_StdPeriph_Driver/src/stm32f4xx_rtc.c ****   *         RTC_TAFCR and RTC_BKPxR.
 517:../Shared/Libraries/STM32F4xx_StdPeriph_Driver/src/stm32f4xx_rtc.c ****   * @note   Writing a wrong key reactivates the write protection.
 518:../Shared/Libraries/STM32F4xx_StdPeriph_Driver/src/stm32f4xx_rtc.c ****   * @note   The protection mechanism is not affected by system reset.  
 519:../Shared/Libraries/STM32F4xx_StdPeriph_Driver/src/stm32f4xx_rtc.c ****   * @param  NewState: new state of the write protection.
 520:../Shared/Libraries/STM32F4xx_StdPeriph_Driver/src/stm32f4xx_rtc.c ****   *          This parameter can be: ENABLE or DISABLE.
 521:../Shared/Libraries/STM32F4xx_StdPeriph_Driver/src/stm32f4xx_rtc.c ****   * @retval None
 522:../Shared/Libraries/STM32F4xx_StdPeriph_Driver/src/stm32f4xx_rtc.c ****   */
 523:../Shared/Libraries/STM32F4xx_StdPeriph_Driver/src/stm32f4xx_rtc.c **** void RTC_WriteProtectionCmd(FunctionalState NewState)
 524:../Shared/Libraries/STM32F4xx_StdPeriph_Driver/src/stm32f4xx_rtc.c **** {
 407              		.loc 1 524 1
 408              		.cfi_startproc
 409              		@ args = 0, pretend = 0, frame = 8
 410              		@ frame_needed = 1, uses_anonymous_args = 0
 411              		@ link register save eliminated.
 412 0000 80B4     		push	{r7}
 413              	.LCFI16:
 414              		.cfi_def_cfa_offset 4
 415              		.cfi_offset 7, -4
 416 0002 83B0     		sub	sp, sp, #12
 417              	.LCFI17:
 418              		.cfi_def_cfa_offset 16
 419 0004 00AF     		add	r7, sp, #0
 420              	.LCFI18:
 421              		.cfi_def_cfa_register 7
 422 0006 0346     		mov	r3, r0
 423 0008 FB71     		strb	r3, [r7, #7]
 525:../Shared/Libraries/STM32F4xx_StdPeriph_Driver/src/stm32f4xx_rtc.c ****   /* Check the parameters */
 526:../Shared/Libraries/STM32F4xx_StdPeriph_Driver/src/stm32f4xx_rtc.c ****   assert_param(IS_FUNCTIONAL_STATE(NewState));
 527:../Shared/Libraries/STM32F4xx_StdPeriph_Driver/src/stm32f4xx_rtc.c ****     
 528:../Shared/Libraries/STM32F4xx_StdPeriph_Driver/src/stm32f4xx_rtc.c ****   if (NewState != DISABLE)
 424              		.loc 1 528 6
 425 000a FB79     		ldrb	r3, [r7, #7]	@ zero_extendqisi2
 426 000c 002B     		cmp	r3, #0
 427 000e 03D0     		beq	.L19
 529:../Shared/Libraries/STM32F4xx_StdPeriph_Driver/src/stm32f4xx_rtc.c ****   {
 530:../Shared/Libraries/STM32F4xx_StdPeriph_Driver/src/stm32f4xx_rtc.c ****     /* Enable the write protection for RTC registers */
 531:../Shared/Libraries/STM32F4xx_StdPeriph_Driver/src/stm32f4xx_rtc.c ****     RTC->WPR = 0xFF;   
 428              		.loc 1 531 8
 429 0010 074B     		ldr	r3, .L22
 430              		.loc 1 531 14
 431 0012 FF22     		movs	r2, #255
 432 0014 5A62     		str	r2, [r3, #36]
 532:../Shared/Libraries/STM32F4xx_StdPeriph_Driver/src/stm32f4xx_rtc.c ****   }
 533:../Shared/Libraries/STM32F4xx_StdPeriph_Driver/src/stm32f4xx_rtc.c ****   else
 534:../Shared/Libraries/STM32F4xx_StdPeriph_Driver/src/stm32f4xx_rtc.c ****   {
 535:../Shared/Libraries/STM32F4xx_StdPeriph_Driver/src/stm32f4xx_rtc.c ****     /* Disable the write protection for RTC registers */
 536:../Shared/Libraries/STM32F4xx_StdPeriph_Driver/src/stm32f4xx_rtc.c ****     RTC->WPR = 0xCA;
 537:../Shared/Libraries/STM32F4xx_StdPeriph_Driver/src/stm32f4xx_rtc.c ****     RTC->WPR = 0x53;    
 538:../Shared/Libraries/STM32F4xx_StdPeriph_Driver/src/stm32f4xx_rtc.c ****   }
 539:../Shared/Libraries/STM32F4xx_StdPeriph_Driver/src/stm32f4xx_rtc.c **** }
 433              		.loc 1 539 1
 434 0016 05E0     		b	.L21
 435              	.L19:
 536:../Shared/Libraries/STM32F4xx_StdPeriph_Driver/src/stm32f4xx_rtc.c ****     RTC->WPR = 0x53;    
 436              		.loc 1 536 8
ARM GAS  /tmp/cctIRrNQ.s 			page 18


 437 0018 054B     		ldr	r3, .L22
 536:../Shared/Libraries/STM32F4xx_StdPeriph_Driver/src/stm32f4xx_rtc.c ****     RTC->WPR = 0x53;    
 438              		.loc 1 536 14
 439 001a CA22     		movs	r2, #202
 440 001c 5A62     		str	r2, [r3, #36]
 537:../Shared/Libraries/STM32F4xx_StdPeriph_Driver/src/stm32f4xx_rtc.c ****   }
 441              		.loc 1 537 8
 442 001e 044B     		ldr	r3, .L22
 537:../Shared/Libraries/STM32F4xx_StdPeriph_Driver/src/stm32f4xx_rtc.c ****   }
 443              		.loc 1 537 14
 444 0020 5322     		movs	r2, #83
 445 0022 5A62     		str	r2, [r3, #36]
 446              	.L21:
 447              		.loc 1 539 1
 448 0024 00BF     		nop
 449 0026 0C37     		adds	r7, r7, #12
 450              	.LCFI19:
 451              		.cfi_def_cfa_offset 4
 452 0028 BD46     		mov	sp, r7
 453              	.LCFI20:
 454              		.cfi_def_cfa_register 13
 455              		@ sp needed
 456 002a 5DF8047B 		ldr	r7, [sp], #4
 457              	.LCFI21:
 458              		.cfi_restore 7
 459              		.cfi_def_cfa_offset 0
 460 002e 7047     		bx	lr
 461              	.L23:
 462              		.align	2
 463              	.L22:
 464 0030 00280040 		.word	1073752064
 465              		.cfi_endproc
 466              	.LFE113:
 468              		.section	.text.RTC_EnterInitMode,"ax",%progbits
 469              		.align	1
 470              		.global	RTC_EnterInitMode
 471              		.syntax unified
 472              		.thumb
 473              		.thumb_func
 475              	RTC_EnterInitMode:
 476              	.LFB114:
 540:../Shared/Libraries/STM32F4xx_StdPeriph_Driver/src/stm32f4xx_rtc.c **** 
 541:../Shared/Libraries/STM32F4xx_StdPeriph_Driver/src/stm32f4xx_rtc.c **** /**
 542:../Shared/Libraries/STM32F4xx_StdPeriph_Driver/src/stm32f4xx_rtc.c ****   * @brief  Enters the RTC Initialization mode.
 543:../Shared/Libraries/STM32F4xx_StdPeriph_Driver/src/stm32f4xx_rtc.c ****   * @note   The RTC Initialization mode is write protected, use the 
 544:../Shared/Libraries/STM32F4xx_StdPeriph_Driver/src/stm32f4xx_rtc.c ****   *         RTC_WriteProtectionCmd(DISABLE) before calling this function.    
 545:../Shared/Libraries/STM32F4xx_StdPeriph_Driver/src/stm32f4xx_rtc.c ****   * @param  None
 546:../Shared/Libraries/STM32F4xx_StdPeriph_Driver/src/stm32f4xx_rtc.c ****   * @retval An ErrorStatus enumeration value:
 547:../Shared/Libraries/STM32F4xx_StdPeriph_Driver/src/stm32f4xx_rtc.c ****   *          - SUCCESS: RTC is in Init mode
 548:../Shared/Libraries/STM32F4xx_StdPeriph_Driver/src/stm32f4xx_rtc.c ****   *          - ERROR: RTC is not in Init mode  
 549:../Shared/Libraries/STM32F4xx_StdPeriph_Driver/src/stm32f4xx_rtc.c ****   */
 550:../Shared/Libraries/STM32F4xx_StdPeriph_Driver/src/stm32f4xx_rtc.c **** ErrorStatus RTC_EnterInitMode(void)
 551:../Shared/Libraries/STM32F4xx_StdPeriph_Driver/src/stm32f4xx_rtc.c **** {
 477              		.loc 1 551 1
 478              		.cfi_startproc
 479              		@ args = 0, pretend = 0, frame = 16
 480              		@ frame_needed = 1, uses_anonymous_args = 0
ARM GAS  /tmp/cctIRrNQ.s 			page 19


 481              		@ link register save eliminated.
 482 0000 80B4     		push	{r7}
 483              	.LCFI22:
 484              		.cfi_def_cfa_offset 4
 485              		.cfi_offset 7, -4
 486 0002 85B0     		sub	sp, sp, #20
 487              	.LCFI23:
 488              		.cfi_def_cfa_offset 24
 489 0004 00AF     		add	r7, sp, #0
 490              	.LCFI24:
 491              		.cfi_def_cfa_register 7
 552:../Shared/Libraries/STM32F4xx_StdPeriph_Driver/src/stm32f4xx_rtc.c ****   __IO uint32_t initcounter = 0x00;
 492              		.loc 1 552 17
 493 0006 0023     		movs	r3, #0
 494 0008 7B60     		str	r3, [r7, #4]
 553:../Shared/Libraries/STM32F4xx_StdPeriph_Driver/src/stm32f4xx_rtc.c ****   ErrorStatus status = ERROR;
 495              		.loc 1 553 15
 496 000a 0023     		movs	r3, #0
 497 000c FB73     		strb	r3, [r7, #15]
 554:../Shared/Libraries/STM32F4xx_StdPeriph_Driver/src/stm32f4xx_rtc.c ****   uint32_t initstatus = 0x00;
 498              		.loc 1 554 12
 499 000e 0023     		movs	r3, #0
 500 0010 BB60     		str	r3, [r7, #8]
 555:../Shared/Libraries/STM32F4xx_StdPeriph_Driver/src/stm32f4xx_rtc.c ****      
 556:../Shared/Libraries/STM32F4xx_StdPeriph_Driver/src/stm32f4xx_rtc.c ****   /* Check if the Initialization mode is set */
 557:../Shared/Libraries/STM32F4xx_StdPeriph_Driver/src/stm32f4xx_rtc.c ****   if ((RTC->ISR & RTC_ISR_INITF) == (uint32_t)RESET)
 501              		.loc 1 557 11
 502 0012 174B     		ldr	r3, .L31
 503 0014 DB68     		ldr	r3, [r3, #12]
 504              		.loc 1 557 17
 505 0016 03F04003 		and	r3, r3, #64
 506              		.loc 1 557 6
 507 001a 002B     		cmp	r3, #0
 508 001c 1ED1     		bne	.L25
 558:../Shared/Libraries/STM32F4xx_StdPeriph_Driver/src/stm32f4xx_rtc.c ****   {
 559:../Shared/Libraries/STM32F4xx_StdPeriph_Driver/src/stm32f4xx_rtc.c ****     /* Set the Initialization mode */
 560:../Shared/Libraries/STM32F4xx_StdPeriph_Driver/src/stm32f4xx_rtc.c ****     RTC->ISR = (uint32_t)RTC_INIT_MASK;
 509              		.loc 1 560 8
 510 001e 144B     		ldr	r3, .L31
 511              		.loc 1 560 14
 512 0020 4FF0FF32 		mov	r2, #-1
 513 0024 DA60     		str	r2, [r3, #12]
 514              	.L27:
 561:../Shared/Libraries/STM32F4xx_StdPeriph_Driver/src/stm32f4xx_rtc.c ****     
 562:../Shared/Libraries/STM32F4xx_StdPeriph_Driver/src/stm32f4xx_rtc.c ****     /* Wait till RTC is in INIT state and if Time out is reached exit */
 563:../Shared/Libraries/STM32F4xx_StdPeriph_Driver/src/stm32f4xx_rtc.c ****     do
 564:../Shared/Libraries/STM32F4xx_StdPeriph_Driver/src/stm32f4xx_rtc.c ****     {
 565:../Shared/Libraries/STM32F4xx_StdPeriph_Driver/src/stm32f4xx_rtc.c ****       initstatus = RTC->ISR & RTC_ISR_INITF;
 515              		.loc 1 565 23
 516 0026 124B     		ldr	r3, .L31
 517 0028 DB68     		ldr	r3, [r3, #12]
 518              		.loc 1 565 18
 519 002a 03F04003 		and	r3, r3, #64
 520 002e BB60     		str	r3, [r7, #8]
 566:../Shared/Libraries/STM32F4xx_StdPeriph_Driver/src/stm32f4xx_rtc.c ****       initcounter++;  
 521              		.loc 1 566 18
 522 0030 7B68     		ldr	r3, [r7, #4]
ARM GAS  /tmp/cctIRrNQ.s 			page 20


 523 0032 0133     		adds	r3, r3, #1
 524 0034 7B60     		str	r3, [r7, #4]
 567:../Shared/Libraries/STM32F4xx_StdPeriph_Driver/src/stm32f4xx_rtc.c ****     } while((initcounter != INITMODE_TIMEOUT) && (initstatus == 0x00));
 525              		.loc 1 567 26 discriminator 2
 526 0036 7B68     		ldr	r3, [r7, #4]
 527              		.loc 1 567 47 discriminator 2
 528 0038 B3F5803F 		cmp	r3, #65536
 529 003c 02D0     		beq	.L26
 530              		.loc 1 567 47 is_stmt 0 discriminator 1
 531 003e BB68     		ldr	r3, [r7, #8]
 532 0040 002B     		cmp	r3, #0
 533 0042 F0D0     		beq	.L27
 534              	.L26:
 568:../Shared/Libraries/STM32F4xx_StdPeriph_Driver/src/stm32f4xx_rtc.c ****     
 569:../Shared/Libraries/STM32F4xx_StdPeriph_Driver/src/stm32f4xx_rtc.c ****     if ((RTC->ISR & RTC_ISR_INITF) != RESET)
 535              		.loc 1 569 13 is_stmt 1
 536 0044 0A4B     		ldr	r3, .L31
 537 0046 DB68     		ldr	r3, [r3, #12]
 538              		.loc 1 569 19
 539 0048 03F04003 		and	r3, r3, #64
 540              		.loc 1 569 8
 541 004c 002B     		cmp	r3, #0
 542 004e 02D0     		beq	.L28
 570:../Shared/Libraries/STM32F4xx_StdPeriph_Driver/src/stm32f4xx_rtc.c ****     {
 571:../Shared/Libraries/STM32F4xx_StdPeriph_Driver/src/stm32f4xx_rtc.c ****       status = SUCCESS;
 543              		.loc 1 571 14
 544 0050 0123     		movs	r3, #1
 545 0052 FB73     		strb	r3, [r7, #15]
 546 0054 04E0     		b	.L29
 547              	.L28:
 572:../Shared/Libraries/STM32F4xx_StdPeriph_Driver/src/stm32f4xx_rtc.c ****     }
 573:../Shared/Libraries/STM32F4xx_StdPeriph_Driver/src/stm32f4xx_rtc.c ****     else
 574:../Shared/Libraries/STM32F4xx_StdPeriph_Driver/src/stm32f4xx_rtc.c ****     {
 575:../Shared/Libraries/STM32F4xx_StdPeriph_Driver/src/stm32f4xx_rtc.c ****       status = ERROR;
 548              		.loc 1 575 14
 549 0056 0023     		movs	r3, #0
 550 0058 FB73     		strb	r3, [r7, #15]
 551 005a 01E0     		b	.L29
 552              	.L25:
 576:../Shared/Libraries/STM32F4xx_StdPeriph_Driver/src/stm32f4xx_rtc.c ****     }        
 577:../Shared/Libraries/STM32F4xx_StdPeriph_Driver/src/stm32f4xx_rtc.c ****   }
 578:../Shared/Libraries/STM32F4xx_StdPeriph_Driver/src/stm32f4xx_rtc.c ****   else
 579:../Shared/Libraries/STM32F4xx_StdPeriph_Driver/src/stm32f4xx_rtc.c ****   {
 580:../Shared/Libraries/STM32F4xx_StdPeriph_Driver/src/stm32f4xx_rtc.c ****     status = SUCCESS;  
 553              		.loc 1 580 12
 554 005c 0123     		movs	r3, #1
 555 005e FB73     		strb	r3, [r7, #15]
 556              	.L29:
 581:../Shared/Libraries/STM32F4xx_StdPeriph_Driver/src/stm32f4xx_rtc.c ****   } 
 582:../Shared/Libraries/STM32F4xx_StdPeriph_Driver/src/stm32f4xx_rtc.c ****     
 583:../Shared/Libraries/STM32F4xx_StdPeriph_Driver/src/stm32f4xx_rtc.c ****   return (status);  
 557              		.loc 1 583 10
 558 0060 FB7B     		ldrb	r3, [r7, #15]	@ zero_extendqisi2
 584:../Shared/Libraries/STM32F4xx_StdPeriph_Driver/src/stm32f4xx_rtc.c **** }
 559              		.loc 1 584 1
 560 0062 1846     		mov	r0, r3
 561 0064 1437     		adds	r7, r7, #20
ARM GAS  /tmp/cctIRrNQ.s 			page 21


 562              	.LCFI25:
 563              		.cfi_def_cfa_offset 4
 564 0066 BD46     		mov	sp, r7
 565              	.LCFI26:
 566              		.cfi_def_cfa_register 13
 567              		@ sp needed
 568 0068 5DF8047B 		ldr	r7, [sp], #4
 569              	.LCFI27:
 570              		.cfi_restore 7
 571              		.cfi_def_cfa_offset 0
 572 006c 7047     		bx	lr
 573              	.L32:
 574 006e 00BF     		.align	2
 575              	.L31:
 576 0070 00280040 		.word	1073752064
 577              		.cfi_endproc
 578              	.LFE114:
 580              		.section	.text.RTC_ExitInitMode,"ax",%progbits
 581              		.align	1
 582              		.global	RTC_ExitInitMode
 583              		.syntax unified
 584              		.thumb
 585              		.thumb_func
 587              	RTC_ExitInitMode:
 588              	.LFB115:
 585:../Shared/Libraries/STM32F4xx_StdPeriph_Driver/src/stm32f4xx_rtc.c **** 
 586:../Shared/Libraries/STM32F4xx_StdPeriph_Driver/src/stm32f4xx_rtc.c **** /**
 587:../Shared/Libraries/STM32F4xx_StdPeriph_Driver/src/stm32f4xx_rtc.c ****   * @brief  Exits the RTC Initialization mode.
 588:../Shared/Libraries/STM32F4xx_StdPeriph_Driver/src/stm32f4xx_rtc.c ****   * @note   When the initialization sequence is complete, the calendar restarts 
 589:../Shared/Libraries/STM32F4xx_StdPeriph_Driver/src/stm32f4xx_rtc.c ****   *         counting after 4 RTCCLK cycles.  
 590:../Shared/Libraries/STM32F4xx_StdPeriph_Driver/src/stm32f4xx_rtc.c ****   * @note   The RTC Initialization mode is write protected, use the 
 591:../Shared/Libraries/STM32F4xx_StdPeriph_Driver/src/stm32f4xx_rtc.c ****   *         RTC_WriteProtectionCmd(DISABLE) before calling this function.      
 592:../Shared/Libraries/STM32F4xx_StdPeriph_Driver/src/stm32f4xx_rtc.c ****   * @param  None
 593:../Shared/Libraries/STM32F4xx_StdPeriph_Driver/src/stm32f4xx_rtc.c ****   * @retval None
 594:../Shared/Libraries/STM32F4xx_StdPeriph_Driver/src/stm32f4xx_rtc.c ****   */
 595:../Shared/Libraries/STM32F4xx_StdPeriph_Driver/src/stm32f4xx_rtc.c **** void RTC_ExitInitMode(void)
 596:../Shared/Libraries/STM32F4xx_StdPeriph_Driver/src/stm32f4xx_rtc.c **** { 
 589              		.loc 1 596 1
 590              		.cfi_startproc
 591              		@ args = 0, pretend = 0, frame = 0
 592              		@ frame_needed = 1, uses_anonymous_args = 0
 593              		@ link register save eliminated.
 594 0000 80B4     		push	{r7}
 595              	.LCFI28:
 596              		.cfi_def_cfa_offset 4
 597              		.cfi_offset 7, -4
 598 0002 00AF     		add	r7, sp, #0
 599              	.LCFI29:
 600              		.cfi_def_cfa_register 7
 597:../Shared/Libraries/STM32F4xx_StdPeriph_Driver/src/stm32f4xx_rtc.c ****   /* Exit Initialization mode */
 598:../Shared/Libraries/STM32F4xx_StdPeriph_Driver/src/stm32f4xx_rtc.c ****   RTC->ISR &= (uint32_t)~RTC_ISR_INIT;  
 601              		.loc 1 598 6
 602 0004 054B     		ldr	r3, .L34
 603 0006 DB68     		ldr	r3, [r3, #12]
 604 0008 044A     		ldr	r2, .L34
 605              		.loc 1 598 12
 606 000a 23F08003 		bic	r3, r3, #128
ARM GAS  /tmp/cctIRrNQ.s 			page 22


 607 000e D360     		str	r3, [r2, #12]
 599:../Shared/Libraries/STM32F4xx_StdPeriph_Driver/src/stm32f4xx_rtc.c **** }
 608              		.loc 1 599 1
 609 0010 00BF     		nop
 610 0012 BD46     		mov	sp, r7
 611              	.LCFI30:
 612              		.cfi_def_cfa_register 13
 613              		@ sp needed
 614 0014 5DF8047B 		ldr	r7, [sp], #4
 615              	.LCFI31:
 616              		.cfi_restore 7
 617              		.cfi_def_cfa_offset 0
 618 0018 7047     		bx	lr
 619              	.L35:
 620 001a 00BF     		.align	2
 621              	.L34:
 622 001c 00280040 		.word	1073752064
 623              		.cfi_endproc
 624              	.LFE115:
 626              		.section	.text.RTC_WaitForSynchro,"ax",%progbits
 627              		.align	1
 628              		.global	RTC_WaitForSynchro
 629              		.syntax unified
 630              		.thumb
 631              		.thumb_func
 633              	RTC_WaitForSynchro:
 634              	.LFB116:
 600:../Shared/Libraries/STM32F4xx_StdPeriph_Driver/src/stm32f4xx_rtc.c **** 
 601:../Shared/Libraries/STM32F4xx_StdPeriph_Driver/src/stm32f4xx_rtc.c **** /**
 602:../Shared/Libraries/STM32F4xx_StdPeriph_Driver/src/stm32f4xx_rtc.c ****   * @brief  Waits until the RTC Time and Date registers (RTC_TR and RTC_DR) are 
 603:../Shared/Libraries/STM32F4xx_StdPeriph_Driver/src/stm32f4xx_rtc.c ****   *         synchronized with RTC APB clock.
 604:../Shared/Libraries/STM32F4xx_StdPeriph_Driver/src/stm32f4xx_rtc.c ****   * @note   The RTC Resynchronization mode is write protected, use the 
 605:../Shared/Libraries/STM32F4xx_StdPeriph_Driver/src/stm32f4xx_rtc.c ****   *         RTC_WriteProtectionCmd(DISABLE) before calling this function. 
 606:../Shared/Libraries/STM32F4xx_StdPeriph_Driver/src/stm32f4xx_rtc.c ****   * @note   To read the calendar through the shadow registers after Calendar 
 607:../Shared/Libraries/STM32F4xx_StdPeriph_Driver/src/stm32f4xx_rtc.c ****   *         initialization, calendar update or after wakeup from low power modes 
 608:../Shared/Libraries/STM32F4xx_StdPeriph_Driver/src/stm32f4xx_rtc.c ****   *         the software must first clear the RSF flag. 
 609:../Shared/Libraries/STM32F4xx_StdPeriph_Driver/src/stm32f4xx_rtc.c ****   *         The software must then wait until it is set again before reading 
 610:../Shared/Libraries/STM32F4xx_StdPeriph_Driver/src/stm32f4xx_rtc.c ****   *         the calendar, which means that the calendar registers have been 
 611:../Shared/Libraries/STM32F4xx_StdPeriph_Driver/src/stm32f4xx_rtc.c ****   *         correctly copied into the RTC_TR and RTC_DR shadow registers.   
 612:../Shared/Libraries/STM32F4xx_StdPeriph_Driver/src/stm32f4xx_rtc.c ****   * @param  None
 613:../Shared/Libraries/STM32F4xx_StdPeriph_Driver/src/stm32f4xx_rtc.c ****   * @retval An ErrorStatus enumeration value:
 614:../Shared/Libraries/STM32F4xx_StdPeriph_Driver/src/stm32f4xx_rtc.c ****   *          - SUCCESS: RTC registers are synchronised
 615:../Shared/Libraries/STM32F4xx_StdPeriph_Driver/src/stm32f4xx_rtc.c ****   *          - ERROR: RTC registers are not synchronised
 616:../Shared/Libraries/STM32F4xx_StdPeriph_Driver/src/stm32f4xx_rtc.c ****   */
 617:../Shared/Libraries/STM32F4xx_StdPeriph_Driver/src/stm32f4xx_rtc.c **** ErrorStatus RTC_WaitForSynchro(void)
 618:../Shared/Libraries/STM32F4xx_StdPeriph_Driver/src/stm32f4xx_rtc.c **** {
 635              		.loc 1 618 1
 636              		.cfi_startproc
 637              		@ args = 0, pretend = 0, frame = 16
 638              		@ frame_needed = 1, uses_anonymous_args = 0
 639              		@ link register save eliminated.
 640 0000 80B4     		push	{r7}
 641              	.LCFI32:
 642              		.cfi_def_cfa_offset 4
 643              		.cfi_offset 7, -4
 644 0002 85B0     		sub	sp, sp, #20
 645              	.LCFI33:
ARM GAS  /tmp/cctIRrNQ.s 			page 23


 646              		.cfi_def_cfa_offset 24
 647 0004 00AF     		add	r7, sp, #0
 648              	.LCFI34:
 649              		.cfi_def_cfa_register 7
 619:../Shared/Libraries/STM32F4xx_StdPeriph_Driver/src/stm32f4xx_rtc.c ****   __IO uint32_t synchrocounter = 0;
 650              		.loc 1 619 17
 651 0006 0023     		movs	r3, #0
 652 0008 7B60     		str	r3, [r7, #4]
 620:../Shared/Libraries/STM32F4xx_StdPeriph_Driver/src/stm32f4xx_rtc.c ****   ErrorStatus status = ERROR;
 653              		.loc 1 620 15
 654 000a 0023     		movs	r3, #0
 655 000c FB73     		strb	r3, [r7, #15]
 621:../Shared/Libraries/STM32F4xx_StdPeriph_Driver/src/stm32f4xx_rtc.c ****   uint32_t synchrostatus = 0x00;
 656              		.loc 1 621 12
 657 000e 0023     		movs	r3, #0
 658 0010 BB60     		str	r3, [r7, #8]
 622:../Shared/Libraries/STM32F4xx_StdPeriph_Driver/src/stm32f4xx_rtc.c **** 
 623:../Shared/Libraries/STM32F4xx_StdPeriph_Driver/src/stm32f4xx_rtc.c ****   /* Disable the write protection for RTC registers */
 624:../Shared/Libraries/STM32F4xx_StdPeriph_Driver/src/stm32f4xx_rtc.c ****   RTC->WPR = 0xCA;
 659              		.loc 1 624 6
 660 0012 184B     		ldr	r3, .L42
 661              		.loc 1 624 12
 662 0014 CA22     		movs	r2, #202
 663 0016 5A62     		str	r2, [r3, #36]
 625:../Shared/Libraries/STM32F4xx_StdPeriph_Driver/src/stm32f4xx_rtc.c ****   RTC->WPR = 0x53;
 664              		.loc 1 625 6
 665 0018 164B     		ldr	r3, .L42
 666              		.loc 1 625 12
 667 001a 5322     		movs	r2, #83
 668 001c 5A62     		str	r2, [r3, #36]
 626:../Shared/Libraries/STM32F4xx_StdPeriph_Driver/src/stm32f4xx_rtc.c ****     
 627:../Shared/Libraries/STM32F4xx_StdPeriph_Driver/src/stm32f4xx_rtc.c ****   /* Clear RSF flag */
 628:../Shared/Libraries/STM32F4xx_StdPeriph_Driver/src/stm32f4xx_rtc.c ****   RTC->ISR &= (uint32_t)RTC_RSF_MASK;
 669              		.loc 1 628 6
 670 001e 154B     		ldr	r3, .L42
 671 0020 DB68     		ldr	r3, [r3, #12]
 672 0022 144A     		ldr	r2, .L42
 673              		.loc 1 628 12
 674 0024 23F0A003 		bic	r3, r3, #160
 675 0028 D360     		str	r3, [r2, #12]
 676              	.L38:
 629:../Shared/Libraries/STM32F4xx_StdPeriph_Driver/src/stm32f4xx_rtc.c ****     
 630:../Shared/Libraries/STM32F4xx_StdPeriph_Driver/src/stm32f4xx_rtc.c ****   /* Wait the registers to be synchronised */
 631:../Shared/Libraries/STM32F4xx_StdPeriph_Driver/src/stm32f4xx_rtc.c ****   do
 632:../Shared/Libraries/STM32F4xx_StdPeriph_Driver/src/stm32f4xx_rtc.c ****   {
 633:../Shared/Libraries/STM32F4xx_StdPeriph_Driver/src/stm32f4xx_rtc.c ****     synchrostatus = RTC->ISR & RTC_ISR_RSF;
 677              		.loc 1 633 24
 678 002a 124B     		ldr	r3, .L42
 679 002c DB68     		ldr	r3, [r3, #12]
 680              		.loc 1 633 19
 681 002e 03F02003 		and	r3, r3, #32
 682 0032 BB60     		str	r3, [r7, #8]
 634:../Shared/Libraries/STM32F4xx_StdPeriph_Driver/src/stm32f4xx_rtc.c ****     synchrocounter++;  
 683              		.loc 1 634 19
 684 0034 7B68     		ldr	r3, [r7, #4]
 685 0036 0133     		adds	r3, r3, #1
 686 0038 7B60     		str	r3, [r7, #4]
ARM GAS  /tmp/cctIRrNQ.s 			page 24


 635:../Shared/Libraries/STM32F4xx_StdPeriph_Driver/src/stm32f4xx_rtc.c ****   } while((synchrocounter != SYNCHRO_TIMEOUT) && (synchrostatus == 0x00));
 687              		.loc 1 635 27 discriminator 2
 688 003a 7B68     		ldr	r3, [r7, #4]
 689              		.loc 1 635 47 discriminator 2
 690 003c B3F5003F 		cmp	r3, #131072
 691 0040 02D0     		beq	.L37
 692              		.loc 1 635 47 is_stmt 0 discriminator 1
 693 0042 BB68     		ldr	r3, [r7, #8]
 694 0044 002B     		cmp	r3, #0
 695 0046 F0D0     		beq	.L38
 696              	.L37:
 636:../Shared/Libraries/STM32F4xx_StdPeriph_Driver/src/stm32f4xx_rtc.c ****     
 637:../Shared/Libraries/STM32F4xx_StdPeriph_Driver/src/stm32f4xx_rtc.c ****   if ((RTC->ISR & RTC_ISR_RSF) != RESET)
 697              		.loc 1 637 11 is_stmt 1
 698 0048 0A4B     		ldr	r3, .L42
 699 004a DB68     		ldr	r3, [r3, #12]
 700              		.loc 1 637 17
 701 004c 03F02003 		and	r3, r3, #32
 702              		.loc 1 637 6
 703 0050 002B     		cmp	r3, #0
 704 0052 02D0     		beq	.L39
 638:../Shared/Libraries/STM32F4xx_StdPeriph_Driver/src/stm32f4xx_rtc.c ****   {
 639:../Shared/Libraries/STM32F4xx_StdPeriph_Driver/src/stm32f4xx_rtc.c ****     status = SUCCESS;
 705              		.loc 1 639 12
 706 0054 0123     		movs	r3, #1
 707 0056 FB73     		strb	r3, [r7, #15]
 708 0058 01E0     		b	.L40
 709              	.L39:
 640:../Shared/Libraries/STM32F4xx_StdPeriph_Driver/src/stm32f4xx_rtc.c ****   }
 641:../Shared/Libraries/STM32F4xx_StdPeriph_Driver/src/stm32f4xx_rtc.c ****   else
 642:../Shared/Libraries/STM32F4xx_StdPeriph_Driver/src/stm32f4xx_rtc.c ****   {
 643:../Shared/Libraries/STM32F4xx_StdPeriph_Driver/src/stm32f4xx_rtc.c ****     status = ERROR;
 710              		.loc 1 643 12
 711 005a 0023     		movs	r3, #0
 712 005c FB73     		strb	r3, [r7, #15]
 713              	.L40:
 644:../Shared/Libraries/STM32F4xx_StdPeriph_Driver/src/stm32f4xx_rtc.c ****   }        
 645:../Shared/Libraries/STM32F4xx_StdPeriph_Driver/src/stm32f4xx_rtc.c **** 
 646:../Shared/Libraries/STM32F4xx_StdPeriph_Driver/src/stm32f4xx_rtc.c ****   /* Enable the write protection for RTC registers */
 647:../Shared/Libraries/STM32F4xx_StdPeriph_Driver/src/stm32f4xx_rtc.c ****   RTC->WPR = 0xFF; 
 714              		.loc 1 647 6
 715 005e 054B     		ldr	r3, .L42
 716              		.loc 1 647 12
 717 0060 FF22     		movs	r2, #255
 718 0062 5A62     		str	r2, [r3, #36]
 648:../Shared/Libraries/STM32F4xx_StdPeriph_Driver/src/stm32f4xx_rtc.c ****     
 649:../Shared/Libraries/STM32F4xx_StdPeriph_Driver/src/stm32f4xx_rtc.c ****   return (status); 
 719              		.loc 1 649 10
 720 0064 FB7B     		ldrb	r3, [r7, #15]	@ zero_extendqisi2
 650:../Shared/Libraries/STM32F4xx_StdPeriph_Driver/src/stm32f4xx_rtc.c **** }
 721              		.loc 1 650 1
 722 0066 1846     		mov	r0, r3
 723 0068 1437     		adds	r7, r7, #20
 724              	.LCFI35:
 725              		.cfi_def_cfa_offset 4
 726 006a BD46     		mov	sp, r7
 727              	.LCFI36:
ARM GAS  /tmp/cctIRrNQ.s 			page 25


 728              		.cfi_def_cfa_register 13
 729              		@ sp needed
 730 006c 5DF8047B 		ldr	r7, [sp], #4
 731              	.LCFI37:
 732              		.cfi_restore 7
 733              		.cfi_def_cfa_offset 0
 734 0070 7047     		bx	lr
 735              	.L43:
 736 0072 00BF     		.align	2
 737              	.L42:
 738 0074 00280040 		.word	1073752064
 739              		.cfi_endproc
 740              	.LFE116:
 742              		.section	.text.RTC_RefClockCmd,"ax",%progbits
 743              		.align	1
 744              		.global	RTC_RefClockCmd
 745              		.syntax unified
 746              		.thumb
 747              		.thumb_func
 749              	RTC_RefClockCmd:
 750              	.LFB117:
 651:../Shared/Libraries/STM32F4xx_StdPeriph_Driver/src/stm32f4xx_rtc.c **** 
 652:../Shared/Libraries/STM32F4xx_StdPeriph_Driver/src/stm32f4xx_rtc.c **** /**
 653:../Shared/Libraries/STM32F4xx_StdPeriph_Driver/src/stm32f4xx_rtc.c ****   * @brief  Enables or disables the RTC reference clock detection.
 654:../Shared/Libraries/STM32F4xx_StdPeriph_Driver/src/stm32f4xx_rtc.c ****   * @param  NewState: new state of the RTC reference clock.
 655:../Shared/Libraries/STM32F4xx_StdPeriph_Driver/src/stm32f4xx_rtc.c ****   *          This parameter can be: ENABLE or DISABLE.
 656:../Shared/Libraries/STM32F4xx_StdPeriph_Driver/src/stm32f4xx_rtc.c ****   * @retval An ErrorStatus enumeration value:
 657:../Shared/Libraries/STM32F4xx_StdPeriph_Driver/src/stm32f4xx_rtc.c ****   *          - SUCCESS: RTC reference clock detection is enabled
 658:../Shared/Libraries/STM32F4xx_StdPeriph_Driver/src/stm32f4xx_rtc.c ****   *          - ERROR: RTC reference clock detection is disabled  
 659:../Shared/Libraries/STM32F4xx_StdPeriph_Driver/src/stm32f4xx_rtc.c ****   */
 660:../Shared/Libraries/STM32F4xx_StdPeriph_Driver/src/stm32f4xx_rtc.c **** ErrorStatus RTC_RefClockCmd(FunctionalState NewState)
 661:../Shared/Libraries/STM32F4xx_StdPeriph_Driver/src/stm32f4xx_rtc.c **** { 
 751              		.loc 1 661 1
 752              		.cfi_startproc
 753              		@ args = 0, pretend = 0, frame = 16
 754              		@ frame_needed = 1, uses_anonymous_args = 0
 755 0000 80B5     		push	{r7, lr}
 756              	.LCFI38:
 757              		.cfi_def_cfa_offset 8
 758              		.cfi_offset 7, -8
 759              		.cfi_offset 14, -4
 760 0002 84B0     		sub	sp, sp, #16
 761              	.LCFI39:
 762              		.cfi_def_cfa_offset 24
 763 0004 00AF     		add	r7, sp, #0
 764              	.LCFI40:
 765              		.cfi_def_cfa_register 7
 766 0006 0346     		mov	r3, r0
 767 0008 FB71     		strb	r3, [r7, #7]
 662:../Shared/Libraries/STM32F4xx_StdPeriph_Driver/src/stm32f4xx_rtc.c ****   ErrorStatus status = ERROR;
 768              		.loc 1 662 15
 769 000a 0023     		movs	r3, #0
 770 000c FB73     		strb	r3, [r7, #15]
 663:../Shared/Libraries/STM32F4xx_StdPeriph_Driver/src/stm32f4xx_rtc.c ****   
 664:../Shared/Libraries/STM32F4xx_StdPeriph_Driver/src/stm32f4xx_rtc.c ****   /* Check the parameters */
 665:../Shared/Libraries/STM32F4xx_StdPeriph_Driver/src/stm32f4xx_rtc.c ****   assert_param(IS_FUNCTIONAL_STATE(NewState));
 666:../Shared/Libraries/STM32F4xx_StdPeriph_Driver/src/stm32f4xx_rtc.c ****   
ARM GAS  /tmp/cctIRrNQ.s 			page 26


 667:../Shared/Libraries/STM32F4xx_StdPeriph_Driver/src/stm32f4xx_rtc.c ****   /* Disable the write protection for RTC registers */
 668:../Shared/Libraries/STM32F4xx_StdPeriph_Driver/src/stm32f4xx_rtc.c ****   RTC->WPR = 0xCA;
 771              		.loc 1 668 6
 772 000e 154B     		ldr	r3, .L50
 773              		.loc 1 668 12
 774 0010 CA22     		movs	r2, #202
 775 0012 5A62     		str	r2, [r3, #36]
 669:../Shared/Libraries/STM32F4xx_StdPeriph_Driver/src/stm32f4xx_rtc.c ****   RTC->WPR = 0x53;
 776              		.loc 1 669 6
 777 0014 134B     		ldr	r3, .L50
 778              		.loc 1 669 12
 779 0016 5322     		movs	r2, #83
 780 0018 5A62     		str	r2, [r3, #36]
 670:../Shared/Libraries/STM32F4xx_StdPeriph_Driver/src/stm32f4xx_rtc.c ****     
 671:../Shared/Libraries/STM32F4xx_StdPeriph_Driver/src/stm32f4xx_rtc.c ****   /* Set Initialization mode */
 672:../Shared/Libraries/STM32F4xx_StdPeriph_Driver/src/stm32f4xx_rtc.c ****   if (RTC_EnterInitMode() == ERROR)
 781              		.loc 1 672 7
 782 001a FFF7FEFF 		bl	RTC_EnterInitMode
 783 001e 0346     		mov	r3, r0
 784              		.loc 1 672 6 discriminator 1
 785 0020 002B     		cmp	r3, #0
 786 0022 02D1     		bne	.L45
 673:../Shared/Libraries/STM32F4xx_StdPeriph_Driver/src/stm32f4xx_rtc.c ****   {
 674:../Shared/Libraries/STM32F4xx_StdPeriph_Driver/src/stm32f4xx_rtc.c ****     status = ERROR;
 787              		.loc 1 674 12
 788 0024 0023     		movs	r3, #0
 789 0026 FB73     		strb	r3, [r7, #15]
 790 0028 13E0     		b	.L46
 791              	.L45:
 675:../Shared/Libraries/STM32F4xx_StdPeriph_Driver/src/stm32f4xx_rtc.c ****   } 
 676:../Shared/Libraries/STM32F4xx_StdPeriph_Driver/src/stm32f4xx_rtc.c ****   else
 677:../Shared/Libraries/STM32F4xx_StdPeriph_Driver/src/stm32f4xx_rtc.c ****   {  
 678:../Shared/Libraries/STM32F4xx_StdPeriph_Driver/src/stm32f4xx_rtc.c ****     if (NewState != DISABLE)
 792              		.loc 1 678 8
 793 002a FB79     		ldrb	r3, [r7, #7]	@ zero_extendqisi2
 794 002c 002B     		cmp	r3, #0
 795 002e 06D0     		beq	.L47
 679:../Shared/Libraries/STM32F4xx_StdPeriph_Driver/src/stm32f4xx_rtc.c ****     {
 680:../Shared/Libraries/STM32F4xx_StdPeriph_Driver/src/stm32f4xx_rtc.c ****       /* Enable the RTC reference clock detection */
 681:../Shared/Libraries/STM32F4xx_StdPeriph_Driver/src/stm32f4xx_rtc.c ****       RTC->CR |= RTC_CR_REFCKON;   
 796              		.loc 1 681 10
 797 0030 0C4B     		ldr	r3, .L50
 798 0032 9B68     		ldr	r3, [r3, #8]
 799 0034 0B4A     		ldr	r2, .L50
 800              		.loc 1 681 15
 801 0036 43F01003 		orr	r3, r3, #16
 802 003a 9360     		str	r3, [r2, #8]
 803 003c 05E0     		b	.L48
 804              	.L47:
 682:../Shared/Libraries/STM32F4xx_StdPeriph_Driver/src/stm32f4xx_rtc.c ****     }
 683:../Shared/Libraries/STM32F4xx_StdPeriph_Driver/src/stm32f4xx_rtc.c ****     else
 684:../Shared/Libraries/STM32F4xx_StdPeriph_Driver/src/stm32f4xx_rtc.c ****     {
 685:../Shared/Libraries/STM32F4xx_StdPeriph_Driver/src/stm32f4xx_rtc.c ****       /* Disable the RTC reference clock detection */
 686:../Shared/Libraries/STM32F4xx_StdPeriph_Driver/src/stm32f4xx_rtc.c ****       RTC->CR &= ~RTC_CR_REFCKON;    
 805              		.loc 1 686 10
 806 003e 094B     		ldr	r3, .L50
 807 0040 9B68     		ldr	r3, [r3, #8]
ARM GAS  /tmp/cctIRrNQ.s 			page 27


 808 0042 084A     		ldr	r2, .L50
 809              		.loc 1 686 15
 810 0044 23F01003 		bic	r3, r3, #16
 811 0048 9360     		str	r3, [r2, #8]
 812              	.L48:
 687:../Shared/Libraries/STM32F4xx_StdPeriph_Driver/src/stm32f4xx_rtc.c ****     }
 688:../Shared/Libraries/STM32F4xx_StdPeriph_Driver/src/stm32f4xx_rtc.c ****     /* Exit Initialization mode */
 689:../Shared/Libraries/STM32F4xx_StdPeriph_Driver/src/stm32f4xx_rtc.c ****     RTC_ExitInitMode();
 813              		.loc 1 689 5
 814 004a FFF7FEFF 		bl	RTC_ExitInitMode
 690:../Shared/Libraries/STM32F4xx_StdPeriph_Driver/src/stm32f4xx_rtc.c ****     
 691:../Shared/Libraries/STM32F4xx_StdPeriph_Driver/src/stm32f4xx_rtc.c ****     status = SUCCESS;
 815              		.loc 1 691 12
 816 004e 0123     		movs	r3, #1
 817 0050 FB73     		strb	r3, [r7, #15]
 818              	.L46:
 692:../Shared/Libraries/STM32F4xx_StdPeriph_Driver/src/stm32f4xx_rtc.c ****   }
 693:../Shared/Libraries/STM32F4xx_StdPeriph_Driver/src/stm32f4xx_rtc.c ****   
 694:../Shared/Libraries/STM32F4xx_StdPeriph_Driver/src/stm32f4xx_rtc.c ****   /* Enable the write protection for RTC registers */
 695:../Shared/Libraries/STM32F4xx_StdPeriph_Driver/src/stm32f4xx_rtc.c ****   RTC->WPR = 0xFF;  
 819              		.loc 1 695 6
 820 0052 044B     		ldr	r3, .L50
 821              		.loc 1 695 12
 822 0054 FF22     		movs	r2, #255
 823 0056 5A62     		str	r2, [r3, #36]
 696:../Shared/Libraries/STM32F4xx_StdPeriph_Driver/src/stm32f4xx_rtc.c ****   
 697:../Shared/Libraries/STM32F4xx_StdPeriph_Driver/src/stm32f4xx_rtc.c ****   return status; 
 824              		.loc 1 697 10
 825 0058 FB7B     		ldrb	r3, [r7, #15]	@ zero_extendqisi2
 698:../Shared/Libraries/STM32F4xx_StdPeriph_Driver/src/stm32f4xx_rtc.c **** }
 826              		.loc 1 698 1
 827 005a 1846     		mov	r0, r3
 828 005c 1037     		adds	r7, r7, #16
 829              	.LCFI41:
 830              		.cfi_def_cfa_offset 8
 831 005e BD46     		mov	sp, r7
 832              	.LCFI42:
 833              		.cfi_def_cfa_register 13
 834              		@ sp needed
 835 0060 80BD     		pop	{r7, pc}
 836              	.L51:
 837 0062 00BF     		.align	2
 838              	.L50:
 839 0064 00280040 		.word	1073752064
 840              		.cfi_endproc
 841              	.LFE117:
 843              		.section	.text.RTC_BypassShadowCmd,"ax",%progbits
 844              		.align	1
 845              		.global	RTC_BypassShadowCmd
 846              		.syntax unified
 847              		.thumb
 848              		.thumb_func
 850              	RTC_BypassShadowCmd:
 851              	.LFB118:
 699:../Shared/Libraries/STM32F4xx_StdPeriph_Driver/src/stm32f4xx_rtc.c **** 
 700:../Shared/Libraries/STM32F4xx_StdPeriph_Driver/src/stm32f4xx_rtc.c **** /**
 701:../Shared/Libraries/STM32F4xx_StdPeriph_Driver/src/stm32f4xx_rtc.c ****   * @brief  Enables or Disables the Bypass Shadow feature.
ARM GAS  /tmp/cctIRrNQ.s 			page 28


 702:../Shared/Libraries/STM32F4xx_StdPeriph_Driver/src/stm32f4xx_rtc.c ****   * @note   When the Bypass Shadow is enabled the calendar value are taken 
 703:../Shared/Libraries/STM32F4xx_StdPeriph_Driver/src/stm32f4xx_rtc.c ****   *         directly from the Calendar counter.
 704:../Shared/Libraries/STM32F4xx_StdPeriph_Driver/src/stm32f4xx_rtc.c ****   * @param  NewState: new state of the Bypass Shadow feature.
 705:../Shared/Libraries/STM32F4xx_StdPeriph_Driver/src/stm32f4xx_rtc.c ****   *         This parameter can be: ENABLE or DISABLE.
 706:../Shared/Libraries/STM32F4xx_StdPeriph_Driver/src/stm32f4xx_rtc.c ****   * @retval None
 707:../Shared/Libraries/STM32F4xx_StdPeriph_Driver/src/stm32f4xx_rtc.c **** */
 708:../Shared/Libraries/STM32F4xx_StdPeriph_Driver/src/stm32f4xx_rtc.c **** void RTC_BypassShadowCmd(FunctionalState NewState)
 709:../Shared/Libraries/STM32F4xx_StdPeriph_Driver/src/stm32f4xx_rtc.c **** {
 852              		.loc 1 709 1
 853              		.cfi_startproc
 854              		@ args = 0, pretend = 0, frame = 8
 855              		@ frame_needed = 1, uses_anonymous_args = 0
 856              		@ link register save eliminated.
 857 0000 80B4     		push	{r7}
 858              	.LCFI43:
 859              		.cfi_def_cfa_offset 4
 860              		.cfi_offset 7, -4
 861 0002 83B0     		sub	sp, sp, #12
 862              	.LCFI44:
 863              		.cfi_def_cfa_offset 16
 864 0004 00AF     		add	r7, sp, #0
 865              	.LCFI45:
 866              		.cfi_def_cfa_register 7
 867 0006 0346     		mov	r3, r0
 868 0008 FB71     		strb	r3, [r7, #7]
 710:../Shared/Libraries/STM32F4xx_StdPeriph_Driver/src/stm32f4xx_rtc.c ****   /* Check the parameters */
 711:../Shared/Libraries/STM32F4xx_StdPeriph_Driver/src/stm32f4xx_rtc.c ****   assert_param(IS_FUNCTIONAL_STATE(NewState));
 712:../Shared/Libraries/STM32F4xx_StdPeriph_Driver/src/stm32f4xx_rtc.c **** 
 713:../Shared/Libraries/STM32F4xx_StdPeriph_Driver/src/stm32f4xx_rtc.c ****   /* Disable the write protection for RTC registers */
 714:../Shared/Libraries/STM32F4xx_StdPeriph_Driver/src/stm32f4xx_rtc.c ****   RTC->WPR = 0xCA;
 869              		.loc 1 714 6
 870 000a 0F4B     		ldr	r3, .L55
 871              		.loc 1 714 12
 872 000c CA22     		movs	r2, #202
 873 000e 5A62     		str	r2, [r3, #36]
 715:../Shared/Libraries/STM32F4xx_StdPeriph_Driver/src/stm32f4xx_rtc.c ****   RTC->WPR = 0x53;
 874              		.loc 1 715 6
 875 0010 0D4B     		ldr	r3, .L55
 876              		.loc 1 715 12
 877 0012 5322     		movs	r2, #83
 878 0014 5A62     		str	r2, [r3, #36]
 716:../Shared/Libraries/STM32F4xx_StdPeriph_Driver/src/stm32f4xx_rtc.c ****   
 717:../Shared/Libraries/STM32F4xx_StdPeriph_Driver/src/stm32f4xx_rtc.c ****   if (NewState != DISABLE)
 879              		.loc 1 717 6
 880 0016 FB79     		ldrb	r3, [r7, #7]	@ zero_extendqisi2
 881 0018 002B     		cmp	r3, #0
 882 001a 06D0     		beq	.L53
 718:../Shared/Libraries/STM32F4xx_StdPeriph_Driver/src/stm32f4xx_rtc.c ****   {
 719:../Shared/Libraries/STM32F4xx_StdPeriph_Driver/src/stm32f4xx_rtc.c ****     /* Set the BYPSHAD bit */
 720:../Shared/Libraries/STM32F4xx_StdPeriph_Driver/src/stm32f4xx_rtc.c ****     RTC->CR |= (uint8_t)RTC_CR_BYPSHAD;
 883              		.loc 1 720 8
 884 001c 0A4B     		ldr	r3, .L55
 885 001e 9B68     		ldr	r3, [r3, #8]
 886 0020 094A     		ldr	r2, .L55
 887              		.loc 1 720 13
 888 0022 43F02003 		orr	r3, r3, #32
 889 0026 9360     		str	r3, [r2, #8]
ARM GAS  /tmp/cctIRrNQ.s 			page 29


 890 0028 05E0     		b	.L54
 891              	.L53:
 721:../Shared/Libraries/STM32F4xx_StdPeriph_Driver/src/stm32f4xx_rtc.c ****   }
 722:../Shared/Libraries/STM32F4xx_StdPeriph_Driver/src/stm32f4xx_rtc.c ****   else
 723:../Shared/Libraries/STM32F4xx_StdPeriph_Driver/src/stm32f4xx_rtc.c ****   {
 724:../Shared/Libraries/STM32F4xx_StdPeriph_Driver/src/stm32f4xx_rtc.c ****     /* Reset the BYPSHAD bit */
 725:../Shared/Libraries/STM32F4xx_StdPeriph_Driver/src/stm32f4xx_rtc.c ****     RTC->CR &= (uint8_t)~RTC_CR_BYPSHAD;
 892              		.loc 1 725 8
 893 002a 074B     		ldr	r3, .L55
 894 002c 9B68     		ldr	r3, [r3, #8]
 895 002e 064A     		ldr	r2, .L55
 896              		.loc 1 725 13
 897 0030 03F0DF03 		and	r3, r3, #223
 898 0034 9360     		str	r3, [r2, #8]
 899              	.L54:
 726:../Shared/Libraries/STM32F4xx_StdPeriph_Driver/src/stm32f4xx_rtc.c ****   }
 727:../Shared/Libraries/STM32F4xx_StdPeriph_Driver/src/stm32f4xx_rtc.c **** 
 728:../Shared/Libraries/STM32F4xx_StdPeriph_Driver/src/stm32f4xx_rtc.c ****   /* Enable the write protection for RTC registers */
 729:../Shared/Libraries/STM32F4xx_StdPeriph_Driver/src/stm32f4xx_rtc.c ****   RTC->WPR = 0xFF;
 900              		.loc 1 729 6
 901 0036 044B     		ldr	r3, .L55
 902              		.loc 1 729 12
 903 0038 FF22     		movs	r2, #255
 904 003a 5A62     		str	r2, [r3, #36]
 730:../Shared/Libraries/STM32F4xx_StdPeriph_Driver/src/stm32f4xx_rtc.c **** }
 905              		.loc 1 730 1
 906 003c 00BF     		nop
 907 003e 0C37     		adds	r7, r7, #12
 908              	.LCFI46:
 909              		.cfi_def_cfa_offset 4
 910 0040 BD46     		mov	sp, r7
 911              	.LCFI47:
 912              		.cfi_def_cfa_register 13
 913              		@ sp needed
 914 0042 5DF8047B 		ldr	r7, [sp], #4
 915              	.LCFI48:
 916              		.cfi_restore 7
 917              		.cfi_def_cfa_offset 0
 918 0046 7047     		bx	lr
 919              	.L56:
 920              		.align	2
 921              	.L55:
 922 0048 00280040 		.word	1073752064
 923              		.cfi_endproc
 924              	.LFE118:
 926              		.section	.text.RTC_SetTime,"ax",%progbits
 927              		.align	1
 928              		.global	RTC_SetTime
 929              		.syntax unified
 930              		.thumb
 931              		.thumb_func
 933              	RTC_SetTime:
 934              	.LFB119:
 731:../Shared/Libraries/STM32F4xx_StdPeriph_Driver/src/stm32f4xx_rtc.c **** 
 732:../Shared/Libraries/STM32F4xx_StdPeriph_Driver/src/stm32f4xx_rtc.c **** /**
 733:../Shared/Libraries/STM32F4xx_StdPeriph_Driver/src/stm32f4xx_rtc.c ****   * @}
 734:../Shared/Libraries/STM32F4xx_StdPeriph_Driver/src/stm32f4xx_rtc.c ****   */
ARM GAS  /tmp/cctIRrNQ.s 			page 30


 735:../Shared/Libraries/STM32F4xx_StdPeriph_Driver/src/stm32f4xx_rtc.c **** 
 736:../Shared/Libraries/STM32F4xx_StdPeriph_Driver/src/stm32f4xx_rtc.c **** /** @defgroup RTC_Group2 Time and Date configuration functions
 737:../Shared/Libraries/STM32F4xx_StdPeriph_Driver/src/stm32f4xx_rtc.c ****  *  @brief   Time and Date configuration functions 
 738:../Shared/Libraries/STM32F4xx_StdPeriph_Driver/src/stm32f4xx_rtc.c ****  *
 739:../Shared/Libraries/STM32F4xx_StdPeriph_Driver/src/stm32f4xx_rtc.c **** @verbatim   
 740:../Shared/Libraries/STM32F4xx_StdPeriph_Driver/src/stm32f4xx_rtc.c ****  ===============================================================================
 741:../Shared/Libraries/STM32F4xx_StdPeriph_Driver/src/stm32f4xx_rtc.c ****                    Time and Date configuration functions
 742:../Shared/Libraries/STM32F4xx_StdPeriph_Driver/src/stm32f4xx_rtc.c ****  ===============================================================================  
 743:../Shared/Libraries/STM32F4xx_StdPeriph_Driver/src/stm32f4xx_rtc.c **** 
 744:../Shared/Libraries/STM32F4xx_StdPeriph_Driver/src/stm32f4xx_rtc.c ****   This section provide functions allowing to program and read the RTC Calendar
 745:../Shared/Libraries/STM32F4xx_StdPeriph_Driver/src/stm32f4xx_rtc.c ****   (Time and Date).
 746:../Shared/Libraries/STM32F4xx_StdPeriph_Driver/src/stm32f4xx_rtc.c **** 
 747:../Shared/Libraries/STM32F4xx_StdPeriph_Driver/src/stm32f4xx_rtc.c **** @endverbatim
 748:../Shared/Libraries/STM32F4xx_StdPeriph_Driver/src/stm32f4xx_rtc.c ****   * @{
 749:../Shared/Libraries/STM32F4xx_StdPeriph_Driver/src/stm32f4xx_rtc.c ****   */
 750:../Shared/Libraries/STM32F4xx_StdPeriph_Driver/src/stm32f4xx_rtc.c **** 
 751:../Shared/Libraries/STM32F4xx_StdPeriph_Driver/src/stm32f4xx_rtc.c **** /**
 752:../Shared/Libraries/STM32F4xx_StdPeriph_Driver/src/stm32f4xx_rtc.c ****   * @brief  Set the RTC current time.
 753:../Shared/Libraries/STM32F4xx_StdPeriph_Driver/src/stm32f4xx_rtc.c ****   * @param  RTC_Format: specifies the format of the entered parameters.
 754:../Shared/Libraries/STM32F4xx_StdPeriph_Driver/src/stm32f4xx_rtc.c ****   *          This parameter can be  one of the following values:
 755:../Shared/Libraries/STM32F4xx_StdPeriph_Driver/src/stm32f4xx_rtc.c ****   *            @arg RTC_Format_BIN:  Binary data format 
 756:../Shared/Libraries/STM32F4xx_StdPeriph_Driver/src/stm32f4xx_rtc.c ****   *            @arg RTC_Format_BCD:  BCD data format
 757:../Shared/Libraries/STM32F4xx_StdPeriph_Driver/src/stm32f4xx_rtc.c ****   * @param  RTC_TimeStruct: pointer to a RTC_TimeTypeDef structure that contains 
 758:../Shared/Libraries/STM32F4xx_StdPeriph_Driver/src/stm32f4xx_rtc.c ****   *                        the time configuration information for the RTC.     
 759:../Shared/Libraries/STM32F4xx_StdPeriph_Driver/src/stm32f4xx_rtc.c ****   * @retval An ErrorStatus enumeration value:
 760:../Shared/Libraries/STM32F4xx_StdPeriph_Driver/src/stm32f4xx_rtc.c ****   *          - SUCCESS: RTC Time register is configured
 761:../Shared/Libraries/STM32F4xx_StdPeriph_Driver/src/stm32f4xx_rtc.c ****   *          - ERROR: RTC Time register is not configured
 762:../Shared/Libraries/STM32F4xx_StdPeriph_Driver/src/stm32f4xx_rtc.c ****   */
 763:../Shared/Libraries/STM32F4xx_StdPeriph_Driver/src/stm32f4xx_rtc.c **** ErrorStatus RTC_SetTime(uint32_t RTC_Format, RTC_TimeTypeDef* RTC_TimeStruct)
 764:../Shared/Libraries/STM32F4xx_StdPeriph_Driver/src/stm32f4xx_rtc.c **** {
 935              		.loc 1 764 1
 936              		.cfi_startproc
 937              		@ args = 0, pretend = 0, frame = 16
 938              		@ frame_needed = 1, uses_anonymous_args = 0
 939 0000 90B5     		push	{r4, r7, lr}
 940              	.LCFI49:
 941              		.cfi_def_cfa_offset 12
 942              		.cfi_offset 4, -12
 943              		.cfi_offset 7, -8
 944              		.cfi_offset 14, -4
 945 0002 85B0     		sub	sp, sp, #20
 946              	.LCFI50:
 947              		.cfi_def_cfa_offset 32
 948 0004 00AF     		add	r7, sp, #0
 949              	.LCFI51:
 950              		.cfi_def_cfa_register 7
 951 0006 7860     		str	r0, [r7, #4]
 952 0008 3960     		str	r1, [r7]
 765:../Shared/Libraries/STM32F4xx_StdPeriph_Driver/src/stm32f4xx_rtc.c ****   uint32_t tmpreg = 0;
 953              		.loc 1 765 12
 954 000a 0023     		movs	r3, #0
 955 000c FB60     		str	r3, [r7, #12]
 766:../Shared/Libraries/STM32F4xx_StdPeriph_Driver/src/stm32f4xx_rtc.c ****   ErrorStatus status = ERROR;
 956              		.loc 1 766 15
 957 000e 0023     		movs	r3, #0
 958 0010 FB72     		strb	r3, [r7, #11]
 767:../Shared/Libraries/STM32F4xx_StdPeriph_Driver/src/stm32f4xx_rtc.c ****     
ARM GAS  /tmp/cctIRrNQ.s 			page 31


 768:../Shared/Libraries/STM32F4xx_StdPeriph_Driver/src/stm32f4xx_rtc.c ****   /* Check the parameters */
 769:../Shared/Libraries/STM32F4xx_StdPeriph_Driver/src/stm32f4xx_rtc.c ****   assert_param(IS_RTC_FORMAT(RTC_Format));
 770:../Shared/Libraries/STM32F4xx_StdPeriph_Driver/src/stm32f4xx_rtc.c ****   
 771:../Shared/Libraries/STM32F4xx_StdPeriph_Driver/src/stm32f4xx_rtc.c ****   if (RTC_Format == RTC_Format_BIN)
 959              		.loc 1 771 6
 960 0012 7B68     		ldr	r3, [r7, #4]
 961 0014 002B     		cmp	r3, #0
 962 0016 09D1     		bne	.L58
 772:../Shared/Libraries/STM32F4xx_StdPeriph_Driver/src/stm32f4xx_rtc.c ****   {
 773:../Shared/Libraries/STM32F4xx_StdPeriph_Driver/src/stm32f4xx_rtc.c ****     if ((RTC->CR & RTC_CR_FMT) != (uint32_t)RESET)
 963              		.loc 1 773 13
 964 0018 3D4B     		ldr	r3, .L68
 965 001a 9B68     		ldr	r3, [r3, #8]
 966              		.loc 1 773 18
 967 001c 03F04003 		and	r3, r3, #64
 968              		.loc 1 773 8
 969 0020 002B     		cmp	r3, #0
 970 0022 14D1     		bne	.L59
 774:../Shared/Libraries/STM32F4xx_StdPeriph_Driver/src/stm32f4xx_rtc.c ****     {
 775:../Shared/Libraries/STM32F4xx_StdPeriph_Driver/src/stm32f4xx_rtc.c ****       assert_param(IS_RTC_HOUR12(RTC_TimeStruct->RTC_Hours));
 776:../Shared/Libraries/STM32F4xx_StdPeriph_Driver/src/stm32f4xx_rtc.c ****       assert_param(IS_RTC_H12(RTC_TimeStruct->RTC_H12));
 777:../Shared/Libraries/STM32F4xx_StdPeriph_Driver/src/stm32f4xx_rtc.c ****     } 
 778:../Shared/Libraries/STM32F4xx_StdPeriph_Driver/src/stm32f4xx_rtc.c ****     else
 779:../Shared/Libraries/STM32F4xx_StdPeriph_Driver/src/stm32f4xx_rtc.c ****     {
 780:../Shared/Libraries/STM32F4xx_StdPeriph_Driver/src/stm32f4xx_rtc.c ****       RTC_TimeStruct->RTC_H12 = 0x00;
 971              		.loc 1 780 31
 972 0024 3B68     		ldr	r3, [r7]
 973 0026 0022     		movs	r2, #0
 974 0028 DA70     		strb	r2, [r3, #3]
 975 002a 10E0     		b	.L59
 976              	.L58:
 781:../Shared/Libraries/STM32F4xx_StdPeriph_Driver/src/stm32f4xx_rtc.c ****       assert_param(IS_RTC_HOUR24(RTC_TimeStruct->RTC_Hours));
 782:../Shared/Libraries/STM32F4xx_StdPeriph_Driver/src/stm32f4xx_rtc.c ****     }
 783:../Shared/Libraries/STM32F4xx_StdPeriph_Driver/src/stm32f4xx_rtc.c ****     assert_param(IS_RTC_MINUTES(RTC_TimeStruct->RTC_Minutes));
 784:../Shared/Libraries/STM32F4xx_StdPeriph_Driver/src/stm32f4xx_rtc.c ****     assert_param(IS_RTC_SECONDS(RTC_TimeStruct->RTC_Seconds));
 785:../Shared/Libraries/STM32F4xx_StdPeriph_Driver/src/stm32f4xx_rtc.c ****   }
 786:../Shared/Libraries/STM32F4xx_StdPeriph_Driver/src/stm32f4xx_rtc.c ****   else
 787:../Shared/Libraries/STM32F4xx_StdPeriph_Driver/src/stm32f4xx_rtc.c ****   {
 788:../Shared/Libraries/STM32F4xx_StdPeriph_Driver/src/stm32f4xx_rtc.c ****     if ((RTC->CR & RTC_CR_FMT) != (uint32_t)RESET)
 977              		.loc 1 788 13
 978 002c 384B     		ldr	r3, .L68
 979 002e 9B68     		ldr	r3, [r3, #8]
 980              		.loc 1 788 18
 981 0030 03F04003 		and	r3, r3, #64
 982              		.loc 1 788 8
 983 0034 002B     		cmp	r3, #0
 984 0036 07D0     		beq	.L60
 789:../Shared/Libraries/STM32F4xx_StdPeriph_Driver/src/stm32f4xx_rtc.c ****     {
 790:../Shared/Libraries/STM32F4xx_StdPeriph_Driver/src/stm32f4xx_rtc.c ****       tmpreg = RTC_Bcd2ToByte(RTC_TimeStruct->RTC_Hours);
 985              		.loc 1 790 16
 986 0038 3B68     		ldr	r3, [r7]
 987 003a 1B78     		ldrb	r3, [r3]	@ zero_extendqisi2
 988 003c 1846     		mov	r0, r3
 989 003e FFF7FEFF 		bl	RTC_Bcd2ToByte
 990 0042 0346     		mov	r3, r0
 991              		.loc 1 790 14 discriminator 1
 992 0044 FB60     		str	r3, [r7, #12]
ARM GAS  /tmp/cctIRrNQ.s 			page 32


 993 0046 02E0     		b	.L59
 994              	.L60:
 791:../Shared/Libraries/STM32F4xx_StdPeriph_Driver/src/stm32f4xx_rtc.c ****       assert_param(IS_RTC_HOUR12(tmpreg));
 792:../Shared/Libraries/STM32F4xx_StdPeriph_Driver/src/stm32f4xx_rtc.c ****       assert_param(IS_RTC_H12(RTC_TimeStruct->RTC_H12)); 
 793:../Shared/Libraries/STM32F4xx_StdPeriph_Driver/src/stm32f4xx_rtc.c ****     } 
 794:../Shared/Libraries/STM32F4xx_StdPeriph_Driver/src/stm32f4xx_rtc.c ****     else
 795:../Shared/Libraries/STM32F4xx_StdPeriph_Driver/src/stm32f4xx_rtc.c ****     {
 796:../Shared/Libraries/STM32F4xx_StdPeriph_Driver/src/stm32f4xx_rtc.c ****       RTC_TimeStruct->RTC_H12 = 0x00;
 995              		.loc 1 796 31
 996 0048 3B68     		ldr	r3, [r7]
 997 004a 0022     		movs	r2, #0
 998 004c DA70     		strb	r2, [r3, #3]
 999              	.L59:
 797:../Shared/Libraries/STM32F4xx_StdPeriph_Driver/src/stm32f4xx_rtc.c ****       assert_param(IS_RTC_HOUR24(RTC_Bcd2ToByte(RTC_TimeStruct->RTC_Hours)));
 798:../Shared/Libraries/STM32F4xx_StdPeriph_Driver/src/stm32f4xx_rtc.c ****     }
 799:../Shared/Libraries/STM32F4xx_StdPeriph_Driver/src/stm32f4xx_rtc.c ****     assert_param(IS_RTC_MINUTES(RTC_Bcd2ToByte(RTC_TimeStruct->RTC_Minutes)));
 800:../Shared/Libraries/STM32F4xx_StdPeriph_Driver/src/stm32f4xx_rtc.c ****     assert_param(IS_RTC_SECONDS(RTC_Bcd2ToByte(RTC_TimeStruct->RTC_Seconds)));
 801:../Shared/Libraries/STM32F4xx_StdPeriph_Driver/src/stm32f4xx_rtc.c ****   }
 802:../Shared/Libraries/STM32F4xx_StdPeriph_Driver/src/stm32f4xx_rtc.c ****   
 803:../Shared/Libraries/STM32F4xx_StdPeriph_Driver/src/stm32f4xx_rtc.c ****   /* Check the input parameters format */
 804:../Shared/Libraries/STM32F4xx_StdPeriph_Driver/src/stm32f4xx_rtc.c ****   if (RTC_Format != RTC_Format_BIN)
 1000              		.loc 1 804 6
 1001 004e 7B68     		ldr	r3, [r7, #4]
 1002 0050 002B     		cmp	r3, #0
 1003 0052 0FD0     		beq	.L61
 805:../Shared/Libraries/STM32F4xx_StdPeriph_Driver/src/stm32f4xx_rtc.c ****   {
 806:../Shared/Libraries/STM32F4xx_StdPeriph_Driver/src/stm32f4xx_rtc.c ****     tmpreg = (((uint32_t)(RTC_TimeStruct->RTC_Hours) << 16) | \
 1004              		.loc 1 806 41
 1005 0054 3B68     		ldr	r3, [r7]
 1006 0056 1B78     		ldrb	r3, [r3]	@ zero_extendqisi2
 1007              		.loc 1 806 54
 1008 0058 1A04     		lsls	r2, r3, #16
 807:../Shared/Libraries/STM32F4xx_StdPeriph_Driver/src/stm32f4xx_rtc.c ****              ((uint32_t)(RTC_TimeStruct->RTC_Minutes) << 8) | \
 1009              		.loc 1 807 40
 1010 005a 3B68     		ldr	r3, [r7]
 1011 005c 5B78     		ldrb	r3, [r3, #1]	@ zero_extendqisi2
 1012              		.loc 1 807 55
 1013 005e 1B02     		lsls	r3, r3, #8
 806:../Shared/Libraries/STM32F4xx_StdPeriph_Driver/src/stm32f4xx_rtc.c ****              ((uint32_t)(RTC_TimeStruct->RTC_Minutes) << 8) | \
 1014              		.loc 1 806 61
 1015 0060 1343     		orrs	r3, r3, r2
 808:../Shared/Libraries/STM32F4xx_StdPeriph_Driver/src/stm32f4xx_rtc.c ****              ((uint32_t)RTC_TimeStruct->RTC_Seconds) | \
 1016              		.loc 1 808 39
 1017 0062 3A68     		ldr	r2, [r7]
 1018 0064 9278     		ldrb	r2, [r2, #2]	@ zero_extendqisi2
 807:../Shared/Libraries/STM32F4xx_StdPeriph_Driver/src/stm32f4xx_rtc.c ****              ((uint32_t)(RTC_TimeStruct->RTC_Minutes) << 8) | \
 1019              		.loc 1 807 61
 1020 0066 1A43     		orrs	r2, r2, r3
 809:../Shared/Libraries/STM32F4xx_StdPeriph_Driver/src/stm32f4xx_rtc.c ****              ((uint32_t)(RTC_TimeStruct->RTC_H12) << 16)); 
 1021              		.loc 1 809 40
 1022 0068 3B68     		ldr	r3, [r7]
 1023 006a DB78     		ldrb	r3, [r3, #3]	@ zero_extendqisi2
 1024              		.loc 1 809 51
 1025 006c 1B04     		lsls	r3, r3, #16
 806:../Shared/Libraries/STM32F4xx_StdPeriph_Driver/src/stm32f4xx_rtc.c ****              ((uint32_t)(RTC_TimeStruct->RTC_Minutes) << 8) | \
 1026              		.loc 1 806 12
 1027 006e 1343     		orrs	r3, r3, r2
ARM GAS  /tmp/cctIRrNQ.s 			page 33


 1028 0070 FB60     		str	r3, [r7, #12]
 1029 0072 1BE0     		b	.L62
 1030              	.L61:
 810:../Shared/Libraries/STM32F4xx_StdPeriph_Driver/src/stm32f4xx_rtc.c ****   }  
 811:../Shared/Libraries/STM32F4xx_StdPeriph_Driver/src/stm32f4xx_rtc.c ****   else
 812:../Shared/Libraries/STM32F4xx_StdPeriph_Driver/src/stm32f4xx_rtc.c ****   {
 813:../Shared/Libraries/STM32F4xx_StdPeriph_Driver/src/stm32f4xx_rtc.c ****     tmpreg = (uint32_t)(((uint32_t)RTC_ByteToBcd2(RTC_TimeStruct->RTC_Hours) << 16) | \
 1031              		.loc 1 813 36
 1032 0074 3B68     		ldr	r3, [r7]
 1033 0076 1B78     		ldrb	r3, [r3]	@ zero_extendqisi2
 1034 0078 1846     		mov	r0, r3
 1035 007a FFF7FEFF 		bl	RTC_ByteToBcd2
 1036 007e 0346     		mov	r3, r0
 1037              		.loc 1 813 78 discriminator 1
 1038 0080 1C04     		lsls	r4, r3, #16
 814:../Shared/Libraries/STM32F4xx_StdPeriph_Driver/src/stm32f4xx_rtc.c ****                    ((uint32_t)RTC_ByteToBcd2(RTC_TimeStruct->RTC_Minutes) << 8) | \
 1039              		.loc 1 814 31
 1040 0082 3B68     		ldr	r3, [r7]
 1041 0084 5B78     		ldrb	r3, [r3, #1]	@ zero_extendqisi2
 1042 0086 1846     		mov	r0, r3
 1043 0088 FFF7FEFF 		bl	RTC_ByteToBcd2
 1044 008c 0346     		mov	r3, r0
 1045              		.loc 1 814 75 discriminator 1
 1046 008e 1B02     		lsls	r3, r3, #8
 813:../Shared/Libraries/STM32F4xx_StdPeriph_Driver/src/stm32f4xx_rtc.c ****                    ((uint32_t)RTC_ByteToBcd2(RTC_TimeStruct->RTC_Minutes) << 8) | \
 1047              		.loc 1 813 85
 1048 0090 1C43     		orrs	r4, r4, r3
 815:../Shared/Libraries/STM32F4xx_StdPeriph_Driver/src/stm32f4xx_rtc.c ****                    ((uint32_t)RTC_ByteToBcd2(RTC_TimeStruct->RTC_Seconds)) | \
 1049              		.loc 1 815 31
 1050 0092 3B68     		ldr	r3, [r7]
 1051 0094 9B78     		ldrb	r3, [r3, #2]	@ zero_extendqisi2
 1052 0096 1846     		mov	r0, r3
 1053 0098 FFF7FEFF 		bl	RTC_ByteToBcd2
 1054 009c 0346     		mov	r3, r0
 814:../Shared/Libraries/STM32F4xx_StdPeriph_Driver/src/stm32f4xx_rtc.c ****                    ((uint32_t)RTC_ByteToBcd2(RTC_TimeStruct->RTC_Minutes) << 8) | \
 1055              		.loc 1 814 81
 1056 009e 44EA0302 		orr	r2, r4, r3
 816:../Shared/Libraries/STM32F4xx_StdPeriph_Driver/src/stm32f4xx_rtc.c ****                    (((uint32_t)RTC_TimeStruct->RTC_H12) << 16));
 1057              		.loc 1 816 46
 1058 00a2 3B68     		ldr	r3, [r7]
 1059 00a4 DB78     		ldrb	r3, [r3, #3]	@ zero_extendqisi2
 1060              		.loc 1 816 57
 1061 00a6 1B04     		lsls	r3, r3, #16
 813:../Shared/Libraries/STM32F4xx_StdPeriph_Driver/src/stm32f4xx_rtc.c ****                    ((uint32_t)RTC_ByteToBcd2(RTC_TimeStruct->RTC_Minutes) << 8) | \
 1062              		.loc 1 813 12
 1063 00a8 1343     		orrs	r3, r3, r2
 1064 00aa FB60     		str	r3, [r7, #12]
 1065              	.L62:
 817:../Shared/Libraries/STM32F4xx_StdPeriph_Driver/src/stm32f4xx_rtc.c ****   }  
 818:../Shared/Libraries/STM32F4xx_StdPeriph_Driver/src/stm32f4xx_rtc.c **** 
 819:../Shared/Libraries/STM32F4xx_StdPeriph_Driver/src/stm32f4xx_rtc.c ****   /* Disable the write protection for RTC registers */
 820:../Shared/Libraries/STM32F4xx_StdPeriph_Driver/src/stm32f4xx_rtc.c ****   RTC->WPR = 0xCA;
 1066              		.loc 1 820 6
 1067 00ac 184B     		ldr	r3, .L68
 1068              		.loc 1 820 12
 1069 00ae CA22     		movs	r2, #202
 1070 00b0 5A62     		str	r2, [r3, #36]
ARM GAS  /tmp/cctIRrNQ.s 			page 34


 821:../Shared/Libraries/STM32F4xx_StdPeriph_Driver/src/stm32f4xx_rtc.c ****   RTC->WPR = 0x53;
 1071              		.loc 1 821 6
 1072 00b2 174B     		ldr	r3, .L68
 1073              		.loc 1 821 12
 1074 00b4 5322     		movs	r2, #83
 1075 00b6 5A62     		str	r2, [r3, #36]
 822:../Shared/Libraries/STM32F4xx_StdPeriph_Driver/src/stm32f4xx_rtc.c **** 
 823:../Shared/Libraries/STM32F4xx_StdPeriph_Driver/src/stm32f4xx_rtc.c ****   /* Set Initialization mode */
 824:../Shared/Libraries/STM32F4xx_StdPeriph_Driver/src/stm32f4xx_rtc.c ****   if (RTC_EnterInitMode() == ERROR)
 1076              		.loc 1 824 7
 1077 00b8 FFF7FEFF 		bl	RTC_EnterInitMode
 1078 00bc 0346     		mov	r3, r0
 1079              		.loc 1 824 6 discriminator 1
 1080 00be 002B     		cmp	r3, #0
 1081 00c0 02D1     		bne	.L63
 825:../Shared/Libraries/STM32F4xx_StdPeriph_Driver/src/stm32f4xx_rtc.c ****   {
 826:../Shared/Libraries/STM32F4xx_StdPeriph_Driver/src/stm32f4xx_rtc.c ****     status = ERROR;
 1082              		.loc 1 826 12
 1083 00c2 0023     		movs	r3, #0
 1084 00c4 FB72     		strb	r3, [r7, #11]
 1085 00c6 1BE0     		b	.L64
 1086              	.L63:
 827:../Shared/Libraries/STM32F4xx_StdPeriph_Driver/src/stm32f4xx_rtc.c ****   } 
 828:../Shared/Libraries/STM32F4xx_StdPeriph_Driver/src/stm32f4xx_rtc.c ****   else
 829:../Shared/Libraries/STM32F4xx_StdPeriph_Driver/src/stm32f4xx_rtc.c ****   {
 830:../Shared/Libraries/STM32F4xx_StdPeriph_Driver/src/stm32f4xx_rtc.c ****     /* Set the RTC_TR register */
 831:../Shared/Libraries/STM32F4xx_StdPeriph_Driver/src/stm32f4xx_rtc.c ****     RTC->TR = (uint32_t)(tmpreg & RTC_TR_RESERVED_MASK);
 1087              		.loc 1 831 8
 1088 00c8 114A     		ldr	r2, .L68
 1089              		.loc 1 831 15
 1090 00ca FB68     		ldr	r3, [r7, #12]
 1091 00cc 03F07F33 		and	r3, r3, #2139062143
 1092 00d0 23F0FE43 		bic	r3, r3, #2130706432
 1093              		.loc 1 831 13
 1094 00d4 1360     		str	r3, [r2]
 832:../Shared/Libraries/STM32F4xx_StdPeriph_Driver/src/stm32f4xx_rtc.c **** 
 833:../Shared/Libraries/STM32F4xx_StdPeriph_Driver/src/stm32f4xx_rtc.c ****     /* Exit Initialization mode */
 834:../Shared/Libraries/STM32F4xx_StdPeriph_Driver/src/stm32f4xx_rtc.c ****     RTC_ExitInitMode(); 
 1095              		.loc 1 834 5
 1096 00d6 FFF7FEFF 		bl	RTC_ExitInitMode
 835:../Shared/Libraries/STM32F4xx_StdPeriph_Driver/src/stm32f4xx_rtc.c **** 
 836:../Shared/Libraries/STM32F4xx_StdPeriph_Driver/src/stm32f4xx_rtc.c ****     /* If  RTC_CR_BYPSHAD bit = 0, wait for synchro else this check is not needed */
 837:../Shared/Libraries/STM32F4xx_StdPeriph_Driver/src/stm32f4xx_rtc.c ****     if ((RTC->CR & RTC_CR_BYPSHAD) == RESET)
 1097              		.loc 1 837 13
 1098 00da 0D4B     		ldr	r3, .L68
 1099 00dc 9B68     		ldr	r3, [r3, #8]
 1100              		.loc 1 837 18
 1101 00de 03F02003 		and	r3, r3, #32
 1102              		.loc 1 837 8
 1103 00e2 002B     		cmp	r3, #0
 1104 00e4 0AD1     		bne	.L65
 838:../Shared/Libraries/STM32F4xx_StdPeriph_Driver/src/stm32f4xx_rtc.c ****     {
 839:../Shared/Libraries/STM32F4xx_StdPeriph_Driver/src/stm32f4xx_rtc.c ****       if (RTC_WaitForSynchro() == ERROR)
 1105              		.loc 1 839 11
 1106 00e6 FFF7FEFF 		bl	RTC_WaitForSynchro
 1107 00ea 0346     		mov	r3, r0
 1108              		.loc 1 839 10 discriminator 1
ARM GAS  /tmp/cctIRrNQ.s 			page 35


 1109 00ec 002B     		cmp	r3, #0
 1110 00ee 02D1     		bne	.L66
 840:../Shared/Libraries/STM32F4xx_StdPeriph_Driver/src/stm32f4xx_rtc.c ****       {
 841:../Shared/Libraries/STM32F4xx_StdPeriph_Driver/src/stm32f4xx_rtc.c ****         status = ERROR;
 1111              		.loc 1 841 16
 1112 00f0 0023     		movs	r3, #0
 1113 00f2 FB72     		strb	r3, [r7, #11]
 1114 00f4 04E0     		b	.L64
 1115              	.L66:
 842:../Shared/Libraries/STM32F4xx_StdPeriph_Driver/src/stm32f4xx_rtc.c ****       }
 843:../Shared/Libraries/STM32F4xx_StdPeriph_Driver/src/stm32f4xx_rtc.c ****       else
 844:../Shared/Libraries/STM32F4xx_StdPeriph_Driver/src/stm32f4xx_rtc.c ****       {
 845:../Shared/Libraries/STM32F4xx_StdPeriph_Driver/src/stm32f4xx_rtc.c ****         status = SUCCESS;
 1116              		.loc 1 845 16
 1117 00f6 0123     		movs	r3, #1
 1118 00f8 FB72     		strb	r3, [r7, #11]
 1119 00fa 01E0     		b	.L64
 1120              	.L65:
 846:../Shared/Libraries/STM32F4xx_StdPeriph_Driver/src/stm32f4xx_rtc.c ****       }
 847:../Shared/Libraries/STM32F4xx_StdPeriph_Driver/src/stm32f4xx_rtc.c ****     }
 848:../Shared/Libraries/STM32F4xx_StdPeriph_Driver/src/stm32f4xx_rtc.c ****     else
 849:../Shared/Libraries/STM32F4xx_StdPeriph_Driver/src/stm32f4xx_rtc.c ****     {
 850:../Shared/Libraries/STM32F4xx_StdPeriph_Driver/src/stm32f4xx_rtc.c ****       status = SUCCESS;
 1121              		.loc 1 850 14
 1122 00fc 0123     		movs	r3, #1
 1123 00fe FB72     		strb	r3, [r7, #11]
 1124              	.L64:
 851:../Shared/Libraries/STM32F4xx_StdPeriph_Driver/src/stm32f4xx_rtc.c ****     }
 852:../Shared/Libraries/STM32F4xx_StdPeriph_Driver/src/stm32f4xx_rtc.c ****   }
 853:../Shared/Libraries/STM32F4xx_StdPeriph_Driver/src/stm32f4xx_rtc.c ****   /* Enable the write protection for RTC registers */
 854:../Shared/Libraries/STM32F4xx_StdPeriph_Driver/src/stm32f4xx_rtc.c ****   RTC->WPR = 0xFF; 
 1125              		.loc 1 854 6
 1126 0100 034B     		ldr	r3, .L68
 1127              		.loc 1 854 12
 1128 0102 FF22     		movs	r2, #255
 1129 0104 5A62     		str	r2, [r3, #36]
 855:../Shared/Libraries/STM32F4xx_StdPeriph_Driver/src/stm32f4xx_rtc.c ****     
 856:../Shared/Libraries/STM32F4xx_StdPeriph_Driver/src/stm32f4xx_rtc.c ****   return status;
 1130              		.loc 1 856 10
 1131 0106 FB7A     		ldrb	r3, [r7, #11]	@ zero_extendqisi2
 857:../Shared/Libraries/STM32F4xx_StdPeriph_Driver/src/stm32f4xx_rtc.c **** }
 1132              		.loc 1 857 1
 1133 0108 1846     		mov	r0, r3
 1134 010a 1437     		adds	r7, r7, #20
 1135              	.LCFI52:
 1136              		.cfi_def_cfa_offset 12
 1137 010c BD46     		mov	sp, r7
 1138              	.LCFI53:
 1139              		.cfi_def_cfa_register 13
 1140              		@ sp needed
 1141 010e 90BD     		pop	{r4, r7, pc}
 1142              	.L69:
 1143              		.align	2
 1144              	.L68:
 1145 0110 00280040 		.word	1073752064
 1146              		.cfi_endproc
 1147              	.LFE119:
ARM GAS  /tmp/cctIRrNQ.s 			page 36


 1149              		.section	.text.RTC_TimeStructInit,"ax",%progbits
 1150              		.align	1
 1151              		.global	RTC_TimeStructInit
 1152              		.syntax unified
 1153              		.thumb
 1154              		.thumb_func
 1156              	RTC_TimeStructInit:
 1157              	.LFB120:
 858:../Shared/Libraries/STM32F4xx_StdPeriph_Driver/src/stm32f4xx_rtc.c **** 
 859:../Shared/Libraries/STM32F4xx_StdPeriph_Driver/src/stm32f4xx_rtc.c **** /**
 860:../Shared/Libraries/STM32F4xx_StdPeriph_Driver/src/stm32f4xx_rtc.c ****   * @brief  Fills each RTC_TimeStruct member with its default value
 861:../Shared/Libraries/STM32F4xx_StdPeriph_Driver/src/stm32f4xx_rtc.c ****   *         (Time = 00h:00min:00sec).
 862:../Shared/Libraries/STM32F4xx_StdPeriph_Driver/src/stm32f4xx_rtc.c ****   * @param  RTC_TimeStruct: pointer to a RTC_TimeTypeDef structure which will be 
 863:../Shared/Libraries/STM32F4xx_StdPeriph_Driver/src/stm32f4xx_rtc.c ****   *         initialized.
 864:../Shared/Libraries/STM32F4xx_StdPeriph_Driver/src/stm32f4xx_rtc.c ****   * @retval None
 865:../Shared/Libraries/STM32F4xx_StdPeriph_Driver/src/stm32f4xx_rtc.c ****   */
 866:../Shared/Libraries/STM32F4xx_StdPeriph_Driver/src/stm32f4xx_rtc.c **** void RTC_TimeStructInit(RTC_TimeTypeDef* RTC_TimeStruct)
 867:../Shared/Libraries/STM32F4xx_StdPeriph_Driver/src/stm32f4xx_rtc.c **** {
 1158              		.loc 1 867 1
 1159              		.cfi_startproc
 1160              		@ args = 0, pretend = 0, frame = 8
 1161              		@ frame_needed = 1, uses_anonymous_args = 0
 1162              		@ link register save eliminated.
 1163 0000 80B4     		push	{r7}
 1164              	.LCFI54:
 1165              		.cfi_def_cfa_offset 4
 1166              		.cfi_offset 7, -4
 1167 0002 83B0     		sub	sp, sp, #12
 1168              	.LCFI55:
 1169              		.cfi_def_cfa_offset 16
 1170 0004 00AF     		add	r7, sp, #0
 1171              	.LCFI56:
 1172              		.cfi_def_cfa_register 7
 1173 0006 7860     		str	r0, [r7, #4]
 868:../Shared/Libraries/STM32F4xx_StdPeriph_Driver/src/stm32f4xx_rtc.c ****   /* Time = 00h:00min:00sec */
 869:../Shared/Libraries/STM32F4xx_StdPeriph_Driver/src/stm32f4xx_rtc.c ****   RTC_TimeStruct->RTC_H12 = RTC_H12_AM;
 1174              		.loc 1 869 27
 1175 0008 7B68     		ldr	r3, [r7, #4]
 1176 000a 0022     		movs	r2, #0
 1177 000c DA70     		strb	r2, [r3, #3]
 870:../Shared/Libraries/STM32F4xx_StdPeriph_Driver/src/stm32f4xx_rtc.c ****   RTC_TimeStruct->RTC_Hours = 0;
 1178              		.loc 1 870 29
 1179 000e 7B68     		ldr	r3, [r7, #4]
 1180 0010 0022     		movs	r2, #0
 1181 0012 1A70     		strb	r2, [r3]
 871:../Shared/Libraries/STM32F4xx_StdPeriph_Driver/src/stm32f4xx_rtc.c ****   RTC_TimeStruct->RTC_Minutes = 0;
 1182              		.loc 1 871 31
 1183 0014 7B68     		ldr	r3, [r7, #4]
 1184 0016 0022     		movs	r2, #0
 1185 0018 5A70     		strb	r2, [r3, #1]
 872:../Shared/Libraries/STM32F4xx_StdPeriph_Driver/src/stm32f4xx_rtc.c ****   RTC_TimeStruct->RTC_Seconds = 0; 
 1186              		.loc 1 872 31
 1187 001a 7B68     		ldr	r3, [r7, #4]
 1188 001c 0022     		movs	r2, #0
 1189 001e 9A70     		strb	r2, [r3, #2]
 873:../Shared/Libraries/STM32F4xx_StdPeriph_Driver/src/stm32f4xx_rtc.c **** }
 1190              		.loc 1 873 1
ARM GAS  /tmp/cctIRrNQ.s 			page 37


 1191 0020 00BF     		nop
 1192 0022 0C37     		adds	r7, r7, #12
 1193              	.LCFI57:
 1194              		.cfi_def_cfa_offset 4
 1195 0024 BD46     		mov	sp, r7
 1196              	.LCFI58:
 1197              		.cfi_def_cfa_register 13
 1198              		@ sp needed
 1199 0026 5DF8047B 		ldr	r7, [sp], #4
 1200              	.LCFI59:
 1201              		.cfi_restore 7
 1202              		.cfi_def_cfa_offset 0
 1203 002a 7047     		bx	lr
 1204              		.cfi_endproc
 1205              	.LFE120:
 1207              		.section	.text.RTC_GetTime,"ax",%progbits
 1208              		.align	1
 1209              		.global	RTC_GetTime
 1210              		.syntax unified
 1211              		.thumb
 1212              		.thumb_func
 1214              	RTC_GetTime:
 1215              	.LFB121:
 874:../Shared/Libraries/STM32F4xx_StdPeriph_Driver/src/stm32f4xx_rtc.c **** 
 875:../Shared/Libraries/STM32F4xx_StdPeriph_Driver/src/stm32f4xx_rtc.c **** /**
 876:../Shared/Libraries/STM32F4xx_StdPeriph_Driver/src/stm32f4xx_rtc.c ****   * @brief  Get the RTC current Time.
 877:../Shared/Libraries/STM32F4xx_StdPeriph_Driver/src/stm32f4xx_rtc.c ****   * @param  RTC_Format: specifies the format of the returned parameters.
 878:../Shared/Libraries/STM32F4xx_StdPeriph_Driver/src/stm32f4xx_rtc.c ****   *          This parameter can be  one of the following values:
 879:../Shared/Libraries/STM32F4xx_StdPeriph_Driver/src/stm32f4xx_rtc.c ****   *            @arg RTC_Format_BIN:  Binary data format 
 880:../Shared/Libraries/STM32F4xx_StdPeriph_Driver/src/stm32f4xx_rtc.c ****   *            @arg RTC_Format_BCD:  BCD data format
 881:../Shared/Libraries/STM32F4xx_StdPeriph_Driver/src/stm32f4xx_rtc.c ****   * @param  RTC_TimeStruct: pointer to a RTC_TimeTypeDef structure that will 
 882:../Shared/Libraries/STM32F4xx_StdPeriph_Driver/src/stm32f4xx_rtc.c ****   *                        contain the returned current time configuration.     
 883:../Shared/Libraries/STM32F4xx_StdPeriph_Driver/src/stm32f4xx_rtc.c ****   * @retval None
 884:../Shared/Libraries/STM32F4xx_StdPeriph_Driver/src/stm32f4xx_rtc.c ****   */
 885:../Shared/Libraries/STM32F4xx_StdPeriph_Driver/src/stm32f4xx_rtc.c **** void RTC_GetTime(uint32_t RTC_Format, RTC_TimeTypeDef* RTC_TimeStruct)
 886:../Shared/Libraries/STM32F4xx_StdPeriph_Driver/src/stm32f4xx_rtc.c **** {
 1216              		.loc 1 886 1
 1217              		.cfi_startproc
 1218              		@ args = 0, pretend = 0, frame = 16
 1219              		@ frame_needed = 1, uses_anonymous_args = 0
 1220 0000 80B5     		push	{r7, lr}
 1221              	.LCFI60:
 1222              		.cfi_def_cfa_offset 8
 1223              		.cfi_offset 7, -8
 1224              		.cfi_offset 14, -4
 1225 0002 84B0     		sub	sp, sp, #16
 1226              	.LCFI61:
 1227              		.cfi_def_cfa_offset 24
 1228 0004 00AF     		add	r7, sp, #0
 1229              	.LCFI62:
 1230              		.cfi_def_cfa_register 7
 1231 0006 7860     		str	r0, [r7, #4]
 1232 0008 3960     		str	r1, [r7]
 887:../Shared/Libraries/STM32F4xx_StdPeriph_Driver/src/stm32f4xx_rtc.c ****   uint32_t tmpreg = 0;
 1233              		.loc 1 887 12
 1234 000a 0023     		movs	r3, #0
 1235 000c FB60     		str	r3, [r7, #12]
ARM GAS  /tmp/cctIRrNQ.s 			page 38


 888:../Shared/Libraries/STM32F4xx_StdPeriph_Driver/src/stm32f4xx_rtc.c **** 
 889:../Shared/Libraries/STM32F4xx_StdPeriph_Driver/src/stm32f4xx_rtc.c ****   /* Check the parameters */
 890:../Shared/Libraries/STM32F4xx_StdPeriph_Driver/src/stm32f4xx_rtc.c ****   assert_param(IS_RTC_FORMAT(RTC_Format));
 891:../Shared/Libraries/STM32F4xx_StdPeriph_Driver/src/stm32f4xx_rtc.c **** 
 892:../Shared/Libraries/STM32F4xx_StdPeriph_Driver/src/stm32f4xx_rtc.c ****   /* Get the RTC_TR register */
 893:../Shared/Libraries/STM32F4xx_StdPeriph_Driver/src/stm32f4xx_rtc.c ****   tmpreg = (uint32_t)(RTC->TR & RTC_TR_RESERVED_MASK); 
 1236              		.loc 1 893 26
 1237 000e 244B     		ldr	r3, .L74
 1238 0010 1B68     		ldr	r3, [r3]
 1239              		.loc 1 893 10
 1240 0012 03F07F33 		and	r3, r3, #2139062143
 1241 0016 23F0FE43 		bic	r3, r3, #2130706432
 1242 001a FB60     		str	r3, [r7, #12]
 894:../Shared/Libraries/STM32F4xx_StdPeriph_Driver/src/stm32f4xx_rtc.c ****   
 895:../Shared/Libraries/STM32F4xx_StdPeriph_Driver/src/stm32f4xx_rtc.c ****   /* Fill the structure fields with the read parameters */
 896:../Shared/Libraries/STM32F4xx_StdPeriph_Driver/src/stm32f4xx_rtc.c ****   RTC_TimeStruct->RTC_Hours = (uint8_t)((tmpreg & (RTC_TR_HT | RTC_TR_HU)) >> 16);
 1243              		.loc 1 896 76
 1244 001c FB68     		ldr	r3, [r7, #12]
 1245 001e 1B0C     		lsrs	r3, r3, #16
 1246              		.loc 1 896 31
 1247 0020 DBB2     		uxtb	r3, r3
 1248 0022 03F03F03 		and	r3, r3, #63
 1249 0026 DAB2     		uxtb	r2, r3
 1250              		.loc 1 896 29
 1251 0028 3B68     		ldr	r3, [r7]
 1252 002a 1A70     		strb	r2, [r3]
 897:../Shared/Libraries/STM32F4xx_StdPeriph_Driver/src/stm32f4xx_rtc.c ****   RTC_TimeStruct->RTC_Minutes = (uint8_t)((tmpreg & (RTC_TR_MNT | RTC_TR_MNU)) >>8);
 1253              		.loc 1 897 80
 1254 002c FB68     		ldr	r3, [r7, #12]
 1255 002e 1B0A     		lsrs	r3, r3, #8
 1256              		.loc 1 897 33
 1257 0030 DBB2     		uxtb	r3, r3
 1258 0032 03F07F03 		and	r3, r3, #127
 1259 0036 DAB2     		uxtb	r2, r3
 1260              		.loc 1 897 31
 1261 0038 3B68     		ldr	r3, [r7]
 1262 003a 5A70     		strb	r2, [r3, #1]
 898:../Shared/Libraries/STM32F4xx_StdPeriph_Driver/src/stm32f4xx_rtc.c ****   RTC_TimeStruct->RTC_Seconds = (uint8_t)(tmpreg & (RTC_TR_ST | RTC_TR_SU));
 1263              		.loc 1 898 33
 1264 003c FB68     		ldr	r3, [r7, #12]
 1265 003e DBB2     		uxtb	r3, r3
 1266 0040 03F07F03 		and	r3, r3, #127
 1267 0044 DAB2     		uxtb	r2, r3
 1268              		.loc 1 898 31
 1269 0046 3B68     		ldr	r3, [r7]
 1270 0048 9A70     		strb	r2, [r3, #2]
 899:../Shared/Libraries/STM32F4xx_StdPeriph_Driver/src/stm32f4xx_rtc.c ****   RTC_TimeStruct->RTC_H12 = (uint8_t)((tmpreg & (RTC_TR_PM)) >> 16);  
 1271              		.loc 1 899 62
 1272 004a FB68     		ldr	r3, [r7, #12]
 1273 004c 1B0C     		lsrs	r3, r3, #16
 1274              		.loc 1 899 29
 1275 004e DBB2     		uxtb	r3, r3
 1276 0050 03F04003 		and	r3, r3, #64
 1277 0054 DAB2     		uxtb	r2, r3
 1278              		.loc 1 899 27
 1279 0056 3B68     		ldr	r3, [r7]
 1280 0058 DA70     		strb	r2, [r3, #3]
ARM GAS  /tmp/cctIRrNQ.s 			page 39


 900:../Shared/Libraries/STM32F4xx_StdPeriph_Driver/src/stm32f4xx_rtc.c **** 
 901:../Shared/Libraries/STM32F4xx_StdPeriph_Driver/src/stm32f4xx_rtc.c ****   /* Check the input parameters format */
 902:../Shared/Libraries/STM32F4xx_StdPeriph_Driver/src/stm32f4xx_rtc.c ****   if (RTC_Format == RTC_Format_BIN)
 1281              		.loc 1 902 6
 1282 005a 7B68     		ldr	r3, [r7, #4]
 1283 005c 002B     		cmp	r3, #0
 1284 005e 1AD1     		bne	.L73
 903:../Shared/Libraries/STM32F4xx_StdPeriph_Driver/src/stm32f4xx_rtc.c ****   {
 904:../Shared/Libraries/STM32F4xx_StdPeriph_Driver/src/stm32f4xx_rtc.c ****     /* Convert the structure parameters to Binary format */
 905:../Shared/Libraries/STM32F4xx_StdPeriph_Driver/src/stm32f4xx_rtc.c ****     RTC_TimeStruct->RTC_Hours = (uint8_t)RTC_Bcd2ToByte(RTC_TimeStruct->RTC_Hours);
 1285              		.loc 1 905 42
 1286 0060 3B68     		ldr	r3, [r7]
 1287 0062 1B78     		ldrb	r3, [r3]	@ zero_extendqisi2
 1288 0064 1846     		mov	r0, r3
 1289 0066 FFF7FEFF 		bl	RTC_Bcd2ToByte
 1290 006a 0346     		mov	r3, r0
 1291 006c 1A46     		mov	r2, r3
 1292              		.loc 1 905 31 discriminator 1
 1293 006e 3B68     		ldr	r3, [r7]
 1294 0070 1A70     		strb	r2, [r3]
 906:../Shared/Libraries/STM32F4xx_StdPeriph_Driver/src/stm32f4xx_rtc.c ****     RTC_TimeStruct->RTC_Minutes = (uint8_t)RTC_Bcd2ToByte(RTC_TimeStruct->RTC_Minutes);
 1295              		.loc 1 906 44
 1296 0072 3B68     		ldr	r3, [r7]
 1297 0074 5B78     		ldrb	r3, [r3, #1]	@ zero_extendqisi2
 1298 0076 1846     		mov	r0, r3
 1299 0078 FFF7FEFF 		bl	RTC_Bcd2ToByte
 1300 007c 0346     		mov	r3, r0
 1301 007e 1A46     		mov	r2, r3
 1302              		.loc 1 906 33 discriminator 1
 1303 0080 3B68     		ldr	r3, [r7]
 1304 0082 5A70     		strb	r2, [r3, #1]
 907:../Shared/Libraries/STM32F4xx_StdPeriph_Driver/src/stm32f4xx_rtc.c ****     RTC_TimeStruct->RTC_Seconds = (uint8_t)RTC_Bcd2ToByte(RTC_TimeStruct->RTC_Seconds);   
 1305              		.loc 1 907 44
 1306 0084 3B68     		ldr	r3, [r7]
 1307 0086 9B78     		ldrb	r3, [r3, #2]	@ zero_extendqisi2
 1308 0088 1846     		mov	r0, r3
 1309 008a FFF7FEFF 		bl	RTC_Bcd2ToByte
 1310 008e 0346     		mov	r3, r0
 1311 0090 1A46     		mov	r2, r3
 1312              		.loc 1 907 33 discriminator 1
 1313 0092 3B68     		ldr	r3, [r7]
 1314 0094 9A70     		strb	r2, [r3, #2]
 1315              	.L73:
 908:../Shared/Libraries/STM32F4xx_StdPeriph_Driver/src/stm32f4xx_rtc.c ****   }
 909:../Shared/Libraries/STM32F4xx_StdPeriph_Driver/src/stm32f4xx_rtc.c **** }
 1316              		.loc 1 909 1
 1317 0096 00BF     		nop
 1318 0098 1037     		adds	r7, r7, #16
 1319              	.LCFI63:
 1320              		.cfi_def_cfa_offset 8
 1321 009a BD46     		mov	sp, r7
 1322              	.LCFI64:
 1323              		.cfi_def_cfa_register 13
 1324              		@ sp needed
 1325 009c 80BD     		pop	{r7, pc}
 1326              	.L75:
 1327 009e 00BF     		.align	2
ARM GAS  /tmp/cctIRrNQ.s 			page 40


 1328              	.L74:
 1329 00a0 00280040 		.word	1073752064
 1330              		.cfi_endproc
 1331              	.LFE121:
 1333              		.section	.text.RTC_GetSubSecond,"ax",%progbits
 1334              		.align	1
 1335              		.global	RTC_GetSubSecond
 1336              		.syntax unified
 1337              		.thumb
 1338              		.thumb_func
 1340              	RTC_GetSubSecond:
 1341              	.LFB122:
 910:../Shared/Libraries/STM32F4xx_StdPeriph_Driver/src/stm32f4xx_rtc.c **** 
 911:../Shared/Libraries/STM32F4xx_StdPeriph_Driver/src/stm32f4xx_rtc.c **** /**
 912:../Shared/Libraries/STM32F4xx_StdPeriph_Driver/src/stm32f4xx_rtc.c ****   * @brief  Gets the RTC current Calendar Subseconds value.
 913:../Shared/Libraries/STM32F4xx_StdPeriph_Driver/src/stm32f4xx_rtc.c ****   * @note   This function freeze the Time and Date registers after reading the 
 914:../Shared/Libraries/STM32F4xx_StdPeriph_Driver/src/stm32f4xx_rtc.c ****   *         SSR register.
 915:../Shared/Libraries/STM32F4xx_StdPeriph_Driver/src/stm32f4xx_rtc.c ****   * @param  None
 916:../Shared/Libraries/STM32F4xx_StdPeriph_Driver/src/stm32f4xx_rtc.c ****   * @retval RTC current Calendar Subseconds value.
 917:../Shared/Libraries/STM32F4xx_StdPeriph_Driver/src/stm32f4xx_rtc.c ****   */
 918:../Shared/Libraries/STM32F4xx_StdPeriph_Driver/src/stm32f4xx_rtc.c **** uint32_t RTC_GetSubSecond(void)
 919:../Shared/Libraries/STM32F4xx_StdPeriph_Driver/src/stm32f4xx_rtc.c **** {
 1342              		.loc 1 919 1
 1343              		.cfi_startproc
 1344              		@ args = 0, pretend = 0, frame = 8
 1345              		@ frame_needed = 1, uses_anonymous_args = 0
 1346              		@ link register save eliminated.
 1347 0000 80B4     		push	{r7}
 1348              	.LCFI65:
 1349              		.cfi_def_cfa_offset 4
 1350              		.cfi_offset 7, -4
 1351 0002 83B0     		sub	sp, sp, #12
 1352              	.LCFI66:
 1353              		.cfi_def_cfa_offset 16
 1354 0004 00AF     		add	r7, sp, #0
 1355              	.LCFI67:
 1356              		.cfi_def_cfa_register 7
 920:../Shared/Libraries/STM32F4xx_StdPeriph_Driver/src/stm32f4xx_rtc.c ****   uint32_t tmpreg = 0;
 1357              		.loc 1 920 12
 1358 0006 0023     		movs	r3, #0
 1359 0008 7B60     		str	r3, [r7, #4]
 921:../Shared/Libraries/STM32F4xx_StdPeriph_Driver/src/stm32f4xx_rtc.c ****   
 922:../Shared/Libraries/STM32F4xx_StdPeriph_Driver/src/stm32f4xx_rtc.c ****   /* Get subseconds values from the correspondent registers*/
 923:../Shared/Libraries/STM32F4xx_StdPeriph_Driver/src/stm32f4xx_rtc.c ****   tmpreg = (uint32_t)(RTC->SSR);
 1360              		.loc 1 923 26
 1361 000a 064B     		ldr	r3, .L78
 1362              		.loc 1 923 10
 1363 000c 9B6A     		ldr	r3, [r3, #40]
 1364 000e 7B60     		str	r3, [r7, #4]
 924:../Shared/Libraries/STM32F4xx_StdPeriph_Driver/src/stm32f4xx_rtc.c ****   
 925:../Shared/Libraries/STM32F4xx_StdPeriph_Driver/src/stm32f4xx_rtc.c ****   /* Read DR register to unfroze calendar registers */
 926:../Shared/Libraries/STM32F4xx_StdPeriph_Driver/src/stm32f4xx_rtc.c ****   (void) (RTC->DR);
 1365              		.loc 1 926 14
 1366 0010 044B     		ldr	r3, .L78
 1367              		.loc 1 926 3
 1368 0012 5B68     		ldr	r3, [r3, #4]
 927:../Shared/Libraries/STM32F4xx_StdPeriph_Driver/src/stm32f4xx_rtc.c ****   
ARM GAS  /tmp/cctIRrNQ.s 			page 41


 928:../Shared/Libraries/STM32F4xx_StdPeriph_Driver/src/stm32f4xx_rtc.c ****   return (tmpreg);
 1369              		.loc 1 928 10
 1370 0014 7B68     		ldr	r3, [r7, #4]
 929:../Shared/Libraries/STM32F4xx_StdPeriph_Driver/src/stm32f4xx_rtc.c **** }
 1371              		.loc 1 929 1
 1372 0016 1846     		mov	r0, r3
 1373 0018 0C37     		adds	r7, r7, #12
 1374              	.LCFI68:
 1375              		.cfi_def_cfa_offset 4
 1376 001a BD46     		mov	sp, r7
 1377              	.LCFI69:
 1378              		.cfi_def_cfa_register 13
 1379              		@ sp needed
 1380 001c 5DF8047B 		ldr	r7, [sp], #4
 1381              	.LCFI70:
 1382              		.cfi_restore 7
 1383              		.cfi_def_cfa_offset 0
 1384 0020 7047     		bx	lr
 1385              	.L79:
 1386 0022 00BF     		.align	2
 1387              	.L78:
 1388 0024 00280040 		.word	1073752064
 1389              		.cfi_endproc
 1390              	.LFE122:
 1392              		.section	.text.RTC_SetDate,"ax",%progbits
 1393              		.align	1
 1394              		.global	RTC_SetDate
 1395              		.syntax unified
 1396              		.thumb
 1397              		.thumb_func
 1399              	RTC_SetDate:
 1400              	.LFB123:
 930:../Shared/Libraries/STM32F4xx_StdPeriph_Driver/src/stm32f4xx_rtc.c **** 
 931:../Shared/Libraries/STM32F4xx_StdPeriph_Driver/src/stm32f4xx_rtc.c **** /**
 932:../Shared/Libraries/STM32F4xx_StdPeriph_Driver/src/stm32f4xx_rtc.c ****   * @brief  Set the RTC current date.
 933:../Shared/Libraries/STM32F4xx_StdPeriph_Driver/src/stm32f4xx_rtc.c ****   * @param  RTC_Format: specifies the format of the entered parameters.
 934:../Shared/Libraries/STM32F4xx_StdPeriph_Driver/src/stm32f4xx_rtc.c ****   *          This parameter can be  one of the following values:
 935:../Shared/Libraries/STM32F4xx_StdPeriph_Driver/src/stm32f4xx_rtc.c ****   *            @arg RTC_Format_BIN:  Binary data format 
 936:../Shared/Libraries/STM32F4xx_StdPeriph_Driver/src/stm32f4xx_rtc.c ****   *            @arg RTC_Format_BCD:  BCD data format
 937:../Shared/Libraries/STM32F4xx_StdPeriph_Driver/src/stm32f4xx_rtc.c ****   * @param  RTC_DateStruct: pointer to a RTC_DateTypeDef structure that contains 
 938:../Shared/Libraries/STM32F4xx_StdPeriph_Driver/src/stm32f4xx_rtc.c ****   *                         the date configuration information for the RTC.
 939:../Shared/Libraries/STM32F4xx_StdPeriph_Driver/src/stm32f4xx_rtc.c ****   * @retval An ErrorStatus enumeration value:
 940:../Shared/Libraries/STM32F4xx_StdPeriph_Driver/src/stm32f4xx_rtc.c ****   *          - SUCCESS: RTC Date register is configured
 941:../Shared/Libraries/STM32F4xx_StdPeriph_Driver/src/stm32f4xx_rtc.c ****   *          - ERROR: RTC Date register is not configured
 942:../Shared/Libraries/STM32F4xx_StdPeriph_Driver/src/stm32f4xx_rtc.c ****   */
 943:../Shared/Libraries/STM32F4xx_StdPeriph_Driver/src/stm32f4xx_rtc.c **** ErrorStatus RTC_SetDate(uint32_t RTC_Format, RTC_DateTypeDef* RTC_DateStruct)
 944:../Shared/Libraries/STM32F4xx_StdPeriph_Driver/src/stm32f4xx_rtc.c **** {
 1401              		.loc 1 944 1
 1402              		.cfi_startproc
 1403              		@ args = 0, pretend = 0, frame = 16
 1404              		@ frame_needed = 1, uses_anonymous_args = 0
 1405 0000 90B5     		push	{r4, r7, lr}
 1406              	.LCFI71:
 1407              		.cfi_def_cfa_offset 12
 1408              		.cfi_offset 4, -12
 1409              		.cfi_offset 7, -8
 1410              		.cfi_offset 14, -4
ARM GAS  /tmp/cctIRrNQ.s 			page 42


 1411 0002 85B0     		sub	sp, sp, #20
 1412              	.LCFI72:
 1413              		.cfi_def_cfa_offset 32
 1414 0004 00AF     		add	r7, sp, #0
 1415              	.LCFI73:
 1416              		.cfi_def_cfa_register 7
 1417 0006 7860     		str	r0, [r7, #4]
 1418 0008 3960     		str	r1, [r7]
 945:../Shared/Libraries/STM32F4xx_StdPeriph_Driver/src/stm32f4xx_rtc.c ****   uint32_t tmpreg = 0;
 1419              		.loc 1 945 12
 1420 000a 0023     		movs	r3, #0
 1421 000c FB60     		str	r3, [r7, #12]
 946:../Shared/Libraries/STM32F4xx_StdPeriph_Driver/src/stm32f4xx_rtc.c ****   ErrorStatus status = ERROR;
 1422              		.loc 1 946 15
 1423 000e 0023     		movs	r3, #0
 1424 0010 FB72     		strb	r3, [r7, #11]
 947:../Shared/Libraries/STM32F4xx_StdPeriph_Driver/src/stm32f4xx_rtc.c ****   
 948:../Shared/Libraries/STM32F4xx_StdPeriph_Driver/src/stm32f4xx_rtc.c ****   /* Check the parameters */
 949:../Shared/Libraries/STM32F4xx_StdPeriph_Driver/src/stm32f4xx_rtc.c ****   assert_param(IS_RTC_FORMAT(RTC_Format));
 950:../Shared/Libraries/STM32F4xx_StdPeriph_Driver/src/stm32f4xx_rtc.c **** 
 951:../Shared/Libraries/STM32F4xx_StdPeriph_Driver/src/stm32f4xx_rtc.c ****   if ((RTC_Format == RTC_Format_BIN) && ((RTC_DateStruct->RTC_Month & 0x10) == 0x10))
 1425              		.loc 1 951 6
 1426 0012 7B68     		ldr	r3, [r7, #4]
 1427 0014 002B     		cmp	r3, #0
 1428 0016 0ED1     		bne	.L81
 1429              		.loc 1 951 57 discriminator 1
 1430 0018 3B68     		ldr	r3, [r7]
 1431 001a 5B78     		ldrb	r3, [r3, #1]	@ zero_extendqisi2
 1432              		.loc 1 951 69 discriminator 1
 1433 001c 03F01003 		and	r3, r3, #16
 1434              		.loc 1 951 38 discriminator 1
 1435 0020 002B     		cmp	r3, #0
 1436 0022 08D0     		beq	.L81
 952:../Shared/Libraries/STM32F4xx_StdPeriph_Driver/src/stm32f4xx_rtc.c ****   {
 953:../Shared/Libraries/STM32F4xx_StdPeriph_Driver/src/stm32f4xx_rtc.c ****     RTC_DateStruct->RTC_Month = (RTC_DateStruct->RTC_Month & (uint32_t)~(0x10)) + 0x0A;
 1437              		.loc 1 953 48
 1438 0024 3B68     		ldr	r3, [r7]
 1439 0026 5B78     		ldrb	r3, [r3, #1]	@ zero_extendqisi2
 1440              		.loc 1 953 60
 1441 0028 23F01003 		bic	r3, r3, #16
 1442 002c DBB2     		uxtb	r3, r3
 1443              		.loc 1 953 81
 1444 002e 0A33     		adds	r3, r3, #10
 1445 0030 DAB2     		uxtb	r2, r3
 1446              		.loc 1 953 31
 1447 0032 3B68     		ldr	r3, [r7]
 1448 0034 5A70     		strb	r2, [r3, #1]
 1449              	.L81:
 954:../Shared/Libraries/STM32F4xx_StdPeriph_Driver/src/stm32f4xx_rtc.c ****   }  
 955:../Shared/Libraries/STM32F4xx_StdPeriph_Driver/src/stm32f4xx_rtc.c ****   if (RTC_Format == RTC_Format_BIN)
 1450              		.loc 1 955 6
 1451 0036 7B68     		ldr	r3, [r7, #4]
 1452 0038 002B     		cmp	r3, #0
 1453 003a 0DD0     		beq	.L82
 956:../Shared/Libraries/STM32F4xx_StdPeriph_Driver/src/stm32f4xx_rtc.c ****   {
 957:../Shared/Libraries/STM32F4xx_StdPeriph_Driver/src/stm32f4xx_rtc.c ****     assert_param(IS_RTC_YEAR(RTC_DateStruct->RTC_Year));
 958:../Shared/Libraries/STM32F4xx_StdPeriph_Driver/src/stm32f4xx_rtc.c ****     assert_param(IS_RTC_MONTH(RTC_DateStruct->RTC_Month));
ARM GAS  /tmp/cctIRrNQ.s 			page 43


 959:../Shared/Libraries/STM32F4xx_StdPeriph_Driver/src/stm32f4xx_rtc.c ****     assert_param(IS_RTC_DATE(RTC_DateStruct->RTC_Date));
 960:../Shared/Libraries/STM32F4xx_StdPeriph_Driver/src/stm32f4xx_rtc.c ****   }
 961:../Shared/Libraries/STM32F4xx_StdPeriph_Driver/src/stm32f4xx_rtc.c ****   else
 962:../Shared/Libraries/STM32F4xx_StdPeriph_Driver/src/stm32f4xx_rtc.c ****   {
 963:../Shared/Libraries/STM32F4xx_StdPeriph_Driver/src/stm32f4xx_rtc.c ****     assert_param(IS_RTC_YEAR(RTC_Bcd2ToByte(RTC_DateStruct->RTC_Year)));
 964:../Shared/Libraries/STM32F4xx_StdPeriph_Driver/src/stm32f4xx_rtc.c ****     tmpreg = RTC_Bcd2ToByte(RTC_DateStruct->RTC_Month);
 1454              		.loc 1 964 14
 1455 003c 3B68     		ldr	r3, [r7]
 1456 003e 5B78     		ldrb	r3, [r3, #1]	@ zero_extendqisi2
 1457 0040 1846     		mov	r0, r3
 1458 0042 FFF7FEFF 		bl	RTC_Bcd2ToByte
 1459 0046 0346     		mov	r3, r0
 1460              		.loc 1 964 12 discriminator 1
 1461 0048 FB60     		str	r3, [r7, #12]
 965:../Shared/Libraries/STM32F4xx_StdPeriph_Driver/src/stm32f4xx_rtc.c ****     assert_param(IS_RTC_MONTH(tmpreg));
 966:../Shared/Libraries/STM32F4xx_StdPeriph_Driver/src/stm32f4xx_rtc.c ****     tmpreg = RTC_Bcd2ToByte(RTC_DateStruct->RTC_Date);
 1462              		.loc 1 966 14
 1463 004a 3B68     		ldr	r3, [r7]
 1464 004c 9B78     		ldrb	r3, [r3, #2]	@ zero_extendqisi2
 1465 004e 1846     		mov	r0, r3
 1466 0050 FFF7FEFF 		bl	RTC_Bcd2ToByte
 1467 0054 0346     		mov	r3, r0
 1468              		.loc 1 966 12 discriminator 1
 1469 0056 FB60     		str	r3, [r7, #12]
 1470              	.L82:
 967:../Shared/Libraries/STM32F4xx_StdPeriph_Driver/src/stm32f4xx_rtc.c ****     assert_param(IS_RTC_DATE(tmpreg));
 968:../Shared/Libraries/STM32F4xx_StdPeriph_Driver/src/stm32f4xx_rtc.c ****   }
 969:../Shared/Libraries/STM32F4xx_StdPeriph_Driver/src/stm32f4xx_rtc.c ****   assert_param(IS_RTC_WEEKDAY(RTC_DateStruct->RTC_WeekDay));
 970:../Shared/Libraries/STM32F4xx_StdPeriph_Driver/src/stm32f4xx_rtc.c **** 
 971:../Shared/Libraries/STM32F4xx_StdPeriph_Driver/src/stm32f4xx_rtc.c ****   /* Check the input parameters format */
 972:../Shared/Libraries/STM32F4xx_StdPeriph_Driver/src/stm32f4xx_rtc.c ****   if (RTC_Format != RTC_Format_BIN)
 1471              		.loc 1 972 6
 1472 0058 7B68     		ldr	r3, [r7, #4]
 1473 005a 002B     		cmp	r3, #0
 1474 005c 0FD0     		beq	.L83
 973:../Shared/Libraries/STM32F4xx_StdPeriph_Driver/src/stm32f4xx_rtc.c ****   {
 974:../Shared/Libraries/STM32F4xx_StdPeriph_Driver/src/stm32f4xx_rtc.c ****     tmpreg = ((((uint32_t)RTC_DateStruct->RTC_Year) << 16) | \
 1475              		.loc 1 974 41
 1476 005e 3B68     		ldr	r3, [r7]
 1477 0060 DB78     		ldrb	r3, [r3, #3]	@ zero_extendqisi2
 1478              		.loc 1 974 53
 1479 0062 1A04     		lsls	r2, r3, #16
 975:../Shared/Libraries/STM32F4xx_StdPeriph_Driver/src/stm32f4xx_rtc.c ****               (((uint32_t)RTC_DateStruct->RTC_Month) << 8) | \
 1480              		.loc 1 975 41
 1481 0064 3B68     		ldr	r3, [r7]
 1482 0066 5B78     		ldrb	r3, [r3, #1]	@ zero_extendqisi2
 1483              		.loc 1 975 54
 1484 0068 1B02     		lsls	r3, r3, #8
 974:../Shared/Libraries/STM32F4xx_StdPeriph_Driver/src/stm32f4xx_rtc.c ****               (((uint32_t)RTC_DateStruct->RTC_Month) << 8) | \
 1485              		.loc 1 974 60
 1486 006a 1343     		orrs	r3, r3, r2
 976:../Shared/Libraries/STM32F4xx_StdPeriph_Driver/src/stm32f4xx_rtc.c ****               ((uint32_t)RTC_DateStruct->RTC_Date) | \
 1487              		.loc 1 976 40
 1488 006c 3A68     		ldr	r2, [r7]
 1489 006e 9278     		ldrb	r2, [r2, #2]	@ zero_extendqisi2
 975:../Shared/Libraries/STM32F4xx_StdPeriph_Driver/src/stm32f4xx_rtc.c ****               (((uint32_t)RTC_DateStruct->RTC_Month) << 8) | \
 1490              		.loc 1 975 60
ARM GAS  /tmp/cctIRrNQ.s 			page 44


 1491 0070 1A43     		orrs	r2, r2, r3
 977:../Shared/Libraries/STM32F4xx_StdPeriph_Driver/src/stm32f4xx_rtc.c ****               (((uint32_t)RTC_DateStruct->RTC_WeekDay) << 13)); 
 1492              		.loc 1 977 41
 1493 0072 3B68     		ldr	r3, [r7]
 1494 0074 1B78     		ldrb	r3, [r3]	@ zero_extendqisi2
 1495              		.loc 1 977 56
 1496 0076 5B03     		lsls	r3, r3, #13
 974:../Shared/Libraries/STM32F4xx_StdPeriph_Driver/src/stm32f4xx_rtc.c ****               (((uint32_t)RTC_DateStruct->RTC_Month) << 8) | \
 1497              		.loc 1 974 12
 1498 0078 1343     		orrs	r3, r3, r2
 1499 007a FB60     		str	r3, [r7, #12]
 1500 007c 1BE0     		b	.L84
 1501              	.L83:
 978:../Shared/Libraries/STM32F4xx_StdPeriph_Driver/src/stm32f4xx_rtc.c ****   }  
 979:../Shared/Libraries/STM32F4xx_StdPeriph_Driver/src/stm32f4xx_rtc.c ****   else
 980:../Shared/Libraries/STM32F4xx_StdPeriph_Driver/src/stm32f4xx_rtc.c ****   {
 981:../Shared/Libraries/STM32F4xx_StdPeriph_Driver/src/stm32f4xx_rtc.c ****     tmpreg = (((uint32_t)RTC_ByteToBcd2(RTC_DateStruct->RTC_Year) << 16) | \
 1502              		.loc 1 981 26
 1503 007e 3B68     		ldr	r3, [r7]
 1504 0080 DB78     		ldrb	r3, [r3, #3]	@ zero_extendqisi2
 1505 0082 1846     		mov	r0, r3
 1506 0084 FFF7FEFF 		bl	RTC_ByteToBcd2
 1507 0088 0346     		mov	r3, r0
 1508              		.loc 1 981 67 discriminator 1
 1509 008a 1C04     		lsls	r4, r3, #16
 982:../Shared/Libraries/STM32F4xx_StdPeriph_Driver/src/stm32f4xx_rtc.c ****               ((uint32_t)RTC_ByteToBcd2(RTC_DateStruct->RTC_Month) << 8) | \
 1510              		.loc 1 982 26
 1511 008c 3B68     		ldr	r3, [r7]
 1512 008e 5B78     		ldrb	r3, [r3, #1]	@ zero_extendqisi2
 1513 0090 1846     		mov	r0, r3
 1514 0092 FFF7FEFF 		bl	RTC_ByteToBcd2
 1515 0096 0346     		mov	r3, r0
 1516              		.loc 1 982 68 discriminator 1
 1517 0098 1B02     		lsls	r3, r3, #8
 981:../Shared/Libraries/STM32F4xx_StdPeriph_Driver/src/stm32f4xx_rtc.c ****               ((uint32_t)RTC_ByteToBcd2(RTC_DateStruct->RTC_Month) << 8) | \
 1518              		.loc 1 981 74
 1519 009a 1C43     		orrs	r4, r4, r3
 983:../Shared/Libraries/STM32F4xx_StdPeriph_Driver/src/stm32f4xx_rtc.c ****               ((uint32_t)RTC_ByteToBcd2(RTC_DateStruct->RTC_Date)) | \
 1520              		.loc 1 983 26
 1521 009c 3B68     		ldr	r3, [r7]
 1522 009e 9B78     		ldrb	r3, [r3, #2]	@ zero_extendqisi2
 1523 00a0 1846     		mov	r0, r3
 1524 00a2 FFF7FEFF 		bl	RTC_ByteToBcd2
 1525 00a6 0346     		mov	r3, r0
 982:../Shared/Libraries/STM32F4xx_StdPeriph_Driver/src/stm32f4xx_rtc.c ****               ((uint32_t)RTC_ByteToBcd2(RTC_DateStruct->RTC_Month) << 8) | \
 1526              		.loc 1 982 74
 1527 00a8 44EA0302 		orr	r2, r4, r3
 984:../Shared/Libraries/STM32F4xx_StdPeriph_Driver/src/stm32f4xx_rtc.c ****               ((uint32_t)RTC_DateStruct->RTC_WeekDay << 13));
 1528              		.loc 1 984 40
 1529 00ac 3B68     		ldr	r3, [r7]
 1530 00ae 1B78     		ldrb	r3, [r3]	@ zero_extendqisi2
 1531              		.loc 1 984 54
 1532 00b0 5B03     		lsls	r3, r3, #13
 981:../Shared/Libraries/STM32F4xx_StdPeriph_Driver/src/stm32f4xx_rtc.c ****               ((uint32_t)RTC_ByteToBcd2(RTC_DateStruct->RTC_Month) << 8) | \
 1533              		.loc 1 981 12
 1534 00b2 1343     		orrs	r3, r3, r2
 1535 00b4 FB60     		str	r3, [r7, #12]
ARM GAS  /tmp/cctIRrNQ.s 			page 45


 1536              	.L84:
 985:../Shared/Libraries/STM32F4xx_StdPeriph_Driver/src/stm32f4xx_rtc.c ****   }
 986:../Shared/Libraries/STM32F4xx_StdPeriph_Driver/src/stm32f4xx_rtc.c **** 
 987:../Shared/Libraries/STM32F4xx_StdPeriph_Driver/src/stm32f4xx_rtc.c ****   /* Disable the write protection for RTC registers */
 988:../Shared/Libraries/STM32F4xx_StdPeriph_Driver/src/stm32f4xx_rtc.c ****   RTC->WPR = 0xCA;
 1537              		.loc 1 988 6
 1538 00b6 194B     		ldr	r3, .L90
 1539              		.loc 1 988 12
 1540 00b8 CA22     		movs	r2, #202
 1541 00ba 5A62     		str	r2, [r3, #36]
 989:../Shared/Libraries/STM32F4xx_StdPeriph_Driver/src/stm32f4xx_rtc.c ****   RTC->WPR = 0x53;
 1542              		.loc 1 989 6
 1543 00bc 174B     		ldr	r3, .L90
 1544              		.loc 1 989 12
 1545 00be 5322     		movs	r2, #83
 1546 00c0 5A62     		str	r2, [r3, #36]
 990:../Shared/Libraries/STM32F4xx_StdPeriph_Driver/src/stm32f4xx_rtc.c **** 
 991:../Shared/Libraries/STM32F4xx_StdPeriph_Driver/src/stm32f4xx_rtc.c ****   /* Set Initialization mode */
 992:../Shared/Libraries/STM32F4xx_StdPeriph_Driver/src/stm32f4xx_rtc.c ****   if (RTC_EnterInitMode() == ERROR)
 1547              		.loc 1 992 7
 1548 00c2 FFF7FEFF 		bl	RTC_EnterInitMode
 1549 00c6 0346     		mov	r3, r0
 1550              		.loc 1 992 6 discriminator 1
 1551 00c8 002B     		cmp	r3, #0
 1552 00ca 02D1     		bne	.L85
 993:../Shared/Libraries/STM32F4xx_StdPeriph_Driver/src/stm32f4xx_rtc.c ****   {
 994:../Shared/Libraries/STM32F4xx_StdPeriph_Driver/src/stm32f4xx_rtc.c ****     status = ERROR;
 1553              		.loc 1 994 12
 1554 00cc 0023     		movs	r3, #0
 1555 00ce FB72     		strb	r3, [r7, #11]
 1556 00d0 1BE0     		b	.L86
 1557              	.L85:
 995:../Shared/Libraries/STM32F4xx_StdPeriph_Driver/src/stm32f4xx_rtc.c ****   } 
 996:../Shared/Libraries/STM32F4xx_StdPeriph_Driver/src/stm32f4xx_rtc.c ****   else
 997:../Shared/Libraries/STM32F4xx_StdPeriph_Driver/src/stm32f4xx_rtc.c ****   {
 998:../Shared/Libraries/STM32F4xx_StdPeriph_Driver/src/stm32f4xx_rtc.c ****     /* Set the RTC_DR register */
 999:../Shared/Libraries/STM32F4xx_StdPeriph_Driver/src/stm32f4xx_rtc.c ****     RTC->DR = (uint32_t)(tmpreg & RTC_DR_RESERVED_MASK);
 1558              		.loc 1 999 8
 1559 00d2 124A     		ldr	r2, .L90
 1560              		.loc 1 999 15
 1561 00d4 FB68     		ldr	r3, [r7, #12]
 1562 00d6 23F07F43 		bic	r3, r3, #-16777216
 1563 00da 23F0C003 		bic	r3, r3, #192
 1564              		.loc 1 999 13
 1565 00de 5360     		str	r3, [r2, #4]
1000:../Shared/Libraries/STM32F4xx_StdPeriph_Driver/src/stm32f4xx_rtc.c **** 
1001:../Shared/Libraries/STM32F4xx_StdPeriph_Driver/src/stm32f4xx_rtc.c ****     /* Exit Initialization mode */
1002:../Shared/Libraries/STM32F4xx_StdPeriph_Driver/src/stm32f4xx_rtc.c ****     RTC_ExitInitMode(); 
 1566              		.loc 1 1002 5
 1567 00e0 FFF7FEFF 		bl	RTC_ExitInitMode
1003:../Shared/Libraries/STM32F4xx_StdPeriph_Driver/src/stm32f4xx_rtc.c **** 
1004:../Shared/Libraries/STM32F4xx_StdPeriph_Driver/src/stm32f4xx_rtc.c ****     /* If  RTC_CR_BYPSHAD bit = 0, wait for synchro else this check is not needed */
1005:../Shared/Libraries/STM32F4xx_StdPeriph_Driver/src/stm32f4xx_rtc.c ****     if ((RTC->CR & RTC_CR_BYPSHAD) == RESET)
 1568              		.loc 1 1005 13
 1569 00e4 0D4B     		ldr	r3, .L90
 1570 00e6 9B68     		ldr	r3, [r3, #8]
 1571              		.loc 1 1005 18
ARM GAS  /tmp/cctIRrNQ.s 			page 46


 1572 00e8 03F02003 		and	r3, r3, #32
 1573              		.loc 1 1005 8
 1574 00ec 002B     		cmp	r3, #0
 1575 00ee 0AD1     		bne	.L87
1006:../Shared/Libraries/STM32F4xx_StdPeriph_Driver/src/stm32f4xx_rtc.c ****     {
1007:../Shared/Libraries/STM32F4xx_StdPeriph_Driver/src/stm32f4xx_rtc.c ****       if (RTC_WaitForSynchro() == ERROR)
 1576              		.loc 1 1007 11
 1577 00f0 FFF7FEFF 		bl	RTC_WaitForSynchro
 1578 00f4 0346     		mov	r3, r0
 1579              		.loc 1 1007 10 discriminator 1
 1580 00f6 002B     		cmp	r3, #0
 1581 00f8 02D1     		bne	.L88
1008:../Shared/Libraries/STM32F4xx_StdPeriph_Driver/src/stm32f4xx_rtc.c ****       {
1009:../Shared/Libraries/STM32F4xx_StdPeriph_Driver/src/stm32f4xx_rtc.c ****         status = ERROR;
 1582              		.loc 1 1009 16
 1583 00fa 0023     		movs	r3, #0
 1584 00fc FB72     		strb	r3, [r7, #11]
 1585 00fe 04E0     		b	.L86
 1586              	.L88:
1010:../Shared/Libraries/STM32F4xx_StdPeriph_Driver/src/stm32f4xx_rtc.c ****       }
1011:../Shared/Libraries/STM32F4xx_StdPeriph_Driver/src/stm32f4xx_rtc.c ****       else
1012:../Shared/Libraries/STM32F4xx_StdPeriph_Driver/src/stm32f4xx_rtc.c ****       {
1013:../Shared/Libraries/STM32F4xx_StdPeriph_Driver/src/stm32f4xx_rtc.c ****         status = SUCCESS;
 1587              		.loc 1 1013 16
 1588 0100 0123     		movs	r3, #1
 1589 0102 FB72     		strb	r3, [r7, #11]
 1590 0104 01E0     		b	.L86
 1591              	.L87:
1014:../Shared/Libraries/STM32F4xx_StdPeriph_Driver/src/stm32f4xx_rtc.c ****       }
1015:../Shared/Libraries/STM32F4xx_StdPeriph_Driver/src/stm32f4xx_rtc.c ****     }
1016:../Shared/Libraries/STM32F4xx_StdPeriph_Driver/src/stm32f4xx_rtc.c ****     else
1017:../Shared/Libraries/STM32F4xx_StdPeriph_Driver/src/stm32f4xx_rtc.c ****     {
1018:../Shared/Libraries/STM32F4xx_StdPeriph_Driver/src/stm32f4xx_rtc.c ****       status = SUCCESS;
 1592              		.loc 1 1018 14
 1593 0106 0123     		movs	r3, #1
 1594 0108 FB72     		strb	r3, [r7, #11]
 1595              	.L86:
1019:../Shared/Libraries/STM32F4xx_StdPeriph_Driver/src/stm32f4xx_rtc.c ****     }
1020:../Shared/Libraries/STM32F4xx_StdPeriph_Driver/src/stm32f4xx_rtc.c ****   }
1021:../Shared/Libraries/STM32F4xx_StdPeriph_Driver/src/stm32f4xx_rtc.c ****   /* Enable the write protection for RTC registers */
1022:../Shared/Libraries/STM32F4xx_StdPeriph_Driver/src/stm32f4xx_rtc.c ****   RTC->WPR = 0xFF;   
 1596              		.loc 1 1022 6
 1597 010a 044B     		ldr	r3, .L90
 1598              		.loc 1 1022 12
 1599 010c FF22     		movs	r2, #255
 1600 010e 5A62     		str	r2, [r3, #36]
1023:../Shared/Libraries/STM32F4xx_StdPeriph_Driver/src/stm32f4xx_rtc.c ****   
1024:../Shared/Libraries/STM32F4xx_StdPeriph_Driver/src/stm32f4xx_rtc.c ****   return status;
 1601              		.loc 1 1024 10
 1602 0110 FB7A     		ldrb	r3, [r7, #11]	@ zero_extendqisi2
1025:../Shared/Libraries/STM32F4xx_StdPeriph_Driver/src/stm32f4xx_rtc.c **** }
 1603              		.loc 1 1025 1
 1604 0112 1846     		mov	r0, r3
 1605 0114 1437     		adds	r7, r7, #20
 1606              	.LCFI74:
 1607              		.cfi_def_cfa_offset 12
 1608 0116 BD46     		mov	sp, r7
ARM GAS  /tmp/cctIRrNQ.s 			page 47


 1609              	.LCFI75:
 1610              		.cfi_def_cfa_register 13
 1611              		@ sp needed
 1612 0118 90BD     		pop	{r4, r7, pc}
 1613              	.L91:
 1614 011a 00BF     		.align	2
 1615              	.L90:
 1616 011c 00280040 		.word	1073752064
 1617              		.cfi_endproc
 1618              	.LFE123:
 1620              		.section	.text.RTC_DateStructInit,"ax",%progbits
 1621              		.align	1
 1622              		.global	RTC_DateStructInit
 1623              		.syntax unified
 1624              		.thumb
 1625              		.thumb_func
 1627              	RTC_DateStructInit:
 1628              	.LFB124:
1026:../Shared/Libraries/STM32F4xx_StdPeriph_Driver/src/stm32f4xx_rtc.c **** 
1027:../Shared/Libraries/STM32F4xx_StdPeriph_Driver/src/stm32f4xx_rtc.c **** /**
1028:../Shared/Libraries/STM32F4xx_StdPeriph_Driver/src/stm32f4xx_rtc.c ****   * @brief  Fills each RTC_DateStruct member with its default value
1029:../Shared/Libraries/STM32F4xx_StdPeriph_Driver/src/stm32f4xx_rtc.c ****   *         (Monday, January 01 xx00).
1030:../Shared/Libraries/STM32F4xx_StdPeriph_Driver/src/stm32f4xx_rtc.c ****   * @param  RTC_DateStruct: pointer to a RTC_DateTypeDef structure which will be 
1031:../Shared/Libraries/STM32F4xx_StdPeriph_Driver/src/stm32f4xx_rtc.c ****   *         initialized.
1032:../Shared/Libraries/STM32F4xx_StdPeriph_Driver/src/stm32f4xx_rtc.c ****   * @retval None
1033:../Shared/Libraries/STM32F4xx_StdPeriph_Driver/src/stm32f4xx_rtc.c ****   */
1034:../Shared/Libraries/STM32F4xx_StdPeriph_Driver/src/stm32f4xx_rtc.c **** void RTC_DateStructInit(RTC_DateTypeDef* RTC_DateStruct)
1035:../Shared/Libraries/STM32F4xx_StdPeriph_Driver/src/stm32f4xx_rtc.c **** {
 1629              		.loc 1 1035 1
 1630              		.cfi_startproc
 1631              		@ args = 0, pretend = 0, frame = 8
 1632              		@ frame_needed = 1, uses_anonymous_args = 0
 1633              		@ link register save eliminated.
 1634 0000 80B4     		push	{r7}
 1635              	.LCFI76:
 1636              		.cfi_def_cfa_offset 4
 1637              		.cfi_offset 7, -4
 1638 0002 83B0     		sub	sp, sp, #12
 1639              	.LCFI77:
 1640              		.cfi_def_cfa_offset 16
 1641 0004 00AF     		add	r7, sp, #0
 1642              	.LCFI78:
 1643              		.cfi_def_cfa_register 7
 1644 0006 7860     		str	r0, [r7, #4]
1036:../Shared/Libraries/STM32F4xx_StdPeriph_Driver/src/stm32f4xx_rtc.c ****   /* Monday, January 01 xx00 */
1037:../Shared/Libraries/STM32F4xx_StdPeriph_Driver/src/stm32f4xx_rtc.c ****   RTC_DateStruct->RTC_WeekDay = RTC_Weekday_Monday;
 1645              		.loc 1 1037 31
 1646 0008 7B68     		ldr	r3, [r7, #4]
 1647 000a 0122     		movs	r2, #1
 1648 000c 1A70     		strb	r2, [r3]
1038:../Shared/Libraries/STM32F4xx_StdPeriph_Driver/src/stm32f4xx_rtc.c ****   RTC_DateStruct->RTC_Date = 1;
 1649              		.loc 1 1038 28
 1650 000e 7B68     		ldr	r3, [r7, #4]
 1651 0010 0122     		movs	r2, #1
 1652 0012 9A70     		strb	r2, [r3, #2]
1039:../Shared/Libraries/STM32F4xx_StdPeriph_Driver/src/stm32f4xx_rtc.c ****   RTC_DateStruct->RTC_Month = RTC_Month_January;
 1653              		.loc 1 1039 29
ARM GAS  /tmp/cctIRrNQ.s 			page 48


 1654 0014 7B68     		ldr	r3, [r7, #4]
 1655 0016 0122     		movs	r2, #1
 1656 0018 5A70     		strb	r2, [r3, #1]
1040:../Shared/Libraries/STM32F4xx_StdPeriph_Driver/src/stm32f4xx_rtc.c ****   RTC_DateStruct->RTC_Year = 0;
 1657              		.loc 1 1040 28
 1658 001a 7B68     		ldr	r3, [r7, #4]
 1659 001c 0022     		movs	r2, #0
 1660 001e DA70     		strb	r2, [r3, #3]
1041:../Shared/Libraries/STM32F4xx_StdPeriph_Driver/src/stm32f4xx_rtc.c **** }
 1661              		.loc 1 1041 1
 1662 0020 00BF     		nop
 1663 0022 0C37     		adds	r7, r7, #12
 1664              	.LCFI79:
 1665              		.cfi_def_cfa_offset 4
 1666 0024 BD46     		mov	sp, r7
 1667              	.LCFI80:
 1668              		.cfi_def_cfa_register 13
 1669              		@ sp needed
 1670 0026 5DF8047B 		ldr	r7, [sp], #4
 1671              	.LCFI81:
 1672              		.cfi_restore 7
 1673              		.cfi_def_cfa_offset 0
 1674 002a 7047     		bx	lr
 1675              		.cfi_endproc
 1676              	.LFE124:
 1678              		.section	.text.RTC_GetDate,"ax",%progbits
 1679              		.align	1
 1680              		.global	RTC_GetDate
 1681              		.syntax unified
 1682              		.thumb
 1683              		.thumb_func
 1685              	RTC_GetDate:
 1686              	.LFB125:
1042:../Shared/Libraries/STM32F4xx_StdPeriph_Driver/src/stm32f4xx_rtc.c **** 
1043:../Shared/Libraries/STM32F4xx_StdPeriph_Driver/src/stm32f4xx_rtc.c **** /**
1044:../Shared/Libraries/STM32F4xx_StdPeriph_Driver/src/stm32f4xx_rtc.c ****   * @brief  Get the RTC current date. 
1045:../Shared/Libraries/STM32F4xx_StdPeriph_Driver/src/stm32f4xx_rtc.c ****   * @param  RTC_Format: specifies the format of the returned parameters.
1046:../Shared/Libraries/STM32F4xx_StdPeriph_Driver/src/stm32f4xx_rtc.c ****   *          This parameter can be one of the following values:
1047:../Shared/Libraries/STM32F4xx_StdPeriph_Driver/src/stm32f4xx_rtc.c ****   *            @arg RTC_Format_BIN: Binary data format 
1048:../Shared/Libraries/STM32F4xx_StdPeriph_Driver/src/stm32f4xx_rtc.c ****   *            @arg RTC_Format_BCD: BCD data format
1049:../Shared/Libraries/STM32F4xx_StdPeriph_Driver/src/stm32f4xx_rtc.c ****   * @param RTC_DateStruct: pointer to a RTC_DateTypeDef structure that will 
1050:../Shared/Libraries/STM32F4xx_StdPeriph_Driver/src/stm32f4xx_rtc.c ****   *                        contain the returned current date configuration.     
1051:../Shared/Libraries/STM32F4xx_StdPeriph_Driver/src/stm32f4xx_rtc.c ****   * @retval None
1052:../Shared/Libraries/STM32F4xx_StdPeriph_Driver/src/stm32f4xx_rtc.c ****   */
1053:../Shared/Libraries/STM32F4xx_StdPeriph_Driver/src/stm32f4xx_rtc.c **** void RTC_GetDate(uint32_t RTC_Format, RTC_DateTypeDef* RTC_DateStruct)
1054:../Shared/Libraries/STM32F4xx_StdPeriph_Driver/src/stm32f4xx_rtc.c **** {
 1687              		.loc 1 1054 1
 1688              		.cfi_startproc
 1689              		@ args = 0, pretend = 0, frame = 16
 1690              		@ frame_needed = 1, uses_anonymous_args = 0
 1691 0000 80B5     		push	{r7, lr}
 1692              	.LCFI82:
 1693              		.cfi_def_cfa_offset 8
 1694              		.cfi_offset 7, -8
 1695              		.cfi_offset 14, -4
 1696 0002 84B0     		sub	sp, sp, #16
 1697              	.LCFI83:
ARM GAS  /tmp/cctIRrNQ.s 			page 49


 1698              		.cfi_def_cfa_offset 24
 1699 0004 00AF     		add	r7, sp, #0
 1700              	.LCFI84:
 1701              		.cfi_def_cfa_register 7
 1702 0006 7860     		str	r0, [r7, #4]
 1703 0008 3960     		str	r1, [r7]
1055:../Shared/Libraries/STM32F4xx_StdPeriph_Driver/src/stm32f4xx_rtc.c ****   uint32_t tmpreg = 0;
 1704              		.loc 1 1055 12
 1705 000a 0023     		movs	r3, #0
 1706 000c FB60     		str	r3, [r7, #12]
1056:../Shared/Libraries/STM32F4xx_StdPeriph_Driver/src/stm32f4xx_rtc.c **** 
1057:../Shared/Libraries/STM32F4xx_StdPeriph_Driver/src/stm32f4xx_rtc.c ****   /* Check the parameters */
1058:../Shared/Libraries/STM32F4xx_StdPeriph_Driver/src/stm32f4xx_rtc.c ****   assert_param(IS_RTC_FORMAT(RTC_Format));
1059:../Shared/Libraries/STM32F4xx_StdPeriph_Driver/src/stm32f4xx_rtc.c ****   
1060:../Shared/Libraries/STM32F4xx_StdPeriph_Driver/src/stm32f4xx_rtc.c ****   /* Get the RTC_TR register */
1061:../Shared/Libraries/STM32F4xx_StdPeriph_Driver/src/stm32f4xx_rtc.c ****   tmpreg = (uint32_t)(RTC->DR & RTC_DR_RESERVED_MASK); 
 1707              		.loc 1 1061 26
 1708 000e 224B     		ldr	r3, .L96
 1709 0010 5B68     		ldr	r3, [r3, #4]
 1710              		.loc 1 1061 10
 1711 0012 23F07F43 		bic	r3, r3, #-16777216
 1712 0016 23F0C003 		bic	r3, r3, #192
 1713 001a FB60     		str	r3, [r7, #12]
1062:../Shared/Libraries/STM32F4xx_StdPeriph_Driver/src/stm32f4xx_rtc.c **** 
1063:../Shared/Libraries/STM32F4xx_StdPeriph_Driver/src/stm32f4xx_rtc.c ****   /* Fill the structure fields with the read parameters */
1064:../Shared/Libraries/STM32F4xx_StdPeriph_Driver/src/stm32f4xx_rtc.c ****   RTC_DateStruct->RTC_Year = (uint8_t)((tmpreg & (RTC_DR_YT | RTC_DR_YU)) >> 16);
 1714              		.loc 1 1064 75
 1715 001c FB68     		ldr	r3, [r7, #12]
 1716 001e 1B0C     		lsrs	r3, r3, #16
 1717              		.loc 1 1064 30
 1718 0020 DAB2     		uxtb	r2, r3
 1719              		.loc 1 1064 28
 1720 0022 3B68     		ldr	r3, [r7]
 1721 0024 DA70     		strb	r2, [r3, #3]
1065:../Shared/Libraries/STM32F4xx_StdPeriph_Driver/src/stm32f4xx_rtc.c ****   RTC_DateStruct->RTC_Month = (uint8_t)((tmpreg & (RTC_DR_MT | RTC_DR_MU)) >> 8);
 1722              		.loc 1 1065 76
 1723 0026 FB68     		ldr	r3, [r7, #12]
 1724 0028 1B0A     		lsrs	r3, r3, #8
 1725              		.loc 1 1065 31
 1726 002a DBB2     		uxtb	r3, r3
 1727 002c 03F01F03 		and	r3, r3, #31
 1728 0030 DAB2     		uxtb	r2, r3
 1729              		.loc 1 1065 29
 1730 0032 3B68     		ldr	r3, [r7]
 1731 0034 5A70     		strb	r2, [r3, #1]
1066:../Shared/Libraries/STM32F4xx_StdPeriph_Driver/src/stm32f4xx_rtc.c ****   RTC_DateStruct->RTC_Date = (uint8_t)(tmpreg & (RTC_DR_DT | RTC_DR_DU));
 1732              		.loc 1 1066 30
 1733 0036 FB68     		ldr	r3, [r7, #12]
 1734 0038 DBB2     		uxtb	r3, r3
 1735 003a 03F03F03 		and	r3, r3, #63
 1736 003e DAB2     		uxtb	r2, r3
 1737              		.loc 1 1066 28
 1738 0040 3B68     		ldr	r3, [r7]
 1739 0042 9A70     		strb	r2, [r3, #2]
1067:../Shared/Libraries/STM32F4xx_StdPeriph_Driver/src/stm32f4xx_rtc.c ****   RTC_DateStruct->RTC_WeekDay = (uint8_t)((tmpreg & (RTC_DR_WDU)) >> 13);
 1740              		.loc 1 1067 67
 1741 0044 FB68     		ldr	r3, [r7, #12]
ARM GAS  /tmp/cctIRrNQ.s 			page 50


 1742 0046 5B0B     		lsrs	r3, r3, #13
 1743              		.loc 1 1067 33
 1744 0048 DBB2     		uxtb	r3, r3
 1745 004a 03F00703 		and	r3, r3, #7
 1746 004e DAB2     		uxtb	r2, r3
 1747              		.loc 1 1067 31
 1748 0050 3B68     		ldr	r3, [r7]
 1749 0052 1A70     		strb	r2, [r3]
1068:../Shared/Libraries/STM32F4xx_StdPeriph_Driver/src/stm32f4xx_rtc.c **** 
1069:../Shared/Libraries/STM32F4xx_StdPeriph_Driver/src/stm32f4xx_rtc.c ****   /* Check the input parameters format */
1070:../Shared/Libraries/STM32F4xx_StdPeriph_Driver/src/stm32f4xx_rtc.c ****   if (RTC_Format == RTC_Format_BIN)
 1750              		.loc 1 1070 6
 1751 0054 7B68     		ldr	r3, [r7, #4]
 1752 0056 002B     		cmp	r3, #0
 1753 0058 1AD1     		bne	.L95
1071:../Shared/Libraries/STM32F4xx_StdPeriph_Driver/src/stm32f4xx_rtc.c ****   {
1072:../Shared/Libraries/STM32F4xx_StdPeriph_Driver/src/stm32f4xx_rtc.c ****     /* Convert the structure parameters to Binary format */
1073:../Shared/Libraries/STM32F4xx_StdPeriph_Driver/src/stm32f4xx_rtc.c ****     RTC_DateStruct->RTC_Year = (uint8_t)RTC_Bcd2ToByte(RTC_DateStruct->RTC_Year);
 1754              		.loc 1 1073 41
 1755 005a 3B68     		ldr	r3, [r7]
 1756 005c DB78     		ldrb	r3, [r3, #3]	@ zero_extendqisi2
 1757 005e 1846     		mov	r0, r3
 1758 0060 FFF7FEFF 		bl	RTC_Bcd2ToByte
 1759 0064 0346     		mov	r3, r0
 1760 0066 1A46     		mov	r2, r3
 1761              		.loc 1 1073 30 discriminator 1
 1762 0068 3B68     		ldr	r3, [r7]
 1763 006a DA70     		strb	r2, [r3, #3]
1074:../Shared/Libraries/STM32F4xx_StdPeriph_Driver/src/stm32f4xx_rtc.c ****     RTC_DateStruct->RTC_Month = (uint8_t)RTC_Bcd2ToByte(RTC_DateStruct->RTC_Month);
 1764              		.loc 1 1074 42
 1765 006c 3B68     		ldr	r3, [r7]
 1766 006e 5B78     		ldrb	r3, [r3, #1]	@ zero_extendqisi2
 1767 0070 1846     		mov	r0, r3
 1768 0072 FFF7FEFF 		bl	RTC_Bcd2ToByte
 1769 0076 0346     		mov	r3, r0
 1770 0078 1A46     		mov	r2, r3
 1771              		.loc 1 1074 31 discriminator 1
 1772 007a 3B68     		ldr	r3, [r7]
 1773 007c 5A70     		strb	r2, [r3, #1]
1075:../Shared/Libraries/STM32F4xx_StdPeriph_Driver/src/stm32f4xx_rtc.c ****     RTC_DateStruct->RTC_Date = (uint8_t)RTC_Bcd2ToByte(RTC_DateStruct->RTC_Date);
 1774              		.loc 1 1075 41
 1775 007e 3B68     		ldr	r3, [r7]
 1776 0080 9B78     		ldrb	r3, [r3, #2]	@ zero_extendqisi2
 1777 0082 1846     		mov	r0, r3
 1778 0084 FFF7FEFF 		bl	RTC_Bcd2ToByte
 1779 0088 0346     		mov	r3, r0
 1780 008a 1A46     		mov	r2, r3
 1781              		.loc 1 1075 30 discriminator 1
 1782 008c 3B68     		ldr	r3, [r7]
 1783 008e 9A70     		strb	r2, [r3, #2]
 1784              	.L95:
1076:../Shared/Libraries/STM32F4xx_StdPeriph_Driver/src/stm32f4xx_rtc.c ****   }
1077:../Shared/Libraries/STM32F4xx_StdPeriph_Driver/src/stm32f4xx_rtc.c **** }
 1785              		.loc 1 1077 1
 1786 0090 00BF     		nop
 1787 0092 1037     		adds	r7, r7, #16
 1788              	.LCFI85:
ARM GAS  /tmp/cctIRrNQ.s 			page 51


 1789              		.cfi_def_cfa_offset 8
 1790 0094 BD46     		mov	sp, r7
 1791              	.LCFI86:
 1792              		.cfi_def_cfa_register 13
 1793              		@ sp needed
 1794 0096 80BD     		pop	{r7, pc}
 1795              	.L97:
 1796              		.align	2
 1797              	.L96:
 1798 0098 00280040 		.word	1073752064
 1799              		.cfi_endproc
 1800              	.LFE125:
 1802              		.section	.text.RTC_SetAlarm,"ax",%progbits
 1803              		.align	1
 1804              		.global	RTC_SetAlarm
 1805              		.syntax unified
 1806              		.thumb
 1807              		.thumb_func
 1809              	RTC_SetAlarm:
 1810              	.LFB126:
1078:../Shared/Libraries/STM32F4xx_StdPeriph_Driver/src/stm32f4xx_rtc.c **** 
1079:../Shared/Libraries/STM32F4xx_StdPeriph_Driver/src/stm32f4xx_rtc.c **** /**
1080:../Shared/Libraries/STM32F4xx_StdPeriph_Driver/src/stm32f4xx_rtc.c ****   * @}
1081:../Shared/Libraries/STM32F4xx_StdPeriph_Driver/src/stm32f4xx_rtc.c ****   */
1082:../Shared/Libraries/STM32F4xx_StdPeriph_Driver/src/stm32f4xx_rtc.c **** 
1083:../Shared/Libraries/STM32F4xx_StdPeriph_Driver/src/stm32f4xx_rtc.c **** /** @defgroup RTC_Group3 Alarms configuration functions
1084:../Shared/Libraries/STM32F4xx_StdPeriph_Driver/src/stm32f4xx_rtc.c ****  *  @brief   Alarms (Alarm A and Alarm B) configuration functions 
1085:../Shared/Libraries/STM32F4xx_StdPeriph_Driver/src/stm32f4xx_rtc.c ****  *
1086:../Shared/Libraries/STM32F4xx_StdPeriph_Driver/src/stm32f4xx_rtc.c **** @verbatim   
1087:../Shared/Libraries/STM32F4xx_StdPeriph_Driver/src/stm32f4xx_rtc.c ****  ===============================================================================
1088:../Shared/Libraries/STM32F4xx_StdPeriph_Driver/src/stm32f4xx_rtc.c ****               Alarms (Alarm A and Alarm B) configuration functions
1089:../Shared/Libraries/STM32F4xx_StdPeriph_Driver/src/stm32f4xx_rtc.c ****  ===============================================================================  
1090:../Shared/Libraries/STM32F4xx_StdPeriph_Driver/src/stm32f4xx_rtc.c **** 
1091:../Shared/Libraries/STM32F4xx_StdPeriph_Driver/src/stm32f4xx_rtc.c ****   This section provide functions allowing to program and read the RTC Alarms.
1092:../Shared/Libraries/STM32F4xx_StdPeriph_Driver/src/stm32f4xx_rtc.c **** 
1093:../Shared/Libraries/STM32F4xx_StdPeriph_Driver/src/stm32f4xx_rtc.c **** @endverbatim
1094:../Shared/Libraries/STM32F4xx_StdPeriph_Driver/src/stm32f4xx_rtc.c ****   * @{
1095:../Shared/Libraries/STM32F4xx_StdPeriph_Driver/src/stm32f4xx_rtc.c ****   */
1096:../Shared/Libraries/STM32F4xx_StdPeriph_Driver/src/stm32f4xx_rtc.c **** 
1097:../Shared/Libraries/STM32F4xx_StdPeriph_Driver/src/stm32f4xx_rtc.c **** /**
1098:../Shared/Libraries/STM32F4xx_StdPeriph_Driver/src/stm32f4xx_rtc.c ****   * @brief  Set the specified RTC Alarm.
1099:../Shared/Libraries/STM32F4xx_StdPeriph_Driver/src/stm32f4xx_rtc.c ****   * @note   The Alarm register can only be written when the corresponding Alarm
1100:../Shared/Libraries/STM32F4xx_StdPeriph_Driver/src/stm32f4xx_rtc.c ****   *         is disabled (Use the RTC_AlarmCmd(DISABLE)).    
1101:../Shared/Libraries/STM32F4xx_StdPeriph_Driver/src/stm32f4xx_rtc.c ****   * @param  RTC_Format: specifies the format of the returned parameters.
1102:../Shared/Libraries/STM32F4xx_StdPeriph_Driver/src/stm32f4xx_rtc.c ****   *          This parameter can be one of the following values:
1103:../Shared/Libraries/STM32F4xx_StdPeriph_Driver/src/stm32f4xx_rtc.c ****   *            @arg RTC_Format_BIN: Binary data format 
1104:../Shared/Libraries/STM32F4xx_StdPeriph_Driver/src/stm32f4xx_rtc.c ****   *            @arg RTC_Format_BCD: BCD data format
1105:../Shared/Libraries/STM32F4xx_StdPeriph_Driver/src/stm32f4xx_rtc.c ****   * @param  RTC_Alarm: specifies the alarm to be configured.
1106:../Shared/Libraries/STM32F4xx_StdPeriph_Driver/src/stm32f4xx_rtc.c ****   *          This parameter can be one of the following values:
1107:../Shared/Libraries/STM32F4xx_StdPeriph_Driver/src/stm32f4xx_rtc.c ****   *            @arg RTC_Alarm_A: to select Alarm A
1108:../Shared/Libraries/STM32F4xx_StdPeriph_Driver/src/stm32f4xx_rtc.c ****   *            @arg RTC_Alarm_B: to select Alarm B  
1109:../Shared/Libraries/STM32F4xx_StdPeriph_Driver/src/stm32f4xx_rtc.c ****   * @param  RTC_AlarmStruct: pointer to a RTC_AlarmTypeDef structure that 
1110:../Shared/Libraries/STM32F4xx_StdPeriph_Driver/src/stm32f4xx_rtc.c ****   *                          contains the alarm configuration parameters.     
1111:../Shared/Libraries/STM32F4xx_StdPeriph_Driver/src/stm32f4xx_rtc.c ****   * @retval None
1112:../Shared/Libraries/STM32F4xx_StdPeriph_Driver/src/stm32f4xx_rtc.c ****   */
1113:../Shared/Libraries/STM32F4xx_StdPeriph_Driver/src/stm32f4xx_rtc.c **** void RTC_SetAlarm(uint32_t RTC_Format, uint32_t RTC_Alarm, RTC_AlarmTypeDef* RTC_AlarmStruct)
1114:../Shared/Libraries/STM32F4xx_StdPeriph_Driver/src/stm32f4xx_rtc.c **** {
ARM GAS  /tmp/cctIRrNQ.s 			page 52


 1811              		.loc 1 1114 1
 1812              		.cfi_startproc
 1813              		@ args = 0, pretend = 0, frame = 24
 1814              		@ frame_needed = 1, uses_anonymous_args = 0
 1815 0000 90B5     		push	{r4, r7, lr}
 1816              	.LCFI87:
 1817              		.cfi_def_cfa_offset 12
 1818              		.cfi_offset 4, -12
 1819              		.cfi_offset 7, -8
 1820              		.cfi_offset 14, -4
 1821 0002 87B0     		sub	sp, sp, #28
 1822              	.LCFI88:
 1823              		.cfi_def_cfa_offset 40
 1824 0004 00AF     		add	r7, sp, #0
 1825              	.LCFI89:
 1826              		.cfi_def_cfa_register 7
 1827 0006 F860     		str	r0, [r7, #12]
 1828 0008 B960     		str	r1, [r7, #8]
 1829 000a 7A60     		str	r2, [r7, #4]
1115:../Shared/Libraries/STM32F4xx_StdPeriph_Driver/src/stm32f4xx_rtc.c ****   uint32_t tmpreg = 0;
 1830              		.loc 1 1115 12
 1831 000c 0023     		movs	r3, #0
 1832 000e 7B61     		str	r3, [r7, #20]
1116:../Shared/Libraries/STM32F4xx_StdPeriph_Driver/src/stm32f4xx_rtc.c ****   
1117:../Shared/Libraries/STM32F4xx_StdPeriph_Driver/src/stm32f4xx_rtc.c ****   /* Check the parameters */
1118:../Shared/Libraries/STM32F4xx_StdPeriph_Driver/src/stm32f4xx_rtc.c ****   assert_param(IS_RTC_FORMAT(RTC_Format));
1119:../Shared/Libraries/STM32F4xx_StdPeriph_Driver/src/stm32f4xx_rtc.c ****   assert_param(IS_RTC_ALARM(RTC_Alarm));
1120:../Shared/Libraries/STM32F4xx_StdPeriph_Driver/src/stm32f4xx_rtc.c ****   assert_param(IS_ALARM_MASK(RTC_AlarmStruct->RTC_AlarmMask));
1121:../Shared/Libraries/STM32F4xx_StdPeriph_Driver/src/stm32f4xx_rtc.c ****   assert_param(IS_RTC_ALARM_DATE_WEEKDAY_SEL(RTC_AlarmStruct->RTC_AlarmDateWeekDaySel));
1122:../Shared/Libraries/STM32F4xx_StdPeriph_Driver/src/stm32f4xx_rtc.c **** 
1123:../Shared/Libraries/STM32F4xx_StdPeriph_Driver/src/stm32f4xx_rtc.c ****   if (RTC_Format == RTC_Format_BIN)
 1833              		.loc 1 1123 6
 1834 0010 FB68     		ldr	r3, [r7, #12]
 1835 0012 002B     		cmp	r3, #0
 1836 0014 09D1     		bne	.L99
1124:../Shared/Libraries/STM32F4xx_StdPeriph_Driver/src/stm32f4xx_rtc.c ****   {
1125:../Shared/Libraries/STM32F4xx_StdPeriph_Driver/src/stm32f4xx_rtc.c ****     if ((RTC->CR & RTC_CR_FMT) != (uint32_t)RESET)
 1837              		.loc 1 1125 13
 1838 0016 474B     		ldr	r3, .L109
 1839 0018 9B68     		ldr	r3, [r3, #8]
 1840              		.loc 1 1125 18
 1841 001a 03F04003 		and	r3, r3, #64
 1842              		.loc 1 1125 8
 1843 001e 002B     		cmp	r3, #0
 1844 0020 27D1     		bne	.L101
1126:../Shared/Libraries/STM32F4xx_StdPeriph_Driver/src/stm32f4xx_rtc.c ****     {
1127:../Shared/Libraries/STM32F4xx_StdPeriph_Driver/src/stm32f4xx_rtc.c ****       assert_param(IS_RTC_HOUR12(RTC_AlarmStruct->RTC_AlarmTime.RTC_Hours));
1128:../Shared/Libraries/STM32F4xx_StdPeriph_Driver/src/stm32f4xx_rtc.c ****       assert_param(IS_RTC_H12(RTC_AlarmStruct->RTC_AlarmTime.RTC_H12));
1129:../Shared/Libraries/STM32F4xx_StdPeriph_Driver/src/stm32f4xx_rtc.c ****     } 
1130:../Shared/Libraries/STM32F4xx_StdPeriph_Driver/src/stm32f4xx_rtc.c ****     else
1131:../Shared/Libraries/STM32F4xx_StdPeriph_Driver/src/stm32f4xx_rtc.c ****     {
1132:../Shared/Libraries/STM32F4xx_StdPeriph_Driver/src/stm32f4xx_rtc.c ****       RTC_AlarmStruct->RTC_AlarmTime.RTC_H12 = 0x00;
 1845              		.loc 1 1132 46
 1846 0022 7B68     		ldr	r3, [r7, #4]
 1847 0024 0022     		movs	r2, #0
 1848 0026 DA70     		strb	r2, [r3, #3]
 1849 0028 23E0     		b	.L101
ARM GAS  /tmp/cctIRrNQ.s 			page 53


 1850              	.L99:
1133:../Shared/Libraries/STM32F4xx_StdPeriph_Driver/src/stm32f4xx_rtc.c ****       assert_param(IS_RTC_HOUR24(RTC_AlarmStruct->RTC_AlarmTime.RTC_Hours));
1134:../Shared/Libraries/STM32F4xx_StdPeriph_Driver/src/stm32f4xx_rtc.c ****     }
1135:../Shared/Libraries/STM32F4xx_StdPeriph_Driver/src/stm32f4xx_rtc.c ****     assert_param(IS_RTC_MINUTES(RTC_AlarmStruct->RTC_AlarmTime.RTC_Minutes));
1136:../Shared/Libraries/STM32F4xx_StdPeriph_Driver/src/stm32f4xx_rtc.c ****     assert_param(IS_RTC_SECONDS(RTC_AlarmStruct->RTC_AlarmTime.RTC_Seconds));
1137:../Shared/Libraries/STM32F4xx_StdPeriph_Driver/src/stm32f4xx_rtc.c ****     
1138:../Shared/Libraries/STM32F4xx_StdPeriph_Driver/src/stm32f4xx_rtc.c ****     if(RTC_AlarmStruct->RTC_AlarmDateWeekDaySel == RTC_AlarmDateWeekDaySel_Date)
1139:../Shared/Libraries/STM32F4xx_StdPeriph_Driver/src/stm32f4xx_rtc.c ****     {
1140:../Shared/Libraries/STM32F4xx_StdPeriph_Driver/src/stm32f4xx_rtc.c ****       assert_param(IS_RTC_ALARM_DATE_WEEKDAY_DATE(RTC_AlarmStruct->RTC_AlarmDateWeekDay));
1141:../Shared/Libraries/STM32F4xx_StdPeriph_Driver/src/stm32f4xx_rtc.c ****     }
1142:../Shared/Libraries/STM32F4xx_StdPeriph_Driver/src/stm32f4xx_rtc.c ****     else
1143:../Shared/Libraries/STM32F4xx_StdPeriph_Driver/src/stm32f4xx_rtc.c ****     {
1144:../Shared/Libraries/STM32F4xx_StdPeriph_Driver/src/stm32f4xx_rtc.c ****       assert_param(IS_RTC_ALARM_DATE_WEEKDAY_WEEKDAY(RTC_AlarmStruct->RTC_AlarmDateWeekDay));
1145:../Shared/Libraries/STM32F4xx_StdPeriph_Driver/src/stm32f4xx_rtc.c ****     }
1146:../Shared/Libraries/STM32F4xx_StdPeriph_Driver/src/stm32f4xx_rtc.c ****   }
1147:../Shared/Libraries/STM32F4xx_StdPeriph_Driver/src/stm32f4xx_rtc.c ****   else
1148:../Shared/Libraries/STM32F4xx_StdPeriph_Driver/src/stm32f4xx_rtc.c ****   {
1149:../Shared/Libraries/STM32F4xx_StdPeriph_Driver/src/stm32f4xx_rtc.c ****     if ((RTC->CR & RTC_CR_FMT) != (uint32_t)RESET)
 1851              		.loc 1 1149 13
 1852 002a 424B     		ldr	r3, .L109
 1853 002c 9B68     		ldr	r3, [r3, #8]
 1854              		.loc 1 1149 18
 1855 002e 03F04003 		and	r3, r3, #64
 1856              		.loc 1 1149 8
 1857 0032 002B     		cmp	r3, #0
 1858 0034 07D0     		beq	.L102
1150:../Shared/Libraries/STM32F4xx_StdPeriph_Driver/src/stm32f4xx_rtc.c ****     {
1151:../Shared/Libraries/STM32F4xx_StdPeriph_Driver/src/stm32f4xx_rtc.c ****       tmpreg = RTC_Bcd2ToByte(RTC_AlarmStruct->RTC_AlarmTime.RTC_Hours);
 1859              		.loc 1 1151 16
 1860 0036 7B68     		ldr	r3, [r7, #4]
 1861 0038 1B78     		ldrb	r3, [r3]	@ zero_extendqisi2
 1862 003a 1846     		mov	r0, r3
 1863 003c FFF7FEFF 		bl	RTC_Bcd2ToByte
 1864 0040 0346     		mov	r3, r0
 1865              		.loc 1 1151 14 discriminator 1
 1866 0042 7B61     		str	r3, [r7, #20]
 1867 0044 02E0     		b	.L103
 1868              	.L102:
1152:../Shared/Libraries/STM32F4xx_StdPeriph_Driver/src/stm32f4xx_rtc.c ****       assert_param(IS_RTC_HOUR12(tmpreg));
1153:../Shared/Libraries/STM32F4xx_StdPeriph_Driver/src/stm32f4xx_rtc.c ****       assert_param(IS_RTC_H12(RTC_AlarmStruct->RTC_AlarmTime.RTC_H12));
1154:../Shared/Libraries/STM32F4xx_StdPeriph_Driver/src/stm32f4xx_rtc.c ****     } 
1155:../Shared/Libraries/STM32F4xx_StdPeriph_Driver/src/stm32f4xx_rtc.c ****     else
1156:../Shared/Libraries/STM32F4xx_StdPeriph_Driver/src/stm32f4xx_rtc.c ****     {
1157:../Shared/Libraries/STM32F4xx_StdPeriph_Driver/src/stm32f4xx_rtc.c ****       RTC_AlarmStruct->RTC_AlarmTime.RTC_H12 = 0x00;
 1869              		.loc 1 1157 46
 1870 0046 7B68     		ldr	r3, [r7, #4]
 1871 0048 0022     		movs	r2, #0
 1872 004a DA70     		strb	r2, [r3, #3]
 1873              	.L103:
1158:../Shared/Libraries/STM32F4xx_StdPeriph_Driver/src/stm32f4xx_rtc.c ****       assert_param(IS_RTC_HOUR24(RTC_Bcd2ToByte(RTC_AlarmStruct->RTC_AlarmTime.RTC_Hours)));
1159:../Shared/Libraries/STM32F4xx_StdPeriph_Driver/src/stm32f4xx_rtc.c ****     }
1160:../Shared/Libraries/STM32F4xx_StdPeriph_Driver/src/stm32f4xx_rtc.c ****     
1161:../Shared/Libraries/STM32F4xx_StdPeriph_Driver/src/stm32f4xx_rtc.c ****     assert_param(IS_RTC_MINUTES(RTC_Bcd2ToByte(RTC_AlarmStruct->RTC_AlarmTime.RTC_Minutes)));
1162:../Shared/Libraries/STM32F4xx_StdPeriph_Driver/src/stm32f4xx_rtc.c ****     assert_param(IS_RTC_SECONDS(RTC_Bcd2ToByte(RTC_AlarmStruct->RTC_AlarmTime.RTC_Seconds)));
1163:../Shared/Libraries/STM32F4xx_StdPeriph_Driver/src/stm32f4xx_rtc.c ****     
1164:../Shared/Libraries/STM32F4xx_StdPeriph_Driver/src/stm32f4xx_rtc.c ****     if(RTC_AlarmStruct->RTC_AlarmDateWeekDaySel == RTC_AlarmDateWeekDaySel_Date)
 1874              		.loc 1 1164 23
ARM GAS  /tmp/cctIRrNQ.s 			page 54


 1875 004c 7B68     		ldr	r3, [r7, #4]
 1876 004e 9B68     		ldr	r3, [r3, #8]
 1877              		.loc 1 1164 7
 1878 0050 002B     		cmp	r3, #0
 1879 0052 07D1     		bne	.L104
1165:../Shared/Libraries/STM32F4xx_StdPeriph_Driver/src/stm32f4xx_rtc.c ****     {
1166:../Shared/Libraries/STM32F4xx_StdPeriph_Driver/src/stm32f4xx_rtc.c ****       tmpreg = RTC_Bcd2ToByte(RTC_AlarmStruct->RTC_AlarmDateWeekDay);
 1880              		.loc 1 1166 16
 1881 0054 7B68     		ldr	r3, [r7, #4]
 1882 0056 1B7B     		ldrb	r3, [r3, #12]	@ zero_extendqisi2
 1883 0058 1846     		mov	r0, r3
 1884 005a FFF7FEFF 		bl	RTC_Bcd2ToByte
 1885 005e 0346     		mov	r3, r0
 1886              		.loc 1 1166 14 discriminator 1
 1887 0060 7B61     		str	r3, [r7, #20]
 1888 0062 06E0     		b	.L101
 1889              	.L104:
1167:../Shared/Libraries/STM32F4xx_StdPeriph_Driver/src/stm32f4xx_rtc.c ****       assert_param(IS_RTC_ALARM_DATE_WEEKDAY_DATE(tmpreg));    
1168:../Shared/Libraries/STM32F4xx_StdPeriph_Driver/src/stm32f4xx_rtc.c ****     }
1169:../Shared/Libraries/STM32F4xx_StdPeriph_Driver/src/stm32f4xx_rtc.c ****     else
1170:../Shared/Libraries/STM32F4xx_StdPeriph_Driver/src/stm32f4xx_rtc.c ****     {
1171:../Shared/Libraries/STM32F4xx_StdPeriph_Driver/src/stm32f4xx_rtc.c ****       tmpreg = RTC_Bcd2ToByte(RTC_AlarmStruct->RTC_AlarmDateWeekDay);
 1890              		.loc 1 1171 16
 1891 0064 7B68     		ldr	r3, [r7, #4]
 1892 0066 1B7B     		ldrb	r3, [r3, #12]	@ zero_extendqisi2
 1893 0068 1846     		mov	r0, r3
 1894 006a FFF7FEFF 		bl	RTC_Bcd2ToByte
 1895 006e 0346     		mov	r3, r0
 1896              		.loc 1 1171 14 discriminator 1
 1897 0070 7B61     		str	r3, [r7, #20]
 1898              	.L101:
1172:../Shared/Libraries/STM32F4xx_StdPeriph_Driver/src/stm32f4xx_rtc.c ****       assert_param(IS_RTC_ALARM_DATE_WEEKDAY_WEEKDAY(tmpreg));      
1173:../Shared/Libraries/STM32F4xx_StdPeriph_Driver/src/stm32f4xx_rtc.c ****     }    
1174:../Shared/Libraries/STM32F4xx_StdPeriph_Driver/src/stm32f4xx_rtc.c ****   }
1175:../Shared/Libraries/STM32F4xx_StdPeriph_Driver/src/stm32f4xx_rtc.c **** 
1176:../Shared/Libraries/STM32F4xx_StdPeriph_Driver/src/stm32f4xx_rtc.c ****   /* Check the input parameters format */
1177:../Shared/Libraries/STM32F4xx_StdPeriph_Driver/src/stm32f4xx_rtc.c ****   if (RTC_Format != RTC_Format_BIN)
 1899              		.loc 1 1177 6
 1900 0072 FB68     		ldr	r3, [r7, #12]
 1901 0074 002B     		cmp	r3, #0
 1902 0076 19D0     		beq	.L105
1178:../Shared/Libraries/STM32F4xx_StdPeriph_Driver/src/stm32f4xx_rtc.c ****   {
1179:../Shared/Libraries/STM32F4xx_StdPeriph_Driver/src/stm32f4xx_rtc.c ****     tmpreg = (((uint32_t)(RTC_AlarmStruct->RTC_AlarmTime.RTC_Hours) << 16) | \
 1903              		.loc 1 1179 57
 1904 0078 7B68     		ldr	r3, [r7, #4]
 1905 007a 1B78     		ldrb	r3, [r3]	@ zero_extendqisi2
 1906              		.loc 1 1179 69
 1907 007c 1A04     		lsls	r2, r3, #16
1180:../Shared/Libraries/STM32F4xx_StdPeriph_Driver/src/stm32f4xx_rtc.c ****               ((uint32_t)(RTC_AlarmStruct->RTC_AlarmTime.RTC_Minutes) << 8) | \
 1908              		.loc 1 1180 57
 1909 007e 7B68     		ldr	r3, [r7, #4]
 1910 0080 5B78     		ldrb	r3, [r3, #1]	@ zero_extendqisi2
 1911              		.loc 1 1180 71
 1912 0082 1B02     		lsls	r3, r3, #8
1179:../Shared/Libraries/STM32F4xx_StdPeriph_Driver/src/stm32f4xx_rtc.c ****               ((uint32_t)(RTC_AlarmStruct->RTC_AlarmTime.RTC_Minutes) << 8) | \
 1913              		.loc 1 1179 76
 1914 0084 1343     		orrs	r3, r3, r2
ARM GAS  /tmp/cctIRrNQ.s 			page 55


1181:../Shared/Libraries/STM32F4xx_StdPeriph_Driver/src/stm32f4xx_rtc.c ****               ((uint32_t)RTC_AlarmStruct->RTC_AlarmTime.RTC_Seconds) | \
 1915              		.loc 1 1181 56
 1916 0086 7A68     		ldr	r2, [r7, #4]
 1917 0088 9278     		ldrb	r2, [r2, #2]	@ zero_extendqisi2
1180:../Shared/Libraries/STM32F4xx_StdPeriph_Driver/src/stm32f4xx_rtc.c ****               ((uint32_t)(RTC_AlarmStruct->RTC_AlarmTime.RTC_Minutes) << 8) | \
 1918              		.loc 1 1180 77
 1919 008a 1A43     		orrs	r2, r2, r3
1182:../Shared/Libraries/STM32F4xx_StdPeriph_Driver/src/stm32f4xx_rtc.c ****               ((uint32_t)(RTC_AlarmStruct->RTC_AlarmTime.RTC_H12) << 16) | \
 1920              		.loc 1 1182 57
 1921 008c 7B68     		ldr	r3, [r7, #4]
 1922 008e DB78     		ldrb	r3, [r3, #3]	@ zero_extendqisi2
 1923              		.loc 1 1182 67
 1924 0090 1B04     		lsls	r3, r3, #16
1181:../Shared/Libraries/STM32F4xx_StdPeriph_Driver/src/stm32f4xx_rtc.c ****               ((uint32_t)RTC_AlarmStruct->RTC_AlarmTime.RTC_Seconds) | \
 1925              		.loc 1 1181 70
 1926 0092 1A43     		orrs	r2, r2, r3
1183:../Shared/Libraries/STM32F4xx_StdPeriph_Driver/src/stm32f4xx_rtc.c ****               ((uint32_t)(RTC_AlarmStruct->RTC_AlarmDateWeekDay) << 24) | \
 1927              		.loc 1 1183 42
 1928 0094 7B68     		ldr	r3, [r7, #4]
 1929 0096 1B7B     		ldrb	r3, [r3, #12]	@ zero_extendqisi2
 1930              		.loc 1 1183 66
 1931 0098 1B06     		lsls	r3, r3, #24
1182:../Shared/Libraries/STM32F4xx_StdPeriph_Driver/src/stm32f4xx_rtc.c ****               ((uint32_t)(RTC_AlarmStruct->RTC_AlarmTime.RTC_H12) << 16) | \
 1932              		.loc 1 1182 74
 1933 009a 1A43     		orrs	r2, r2, r3
1184:../Shared/Libraries/STM32F4xx_StdPeriph_Driver/src/stm32f4xx_rtc.c ****               ((uint32_t)RTC_AlarmStruct->RTC_AlarmDateWeekDaySel) | \
 1934              		.loc 1 1184 41
 1935 009c 7B68     		ldr	r3, [r7, #4]
 1936 009e 9B68     		ldr	r3, [r3, #8]
1183:../Shared/Libraries/STM32F4xx_StdPeriph_Driver/src/stm32f4xx_rtc.c ****               ((uint32_t)(RTC_AlarmStruct->RTC_AlarmDateWeekDay) << 24) | \
 1937              		.loc 1 1183 73
 1938 00a0 1A43     		orrs	r2, r2, r3
1185:../Shared/Libraries/STM32F4xx_StdPeriph_Driver/src/stm32f4xx_rtc.c ****               ((uint32_t)RTC_AlarmStruct->RTC_AlarmMask)); 
 1939              		.loc 1 1185 41
 1940 00a2 7B68     		ldr	r3, [r7, #4]
 1941 00a4 5B68     		ldr	r3, [r3, #4]
1179:../Shared/Libraries/STM32F4xx_StdPeriph_Driver/src/stm32f4xx_rtc.c ****               ((uint32_t)(RTC_AlarmStruct->RTC_AlarmTime.RTC_Minutes) << 8) | \
 1942              		.loc 1 1179 12
 1943 00a6 1343     		orrs	r3, r3, r2
 1944 00a8 7B61     		str	r3, [r7, #20]
 1945 00aa 2BE0     		b	.L106
 1946              	.L105:
1186:../Shared/Libraries/STM32F4xx_StdPeriph_Driver/src/stm32f4xx_rtc.c ****   }  
1187:../Shared/Libraries/STM32F4xx_StdPeriph_Driver/src/stm32f4xx_rtc.c ****   else
1188:../Shared/Libraries/STM32F4xx_StdPeriph_Driver/src/stm32f4xx_rtc.c ****   {
1189:../Shared/Libraries/STM32F4xx_StdPeriph_Driver/src/stm32f4xx_rtc.c ****     tmpreg = (((uint32_t)RTC_ByteToBcd2(RTC_AlarmStruct->RTC_AlarmTime.RTC_Hours) << 16) | \
 1947              		.loc 1 1189 26
 1948 00ac 7B68     		ldr	r3, [r7, #4]
 1949 00ae 1B78     		ldrb	r3, [r3]	@ zero_extendqisi2
 1950 00b0 1846     		mov	r0, r3
 1951 00b2 FFF7FEFF 		bl	RTC_ByteToBcd2
 1952 00b6 0346     		mov	r3, r0
 1953              		.loc 1 1189 83 discriminator 1
 1954 00b8 1C04     		lsls	r4, r3, #16
1190:../Shared/Libraries/STM32F4xx_StdPeriph_Driver/src/stm32f4xx_rtc.c ****               ((uint32_t)RTC_ByteToBcd2(RTC_AlarmStruct->RTC_AlarmTime.RTC_Minutes) << 8) | \
 1955              		.loc 1 1190 26
 1956 00ba 7B68     		ldr	r3, [r7, #4]
ARM GAS  /tmp/cctIRrNQ.s 			page 56


 1957 00bc 5B78     		ldrb	r3, [r3, #1]	@ zero_extendqisi2
 1958 00be 1846     		mov	r0, r3
 1959 00c0 FFF7FEFF 		bl	RTC_ByteToBcd2
 1960 00c4 0346     		mov	r3, r0
 1961              		.loc 1 1190 85 discriminator 1
 1962 00c6 1B02     		lsls	r3, r3, #8
1189:../Shared/Libraries/STM32F4xx_StdPeriph_Driver/src/stm32f4xx_rtc.c ****               ((uint32_t)RTC_ByteToBcd2(RTC_AlarmStruct->RTC_AlarmTime.RTC_Minutes) << 8) | \
 1963              		.loc 1 1189 90
 1964 00c8 1C43     		orrs	r4, r4, r3
1191:../Shared/Libraries/STM32F4xx_StdPeriph_Driver/src/stm32f4xx_rtc.c ****               ((uint32_t)RTC_ByteToBcd2(RTC_AlarmStruct->RTC_AlarmTime.RTC_Seconds)) | \
 1965              		.loc 1 1191 26
 1966 00ca 7B68     		ldr	r3, [r7, #4]
 1967 00cc 9B78     		ldrb	r3, [r3, #2]	@ zero_extendqisi2
 1968 00ce 1846     		mov	r0, r3
 1969 00d0 FFF7FEFF 		bl	RTC_ByteToBcd2
 1970 00d4 0346     		mov	r3, r0
1190:../Shared/Libraries/STM32F4xx_StdPeriph_Driver/src/stm32f4xx_rtc.c ****               ((uint32_t)RTC_ByteToBcd2(RTC_AlarmStruct->RTC_AlarmTime.RTC_Minutes) << 8) | \
 1971              		.loc 1 1190 91
 1972 00d6 44EA0302 		orr	r2, r4, r3
1192:../Shared/Libraries/STM32F4xx_StdPeriph_Driver/src/stm32f4xx_rtc.c ****               ((uint32_t)(RTC_AlarmStruct->RTC_AlarmTime.RTC_H12) << 16) | \
 1973              		.loc 1 1192 57
 1974 00da 7B68     		ldr	r3, [r7, #4]
 1975 00dc DB78     		ldrb	r3, [r3, #3]	@ zero_extendqisi2
 1976              		.loc 1 1192 67
 1977 00de 1B04     		lsls	r3, r3, #16
1191:../Shared/Libraries/STM32F4xx_StdPeriph_Driver/src/stm32f4xx_rtc.c ****               ((uint32_t)RTC_ByteToBcd2(RTC_AlarmStruct->RTC_AlarmTime.RTC_Seconds)) | \
 1978              		.loc 1 1191 86
 1979 00e0 42EA0304 		orr	r4, r2, r3
1193:../Shared/Libraries/STM32F4xx_StdPeriph_Driver/src/stm32f4xx_rtc.c ****               ((uint32_t)RTC_ByteToBcd2(RTC_AlarmStruct->RTC_AlarmDateWeekDay) << 24) | \
 1980              		.loc 1 1193 26
 1981 00e4 7B68     		ldr	r3, [r7, #4]
 1982 00e6 1B7B     		ldrb	r3, [r3, #12]	@ zero_extendqisi2
 1983 00e8 1846     		mov	r0, r3
 1984 00ea FFF7FEFF 		bl	RTC_ByteToBcd2
 1985 00ee 0346     		mov	r3, r0
 1986              		.loc 1 1193 80 discriminator 1
 1987 00f0 1B06     		lsls	r3, r3, #24
1192:../Shared/Libraries/STM32F4xx_StdPeriph_Driver/src/stm32f4xx_rtc.c ****               ((uint32_t)(RTC_AlarmStruct->RTC_AlarmTime.RTC_H12) << 16) | \
 1988              		.loc 1 1192 74
 1989 00f2 44EA0302 		orr	r2, r4, r3
1194:../Shared/Libraries/STM32F4xx_StdPeriph_Driver/src/stm32f4xx_rtc.c ****               ((uint32_t)RTC_AlarmStruct->RTC_AlarmDateWeekDaySel) | \
 1990              		.loc 1 1194 41
 1991 00f6 7B68     		ldr	r3, [r7, #4]
 1992 00f8 9B68     		ldr	r3, [r3, #8]
1193:../Shared/Libraries/STM32F4xx_StdPeriph_Driver/src/stm32f4xx_rtc.c ****               ((uint32_t)RTC_ByteToBcd2(RTC_AlarmStruct->RTC_AlarmDateWeekDay) << 24) | \
 1993              		.loc 1 1193 87
 1994 00fa 1A43     		orrs	r2, r2, r3
1195:../Shared/Libraries/STM32F4xx_StdPeriph_Driver/src/stm32f4xx_rtc.c ****               ((uint32_t)RTC_AlarmStruct->RTC_AlarmMask)); 
 1995              		.loc 1 1195 41
 1996 00fc 7B68     		ldr	r3, [r7, #4]
 1997 00fe 5B68     		ldr	r3, [r3, #4]
1189:../Shared/Libraries/STM32F4xx_StdPeriph_Driver/src/stm32f4xx_rtc.c ****               ((uint32_t)RTC_ByteToBcd2(RTC_AlarmStruct->RTC_AlarmTime.RTC_Minutes) << 8) | \
 1998              		.loc 1 1189 12
 1999 0100 1343     		orrs	r3, r3, r2
 2000 0102 7B61     		str	r3, [r7, #20]
 2001              	.L106:
1196:../Shared/Libraries/STM32F4xx_StdPeriph_Driver/src/stm32f4xx_rtc.c ****   } 
ARM GAS  /tmp/cctIRrNQ.s 			page 57


1197:../Shared/Libraries/STM32F4xx_StdPeriph_Driver/src/stm32f4xx_rtc.c **** 
1198:../Shared/Libraries/STM32F4xx_StdPeriph_Driver/src/stm32f4xx_rtc.c ****   /* Disable the write protection for RTC registers */
1199:../Shared/Libraries/STM32F4xx_StdPeriph_Driver/src/stm32f4xx_rtc.c ****   RTC->WPR = 0xCA;
 2002              		.loc 1 1199 6
 2003 0104 0B4B     		ldr	r3, .L109
 2004              		.loc 1 1199 12
 2005 0106 CA22     		movs	r2, #202
 2006 0108 5A62     		str	r2, [r3, #36]
1200:../Shared/Libraries/STM32F4xx_StdPeriph_Driver/src/stm32f4xx_rtc.c ****   RTC->WPR = 0x53;
 2007              		.loc 1 1200 6
 2008 010a 0A4B     		ldr	r3, .L109
 2009              		.loc 1 1200 12
 2010 010c 5322     		movs	r2, #83
 2011 010e 5A62     		str	r2, [r3, #36]
1201:../Shared/Libraries/STM32F4xx_StdPeriph_Driver/src/stm32f4xx_rtc.c **** 
1202:../Shared/Libraries/STM32F4xx_StdPeriph_Driver/src/stm32f4xx_rtc.c ****   /* Configure the Alarm register */
1203:../Shared/Libraries/STM32F4xx_StdPeriph_Driver/src/stm32f4xx_rtc.c ****   if (RTC_Alarm == RTC_Alarm_A)
 2012              		.loc 1 1203 6
 2013 0110 BB68     		ldr	r3, [r7, #8]
 2014 0112 B3F5807F 		cmp	r3, #256
 2015 0116 03D1     		bne	.L107
1204:../Shared/Libraries/STM32F4xx_StdPeriph_Driver/src/stm32f4xx_rtc.c ****   {
1205:../Shared/Libraries/STM32F4xx_StdPeriph_Driver/src/stm32f4xx_rtc.c ****     RTC->ALRMAR = (uint32_t)tmpreg;
 2016              		.loc 1 1205 8
 2017 0118 064A     		ldr	r2, .L109
 2018              		.loc 1 1205 17
 2019 011a 7B69     		ldr	r3, [r7, #20]
 2020 011c D361     		str	r3, [r2, #28]
 2021 011e 02E0     		b	.L108
 2022              	.L107:
1206:../Shared/Libraries/STM32F4xx_StdPeriph_Driver/src/stm32f4xx_rtc.c ****   }
1207:../Shared/Libraries/STM32F4xx_StdPeriph_Driver/src/stm32f4xx_rtc.c ****   else
1208:../Shared/Libraries/STM32F4xx_StdPeriph_Driver/src/stm32f4xx_rtc.c ****   {
1209:../Shared/Libraries/STM32F4xx_StdPeriph_Driver/src/stm32f4xx_rtc.c ****     RTC->ALRMBR = (uint32_t)tmpreg;
 2023              		.loc 1 1209 8
 2024 0120 044A     		ldr	r2, .L109
 2025              		.loc 1 1209 17
 2026 0122 7B69     		ldr	r3, [r7, #20]
 2027 0124 1362     		str	r3, [r2, #32]
 2028              	.L108:
1210:../Shared/Libraries/STM32F4xx_StdPeriph_Driver/src/stm32f4xx_rtc.c ****   }
1211:../Shared/Libraries/STM32F4xx_StdPeriph_Driver/src/stm32f4xx_rtc.c **** 
1212:../Shared/Libraries/STM32F4xx_StdPeriph_Driver/src/stm32f4xx_rtc.c ****   /* Enable the write protection for RTC registers */
1213:../Shared/Libraries/STM32F4xx_StdPeriph_Driver/src/stm32f4xx_rtc.c ****   RTC->WPR = 0xFF;   
 2029              		.loc 1 1213 6
 2030 0126 034B     		ldr	r3, .L109
 2031              		.loc 1 1213 12
 2032 0128 FF22     		movs	r2, #255
 2033 012a 5A62     		str	r2, [r3, #36]
1214:../Shared/Libraries/STM32F4xx_StdPeriph_Driver/src/stm32f4xx_rtc.c **** }
 2034              		.loc 1 1214 1
 2035 012c 00BF     		nop
 2036 012e 1C37     		adds	r7, r7, #28
 2037              	.LCFI90:
 2038              		.cfi_def_cfa_offset 12
 2039 0130 BD46     		mov	sp, r7
 2040              	.LCFI91:
ARM GAS  /tmp/cctIRrNQ.s 			page 58


 2041              		.cfi_def_cfa_register 13
 2042              		@ sp needed
 2043 0132 90BD     		pop	{r4, r7, pc}
 2044              	.L110:
 2045              		.align	2
 2046              	.L109:
 2047 0134 00280040 		.word	1073752064
 2048              		.cfi_endproc
 2049              	.LFE126:
 2051              		.section	.text.RTC_AlarmStructInit,"ax",%progbits
 2052              		.align	1
 2053              		.global	RTC_AlarmStructInit
 2054              		.syntax unified
 2055              		.thumb
 2056              		.thumb_func
 2058              	RTC_AlarmStructInit:
 2059              	.LFB127:
1215:../Shared/Libraries/STM32F4xx_StdPeriph_Driver/src/stm32f4xx_rtc.c **** 
1216:../Shared/Libraries/STM32F4xx_StdPeriph_Driver/src/stm32f4xx_rtc.c **** /**
1217:../Shared/Libraries/STM32F4xx_StdPeriph_Driver/src/stm32f4xx_rtc.c ****   * @brief  Fills each RTC_AlarmStruct member with its default value
1218:../Shared/Libraries/STM32F4xx_StdPeriph_Driver/src/stm32f4xx_rtc.c ****   *         (Time = 00h:00mn:00sec / Date = 1st day of the month/Mask =
1219:../Shared/Libraries/STM32F4xx_StdPeriph_Driver/src/stm32f4xx_rtc.c ****   *         all fields are masked).
1220:../Shared/Libraries/STM32F4xx_StdPeriph_Driver/src/stm32f4xx_rtc.c ****   * @param  RTC_AlarmStruct: pointer to a @ref RTC_AlarmTypeDef structure which
1221:../Shared/Libraries/STM32F4xx_StdPeriph_Driver/src/stm32f4xx_rtc.c ****   *         will be initialized.
1222:../Shared/Libraries/STM32F4xx_StdPeriph_Driver/src/stm32f4xx_rtc.c ****   * @retval None
1223:../Shared/Libraries/STM32F4xx_StdPeriph_Driver/src/stm32f4xx_rtc.c ****   */
1224:../Shared/Libraries/STM32F4xx_StdPeriph_Driver/src/stm32f4xx_rtc.c **** void RTC_AlarmStructInit(RTC_AlarmTypeDef* RTC_AlarmStruct)
1225:../Shared/Libraries/STM32F4xx_StdPeriph_Driver/src/stm32f4xx_rtc.c **** {
 2060              		.loc 1 1225 1
 2061              		.cfi_startproc
 2062              		@ args = 0, pretend = 0, frame = 8
 2063              		@ frame_needed = 1, uses_anonymous_args = 0
 2064              		@ link register save eliminated.
 2065 0000 80B4     		push	{r7}
 2066              	.LCFI92:
 2067              		.cfi_def_cfa_offset 4
 2068              		.cfi_offset 7, -4
 2069 0002 83B0     		sub	sp, sp, #12
 2070              	.LCFI93:
 2071              		.cfi_def_cfa_offset 16
 2072 0004 00AF     		add	r7, sp, #0
 2073              	.LCFI94:
 2074              		.cfi_def_cfa_register 7
 2075 0006 7860     		str	r0, [r7, #4]
1226:../Shared/Libraries/STM32F4xx_StdPeriph_Driver/src/stm32f4xx_rtc.c ****   /* Alarm Time Settings : Time = 00h:00mn:00sec */
1227:../Shared/Libraries/STM32F4xx_StdPeriph_Driver/src/stm32f4xx_rtc.c ****   RTC_AlarmStruct->RTC_AlarmTime.RTC_H12 = RTC_H12_AM;
 2076              		.loc 1 1227 42
 2077 0008 7B68     		ldr	r3, [r7, #4]
 2078 000a 0022     		movs	r2, #0
 2079 000c DA70     		strb	r2, [r3, #3]
1228:../Shared/Libraries/STM32F4xx_StdPeriph_Driver/src/stm32f4xx_rtc.c ****   RTC_AlarmStruct->RTC_AlarmTime.RTC_Hours = 0;
 2080              		.loc 1 1228 44
 2081 000e 7B68     		ldr	r3, [r7, #4]
 2082 0010 0022     		movs	r2, #0
 2083 0012 1A70     		strb	r2, [r3]
1229:../Shared/Libraries/STM32F4xx_StdPeriph_Driver/src/stm32f4xx_rtc.c ****   RTC_AlarmStruct->RTC_AlarmTime.RTC_Minutes = 0;
 2084              		.loc 1 1229 46
ARM GAS  /tmp/cctIRrNQ.s 			page 59


 2085 0014 7B68     		ldr	r3, [r7, #4]
 2086 0016 0022     		movs	r2, #0
 2087 0018 5A70     		strb	r2, [r3, #1]
1230:../Shared/Libraries/STM32F4xx_StdPeriph_Driver/src/stm32f4xx_rtc.c ****   RTC_AlarmStruct->RTC_AlarmTime.RTC_Seconds = 0;
 2088              		.loc 1 1230 46
 2089 001a 7B68     		ldr	r3, [r7, #4]
 2090 001c 0022     		movs	r2, #0
 2091 001e 9A70     		strb	r2, [r3, #2]
1231:../Shared/Libraries/STM32F4xx_StdPeriph_Driver/src/stm32f4xx_rtc.c **** 
1232:../Shared/Libraries/STM32F4xx_StdPeriph_Driver/src/stm32f4xx_rtc.c ****   /* Alarm Date Settings : Date = 1st day of the month */
1233:../Shared/Libraries/STM32F4xx_StdPeriph_Driver/src/stm32f4xx_rtc.c ****   RTC_AlarmStruct->RTC_AlarmDateWeekDaySel = RTC_AlarmDateWeekDaySel_Date;
 2092              		.loc 1 1233 44
 2093 0020 7B68     		ldr	r3, [r7, #4]
 2094 0022 0022     		movs	r2, #0
 2095 0024 9A60     		str	r2, [r3, #8]
1234:../Shared/Libraries/STM32F4xx_StdPeriph_Driver/src/stm32f4xx_rtc.c ****   RTC_AlarmStruct->RTC_AlarmDateWeekDay = 1;
 2096              		.loc 1 1234 41
 2097 0026 7B68     		ldr	r3, [r7, #4]
 2098 0028 0122     		movs	r2, #1
 2099 002a 1A73     		strb	r2, [r3, #12]
1235:../Shared/Libraries/STM32F4xx_StdPeriph_Driver/src/stm32f4xx_rtc.c **** 
1236:../Shared/Libraries/STM32F4xx_StdPeriph_Driver/src/stm32f4xx_rtc.c ****   /* Alarm Masks Settings : Mask =  all fields are not masked */
1237:../Shared/Libraries/STM32F4xx_StdPeriph_Driver/src/stm32f4xx_rtc.c ****   RTC_AlarmStruct->RTC_AlarmMask = RTC_AlarmMask_None;
 2100              		.loc 1 1237 34
 2101 002c 7B68     		ldr	r3, [r7, #4]
 2102 002e 0022     		movs	r2, #0
 2103 0030 5A60     		str	r2, [r3, #4]
1238:../Shared/Libraries/STM32F4xx_StdPeriph_Driver/src/stm32f4xx_rtc.c **** }
 2104              		.loc 1 1238 1
 2105 0032 00BF     		nop
 2106 0034 0C37     		adds	r7, r7, #12
 2107              	.LCFI95:
 2108              		.cfi_def_cfa_offset 4
 2109 0036 BD46     		mov	sp, r7
 2110              	.LCFI96:
 2111              		.cfi_def_cfa_register 13
 2112              		@ sp needed
 2113 0038 5DF8047B 		ldr	r7, [sp], #4
 2114              	.LCFI97:
 2115              		.cfi_restore 7
 2116              		.cfi_def_cfa_offset 0
 2117 003c 7047     		bx	lr
 2118              		.cfi_endproc
 2119              	.LFE127:
 2121              		.section	.text.RTC_GetAlarm,"ax",%progbits
 2122              		.align	1
 2123              		.global	RTC_GetAlarm
 2124              		.syntax unified
 2125              		.thumb
 2126              		.thumb_func
 2128              	RTC_GetAlarm:
 2129              	.LFB128:
1239:../Shared/Libraries/STM32F4xx_StdPeriph_Driver/src/stm32f4xx_rtc.c **** 
1240:../Shared/Libraries/STM32F4xx_StdPeriph_Driver/src/stm32f4xx_rtc.c **** /**
1241:../Shared/Libraries/STM32F4xx_StdPeriph_Driver/src/stm32f4xx_rtc.c ****   * @brief  Get the RTC Alarm value and masks.
1242:../Shared/Libraries/STM32F4xx_StdPeriph_Driver/src/stm32f4xx_rtc.c ****   * @param  RTC_Format: specifies the format of the output parameters.
1243:../Shared/Libraries/STM32F4xx_StdPeriph_Driver/src/stm32f4xx_rtc.c ****   *          This parameter can be one of the following values:
ARM GAS  /tmp/cctIRrNQ.s 			page 60


1244:../Shared/Libraries/STM32F4xx_StdPeriph_Driver/src/stm32f4xx_rtc.c ****   *            @arg RTC_Format_BIN: Binary data format 
1245:../Shared/Libraries/STM32F4xx_StdPeriph_Driver/src/stm32f4xx_rtc.c ****   *            @arg RTC_Format_BCD: BCD data format
1246:../Shared/Libraries/STM32F4xx_StdPeriph_Driver/src/stm32f4xx_rtc.c ****   * @param  RTC_Alarm: specifies the alarm to be read.
1247:../Shared/Libraries/STM32F4xx_StdPeriph_Driver/src/stm32f4xx_rtc.c ****   *          This parameter can be one of the following values:
1248:../Shared/Libraries/STM32F4xx_StdPeriph_Driver/src/stm32f4xx_rtc.c ****   *            @arg RTC_Alarm_A: to select Alarm A
1249:../Shared/Libraries/STM32F4xx_StdPeriph_Driver/src/stm32f4xx_rtc.c ****   *            @arg RTC_Alarm_B: to select Alarm B  
1250:../Shared/Libraries/STM32F4xx_StdPeriph_Driver/src/stm32f4xx_rtc.c ****   * @param  RTC_AlarmStruct: pointer to a RTC_AlarmTypeDef structure that will 
1251:../Shared/Libraries/STM32F4xx_StdPeriph_Driver/src/stm32f4xx_rtc.c ****   *                          contains the output alarm configuration values.     
1252:../Shared/Libraries/STM32F4xx_StdPeriph_Driver/src/stm32f4xx_rtc.c ****   * @retval None
1253:../Shared/Libraries/STM32F4xx_StdPeriph_Driver/src/stm32f4xx_rtc.c ****   */
1254:../Shared/Libraries/STM32F4xx_StdPeriph_Driver/src/stm32f4xx_rtc.c **** void RTC_GetAlarm(uint32_t RTC_Format, uint32_t RTC_Alarm, RTC_AlarmTypeDef* RTC_AlarmStruct)
1255:../Shared/Libraries/STM32F4xx_StdPeriph_Driver/src/stm32f4xx_rtc.c **** {
 2130              		.loc 1 1255 1
 2131              		.cfi_startproc
 2132              		@ args = 0, pretend = 0, frame = 24
 2133              		@ frame_needed = 1, uses_anonymous_args = 0
 2134 0000 80B5     		push	{r7, lr}
 2135              	.LCFI98:
 2136              		.cfi_def_cfa_offset 8
 2137              		.cfi_offset 7, -8
 2138              		.cfi_offset 14, -4
 2139 0002 86B0     		sub	sp, sp, #24
 2140              	.LCFI99:
 2141              		.cfi_def_cfa_offset 32
 2142 0004 00AF     		add	r7, sp, #0
 2143              	.LCFI100:
 2144              		.cfi_def_cfa_register 7
 2145 0006 F860     		str	r0, [r7, #12]
 2146 0008 B960     		str	r1, [r7, #8]
 2147 000a 7A60     		str	r2, [r7, #4]
1256:../Shared/Libraries/STM32F4xx_StdPeriph_Driver/src/stm32f4xx_rtc.c ****   uint32_t tmpreg = 0;
 2148              		.loc 1 1256 12
 2149 000c 0023     		movs	r3, #0
 2150 000e 7B61     		str	r3, [r7, #20]
1257:../Shared/Libraries/STM32F4xx_StdPeriph_Driver/src/stm32f4xx_rtc.c **** 
1258:../Shared/Libraries/STM32F4xx_StdPeriph_Driver/src/stm32f4xx_rtc.c ****   /* Check the parameters */
1259:../Shared/Libraries/STM32F4xx_StdPeriph_Driver/src/stm32f4xx_rtc.c ****   assert_param(IS_RTC_FORMAT(RTC_Format));
1260:../Shared/Libraries/STM32F4xx_StdPeriph_Driver/src/stm32f4xx_rtc.c ****   assert_param(IS_RTC_ALARM(RTC_Alarm)); 
1261:../Shared/Libraries/STM32F4xx_StdPeriph_Driver/src/stm32f4xx_rtc.c **** 
1262:../Shared/Libraries/STM32F4xx_StdPeriph_Driver/src/stm32f4xx_rtc.c ****   /* Get the RTC_ALRMxR register */
1263:../Shared/Libraries/STM32F4xx_StdPeriph_Driver/src/stm32f4xx_rtc.c ****   if (RTC_Alarm == RTC_Alarm_A)
 2151              		.loc 1 1263 6
 2152 0010 BB68     		ldr	r3, [r7, #8]
 2153 0012 B3F5807F 		cmp	r3, #256
 2154 0016 03D1     		bne	.L113
1264:../Shared/Libraries/STM32F4xx_StdPeriph_Driver/src/stm32f4xx_rtc.c ****   {
1265:../Shared/Libraries/STM32F4xx_StdPeriph_Driver/src/stm32f4xx_rtc.c ****     tmpreg = (uint32_t)(RTC->ALRMAR);
 2155              		.loc 1 1265 28
 2156 0018 314B     		ldr	r3, .L117
 2157              		.loc 1 1265 12
 2158 001a DB69     		ldr	r3, [r3, #28]
 2159 001c 7B61     		str	r3, [r7, #20]
 2160 001e 02E0     		b	.L114
 2161              	.L113:
1266:../Shared/Libraries/STM32F4xx_StdPeriph_Driver/src/stm32f4xx_rtc.c ****   }
1267:../Shared/Libraries/STM32F4xx_StdPeriph_Driver/src/stm32f4xx_rtc.c ****   else
1268:../Shared/Libraries/STM32F4xx_StdPeriph_Driver/src/stm32f4xx_rtc.c ****   {
ARM GAS  /tmp/cctIRrNQ.s 			page 61


1269:../Shared/Libraries/STM32F4xx_StdPeriph_Driver/src/stm32f4xx_rtc.c ****     tmpreg = (uint32_t)(RTC->ALRMBR);
 2162              		.loc 1 1269 28
 2163 0020 2F4B     		ldr	r3, .L117
 2164              		.loc 1 1269 12
 2165 0022 1B6A     		ldr	r3, [r3, #32]
 2166 0024 7B61     		str	r3, [r7, #20]
 2167              	.L114:
1270:../Shared/Libraries/STM32F4xx_StdPeriph_Driver/src/stm32f4xx_rtc.c ****   }
1271:../Shared/Libraries/STM32F4xx_StdPeriph_Driver/src/stm32f4xx_rtc.c **** 
1272:../Shared/Libraries/STM32F4xx_StdPeriph_Driver/src/stm32f4xx_rtc.c ****   /* Fill the structure with the read parameters */
1273:../Shared/Libraries/STM32F4xx_StdPeriph_Driver/src/stm32f4xx_rtc.c ****   RTC_AlarmStruct->RTC_AlarmTime.RTC_Hours = (uint32_t)((tmpreg & (RTC_ALRMAR_HT | \
 2168              		.loc 1 1273 46
 2169 0026 7B69     		ldr	r3, [r7, #20]
 2170 0028 1B0C     		lsrs	r3, r3, #16
 2171 002a DBB2     		uxtb	r3, r3
 2172 002c 03F03F03 		and	r3, r3, #63
 2173 0030 DAB2     		uxtb	r2, r3
 2174              		.loc 1 1273 44
 2175 0032 7B68     		ldr	r3, [r7, #4]
 2176 0034 1A70     		strb	r2, [r3]
1274:../Shared/Libraries/STM32F4xx_StdPeriph_Driver/src/stm32f4xx_rtc.c ****                                                      RTC_ALRMAR_HU)) >> 16);
1275:../Shared/Libraries/STM32F4xx_StdPeriph_Driver/src/stm32f4xx_rtc.c ****   RTC_AlarmStruct->RTC_AlarmTime.RTC_Minutes = (uint32_t)((tmpreg & (RTC_ALRMAR_MNT | \
 2177              		.loc 1 1275 48
 2178 0036 7B69     		ldr	r3, [r7, #20]
 2179 0038 1B0A     		lsrs	r3, r3, #8
 2180 003a DBB2     		uxtb	r3, r3
 2181 003c 03F07F03 		and	r3, r3, #127
 2182 0040 DAB2     		uxtb	r2, r3
 2183              		.loc 1 1275 46
 2184 0042 7B68     		ldr	r3, [r7, #4]
 2185 0044 5A70     		strb	r2, [r3, #1]
1276:../Shared/Libraries/STM32F4xx_StdPeriph_Driver/src/stm32f4xx_rtc.c ****                                                      RTC_ALRMAR_MNU)) >> 8);
1277:../Shared/Libraries/STM32F4xx_StdPeriph_Driver/src/stm32f4xx_rtc.c ****   RTC_AlarmStruct->RTC_AlarmTime.RTC_Seconds = (uint32_t)(tmpreg & (RTC_ALRMAR_ST | \
 2186              		.loc 1 1277 48
 2187 0046 7B69     		ldr	r3, [r7, #20]
 2188 0048 DBB2     		uxtb	r3, r3
 2189 004a 03F07F03 		and	r3, r3, #127
 2190 004e DAB2     		uxtb	r2, r3
 2191              		.loc 1 1277 46
 2192 0050 7B68     		ldr	r3, [r7, #4]
 2193 0052 9A70     		strb	r2, [r3, #2]
1278:../Shared/Libraries/STM32F4xx_StdPeriph_Driver/src/stm32f4xx_rtc.c ****                                                      RTC_ALRMAR_SU));
1279:../Shared/Libraries/STM32F4xx_StdPeriph_Driver/src/stm32f4xx_rtc.c ****   RTC_AlarmStruct->RTC_AlarmTime.RTC_H12 = (uint32_t)((tmpreg & RTC_ALRMAR_PM) >> 16);
 2194              		.loc 1 1279 44
 2195 0054 7B69     		ldr	r3, [r7, #20]
 2196 0056 1B0C     		lsrs	r3, r3, #16
 2197 0058 DBB2     		uxtb	r3, r3
 2198 005a 03F04003 		and	r3, r3, #64
 2199 005e DAB2     		uxtb	r2, r3
 2200              		.loc 1 1279 42
 2201 0060 7B68     		ldr	r3, [r7, #4]
 2202 0062 DA70     		strb	r2, [r3, #3]
1280:../Shared/Libraries/STM32F4xx_StdPeriph_Driver/src/stm32f4xx_rtc.c ****   RTC_AlarmStruct->RTC_AlarmDateWeekDay = (uint32_t)((tmpreg & (RTC_ALRMAR_DT | RTC_ALRMAR_DU)) >> 
 2203              		.loc 1 1280 43
 2204 0064 7B69     		ldr	r3, [r7, #20]
 2205 0066 1B0E     		lsrs	r3, r3, #24
 2206 0068 DBB2     		uxtb	r3, r3
ARM GAS  /tmp/cctIRrNQ.s 			page 62


 2207 006a 03F03F03 		and	r3, r3, #63
 2208 006e DAB2     		uxtb	r2, r3
 2209              		.loc 1 1280 41
 2210 0070 7B68     		ldr	r3, [r7, #4]
 2211 0072 1A73     		strb	r2, [r3, #12]
1281:../Shared/Libraries/STM32F4xx_StdPeriph_Driver/src/stm32f4xx_rtc.c ****   RTC_AlarmStruct->RTC_AlarmDateWeekDaySel = (uint32_t)(tmpreg & RTC_ALRMAR_WDSEL);
 2212              		.loc 1 1281 46
 2213 0074 7B69     		ldr	r3, [r7, #20]
 2214 0076 03F08042 		and	r2, r3, #1073741824
 2215              		.loc 1 1281 44
 2216 007a 7B68     		ldr	r3, [r7, #4]
 2217 007c 9A60     		str	r2, [r3, #8]
1282:../Shared/Libraries/STM32F4xx_StdPeriph_Driver/src/stm32f4xx_rtc.c ****   RTC_AlarmStruct->RTC_AlarmMask = (uint32_t)(tmpreg & RTC_AlarmMask_All);
 2218              		.loc 1 1282 36
 2219 007e 7B69     		ldr	r3, [r7, #20]
 2220 0080 03F08032 		and	r2, r3, #-2139062144
 2221              		.loc 1 1282 34
 2222 0084 7B68     		ldr	r3, [r7, #4]
 2223 0086 5A60     		str	r2, [r3, #4]
1283:../Shared/Libraries/STM32F4xx_StdPeriph_Driver/src/stm32f4xx_rtc.c **** 
1284:../Shared/Libraries/STM32F4xx_StdPeriph_Driver/src/stm32f4xx_rtc.c ****   if (RTC_Format == RTC_Format_BIN)
 2224              		.loc 1 1284 6
 2225 0088 FB68     		ldr	r3, [r7, #12]
 2226 008a 002B     		cmp	r3, #0
 2227 008c 23D1     		bne	.L116
1285:../Shared/Libraries/STM32F4xx_StdPeriph_Driver/src/stm32f4xx_rtc.c ****   {
1286:../Shared/Libraries/STM32F4xx_StdPeriph_Driver/src/stm32f4xx_rtc.c ****     RTC_AlarmStruct->RTC_AlarmTime.RTC_Hours = RTC_Bcd2ToByte(RTC_AlarmStruct-> \
 2228              		.loc 1 1286 48
 2229 008e 7B68     		ldr	r3, [r7, #4]
 2230 0090 1B78     		ldrb	r3, [r3]	@ zero_extendqisi2
 2231 0092 1846     		mov	r0, r3
 2232 0094 FFF7FEFF 		bl	RTC_Bcd2ToByte
 2233 0098 0346     		mov	r3, r0
 2234 009a 1A46     		mov	r2, r3
 2235              		.loc 1 1286 46 discriminator 1
 2236 009c 7B68     		ldr	r3, [r7, #4]
 2237 009e 1A70     		strb	r2, [r3]
1287:../Shared/Libraries/STM32F4xx_StdPeriph_Driver/src/stm32f4xx_rtc.c ****                                                         RTC_AlarmTime.RTC_Hours);
1288:../Shared/Libraries/STM32F4xx_StdPeriph_Driver/src/stm32f4xx_rtc.c ****     RTC_AlarmStruct->RTC_AlarmTime.RTC_Minutes = RTC_Bcd2ToByte(RTC_AlarmStruct-> \
 2238              		.loc 1 1288 50
 2239 00a0 7B68     		ldr	r3, [r7, #4]
 2240 00a2 5B78     		ldrb	r3, [r3, #1]	@ zero_extendqisi2
 2241 00a4 1846     		mov	r0, r3
 2242 00a6 FFF7FEFF 		bl	RTC_Bcd2ToByte
 2243 00aa 0346     		mov	r3, r0
 2244 00ac 1A46     		mov	r2, r3
 2245              		.loc 1 1288 48 discriminator 1
 2246 00ae 7B68     		ldr	r3, [r7, #4]
 2247 00b0 5A70     		strb	r2, [r3, #1]
1289:../Shared/Libraries/STM32F4xx_StdPeriph_Driver/src/stm32f4xx_rtc.c ****                                                         RTC_AlarmTime.RTC_Minutes);
1290:../Shared/Libraries/STM32F4xx_StdPeriph_Driver/src/stm32f4xx_rtc.c ****     RTC_AlarmStruct->RTC_AlarmTime.RTC_Seconds = RTC_Bcd2ToByte(RTC_AlarmStruct-> \
 2248              		.loc 1 1290 50
 2249 00b2 7B68     		ldr	r3, [r7, #4]
 2250 00b4 9B78     		ldrb	r3, [r3, #2]	@ zero_extendqisi2
 2251 00b6 1846     		mov	r0, r3
 2252 00b8 FFF7FEFF 		bl	RTC_Bcd2ToByte
 2253 00bc 0346     		mov	r3, r0
ARM GAS  /tmp/cctIRrNQ.s 			page 63


 2254 00be 1A46     		mov	r2, r3
 2255              		.loc 1 1290 48 discriminator 1
 2256 00c0 7B68     		ldr	r3, [r7, #4]
 2257 00c2 9A70     		strb	r2, [r3, #2]
1291:../Shared/Libraries/STM32F4xx_StdPeriph_Driver/src/stm32f4xx_rtc.c ****                                                         RTC_AlarmTime.RTC_Seconds);
1292:../Shared/Libraries/STM32F4xx_StdPeriph_Driver/src/stm32f4xx_rtc.c ****     RTC_AlarmStruct->RTC_AlarmDateWeekDay = RTC_Bcd2ToByte(RTC_AlarmStruct->RTC_AlarmDateWeekDay);
 2258              		.loc 1 1292 45
 2259 00c4 7B68     		ldr	r3, [r7, #4]
 2260 00c6 1B7B     		ldrb	r3, [r3, #12]	@ zero_extendqisi2
 2261 00c8 1846     		mov	r0, r3
 2262 00ca FFF7FEFF 		bl	RTC_Bcd2ToByte
 2263 00ce 0346     		mov	r3, r0
 2264 00d0 1A46     		mov	r2, r3
 2265              		.loc 1 1292 43 discriminator 1
 2266 00d2 7B68     		ldr	r3, [r7, #4]
 2267 00d4 1A73     		strb	r2, [r3, #12]
 2268              	.L116:
1293:../Shared/Libraries/STM32F4xx_StdPeriph_Driver/src/stm32f4xx_rtc.c ****   }  
1294:../Shared/Libraries/STM32F4xx_StdPeriph_Driver/src/stm32f4xx_rtc.c **** }
 2269              		.loc 1 1294 1
 2270 00d6 00BF     		nop
 2271 00d8 1837     		adds	r7, r7, #24
 2272              	.LCFI101:
 2273              		.cfi_def_cfa_offset 8
 2274 00da BD46     		mov	sp, r7
 2275              	.LCFI102:
 2276              		.cfi_def_cfa_register 13
 2277              		@ sp needed
 2278 00dc 80BD     		pop	{r7, pc}
 2279              	.L118:
 2280 00de 00BF     		.align	2
 2281              	.L117:
 2282 00e0 00280040 		.word	1073752064
 2283              		.cfi_endproc
 2284              	.LFE128:
 2286              		.section	.text.RTC_AlarmCmd,"ax",%progbits
 2287              		.align	1
 2288              		.global	RTC_AlarmCmd
 2289              		.syntax unified
 2290              		.thumb
 2291              		.thumb_func
 2293              	RTC_AlarmCmd:
 2294              	.LFB129:
1295:../Shared/Libraries/STM32F4xx_StdPeriph_Driver/src/stm32f4xx_rtc.c **** 
1296:../Shared/Libraries/STM32F4xx_StdPeriph_Driver/src/stm32f4xx_rtc.c **** /**
1297:../Shared/Libraries/STM32F4xx_StdPeriph_Driver/src/stm32f4xx_rtc.c ****   * @brief  Enables or disables the specified RTC Alarm.
1298:../Shared/Libraries/STM32F4xx_StdPeriph_Driver/src/stm32f4xx_rtc.c ****   * @param  RTC_Alarm: specifies the alarm to be configured.
1299:../Shared/Libraries/STM32F4xx_StdPeriph_Driver/src/stm32f4xx_rtc.c ****   *          This parameter can be any combination of the following values:
1300:../Shared/Libraries/STM32F4xx_StdPeriph_Driver/src/stm32f4xx_rtc.c ****   *            @arg RTC_Alarm_A: to select Alarm A
1301:../Shared/Libraries/STM32F4xx_StdPeriph_Driver/src/stm32f4xx_rtc.c ****   *            @arg RTC_Alarm_B: to select Alarm B  
1302:../Shared/Libraries/STM32F4xx_StdPeriph_Driver/src/stm32f4xx_rtc.c ****   * @param  NewState: new state of the specified alarm.
1303:../Shared/Libraries/STM32F4xx_StdPeriph_Driver/src/stm32f4xx_rtc.c ****   *          This parameter can be: ENABLE or DISABLE.
1304:../Shared/Libraries/STM32F4xx_StdPeriph_Driver/src/stm32f4xx_rtc.c ****   * @retval An ErrorStatus enumeration value:
1305:../Shared/Libraries/STM32F4xx_StdPeriph_Driver/src/stm32f4xx_rtc.c ****   *          - SUCCESS: RTC Alarm is enabled/disabled
1306:../Shared/Libraries/STM32F4xx_StdPeriph_Driver/src/stm32f4xx_rtc.c ****   *          - ERROR: RTC Alarm is not enabled/disabled  
1307:../Shared/Libraries/STM32F4xx_StdPeriph_Driver/src/stm32f4xx_rtc.c ****   */
1308:../Shared/Libraries/STM32F4xx_StdPeriph_Driver/src/stm32f4xx_rtc.c **** ErrorStatus RTC_AlarmCmd(uint32_t RTC_Alarm, FunctionalState NewState)
ARM GAS  /tmp/cctIRrNQ.s 			page 64


1309:../Shared/Libraries/STM32F4xx_StdPeriph_Driver/src/stm32f4xx_rtc.c **** {
 2295              		.loc 1 1309 1
 2296              		.cfi_startproc
 2297              		@ args = 0, pretend = 0, frame = 24
 2298              		@ frame_needed = 1, uses_anonymous_args = 0
 2299              		@ link register save eliminated.
 2300 0000 80B4     		push	{r7}
 2301              	.LCFI103:
 2302              		.cfi_def_cfa_offset 4
 2303              		.cfi_offset 7, -4
 2304 0002 87B0     		sub	sp, sp, #28
 2305              	.LCFI104:
 2306              		.cfi_def_cfa_offset 32
 2307 0004 00AF     		add	r7, sp, #0
 2308              	.LCFI105:
 2309              		.cfi_def_cfa_register 7
 2310 0006 7860     		str	r0, [r7, #4]
 2311 0008 0B46     		mov	r3, r1
 2312 000a FB70     		strb	r3, [r7, #3]
1310:../Shared/Libraries/STM32F4xx_StdPeriph_Driver/src/stm32f4xx_rtc.c ****   __IO uint32_t alarmcounter = 0x00;
 2313              		.loc 1 1310 17
 2314 000c 0023     		movs	r3, #0
 2315 000e FB60     		str	r3, [r7, #12]
1311:../Shared/Libraries/STM32F4xx_StdPeriph_Driver/src/stm32f4xx_rtc.c ****   uint32_t alarmstatus = 0x00;
 2316              		.loc 1 1311 12
 2317 0010 0023     		movs	r3, #0
 2318 0012 3B61     		str	r3, [r7, #16]
1312:../Shared/Libraries/STM32F4xx_StdPeriph_Driver/src/stm32f4xx_rtc.c ****   ErrorStatus status = ERROR;
 2319              		.loc 1 1312 15
 2320 0014 0023     		movs	r3, #0
 2321 0016 FB75     		strb	r3, [r7, #23]
1313:../Shared/Libraries/STM32F4xx_StdPeriph_Driver/src/stm32f4xx_rtc.c ****     
1314:../Shared/Libraries/STM32F4xx_StdPeriph_Driver/src/stm32f4xx_rtc.c ****   /* Check the parameters */
1315:../Shared/Libraries/STM32F4xx_StdPeriph_Driver/src/stm32f4xx_rtc.c ****   assert_param(IS_RTC_CMD_ALARM(RTC_Alarm));
1316:../Shared/Libraries/STM32F4xx_StdPeriph_Driver/src/stm32f4xx_rtc.c ****   assert_param(IS_FUNCTIONAL_STATE(NewState));
1317:../Shared/Libraries/STM32F4xx_StdPeriph_Driver/src/stm32f4xx_rtc.c **** 
1318:../Shared/Libraries/STM32F4xx_StdPeriph_Driver/src/stm32f4xx_rtc.c ****   /* Disable the write protection for RTC registers */
1319:../Shared/Libraries/STM32F4xx_StdPeriph_Driver/src/stm32f4xx_rtc.c ****   RTC->WPR = 0xCA;
 2322              		.loc 1 1319 6
 2323 0018 1F4B     		ldr	r3, .L126
 2324              		.loc 1 1319 12
 2325 001a CA22     		movs	r2, #202
 2326 001c 5A62     		str	r2, [r3, #36]
1320:../Shared/Libraries/STM32F4xx_StdPeriph_Driver/src/stm32f4xx_rtc.c ****   RTC->WPR = 0x53;
 2327              		.loc 1 1320 6
 2328 001e 1E4B     		ldr	r3, .L126
 2329              		.loc 1 1320 12
 2330 0020 5322     		movs	r2, #83
 2331 0022 5A62     		str	r2, [r3, #36]
1321:../Shared/Libraries/STM32F4xx_StdPeriph_Driver/src/stm32f4xx_rtc.c **** 
1322:../Shared/Libraries/STM32F4xx_StdPeriph_Driver/src/stm32f4xx_rtc.c ****   /* Configure the Alarm state */
1323:../Shared/Libraries/STM32F4xx_StdPeriph_Driver/src/stm32f4xx_rtc.c ****   if (NewState != DISABLE)
 2332              		.loc 1 1323 6
 2333 0024 FB78     		ldrb	r3, [r7, #3]	@ zero_extendqisi2
 2334 0026 002B     		cmp	r3, #0
 2335 0028 08D0     		beq	.L120
1324:../Shared/Libraries/STM32F4xx_StdPeriph_Driver/src/stm32f4xx_rtc.c ****   {
ARM GAS  /tmp/cctIRrNQ.s 			page 65


1325:../Shared/Libraries/STM32F4xx_StdPeriph_Driver/src/stm32f4xx_rtc.c ****     RTC->CR |= (uint32_t)RTC_Alarm;
 2336              		.loc 1 1325 8
 2337 002a 1B4B     		ldr	r3, .L126
 2338 002c 9A68     		ldr	r2, [r3, #8]
 2339 002e 1A49     		ldr	r1, .L126
 2340              		.loc 1 1325 13
 2341 0030 7B68     		ldr	r3, [r7, #4]
 2342 0032 1343     		orrs	r3, r3, r2
 2343 0034 8B60     		str	r3, [r1, #8]
1326:../Shared/Libraries/STM32F4xx_StdPeriph_Driver/src/stm32f4xx_rtc.c **** 
1327:../Shared/Libraries/STM32F4xx_StdPeriph_Driver/src/stm32f4xx_rtc.c ****     status = SUCCESS;    
 2344              		.loc 1 1327 12
 2345 0036 0123     		movs	r3, #1
 2346 0038 FB75     		strb	r3, [r7, #23]
 2347 003a 22E0     		b	.L121
 2348              	.L120:
1328:../Shared/Libraries/STM32F4xx_StdPeriph_Driver/src/stm32f4xx_rtc.c ****   }
1329:../Shared/Libraries/STM32F4xx_StdPeriph_Driver/src/stm32f4xx_rtc.c ****   else
1330:../Shared/Libraries/STM32F4xx_StdPeriph_Driver/src/stm32f4xx_rtc.c ****   { 
1331:../Shared/Libraries/STM32F4xx_StdPeriph_Driver/src/stm32f4xx_rtc.c ****     /* Disable the Alarm in RTC_CR register */
1332:../Shared/Libraries/STM32F4xx_StdPeriph_Driver/src/stm32f4xx_rtc.c ****     RTC->CR &= (uint32_t)~RTC_Alarm;
 2349              		.loc 1 1332 8
 2350 003c 164B     		ldr	r3, .L126
 2351 003e 9A68     		ldr	r2, [r3, #8]
 2352              		.loc 1 1332 26
 2353 0040 7B68     		ldr	r3, [r7, #4]
 2354 0042 DB43     		mvns	r3, r3
 2355              		.loc 1 1332 8
 2356 0044 1449     		ldr	r1, .L126
 2357              		.loc 1 1332 13
 2358 0046 1340     		ands	r3, r3, r2
 2359 0048 8B60     		str	r3, [r1, #8]
 2360              	.L123:
1333:../Shared/Libraries/STM32F4xx_StdPeriph_Driver/src/stm32f4xx_rtc.c ****    
1334:../Shared/Libraries/STM32F4xx_StdPeriph_Driver/src/stm32f4xx_rtc.c ****     /* Wait till RTC ALRxWF flag is set and if Time out is reached exit */
1335:../Shared/Libraries/STM32F4xx_StdPeriph_Driver/src/stm32f4xx_rtc.c ****     do
1336:../Shared/Libraries/STM32F4xx_StdPeriph_Driver/src/stm32f4xx_rtc.c ****     {
1337:../Shared/Libraries/STM32F4xx_StdPeriph_Driver/src/stm32f4xx_rtc.c ****       alarmstatus = RTC->ISR & (RTC_Alarm >> 8);
 2361              		.loc 1 1337 24
 2362 004a 134B     		ldr	r3, .L126
 2363 004c DA68     		ldr	r2, [r3, #12]
 2364              		.loc 1 1337 43
 2365 004e 7B68     		ldr	r3, [r7, #4]
 2366 0050 1B0A     		lsrs	r3, r3, #8
 2367              		.loc 1 1337 19
 2368 0052 1340     		ands	r3, r3, r2
 2369 0054 3B61     		str	r3, [r7, #16]
1338:../Shared/Libraries/STM32F4xx_StdPeriph_Driver/src/stm32f4xx_rtc.c ****       alarmcounter++;  
 2370              		.loc 1 1338 19
 2371 0056 FB68     		ldr	r3, [r7, #12]
 2372 0058 0133     		adds	r3, r3, #1
 2373 005a FB60     		str	r3, [r7, #12]
1339:../Shared/Libraries/STM32F4xx_StdPeriph_Driver/src/stm32f4xx_rtc.c ****     } while((alarmcounter != INITMODE_TIMEOUT) && (alarmstatus == 0x00));
 2374              		.loc 1 1339 27 discriminator 2
 2375 005c FB68     		ldr	r3, [r7, #12]
 2376              		.loc 1 1339 48 discriminator 2
 2377 005e B3F5803F 		cmp	r3, #65536
ARM GAS  /tmp/cctIRrNQ.s 			page 66


 2378 0062 02D0     		beq	.L122
 2379              		.loc 1 1339 48 is_stmt 0 discriminator 1
 2380 0064 3B69     		ldr	r3, [r7, #16]
 2381 0066 002B     		cmp	r3, #0
 2382 0068 EFD0     		beq	.L123
 2383              	.L122:
1340:../Shared/Libraries/STM32F4xx_StdPeriph_Driver/src/stm32f4xx_rtc.c ****     
1341:../Shared/Libraries/STM32F4xx_StdPeriph_Driver/src/stm32f4xx_rtc.c ****     if ((RTC->ISR & (RTC_Alarm >> 8)) == RESET)
 2384              		.loc 1 1341 13 is_stmt 1
 2385 006a 0B4B     		ldr	r3, .L126
 2386 006c DA68     		ldr	r2, [r3, #12]
 2387              		.loc 1 1341 32
 2388 006e 7B68     		ldr	r3, [r7, #4]
 2389 0070 1B0A     		lsrs	r3, r3, #8
 2390              		.loc 1 1341 19
 2391 0072 1340     		ands	r3, r3, r2
 2392              		.loc 1 1341 8
 2393 0074 002B     		cmp	r3, #0
 2394 0076 02D1     		bne	.L124
1342:../Shared/Libraries/STM32F4xx_StdPeriph_Driver/src/stm32f4xx_rtc.c ****     {
1343:../Shared/Libraries/STM32F4xx_StdPeriph_Driver/src/stm32f4xx_rtc.c ****       status = ERROR;
 2395              		.loc 1 1343 14
 2396 0078 0023     		movs	r3, #0
 2397 007a FB75     		strb	r3, [r7, #23]
 2398 007c 01E0     		b	.L121
 2399              	.L124:
1344:../Shared/Libraries/STM32F4xx_StdPeriph_Driver/src/stm32f4xx_rtc.c ****     } 
1345:../Shared/Libraries/STM32F4xx_StdPeriph_Driver/src/stm32f4xx_rtc.c ****     else
1346:../Shared/Libraries/STM32F4xx_StdPeriph_Driver/src/stm32f4xx_rtc.c ****     {
1347:../Shared/Libraries/STM32F4xx_StdPeriph_Driver/src/stm32f4xx_rtc.c ****       status = SUCCESS;
 2400              		.loc 1 1347 14
 2401 007e 0123     		movs	r3, #1
