ARM GAS  /tmp/cc2zcHeL.s 			page 1


   1              		.cpu cortex-m4
   2              		.arch armv7e-m
   3              		.fpu fpv4-sp-d16
   4              		.eabi_attribute 27, 1
   5              		.eabi_attribute 28, 1
   6              		.eabi_attribute 20, 1
   7              		.eabi_attribute 21, 1
   8              		.eabi_attribute 23, 3
   9              		.eabi_attribute 24, 1
  10              		.eabi_attribute 25, 1
  11              		.eabi_attribute 26, 1
  12              		.eabi_attribute 30, 6
  13              		.eabi_attribute 34, 1
  14              		.eabi_attribute 18, 4
  15              		.file	"stm32f4xx_tim.c"
  16              		.text
  17              	.Ltext0:
  18              		.cfi_sections	.debug_frame
  19              		.file 1 "../Shared/Libraries/STM32F4xx_StdPeriph_Driver/src/stm32f4xx_tim.c"
  20              		.section	.text.TIM_DeInit,"ax",%progbits
  21              		.align	1
  22              		.global	TIM_DeInit
  23              		.syntax unified
  24              		.thumb
  25              		.thumb_func
  27              	TIM_DeInit:
  28              	.LFB110:
   1:../Shared/Libraries/STM32F4xx_StdPeriph_Driver/src/stm32f4xx_tim.c **** /**
   2:../Shared/Libraries/STM32F4xx_StdPeriph_Driver/src/stm32f4xx_tim.c ****   ******************************************************************************
   3:../Shared/Libraries/STM32F4xx_StdPeriph_Driver/src/stm32f4xx_tim.c ****   * @file    stm32f4xx_tim.c
   4:../Shared/Libraries/STM32F4xx_StdPeriph_Driver/src/stm32f4xx_tim.c ****   * @author  MCD Application Team
   5:../Shared/Libraries/STM32F4xx_StdPeriph_Driver/src/stm32f4xx_tim.c ****   * @version V1.0.2
   6:../Shared/Libraries/STM32F4xx_StdPeriph_Driver/src/stm32f4xx_tim.c ****   * @date    05-March-2012
   7:../Shared/Libraries/STM32F4xx_StdPeriph_Driver/src/stm32f4xx_tim.c ****   * @brief   This file provides firmware functions to manage the following 
   8:../Shared/Libraries/STM32F4xx_StdPeriph_Driver/src/stm32f4xx_tim.c ****   *          functionalities of the TIM peripheral:
   9:../Shared/Libraries/STM32F4xx_StdPeriph_Driver/src/stm32f4xx_tim.c ****   *            - TimeBase management
  10:../Shared/Libraries/STM32F4xx_StdPeriph_Driver/src/stm32f4xx_tim.c ****   *            - Output Compare management
  11:../Shared/Libraries/STM32F4xx_StdPeriph_Driver/src/stm32f4xx_tim.c ****   *            - Input Capture management
  12:../Shared/Libraries/STM32F4xx_StdPeriph_Driver/src/stm32f4xx_tim.c ****   *            - Advanced-control timers (TIM1 and TIM8) specific features  
  13:../Shared/Libraries/STM32F4xx_StdPeriph_Driver/src/stm32f4xx_tim.c ****   *            - Interrupts, DMA and flags management
  14:../Shared/Libraries/STM32F4xx_StdPeriph_Driver/src/stm32f4xx_tim.c ****   *            - Clocks management
  15:../Shared/Libraries/STM32F4xx_StdPeriph_Driver/src/stm32f4xx_tim.c ****   *            - Synchronization management
  16:../Shared/Libraries/STM32F4xx_StdPeriph_Driver/src/stm32f4xx_tim.c ****   *            - Specific interface management
  17:../Shared/Libraries/STM32F4xx_StdPeriph_Driver/src/stm32f4xx_tim.c ****   *            - Specific remapping management      
  18:../Shared/Libraries/STM32F4xx_StdPeriph_Driver/src/stm32f4xx_tim.c ****   *              
  19:../Shared/Libraries/STM32F4xx_StdPeriph_Driver/src/stm32f4xx_tim.c ****   *  @verbatim
  20:../Shared/Libraries/STM32F4xx_StdPeriph_Driver/src/stm32f4xx_tim.c ****   *  
  21:../Shared/Libraries/STM32F4xx_StdPeriph_Driver/src/stm32f4xx_tim.c ****   *          ===================================================================
  22:../Shared/Libraries/STM32F4xx_StdPeriph_Driver/src/stm32f4xx_tim.c ****   *                                 How to use this driver
  23:../Shared/Libraries/STM32F4xx_StdPeriph_Driver/src/stm32f4xx_tim.c ****   *          ===================================================================
  24:../Shared/Libraries/STM32F4xx_StdPeriph_Driver/src/stm32f4xx_tim.c ****   *          This driver provides functions to configure and program the TIM 
  25:../Shared/Libraries/STM32F4xx_StdPeriph_Driver/src/stm32f4xx_tim.c ****   *          of all STM32F4xx devices.
  26:../Shared/Libraries/STM32F4xx_StdPeriph_Driver/src/stm32f4xx_tim.c ****   *          These functions are split in 9 groups: 
  27:../Shared/Libraries/STM32F4xx_StdPeriph_Driver/src/stm32f4xx_tim.c ****   *   
  28:../Shared/Libraries/STM32F4xx_StdPeriph_Driver/src/stm32f4xx_tim.c ****   *          1. TIM TimeBase management: this group includes all needed functions 
  29:../Shared/Libraries/STM32F4xx_StdPeriph_Driver/src/stm32f4xx_tim.c ****   *             to configure the TM Timebase unit:
  30:../Shared/Libraries/STM32F4xx_StdPeriph_Driver/src/stm32f4xx_tim.c ****   *                   - Set/Get Prescaler
ARM GAS  /tmp/cc2zcHeL.s 			page 2


  31:../Shared/Libraries/STM32F4xx_StdPeriph_Driver/src/stm32f4xx_tim.c ****   *                   - Set/Get Autoreload  
  32:../Shared/Libraries/STM32F4xx_StdPeriph_Driver/src/stm32f4xx_tim.c ****   *                   - Counter modes configuration
  33:../Shared/Libraries/STM32F4xx_StdPeriph_Driver/src/stm32f4xx_tim.c ****   *                   - Set Clock division  
  34:../Shared/Libraries/STM32F4xx_StdPeriph_Driver/src/stm32f4xx_tim.c ****   *                   - Select the One Pulse mode
  35:../Shared/Libraries/STM32F4xx_StdPeriph_Driver/src/stm32f4xx_tim.c ****   *                   - Update Request Configuration
  36:../Shared/Libraries/STM32F4xx_StdPeriph_Driver/src/stm32f4xx_tim.c ****   *                   - Update Disable Configuration
  37:../Shared/Libraries/STM32F4xx_StdPeriph_Driver/src/stm32f4xx_tim.c ****   *                   - Auto-Preload Configuration 
  38:../Shared/Libraries/STM32F4xx_StdPeriph_Driver/src/stm32f4xx_tim.c ****   *                   - Enable/Disable the counter     
  39:../Shared/Libraries/STM32F4xx_StdPeriph_Driver/src/stm32f4xx_tim.c ****   *                 
  40:../Shared/Libraries/STM32F4xx_StdPeriph_Driver/src/stm32f4xx_tim.c ****   *          2. TIM Output Compare management: this group includes all needed 
  41:../Shared/Libraries/STM32F4xx_StdPeriph_Driver/src/stm32f4xx_tim.c ****   *             functions to configure the Capture/Compare unit used in Output 
  42:../Shared/Libraries/STM32F4xx_StdPeriph_Driver/src/stm32f4xx_tim.c ****   *             compare mode: 
  43:../Shared/Libraries/STM32F4xx_StdPeriph_Driver/src/stm32f4xx_tim.c ****   *                   - Configure each channel, independently, in Output Compare mode
  44:../Shared/Libraries/STM32F4xx_StdPeriph_Driver/src/stm32f4xx_tim.c ****   *                   - Select the output compare modes
  45:../Shared/Libraries/STM32F4xx_StdPeriph_Driver/src/stm32f4xx_tim.c ****   *                   - Select the Polarities of each channel
  46:../Shared/Libraries/STM32F4xx_StdPeriph_Driver/src/stm32f4xx_tim.c ****   *                   - Set/Get the Capture/Compare register values
  47:../Shared/Libraries/STM32F4xx_StdPeriph_Driver/src/stm32f4xx_tim.c ****   *                   - Select the Output Compare Fast mode 
  48:../Shared/Libraries/STM32F4xx_StdPeriph_Driver/src/stm32f4xx_tim.c ****   *                   - Select the Output Compare Forced mode  
  49:../Shared/Libraries/STM32F4xx_StdPeriph_Driver/src/stm32f4xx_tim.c ****   *                   - Output Compare-Preload Configuration 
  50:../Shared/Libraries/STM32F4xx_StdPeriph_Driver/src/stm32f4xx_tim.c ****   *                   - Clear Output Compare Reference
  51:../Shared/Libraries/STM32F4xx_StdPeriph_Driver/src/stm32f4xx_tim.c ****   *                   - Select the OCREF Clear signal
  52:../Shared/Libraries/STM32F4xx_StdPeriph_Driver/src/stm32f4xx_tim.c ****   *                   - Enable/Disable the Capture/Compare Channels    
  53:../Shared/Libraries/STM32F4xx_StdPeriph_Driver/src/stm32f4xx_tim.c ****   *                   
  54:../Shared/Libraries/STM32F4xx_StdPeriph_Driver/src/stm32f4xx_tim.c ****   *          3. TIM Input Capture management: this group includes all needed 
  55:../Shared/Libraries/STM32F4xx_StdPeriph_Driver/src/stm32f4xx_tim.c ****   *             functions to configure the Capture/Compare unit used in 
  56:../Shared/Libraries/STM32F4xx_StdPeriph_Driver/src/stm32f4xx_tim.c ****   *             Input Capture mode:
  57:../Shared/Libraries/STM32F4xx_StdPeriph_Driver/src/stm32f4xx_tim.c ****   *                   - Configure each channel in input capture mode
  58:../Shared/Libraries/STM32F4xx_StdPeriph_Driver/src/stm32f4xx_tim.c ****   *                   - Configure Channel1/2 in PWM Input mode
  59:../Shared/Libraries/STM32F4xx_StdPeriph_Driver/src/stm32f4xx_tim.c ****   *                   - Set the Input Capture Prescaler
  60:../Shared/Libraries/STM32F4xx_StdPeriph_Driver/src/stm32f4xx_tim.c ****   *                   - Get the Capture/Compare values      
  61:../Shared/Libraries/STM32F4xx_StdPeriph_Driver/src/stm32f4xx_tim.c ****   *                   
  62:../Shared/Libraries/STM32F4xx_StdPeriph_Driver/src/stm32f4xx_tim.c ****   *          4. Advanced-control timers (TIM1 and TIM8) specific features
  63:../Shared/Libraries/STM32F4xx_StdPeriph_Driver/src/stm32f4xx_tim.c ****   *                   - Configures the Break input, dead time, Lock level, the OSSI,
  64:../Shared/Libraries/STM32F4xx_StdPeriph_Driver/src/stm32f4xx_tim.c ****   *                      the OSSR State and the AOE(automatic output enable)
  65:../Shared/Libraries/STM32F4xx_StdPeriph_Driver/src/stm32f4xx_tim.c ****   *                   - Enable/Disable the TIM peripheral Main Outputs
  66:../Shared/Libraries/STM32F4xx_StdPeriph_Driver/src/stm32f4xx_tim.c ****   *                   - Select the Commutation event
  67:../Shared/Libraries/STM32F4xx_StdPeriph_Driver/src/stm32f4xx_tim.c ****   *                   - Set/Reset the Capture Compare Preload Control bit
  68:../Shared/Libraries/STM32F4xx_StdPeriph_Driver/src/stm32f4xx_tim.c ****   *                              
  69:../Shared/Libraries/STM32F4xx_StdPeriph_Driver/src/stm32f4xx_tim.c ****   *          5. TIM interrupts, DMA and flags management
  70:../Shared/Libraries/STM32F4xx_StdPeriph_Driver/src/stm32f4xx_tim.c ****   *                   - Enable/Disable interrupt sources
  71:../Shared/Libraries/STM32F4xx_StdPeriph_Driver/src/stm32f4xx_tim.c ****   *                   - Get flags status
  72:../Shared/Libraries/STM32F4xx_StdPeriph_Driver/src/stm32f4xx_tim.c ****   *                   - Clear flags/ Pending bits
  73:../Shared/Libraries/STM32F4xx_StdPeriph_Driver/src/stm32f4xx_tim.c ****   *                   - Enable/Disable DMA requests 
  74:../Shared/Libraries/STM32F4xx_StdPeriph_Driver/src/stm32f4xx_tim.c ****   *                   - Configure DMA burst mode
  75:../Shared/Libraries/STM32F4xx_StdPeriph_Driver/src/stm32f4xx_tim.c ****   *                   - Select CaptureCompare DMA request  
  76:../Shared/Libraries/STM32F4xx_StdPeriph_Driver/src/stm32f4xx_tim.c ****   *              
  77:../Shared/Libraries/STM32F4xx_StdPeriph_Driver/src/stm32f4xx_tim.c ****   *          6. TIM clocks management: this group includes all needed functions 
  78:../Shared/Libraries/STM32F4xx_StdPeriph_Driver/src/stm32f4xx_tim.c ****   *             to configure the clock controller unit:
  79:../Shared/Libraries/STM32F4xx_StdPeriph_Driver/src/stm32f4xx_tim.c ****   *                   - Select internal/External clock
  80:../Shared/Libraries/STM32F4xx_StdPeriph_Driver/src/stm32f4xx_tim.c ****   *                   - Select the external clock mode: ETR(Mode1/Mode2), TIx or ITRx
  81:../Shared/Libraries/STM32F4xx_StdPeriph_Driver/src/stm32f4xx_tim.c ****   *         
  82:../Shared/Libraries/STM32F4xx_StdPeriph_Driver/src/stm32f4xx_tim.c ****   *          7. TIM synchronization management: this group includes all needed 
  83:../Shared/Libraries/STM32F4xx_StdPeriph_Driver/src/stm32f4xx_tim.c ****   *             functions to configure the Synchronization unit:
  84:../Shared/Libraries/STM32F4xx_StdPeriph_Driver/src/stm32f4xx_tim.c ****   *                   - Select Input Trigger  
  85:../Shared/Libraries/STM32F4xx_StdPeriph_Driver/src/stm32f4xx_tim.c ****   *                   - Select Output Trigger  
  86:../Shared/Libraries/STM32F4xx_StdPeriph_Driver/src/stm32f4xx_tim.c ****   *                   - Select Master Slave Mode 
  87:../Shared/Libraries/STM32F4xx_StdPeriph_Driver/src/stm32f4xx_tim.c ****   *                   - ETR Configuration when used as external trigger   
ARM GAS  /tmp/cc2zcHeL.s 			page 3


  88:../Shared/Libraries/STM32F4xx_StdPeriph_Driver/src/stm32f4xx_tim.c ****   *     
  89:../Shared/Libraries/STM32F4xx_StdPeriph_Driver/src/stm32f4xx_tim.c ****   *          8. TIM specific interface management, this group includes all 
  90:../Shared/Libraries/STM32F4xx_StdPeriph_Driver/src/stm32f4xx_tim.c ****   *             needed functions to use the specific TIM interface:
  91:../Shared/Libraries/STM32F4xx_StdPeriph_Driver/src/stm32f4xx_tim.c ****   *                   - Encoder Interface Configuration
  92:../Shared/Libraries/STM32F4xx_StdPeriph_Driver/src/stm32f4xx_tim.c ****   *                   - Select Hall Sensor   
  93:../Shared/Libraries/STM32F4xx_StdPeriph_Driver/src/stm32f4xx_tim.c ****   *         
  94:../Shared/Libraries/STM32F4xx_StdPeriph_Driver/src/stm32f4xx_tim.c ****   *          9. TIM specific remapping management includes the Remapping 
  95:../Shared/Libraries/STM32F4xx_StdPeriph_Driver/src/stm32f4xx_tim.c ****   *             configuration of specific timers               
  96:../Shared/Libraries/STM32F4xx_StdPeriph_Driver/src/stm32f4xx_tim.c ****   *   
  97:../Shared/Libraries/STM32F4xx_StdPeriph_Driver/src/stm32f4xx_tim.c ****   *  @endverbatim
  98:../Shared/Libraries/STM32F4xx_StdPeriph_Driver/src/stm32f4xx_tim.c ****   *    
  99:../Shared/Libraries/STM32F4xx_StdPeriph_Driver/src/stm32f4xx_tim.c ****   ******************************************************************************
 100:../Shared/Libraries/STM32F4xx_StdPeriph_Driver/src/stm32f4xx_tim.c ****   * @attention
 101:../Shared/Libraries/STM32F4xx_StdPeriph_Driver/src/stm32f4xx_tim.c ****   *
 102:../Shared/Libraries/STM32F4xx_StdPeriph_Driver/src/stm32f4xx_tim.c ****   * <h2><center>&copy; COPYRIGHT 2012 STMicroelectronics</center></h2>
 103:../Shared/Libraries/STM32F4xx_StdPeriph_Driver/src/stm32f4xx_tim.c ****   *
 104:../Shared/Libraries/STM32F4xx_StdPeriph_Driver/src/stm32f4xx_tim.c ****   * Licensed under MCD-ST Liberty SW License Agreement V2, (the "License");
 105:../Shared/Libraries/STM32F4xx_StdPeriph_Driver/src/stm32f4xx_tim.c ****   * You may not use this file except in compliance with the License.
 106:../Shared/Libraries/STM32F4xx_StdPeriph_Driver/src/stm32f4xx_tim.c ****   * You may obtain a copy of the License at:
 107:../Shared/Libraries/STM32F4xx_StdPeriph_Driver/src/stm32f4xx_tim.c ****   *
 108:../Shared/Libraries/STM32F4xx_StdPeriph_Driver/src/stm32f4xx_tim.c ****   *        http://www.st.com/software_license_agreement_liberty_v2
 109:../Shared/Libraries/STM32F4xx_StdPeriph_Driver/src/stm32f4xx_tim.c ****   *
 110:../Shared/Libraries/STM32F4xx_StdPeriph_Driver/src/stm32f4xx_tim.c ****   * Unless required by applicable law or agreed to in writing, software 
 111:../Shared/Libraries/STM32F4xx_StdPeriph_Driver/src/stm32f4xx_tim.c ****   * distributed under the License is distributed on an "AS IS" BASIS, 
 112:../Shared/Libraries/STM32F4xx_StdPeriph_Driver/src/stm32f4xx_tim.c ****   * WITHOUT WARRANTIES OR CONDITIONS OF ANY KIND, either express or implied.
 113:../Shared/Libraries/STM32F4xx_StdPeriph_Driver/src/stm32f4xx_tim.c ****   * See the License for the specific language governing permissions and
 114:../Shared/Libraries/STM32F4xx_StdPeriph_Driver/src/stm32f4xx_tim.c ****   * limitations under the License.
 115:../Shared/Libraries/STM32F4xx_StdPeriph_Driver/src/stm32f4xx_tim.c ****   *
 116:../Shared/Libraries/STM32F4xx_StdPeriph_Driver/src/stm32f4xx_tim.c ****   ******************************************************************************
 117:../Shared/Libraries/STM32F4xx_StdPeriph_Driver/src/stm32f4xx_tim.c ****   */
 118:../Shared/Libraries/STM32F4xx_StdPeriph_Driver/src/stm32f4xx_tim.c **** 
 119:../Shared/Libraries/STM32F4xx_StdPeriph_Driver/src/stm32f4xx_tim.c **** /* Includes ------------------------------------------------------------------*/
 120:../Shared/Libraries/STM32F4xx_StdPeriph_Driver/src/stm32f4xx_tim.c **** #include "stm32f4xx_tim.h"
 121:../Shared/Libraries/STM32F4xx_StdPeriph_Driver/src/stm32f4xx_tim.c **** #include "stm32f4xx_rcc.h"
 122:../Shared/Libraries/STM32F4xx_StdPeriph_Driver/src/stm32f4xx_tim.c **** 
 123:../Shared/Libraries/STM32F4xx_StdPeriph_Driver/src/stm32f4xx_tim.c **** /** @addtogroup STM32F4xx_StdPeriph_Driver
 124:../Shared/Libraries/STM32F4xx_StdPeriph_Driver/src/stm32f4xx_tim.c ****   * @{
 125:../Shared/Libraries/STM32F4xx_StdPeriph_Driver/src/stm32f4xx_tim.c ****   */
 126:../Shared/Libraries/STM32F4xx_StdPeriph_Driver/src/stm32f4xx_tim.c **** 
 127:../Shared/Libraries/STM32F4xx_StdPeriph_Driver/src/stm32f4xx_tim.c **** /** @defgroup TIM 
 128:../Shared/Libraries/STM32F4xx_StdPeriph_Driver/src/stm32f4xx_tim.c ****   * @brief TIM driver modules
 129:../Shared/Libraries/STM32F4xx_StdPeriph_Driver/src/stm32f4xx_tim.c ****   * @{
 130:../Shared/Libraries/STM32F4xx_StdPeriph_Driver/src/stm32f4xx_tim.c ****   */
 131:../Shared/Libraries/STM32F4xx_StdPeriph_Driver/src/stm32f4xx_tim.c **** 
 132:../Shared/Libraries/STM32F4xx_StdPeriph_Driver/src/stm32f4xx_tim.c **** /* Private typedef -----------------------------------------------------------*/
 133:../Shared/Libraries/STM32F4xx_StdPeriph_Driver/src/stm32f4xx_tim.c **** /* Private define ------------------------------------------------------------*/
 134:../Shared/Libraries/STM32F4xx_StdPeriph_Driver/src/stm32f4xx_tim.c **** 
 135:../Shared/Libraries/STM32F4xx_StdPeriph_Driver/src/stm32f4xx_tim.c **** /* ---------------------- TIM registers bit mask ------------------------ */
 136:../Shared/Libraries/STM32F4xx_StdPeriph_Driver/src/stm32f4xx_tim.c **** #define SMCR_ETR_MASK      ((uint16_t)0x00FF) 
 137:../Shared/Libraries/STM32F4xx_StdPeriph_Driver/src/stm32f4xx_tim.c **** #define CCMR_OFFSET        ((uint16_t)0x0018)
 138:../Shared/Libraries/STM32F4xx_StdPeriph_Driver/src/stm32f4xx_tim.c **** #define CCER_CCE_SET       ((uint16_t)0x0001)  
 139:../Shared/Libraries/STM32F4xx_StdPeriph_Driver/src/stm32f4xx_tim.c **** #define	CCER_CCNE_SET      ((uint16_t)0x0004) 
 140:../Shared/Libraries/STM32F4xx_StdPeriph_Driver/src/stm32f4xx_tim.c **** #define CCMR_OC13M_MASK    ((uint16_t)0xFF8F)
 141:../Shared/Libraries/STM32F4xx_StdPeriph_Driver/src/stm32f4xx_tim.c **** #define CCMR_OC24M_MASK    ((uint16_t)0x8FFF) 
 142:../Shared/Libraries/STM32F4xx_StdPeriph_Driver/src/stm32f4xx_tim.c **** 
 143:../Shared/Libraries/STM32F4xx_StdPeriph_Driver/src/stm32f4xx_tim.c **** /* Private macro -------------------------------------------------------------*/
 144:../Shared/Libraries/STM32F4xx_StdPeriph_Driver/src/stm32f4xx_tim.c **** /* Private variables ---------------------------------------------------------*/
ARM GAS  /tmp/cc2zcHeL.s 			page 4


 145:../Shared/Libraries/STM32F4xx_StdPeriph_Driver/src/stm32f4xx_tim.c **** /* Private function prototypes -----------------------------------------------*/
 146:../Shared/Libraries/STM32F4xx_StdPeriph_Driver/src/stm32f4xx_tim.c **** static void TI1_Config(TIM_TypeDef* TIMx, uint16_t TIM_ICPolarity, uint16_t TIM_ICSelection,
 147:../Shared/Libraries/STM32F4xx_StdPeriph_Driver/src/stm32f4xx_tim.c ****                        uint16_t TIM_ICFilter);
 148:../Shared/Libraries/STM32F4xx_StdPeriph_Driver/src/stm32f4xx_tim.c **** static void TI2_Config(TIM_TypeDef* TIMx, uint16_t TIM_ICPolarity, uint16_t TIM_ICSelection,
 149:../Shared/Libraries/STM32F4xx_StdPeriph_Driver/src/stm32f4xx_tim.c ****                        uint16_t TIM_ICFilter);
 150:../Shared/Libraries/STM32F4xx_StdPeriph_Driver/src/stm32f4xx_tim.c **** static void TI3_Config(TIM_TypeDef* TIMx, uint16_t TIM_ICPolarity, uint16_t TIM_ICSelection,
 151:../Shared/Libraries/STM32F4xx_StdPeriph_Driver/src/stm32f4xx_tim.c ****                        uint16_t TIM_ICFilter);
 152:../Shared/Libraries/STM32F4xx_StdPeriph_Driver/src/stm32f4xx_tim.c **** static void TI4_Config(TIM_TypeDef* TIMx, uint16_t TIM_ICPolarity, uint16_t TIM_ICSelection,
 153:../Shared/Libraries/STM32F4xx_StdPeriph_Driver/src/stm32f4xx_tim.c ****                        uint16_t TIM_ICFilter);
 154:../Shared/Libraries/STM32F4xx_StdPeriph_Driver/src/stm32f4xx_tim.c **** 
 155:../Shared/Libraries/STM32F4xx_StdPeriph_Driver/src/stm32f4xx_tim.c **** /* Private functions ---------------------------------------------------------*/
 156:../Shared/Libraries/STM32F4xx_StdPeriph_Driver/src/stm32f4xx_tim.c **** 
 157:../Shared/Libraries/STM32F4xx_StdPeriph_Driver/src/stm32f4xx_tim.c **** /** @defgroup TIM_Private_Functions
 158:../Shared/Libraries/STM32F4xx_StdPeriph_Driver/src/stm32f4xx_tim.c ****   * @{
 159:../Shared/Libraries/STM32F4xx_StdPeriph_Driver/src/stm32f4xx_tim.c ****   */
 160:../Shared/Libraries/STM32F4xx_StdPeriph_Driver/src/stm32f4xx_tim.c **** 
 161:../Shared/Libraries/STM32F4xx_StdPeriph_Driver/src/stm32f4xx_tim.c **** /** @defgroup TIM_Group1 TimeBase management functions
 162:../Shared/Libraries/STM32F4xx_StdPeriph_Driver/src/stm32f4xx_tim.c ****  *  @brief   TimeBase management functions 
 163:../Shared/Libraries/STM32F4xx_StdPeriph_Driver/src/stm32f4xx_tim.c ****  *
 164:../Shared/Libraries/STM32F4xx_StdPeriph_Driver/src/stm32f4xx_tim.c **** @verbatim   
 165:../Shared/Libraries/STM32F4xx_StdPeriph_Driver/src/stm32f4xx_tim.c ****  ===============================================================================
 166:../Shared/Libraries/STM32F4xx_StdPeriph_Driver/src/stm32f4xx_tim.c ****                        TimeBase management functions
 167:../Shared/Libraries/STM32F4xx_StdPeriph_Driver/src/stm32f4xx_tim.c ****  ===============================================================================  
 168:../Shared/Libraries/STM32F4xx_StdPeriph_Driver/src/stm32f4xx_tim.c ****   
 169:../Shared/Libraries/STM32F4xx_StdPeriph_Driver/src/stm32f4xx_tim.c ****        ===================================================================      
 170:../Shared/Libraries/STM32F4xx_StdPeriph_Driver/src/stm32f4xx_tim.c ****               TIM Driver: how to use it in Timing(Time base) Mode
 171:../Shared/Libraries/STM32F4xx_StdPeriph_Driver/src/stm32f4xx_tim.c ****        =================================================================== 
 172:../Shared/Libraries/STM32F4xx_StdPeriph_Driver/src/stm32f4xx_tim.c ****        To use the Timer in Timing(Time base) mode, the following steps are mandatory:
 173:../Shared/Libraries/STM32F4xx_StdPeriph_Driver/src/stm32f4xx_tim.c ****        
 174:../Shared/Libraries/STM32F4xx_StdPeriph_Driver/src/stm32f4xx_tim.c ****        1. Enable TIM clock using RCC_APBxPeriphClockCmd(RCC_APBxPeriph_TIMx, ENABLE) function
 175:../Shared/Libraries/STM32F4xx_StdPeriph_Driver/src/stm32f4xx_tim.c ****                     
 176:../Shared/Libraries/STM32F4xx_StdPeriph_Driver/src/stm32f4xx_tim.c ****        2. Fill the TIM_TimeBaseInitStruct with the desired parameters.
 177:../Shared/Libraries/STM32F4xx_StdPeriph_Driver/src/stm32f4xx_tim.c ****        
 178:../Shared/Libraries/STM32F4xx_StdPeriph_Driver/src/stm32f4xx_tim.c ****        3. Call TIM_TimeBaseInit(TIMx, &TIM_TimeBaseInitStruct) to configure the Time Base unit
 179:../Shared/Libraries/STM32F4xx_StdPeriph_Driver/src/stm32f4xx_tim.c ****           with the corresponding configuration
 180:../Shared/Libraries/STM32F4xx_StdPeriph_Driver/src/stm32f4xx_tim.c ****           
 181:../Shared/Libraries/STM32F4xx_StdPeriph_Driver/src/stm32f4xx_tim.c ****        4. Enable the NVIC if you need to generate the update interrupt. 
 182:../Shared/Libraries/STM32F4xx_StdPeriph_Driver/src/stm32f4xx_tim.c ****           
 183:../Shared/Libraries/STM32F4xx_StdPeriph_Driver/src/stm32f4xx_tim.c ****        5. Enable the corresponding interrupt using the function TIM_ITConfig(TIMx, TIM_IT_Update) 
 184:../Shared/Libraries/STM32F4xx_StdPeriph_Driver/src/stm32f4xx_tim.c ****        
 185:../Shared/Libraries/STM32F4xx_StdPeriph_Driver/src/stm32f4xx_tim.c ****        6. Call the TIM_Cmd(ENABLE) function to enable the TIM counter.
 186:../Shared/Libraries/STM32F4xx_StdPeriph_Driver/src/stm32f4xx_tim.c ****              
 187:../Shared/Libraries/STM32F4xx_StdPeriph_Driver/src/stm32f4xx_tim.c ****        Note1: All other functions can be used separately to modify, if needed,
 188:../Shared/Libraries/STM32F4xx_StdPeriph_Driver/src/stm32f4xx_tim.c ****           a specific feature of the Timer. 
 189:../Shared/Libraries/STM32F4xx_StdPeriph_Driver/src/stm32f4xx_tim.c **** 
 190:../Shared/Libraries/STM32F4xx_StdPeriph_Driver/src/stm32f4xx_tim.c **** @endverbatim
 191:../Shared/Libraries/STM32F4xx_StdPeriph_Driver/src/stm32f4xx_tim.c ****   * @{
 192:../Shared/Libraries/STM32F4xx_StdPeriph_Driver/src/stm32f4xx_tim.c ****   */
 193:../Shared/Libraries/STM32F4xx_StdPeriph_Driver/src/stm32f4xx_tim.c ****   
 194:../Shared/Libraries/STM32F4xx_StdPeriph_Driver/src/stm32f4xx_tim.c **** /**
 195:../Shared/Libraries/STM32F4xx_StdPeriph_Driver/src/stm32f4xx_tim.c ****   * @brief  Deinitializes the TIMx peripheral registers to their default reset values.
 196:../Shared/Libraries/STM32F4xx_StdPeriph_Driver/src/stm32f4xx_tim.c ****   * @param  TIMx: where x can be 1 to 14 to select the TIM peripheral.
 197:../Shared/Libraries/STM32F4xx_StdPeriph_Driver/src/stm32f4xx_tim.c ****   * @retval None
 198:../Shared/Libraries/STM32F4xx_StdPeriph_Driver/src/stm32f4xx_tim.c **** 
 199:../Shared/Libraries/STM32F4xx_StdPeriph_Driver/src/stm32f4xx_tim.c ****   */
 200:../Shared/Libraries/STM32F4xx_StdPeriph_Driver/src/stm32f4xx_tim.c **** void TIM_DeInit(TIM_TypeDef* TIMx)
 201:../Shared/Libraries/STM32F4xx_StdPeriph_Driver/src/stm32f4xx_tim.c **** {
ARM GAS  /tmp/cc2zcHeL.s 			page 5


  29              		.loc 1 201 1
  30              		.cfi_startproc
  31              		@ args = 0, pretend = 0, frame = 8
  32              		@ frame_needed = 1, uses_anonymous_args = 0
  33 0000 80B5     		push	{r7, lr}
  34              	.LCFI0:
  35              		.cfi_def_cfa_offset 8
  36              		.cfi_offset 7, -8
  37              		.cfi_offset 14, -4
  38 0002 82B0     		sub	sp, sp, #8
  39              	.LCFI1:
  40              		.cfi_def_cfa_offset 16
  41 0004 00AF     		add	r7, sp, #0
  42              	.LCFI2:
  43              		.cfi_def_cfa_register 7
  44 0006 7860     		str	r0, [r7, #4]
 202:../Shared/Libraries/STM32F4xx_StdPeriph_Driver/src/stm32f4xx_tim.c ****   /* Check the parameters */
 203:../Shared/Libraries/STM32F4xx_StdPeriph_Driver/src/stm32f4xx_tim.c ****   assert_param(IS_TIM_ALL_PERIPH(TIMx)); 
 204:../Shared/Libraries/STM32F4xx_StdPeriph_Driver/src/stm32f4xx_tim.c ****  
 205:../Shared/Libraries/STM32F4xx_StdPeriph_Driver/src/stm32f4xx_tim.c ****   if (TIMx == TIM1)
  45              		.loc 1 205 6
  46 0008 7B68     		ldr	r3, [r7, #4]
  47 000a 604A     		ldr	r2, .L17
  48 000c 9342     		cmp	r3, r2
  49 000e 08D1     		bne	.L2
 206:../Shared/Libraries/STM32F4xx_StdPeriph_Driver/src/stm32f4xx_tim.c ****   {
 207:../Shared/Libraries/STM32F4xx_StdPeriph_Driver/src/stm32f4xx_tim.c ****     RCC_APB2PeriphResetCmd(RCC_APB2Periph_TIM1, ENABLE);
  50              		.loc 1 207 5
  51 0010 0121     		movs	r1, #1
  52 0012 0120     		movs	r0, #1
  53 0014 FFF7FEFF 		bl	RCC_APB2PeriphResetCmd
 208:../Shared/Libraries/STM32F4xx_StdPeriph_Driver/src/stm32f4xx_tim.c ****     RCC_APB2PeriphResetCmd(RCC_APB2Periph_TIM1, DISABLE);  
  54              		.loc 1 208 5
  55 0018 0021     		movs	r1, #0
  56 001a 0120     		movs	r0, #1
  57 001c FFF7FEFF 		bl	RCC_APB2PeriphResetCmd
 209:../Shared/Libraries/STM32F4xx_StdPeriph_Driver/src/stm32f4xx_tim.c ****   } 
 210:../Shared/Libraries/STM32F4xx_StdPeriph_Driver/src/stm32f4xx_tim.c ****   else if (TIMx == TIM2) 
 211:../Shared/Libraries/STM32F4xx_StdPeriph_Driver/src/stm32f4xx_tim.c ****   {     
 212:../Shared/Libraries/STM32F4xx_StdPeriph_Driver/src/stm32f4xx_tim.c ****     RCC_APB1PeriphResetCmd(RCC_APB1Periph_TIM2, ENABLE);
 213:../Shared/Libraries/STM32F4xx_StdPeriph_Driver/src/stm32f4xx_tim.c ****     RCC_APB1PeriphResetCmd(RCC_APB1Periph_TIM2, DISABLE);
 214:../Shared/Libraries/STM32F4xx_StdPeriph_Driver/src/stm32f4xx_tim.c ****   }  
 215:../Shared/Libraries/STM32F4xx_StdPeriph_Driver/src/stm32f4xx_tim.c ****   else if (TIMx == TIM3)
 216:../Shared/Libraries/STM32F4xx_StdPeriph_Driver/src/stm32f4xx_tim.c ****   { 
 217:../Shared/Libraries/STM32F4xx_StdPeriph_Driver/src/stm32f4xx_tim.c ****     RCC_APB1PeriphResetCmd(RCC_APB1Periph_TIM3, ENABLE);
 218:../Shared/Libraries/STM32F4xx_StdPeriph_Driver/src/stm32f4xx_tim.c ****     RCC_APB1PeriphResetCmd(RCC_APB1Periph_TIM3, DISABLE);
 219:../Shared/Libraries/STM32F4xx_StdPeriph_Driver/src/stm32f4xx_tim.c ****   }  
 220:../Shared/Libraries/STM32F4xx_StdPeriph_Driver/src/stm32f4xx_tim.c ****   else if (TIMx == TIM4)
 221:../Shared/Libraries/STM32F4xx_StdPeriph_Driver/src/stm32f4xx_tim.c ****   { 
 222:../Shared/Libraries/STM32F4xx_StdPeriph_Driver/src/stm32f4xx_tim.c ****     RCC_APB1PeriphResetCmd(RCC_APB1Periph_TIM4, ENABLE);
 223:../Shared/Libraries/STM32F4xx_StdPeriph_Driver/src/stm32f4xx_tim.c ****     RCC_APB1PeriphResetCmd(RCC_APB1Periph_TIM4, DISABLE);
 224:../Shared/Libraries/STM32F4xx_StdPeriph_Driver/src/stm32f4xx_tim.c ****   }  
 225:../Shared/Libraries/STM32F4xx_StdPeriph_Driver/src/stm32f4xx_tim.c ****   else if (TIMx == TIM5)
 226:../Shared/Libraries/STM32F4xx_StdPeriph_Driver/src/stm32f4xx_tim.c ****   {      
 227:../Shared/Libraries/STM32F4xx_StdPeriph_Driver/src/stm32f4xx_tim.c ****     RCC_APB1PeriphResetCmd(RCC_APB1Periph_TIM5, ENABLE);
 228:../Shared/Libraries/STM32F4xx_StdPeriph_Driver/src/stm32f4xx_tim.c ****     RCC_APB1PeriphResetCmd(RCC_APB1Periph_TIM5, DISABLE);
 229:../Shared/Libraries/STM32F4xx_StdPeriph_Driver/src/stm32f4xx_tim.c ****   }  
ARM GAS  /tmp/cc2zcHeL.s 			page 6


 230:../Shared/Libraries/STM32F4xx_StdPeriph_Driver/src/stm32f4xx_tim.c ****   else if (TIMx == TIM6)  
 231:../Shared/Libraries/STM32F4xx_StdPeriph_Driver/src/stm32f4xx_tim.c ****   {    
 232:../Shared/Libraries/STM32F4xx_StdPeriph_Driver/src/stm32f4xx_tim.c ****     RCC_APB1PeriphResetCmd(RCC_APB1Periph_TIM6, ENABLE);
 233:../Shared/Libraries/STM32F4xx_StdPeriph_Driver/src/stm32f4xx_tim.c ****     RCC_APB1PeriphResetCmd(RCC_APB1Periph_TIM6, DISABLE);
 234:../Shared/Libraries/STM32F4xx_StdPeriph_Driver/src/stm32f4xx_tim.c ****   }  
 235:../Shared/Libraries/STM32F4xx_StdPeriph_Driver/src/stm32f4xx_tim.c ****   else if (TIMx == TIM7)
 236:../Shared/Libraries/STM32F4xx_StdPeriph_Driver/src/stm32f4xx_tim.c ****   {      
 237:../Shared/Libraries/STM32F4xx_StdPeriph_Driver/src/stm32f4xx_tim.c ****     RCC_APB1PeriphResetCmd(RCC_APB1Periph_TIM7, ENABLE);
 238:../Shared/Libraries/STM32F4xx_StdPeriph_Driver/src/stm32f4xx_tim.c ****     RCC_APB1PeriphResetCmd(RCC_APB1Periph_TIM7, DISABLE);
 239:../Shared/Libraries/STM32F4xx_StdPeriph_Driver/src/stm32f4xx_tim.c ****   }  
 240:../Shared/Libraries/STM32F4xx_StdPeriph_Driver/src/stm32f4xx_tim.c ****   else if (TIMx == TIM8)
 241:../Shared/Libraries/STM32F4xx_StdPeriph_Driver/src/stm32f4xx_tim.c ****   {      
 242:../Shared/Libraries/STM32F4xx_StdPeriph_Driver/src/stm32f4xx_tim.c ****     RCC_APB2PeriphResetCmd(RCC_APB2Periph_TIM8, ENABLE);
 243:../Shared/Libraries/STM32F4xx_StdPeriph_Driver/src/stm32f4xx_tim.c ****     RCC_APB2PeriphResetCmd(RCC_APB2Periph_TIM8, DISABLE);  
 244:../Shared/Libraries/STM32F4xx_StdPeriph_Driver/src/stm32f4xx_tim.c ****   }  
 245:../Shared/Libraries/STM32F4xx_StdPeriph_Driver/src/stm32f4xx_tim.c ****   else if (TIMx == TIM9)
 246:../Shared/Libraries/STM32F4xx_StdPeriph_Driver/src/stm32f4xx_tim.c ****   {      
 247:../Shared/Libraries/STM32F4xx_StdPeriph_Driver/src/stm32f4xx_tim.c ****     RCC_APB2PeriphResetCmd(RCC_APB2Periph_TIM9, ENABLE);
 248:../Shared/Libraries/STM32F4xx_StdPeriph_Driver/src/stm32f4xx_tim.c ****     RCC_APB2PeriphResetCmd(RCC_APB2Periph_TIM9, DISABLE);  
 249:../Shared/Libraries/STM32F4xx_StdPeriph_Driver/src/stm32f4xx_tim.c ****    }  
 250:../Shared/Libraries/STM32F4xx_StdPeriph_Driver/src/stm32f4xx_tim.c ****   else if (TIMx == TIM10)
 251:../Shared/Libraries/STM32F4xx_StdPeriph_Driver/src/stm32f4xx_tim.c ****   {      
 252:../Shared/Libraries/STM32F4xx_StdPeriph_Driver/src/stm32f4xx_tim.c ****     RCC_APB2PeriphResetCmd(RCC_APB2Periph_TIM10, ENABLE);
 253:../Shared/Libraries/STM32F4xx_StdPeriph_Driver/src/stm32f4xx_tim.c ****     RCC_APB2PeriphResetCmd(RCC_APB2Periph_TIM10, DISABLE);  
 254:../Shared/Libraries/STM32F4xx_StdPeriph_Driver/src/stm32f4xx_tim.c ****   }  
 255:../Shared/Libraries/STM32F4xx_StdPeriph_Driver/src/stm32f4xx_tim.c ****   else if (TIMx == TIM11) 
 256:../Shared/Libraries/STM32F4xx_StdPeriph_Driver/src/stm32f4xx_tim.c ****   {     
 257:../Shared/Libraries/STM32F4xx_StdPeriph_Driver/src/stm32f4xx_tim.c ****     RCC_APB2PeriphResetCmd(RCC_APB2Periph_TIM11, ENABLE);
 258:../Shared/Libraries/STM32F4xx_StdPeriph_Driver/src/stm32f4xx_tim.c ****     RCC_APB2PeriphResetCmd(RCC_APB2Periph_TIM11, DISABLE);  
 259:../Shared/Libraries/STM32F4xx_StdPeriph_Driver/src/stm32f4xx_tim.c ****   }  
 260:../Shared/Libraries/STM32F4xx_StdPeriph_Driver/src/stm32f4xx_tim.c ****   else if (TIMx == TIM12)
 261:../Shared/Libraries/STM32F4xx_StdPeriph_Driver/src/stm32f4xx_tim.c ****   {      
 262:../Shared/Libraries/STM32F4xx_StdPeriph_Driver/src/stm32f4xx_tim.c ****     RCC_APB1PeriphResetCmd(RCC_APB1Periph_TIM12, ENABLE);
 263:../Shared/Libraries/STM32F4xx_StdPeriph_Driver/src/stm32f4xx_tim.c ****     RCC_APB1PeriphResetCmd(RCC_APB1Periph_TIM12, DISABLE);  
 264:../Shared/Libraries/STM32F4xx_StdPeriph_Driver/src/stm32f4xx_tim.c ****   }  
 265:../Shared/Libraries/STM32F4xx_StdPeriph_Driver/src/stm32f4xx_tim.c ****   else if (TIMx == TIM13) 
 266:../Shared/Libraries/STM32F4xx_StdPeriph_Driver/src/stm32f4xx_tim.c ****   {       
 267:../Shared/Libraries/STM32F4xx_StdPeriph_Driver/src/stm32f4xx_tim.c ****     RCC_APB1PeriphResetCmd(RCC_APB1Periph_TIM13, ENABLE);
 268:../Shared/Libraries/STM32F4xx_StdPeriph_Driver/src/stm32f4xx_tim.c ****     RCC_APB1PeriphResetCmd(RCC_APB1Periph_TIM13, DISABLE);  
 269:../Shared/Libraries/STM32F4xx_StdPeriph_Driver/src/stm32f4xx_tim.c ****   }  
 270:../Shared/Libraries/STM32F4xx_StdPeriph_Driver/src/stm32f4xx_tim.c ****   else
 271:../Shared/Libraries/STM32F4xx_StdPeriph_Driver/src/stm32f4xx_tim.c ****   { 
 272:../Shared/Libraries/STM32F4xx_StdPeriph_Driver/src/stm32f4xx_tim.c ****     if (TIMx == TIM14) 
 273:../Shared/Libraries/STM32F4xx_StdPeriph_Driver/src/stm32f4xx_tim.c ****     {     
 274:../Shared/Libraries/STM32F4xx_StdPeriph_Driver/src/stm32f4xx_tim.c ****       RCC_APB1PeriphResetCmd(RCC_APB1Periph_TIM14, ENABLE);
 275:../Shared/Libraries/STM32F4xx_StdPeriph_Driver/src/stm32f4xx_tim.c ****       RCC_APB1PeriphResetCmd(RCC_APB1Periph_TIM14, DISABLE); 
 276:../Shared/Libraries/STM32F4xx_StdPeriph_Driver/src/stm32f4xx_tim.c ****     }   
 277:../Shared/Libraries/STM32F4xx_StdPeriph_Driver/src/stm32f4xx_tim.c ****   }
 278:../Shared/Libraries/STM32F4xx_StdPeriph_Driver/src/stm32f4xx_tim.c **** }
  58              		.loc 1 278 1
  59 0020 AFE0     		b	.L16
  60              	.L2:
 210:../Shared/Libraries/STM32F4xx_StdPeriph_Driver/src/stm32f4xx_tim.c ****   {     
  61              		.loc 1 210 11
  62 0022 7B68     		ldr	r3, [r7, #4]
  63 0024 B3F1804F 		cmp	r3, #1073741824
  64 0028 08D1     		bne	.L4
ARM GAS  /tmp/cc2zcHeL.s 			page 7


 212:../Shared/Libraries/STM32F4xx_StdPeriph_Driver/src/stm32f4xx_tim.c ****     RCC_APB1PeriphResetCmd(RCC_APB1Periph_TIM2, DISABLE);
  65              		.loc 1 212 5
  66 002a 0121     		movs	r1, #1
  67 002c 0120     		movs	r0, #1
  68 002e FFF7FEFF 		bl	RCC_APB1PeriphResetCmd
 213:../Shared/Libraries/STM32F4xx_StdPeriph_Driver/src/stm32f4xx_tim.c ****   }  
  69              		.loc 1 213 5
  70 0032 0021     		movs	r1, #0
  71 0034 0120     		movs	r0, #1
  72 0036 FFF7FEFF 		bl	RCC_APB1PeriphResetCmd
  73              		.loc 1 278 1
  74 003a A2E0     		b	.L16
  75              	.L4:
 215:../Shared/Libraries/STM32F4xx_StdPeriph_Driver/src/stm32f4xx_tim.c ****   { 
  76              		.loc 1 215 11
  77 003c 7B68     		ldr	r3, [r7, #4]
  78 003e 544A     		ldr	r2, .L17+4
  79 0040 9342     		cmp	r3, r2
  80 0042 08D1     		bne	.L5
 217:../Shared/Libraries/STM32F4xx_StdPeriph_Driver/src/stm32f4xx_tim.c ****     RCC_APB1PeriphResetCmd(RCC_APB1Periph_TIM3, DISABLE);
  81              		.loc 1 217 5
  82 0044 0121     		movs	r1, #1
  83 0046 0220     		movs	r0, #2
  84 0048 FFF7FEFF 		bl	RCC_APB1PeriphResetCmd
 218:../Shared/Libraries/STM32F4xx_StdPeriph_Driver/src/stm32f4xx_tim.c ****   }  
  85              		.loc 1 218 5
  86 004c 0021     		movs	r1, #0
  87 004e 0220     		movs	r0, #2
  88 0050 FFF7FEFF 		bl	RCC_APB1PeriphResetCmd
  89              		.loc 1 278 1
  90 0054 95E0     		b	.L16
  91              	.L5:
 220:../Shared/Libraries/STM32F4xx_StdPeriph_Driver/src/stm32f4xx_tim.c ****   { 
  92              		.loc 1 220 11
  93 0056 7B68     		ldr	r3, [r7, #4]
  94 0058 4E4A     		ldr	r2, .L17+8
  95 005a 9342     		cmp	r3, r2
  96 005c 08D1     		bne	.L6
 222:../Shared/Libraries/STM32F4xx_StdPeriph_Driver/src/stm32f4xx_tim.c ****     RCC_APB1PeriphResetCmd(RCC_APB1Periph_TIM4, DISABLE);
  97              		.loc 1 222 5
  98 005e 0121     		movs	r1, #1
  99 0060 0420     		movs	r0, #4
 100 0062 FFF7FEFF 		bl	RCC_APB1PeriphResetCmd
 223:../Shared/Libraries/STM32F4xx_StdPeriph_Driver/src/stm32f4xx_tim.c ****   }  
 101              		.loc 1 223 5
 102 0066 0021     		movs	r1, #0
 103 0068 0420     		movs	r0, #4
 104 006a FFF7FEFF 		bl	RCC_APB1PeriphResetCmd
 105              		.loc 1 278 1
 106 006e 88E0     		b	.L16
 107              	.L6:
 225:../Shared/Libraries/STM32F4xx_StdPeriph_Driver/src/stm32f4xx_tim.c ****   {      
 108              		.loc 1 225 11
 109 0070 7B68     		ldr	r3, [r7, #4]
 110 0072 494A     		ldr	r2, .L17+12
 111 0074 9342     		cmp	r3, r2
 112 0076 08D1     		bne	.L7
ARM GAS  /tmp/cc2zcHeL.s 			page 8


 227:../Shared/Libraries/STM32F4xx_StdPeriph_Driver/src/stm32f4xx_tim.c ****     RCC_APB1PeriphResetCmd(RCC_APB1Periph_TIM5, DISABLE);
 113              		.loc 1 227 5
 114 0078 0121     		movs	r1, #1
 115 007a 0820     		movs	r0, #8
 116 007c FFF7FEFF 		bl	RCC_APB1PeriphResetCmd
 228:../Shared/Libraries/STM32F4xx_StdPeriph_Driver/src/stm32f4xx_tim.c ****   }  
 117              		.loc 1 228 5
 118 0080 0021     		movs	r1, #0
 119 0082 0820     		movs	r0, #8
 120 0084 FFF7FEFF 		bl	RCC_APB1PeriphResetCmd
 121              		.loc 1 278 1
 122 0088 7BE0     		b	.L16
 123              	.L7:
 230:../Shared/Libraries/STM32F4xx_StdPeriph_Driver/src/stm32f4xx_tim.c ****   {    
 124              		.loc 1 230 11
 125 008a 7B68     		ldr	r3, [r7, #4]
 126 008c 434A     		ldr	r2, .L17+16
 127 008e 9342     		cmp	r3, r2
 128 0090 08D1     		bne	.L8
 232:../Shared/Libraries/STM32F4xx_StdPeriph_Driver/src/stm32f4xx_tim.c ****     RCC_APB1PeriphResetCmd(RCC_APB1Periph_TIM6, DISABLE);
 129              		.loc 1 232 5
 130 0092 0121     		movs	r1, #1
 131 0094 1020     		movs	r0, #16
 132 0096 FFF7FEFF 		bl	RCC_APB1PeriphResetCmd
 233:../Shared/Libraries/STM32F4xx_StdPeriph_Driver/src/stm32f4xx_tim.c ****   }  
 133              		.loc 1 233 5
 134 009a 0021     		movs	r1, #0
 135 009c 1020     		movs	r0, #16
 136 009e FFF7FEFF 		bl	RCC_APB1PeriphResetCmd
 137              		.loc 1 278 1
 138 00a2 6EE0     		b	.L16
 139              	.L8:
 235:../Shared/Libraries/STM32F4xx_StdPeriph_Driver/src/stm32f4xx_tim.c ****   {      
 140              		.loc 1 235 11
 141 00a4 7B68     		ldr	r3, [r7, #4]
 142 00a6 3E4A     		ldr	r2, .L17+20
 143 00a8 9342     		cmp	r3, r2
 144 00aa 08D1     		bne	.L9
 237:../Shared/Libraries/STM32F4xx_StdPeriph_Driver/src/stm32f4xx_tim.c ****     RCC_APB1PeriphResetCmd(RCC_APB1Periph_TIM7, DISABLE);
 145              		.loc 1 237 5
 146 00ac 0121     		movs	r1, #1
 147 00ae 2020     		movs	r0, #32
 148 00b0 FFF7FEFF 		bl	RCC_APB1PeriphResetCmd
 238:../Shared/Libraries/STM32F4xx_StdPeriph_Driver/src/stm32f4xx_tim.c ****   }  
 149              		.loc 1 238 5
 150 00b4 0021     		movs	r1, #0
 151 00b6 2020     		movs	r0, #32
 152 00b8 FFF7FEFF 		bl	RCC_APB1PeriphResetCmd
 153              		.loc 1 278 1
 154 00bc 61E0     		b	.L16
 155              	.L9:
 240:../Shared/Libraries/STM32F4xx_StdPeriph_Driver/src/stm32f4xx_tim.c ****   {      
 156              		.loc 1 240 11
 157 00be 7B68     		ldr	r3, [r7, #4]
 158 00c0 384A     		ldr	r2, .L17+24
 159 00c2 9342     		cmp	r3, r2
 160 00c4 08D1     		bne	.L10
ARM GAS  /tmp/cc2zcHeL.s 			page 9


 242:../Shared/Libraries/STM32F4xx_StdPeriph_Driver/src/stm32f4xx_tim.c ****     RCC_APB2PeriphResetCmd(RCC_APB2Periph_TIM8, DISABLE);  
 161              		.loc 1 242 5
 162 00c6 0121     		movs	r1, #1
 163 00c8 0220     		movs	r0, #2
 164 00ca FFF7FEFF 		bl	RCC_APB2PeriphResetCmd
 243:../Shared/Libraries/STM32F4xx_StdPeriph_Driver/src/stm32f4xx_tim.c ****   }  
 165              		.loc 1 243 5
 166 00ce 0021     		movs	r1, #0
 167 00d0 0220     		movs	r0, #2
 168 00d2 FFF7FEFF 		bl	RCC_APB2PeriphResetCmd
 169              		.loc 1 278 1
 170 00d6 54E0     		b	.L16
 171              	.L10:
 245:../Shared/Libraries/STM32F4xx_StdPeriph_Driver/src/stm32f4xx_tim.c ****   {      
 172              		.loc 1 245 11
 173 00d8 7B68     		ldr	r3, [r7, #4]
 174 00da 334A     		ldr	r2, .L17+28
 175 00dc 9342     		cmp	r3, r2
 176 00de 0AD1     		bne	.L11
 247:../Shared/Libraries/STM32F4xx_StdPeriph_Driver/src/stm32f4xx_tim.c ****     RCC_APB2PeriphResetCmd(RCC_APB2Periph_TIM9, DISABLE);  
 177              		.loc 1 247 5
 178 00e0 0121     		movs	r1, #1
 179 00e2 4FF48030 		mov	r0, #65536
 180 00e6 FFF7FEFF 		bl	RCC_APB2PeriphResetCmd
 248:../Shared/Libraries/STM32F4xx_StdPeriph_Driver/src/stm32f4xx_tim.c ****    }  
 181              		.loc 1 248 5
 182 00ea 0021     		movs	r1, #0
 183 00ec 4FF48030 		mov	r0, #65536
 184 00f0 FFF7FEFF 		bl	RCC_APB2PeriphResetCmd
 185              		.loc 1 278 1
 186 00f4 45E0     		b	.L16
 187              	.L11:
 250:../Shared/Libraries/STM32F4xx_StdPeriph_Driver/src/stm32f4xx_tim.c ****   {      
 188              		.loc 1 250 11
 189 00f6 7B68     		ldr	r3, [r7, #4]
 190 00f8 2C4A     		ldr	r2, .L17+32
 191 00fa 9342     		cmp	r3, r2
 192 00fc 0AD1     		bne	.L12
 252:../Shared/Libraries/STM32F4xx_StdPeriph_Driver/src/stm32f4xx_tim.c ****     RCC_APB2PeriphResetCmd(RCC_APB2Periph_TIM10, DISABLE);  
 193              		.loc 1 252 5
 194 00fe 0121     		movs	r1, #1
 195 0100 4FF40030 		mov	r0, #131072
 196 0104 FFF7FEFF 		bl	RCC_APB2PeriphResetCmd
 253:../Shared/Libraries/STM32F4xx_StdPeriph_Driver/src/stm32f4xx_tim.c ****   }  
 197              		.loc 1 253 5
 198 0108 0021     		movs	r1, #0
 199 010a 4FF40030 		mov	r0, #131072
 200 010e FFF7FEFF 		bl	RCC_APB2PeriphResetCmd
 201              		.loc 1 278 1
 202 0112 36E0     		b	.L16
 203              	.L12:
 255:../Shared/Libraries/STM32F4xx_StdPeriph_Driver/src/stm32f4xx_tim.c ****   {     
 204              		.loc 1 255 11
 205 0114 7B68     		ldr	r3, [r7, #4]
 206 0116 264A     		ldr	r2, .L17+36
 207 0118 9342     		cmp	r3, r2
 208 011a 0AD1     		bne	.L13
ARM GAS  /tmp/cc2zcHeL.s 			page 10


 257:../Shared/Libraries/STM32F4xx_StdPeriph_Driver/src/stm32f4xx_tim.c ****     RCC_APB2PeriphResetCmd(RCC_APB2Periph_TIM11, DISABLE);  
 209              		.loc 1 257 5
 210 011c 0121     		movs	r1, #1
 211 011e 4FF48020 		mov	r0, #262144
 212 0122 FFF7FEFF 		bl	RCC_APB2PeriphResetCmd
 258:../Shared/Libraries/STM32F4xx_StdPeriph_Driver/src/stm32f4xx_tim.c ****   }  
 213              		.loc 1 258 5
 214 0126 0021     		movs	r1, #0
 215 0128 4FF48020 		mov	r0, #262144
 216 012c FFF7FEFF 		bl	RCC_APB2PeriphResetCmd
 217              		.loc 1 278 1
 218 0130 27E0     		b	.L16
 219              	.L13:
 260:../Shared/Libraries/STM32F4xx_StdPeriph_Driver/src/stm32f4xx_tim.c ****   {      
 220              		.loc 1 260 11
 221 0132 7B68     		ldr	r3, [r7, #4]
 222 0134 1F4A     		ldr	r2, .L17+40
 223 0136 9342     		cmp	r3, r2
 224 0138 08D1     		bne	.L14
 262:../Shared/Libraries/STM32F4xx_StdPeriph_Driver/src/stm32f4xx_tim.c ****     RCC_APB1PeriphResetCmd(RCC_APB1Periph_TIM12, DISABLE);  
 225              		.loc 1 262 5
 226 013a 0121     		movs	r1, #1
 227 013c 4020     		movs	r0, #64
 228 013e FFF7FEFF 		bl	RCC_APB1PeriphResetCmd
 263:../Shared/Libraries/STM32F4xx_StdPeriph_Driver/src/stm32f4xx_tim.c ****   }  
 229              		.loc 1 263 5
 230 0142 0021     		movs	r1, #0
 231 0144 4020     		movs	r0, #64
 232 0146 FFF7FEFF 		bl	RCC_APB1PeriphResetCmd
 233              		.loc 1 278 1
 234 014a 1AE0     		b	.L16
 235              	.L14:
 265:../Shared/Libraries/STM32F4xx_StdPeriph_Driver/src/stm32f4xx_tim.c ****   {       
 236              		.loc 1 265 11
 237 014c 7B68     		ldr	r3, [r7, #4]
 238 014e 1A4A     		ldr	r2, .L17+44
 239 0150 9342     		cmp	r3, r2
 240 0152 08D1     		bne	.L15
 267:../Shared/Libraries/STM32F4xx_StdPeriph_Driver/src/stm32f4xx_tim.c ****     RCC_APB1PeriphResetCmd(RCC_APB1Periph_TIM13, DISABLE);  
 241              		.loc 1 267 5
 242 0154 0121     		movs	r1, #1
 243 0156 8020     		movs	r0, #128
 244 0158 FFF7FEFF 		bl	RCC_APB1PeriphResetCmd
 268:../Shared/Libraries/STM32F4xx_StdPeriph_Driver/src/stm32f4xx_tim.c ****   }  
 245              		.loc 1 268 5
 246 015c 0021     		movs	r1, #0
 247 015e 8020     		movs	r0, #128
 248 0160 FFF7FEFF 		bl	RCC_APB1PeriphResetCmd
 249              		.loc 1 278 1
 250 0164 0DE0     		b	.L16
 251              	.L15:
 272:../Shared/Libraries/STM32F4xx_StdPeriph_Driver/src/stm32f4xx_tim.c ****     {     
 252              		.loc 1 272 8
 253 0166 7B68     		ldr	r3, [r7, #4]
 254 0168 144A     		ldr	r2, .L17+48
 255 016a 9342     		cmp	r3, r2
 256 016c 09D1     		bne	.L16
ARM GAS  /tmp/cc2zcHeL.s 			page 11


 274:../Shared/Libraries/STM32F4xx_StdPeriph_Driver/src/stm32f4xx_tim.c ****       RCC_APB1PeriphResetCmd(RCC_APB1Periph_TIM14, DISABLE); 
 257              		.loc 1 274 7
 258 016e 0121     		movs	r1, #1
 259 0170 4FF48070 		mov	r0, #256
 260 0174 FFF7FEFF 		bl	RCC_APB1PeriphResetCmd
 275:../Shared/Libraries/STM32F4xx_StdPeriph_Driver/src/stm32f4xx_tim.c ****     }   
 261              		.loc 1 275 7
 262 0178 0021     		movs	r1, #0
 263 017a 4FF48070 		mov	r0, #256
 264 017e FFF7FEFF 		bl	RCC_APB1PeriphResetCmd
 265              	.L16:
 266              		.loc 1 278 1
 267 0182 00BF     		nop
 268 0184 0837     		adds	r7, r7, #8
 269              	.LCFI3:
 270              		.cfi_def_cfa_offset 8
 271 0186 BD46     		mov	sp, r7
 272              	.LCFI4:
 273              		.cfi_def_cfa_register 13
 274              		@ sp needed
 275 0188 80BD     		pop	{r7, pc}
 276              	.L18:
 277 018a 00BF     		.align	2
 278              	.L17:
 279 018c 00000140 		.word	1073807360
 280 0190 00040040 		.word	1073742848
 281 0194 00080040 		.word	1073743872
 282 0198 000C0040 		.word	1073744896
 283 019c 00100040 		.word	1073745920
 284 01a0 00140040 		.word	1073746944
 285 01a4 00040140 		.word	1073808384
 286 01a8 00400140 		.word	1073823744
 287 01ac 00440140 		.word	1073824768
 288 01b0 00480140 		.word	1073825792
 289 01b4 00180040 		.word	1073747968
 290 01b8 001C0040 		.word	1073748992
 291 01bc 00200040 		.word	1073750016
 292              		.cfi_endproc
 293              	.LFE110:
 295              		.section	.text.TIM_TimeBaseInit,"ax",%progbits
 296              		.align	1
 297              		.global	TIM_TimeBaseInit
 298              		.syntax unified
 299              		.thumb
 300              		.thumb_func
 302              	TIM_TimeBaseInit:
 303              	.LFB111:
 279:../Shared/Libraries/STM32F4xx_StdPeriph_Driver/src/stm32f4xx_tim.c **** 
 280:../Shared/Libraries/STM32F4xx_StdPeriph_Driver/src/stm32f4xx_tim.c **** /**
 281:../Shared/Libraries/STM32F4xx_StdPeriph_Driver/src/stm32f4xx_tim.c ****   * @brief  Initializes the TIMx Time Base Unit peripheral according to 
 282:../Shared/Libraries/STM32F4xx_StdPeriph_Driver/src/stm32f4xx_tim.c ****   *         the specified parameters in the TIM_TimeBaseInitStruct.
 283:../Shared/Libraries/STM32F4xx_StdPeriph_Driver/src/stm32f4xx_tim.c ****   * @param  TIMx: where x can be  1 to 14 to select the TIM peripheral.
 284:../Shared/Libraries/STM32F4xx_StdPeriph_Driver/src/stm32f4xx_tim.c ****   * @param  TIM_TimeBaseInitStruct: pointer to a TIM_TimeBaseInitTypeDef structure
 285:../Shared/Libraries/STM32F4xx_StdPeriph_Driver/src/stm32f4xx_tim.c ****   *         that contains the configuration information for the specified TIM peripheral.
 286:../Shared/Libraries/STM32F4xx_StdPeriph_Driver/src/stm32f4xx_tim.c ****   * @retval None
 287:../Shared/Libraries/STM32F4xx_StdPeriph_Driver/src/stm32f4xx_tim.c ****   */
 288:../Shared/Libraries/STM32F4xx_StdPeriph_Driver/src/stm32f4xx_tim.c **** void TIM_TimeBaseInit(TIM_TypeDef* TIMx, TIM_TimeBaseInitTypeDef* TIM_TimeBaseInitStruct)
ARM GAS  /tmp/cc2zcHeL.s 			page 12


 289:../Shared/Libraries/STM32F4xx_StdPeriph_Driver/src/stm32f4xx_tim.c **** {
 304              		.loc 1 289 1
 305              		.cfi_startproc
 306              		@ args = 0, pretend = 0, frame = 16
 307              		@ frame_needed = 1, uses_anonymous_args = 0
 308              		@ link register save eliminated.
 309 0000 80B4     		push	{r7}
 310              	.LCFI5:
 311              		.cfi_def_cfa_offset 4
 312              		.cfi_offset 7, -4
 313 0002 85B0     		sub	sp, sp, #20
 314              	.LCFI6:
 315              		.cfi_def_cfa_offset 24
 316 0004 00AF     		add	r7, sp, #0
 317              	.LCFI7:
 318              		.cfi_def_cfa_register 7
 319 0006 7860     		str	r0, [r7, #4]
 320 0008 3960     		str	r1, [r7]
 290:../Shared/Libraries/STM32F4xx_StdPeriph_Driver/src/stm32f4xx_tim.c ****   uint16_t tmpcr1 = 0;
 321              		.loc 1 290 12
 322 000a 0023     		movs	r3, #0
 323 000c FB81     		strh	r3, [r7, #14]	@ movhi
 291:../Shared/Libraries/STM32F4xx_StdPeriph_Driver/src/stm32f4xx_tim.c **** 
 292:../Shared/Libraries/STM32F4xx_StdPeriph_Driver/src/stm32f4xx_tim.c ****   /* Check the parameters */
 293:../Shared/Libraries/STM32F4xx_StdPeriph_Driver/src/stm32f4xx_tim.c ****   assert_param(IS_TIM_ALL_PERIPH(TIMx)); 
 294:../Shared/Libraries/STM32F4xx_StdPeriph_Driver/src/stm32f4xx_tim.c ****   assert_param(IS_TIM_COUNTER_MODE(TIM_TimeBaseInitStruct->TIM_CounterMode));
 295:../Shared/Libraries/STM32F4xx_StdPeriph_Driver/src/stm32f4xx_tim.c ****   assert_param(IS_TIM_CKD_DIV(TIM_TimeBaseInitStruct->TIM_ClockDivision));
 296:../Shared/Libraries/STM32F4xx_StdPeriph_Driver/src/stm32f4xx_tim.c **** 
 297:../Shared/Libraries/STM32F4xx_StdPeriph_Driver/src/stm32f4xx_tim.c ****   tmpcr1 = TIMx->CR1;  
 324              		.loc 1 297 10
 325 000e 7B68     		ldr	r3, [r7, #4]
 326 0010 1B88     		ldrh	r3, [r3]	@ movhi
 327 0012 FB81     		strh	r3, [r7, #14]	@ movhi
 298:../Shared/Libraries/STM32F4xx_StdPeriph_Driver/src/stm32f4xx_tim.c **** 
 299:../Shared/Libraries/STM32F4xx_StdPeriph_Driver/src/stm32f4xx_tim.c ****   if((TIMx == TIM1) || (TIMx == TIM8)||
 328              		.loc 1 299 5
 329 0014 7B68     		ldr	r3, [r7, #4]
 330 0016 294A     		ldr	r2, .L25
 331 0018 9342     		cmp	r3, r2
 332 001a 13D0     		beq	.L20
 333              		.loc 1 299 21 discriminator 1
 334 001c 7B68     		ldr	r3, [r7, #4]
 335 001e 284A     		ldr	r2, .L25+4
 336 0020 9342     		cmp	r3, r2
 337 0022 0FD0     		beq	.L20
 338              		.loc 1 299 38 discriminator 2
 339 0024 7B68     		ldr	r3, [r7, #4]
 340 0026 B3F1804F 		cmp	r3, #1073741824
 341 002a 0BD0     		beq	.L20
 300:../Shared/Libraries/STM32F4xx_StdPeriph_Driver/src/stm32f4xx_tim.c ****      (TIMx == TIM2) || (TIMx == TIM3)||
 342              		.loc 1 300 21
 343 002c 7B68     		ldr	r3, [r7, #4]
 344 002e 254A     		ldr	r2, .L25+8
 345 0030 9342     		cmp	r3, r2
 346 0032 07D0     		beq	.L20
 347              		.loc 1 300 38 discriminator 1
 348 0034 7B68     		ldr	r3, [r7, #4]
ARM GAS  /tmp/cc2zcHeL.s 			page 13


 349 0036 244A     		ldr	r2, .L25+12
 350 0038 9342     		cmp	r3, r2
 351 003a 03D0     		beq	.L20
 301:../Shared/Libraries/STM32F4xx_StdPeriph_Driver/src/stm32f4xx_tim.c ****      (TIMx == TIM4) || (TIMx == TIM5)) 
 352              		.loc 1 301 21
 353 003c 7B68     		ldr	r3, [r7, #4]
 354 003e 234A     		ldr	r2, .L25+16
 355 0040 9342     		cmp	r3, r2
 356 0042 08D1     		bne	.L21
 357              	.L20:
 302:../Shared/Libraries/STM32F4xx_StdPeriph_Driver/src/stm32f4xx_tim.c ****   {
 303:../Shared/Libraries/STM32F4xx_StdPeriph_Driver/src/stm32f4xx_tim.c ****     /* Select the Counter Mode */
 304:../Shared/Libraries/STM32F4xx_StdPeriph_Driver/src/stm32f4xx_tim.c ****     tmpcr1 &= (uint16_t)(~(TIM_CR1_DIR | TIM_CR1_CMS));
 358              		.loc 1 304 12
 359 0044 FB89     		ldrh	r3, [r7, #14]	@ movhi
 360 0046 23F07003 		bic	r3, r3, #112
 361 004a FB81     		strh	r3, [r7, #14]	@ movhi
 305:../Shared/Libraries/STM32F4xx_StdPeriph_Driver/src/stm32f4xx_tim.c ****     tmpcr1 |= (uint32_t)TIM_TimeBaseInitStruct->TIM_CounterMode;
 362              		.loc 1 305 47
 363 004c 3B68     		ldr	r3, [r7]
 364 004e 5A88     		ldrh	r2, [r3, #2]
 365              		.loc 1 305 12
 366 0050 FB89     		ldrh	r3, [r7, #14]	@ movhi
 367 0052 1343     		orrs	r3, r3, r2
 368 0054 FB81     		strh	r3, [r7, #14]	@ movhi
 369              	.L21:
 306:../Shared/Libraries/STM32F4xx_StdPeriph_Driver/src/stm32f4xx_tim.c ****   }
 307:../Shared/Libraries/STM32F4xx_StdPeriph_Driver/src/stm32f4xx_tim.c ****  
 308:../Shared/Libraries/STM32F4xx_StdPeriph_Driver/src/stm32f4xx_tim.c ****   if((TIMx != TIM6) && (TIMx != TIM7))
 370              		.loc 1 308 5
 371 0056 7B68     		ldr	r3, [r7, #4]
 372 0058 1D4A     		ldr	r2, .L25+20
 373 005a 9342     		cmp	r3, r2
 374 005c 0CD0     		beq	.L22
 375              		.loc 1 308 21 discriminator 1
 376 005e 7B68     		ldr	r3, [r7, #4]
 377 0060 1C4A     		ldr	r2, .L25+24
 378 0062 9342     		cmp	r3, r2
 379 0064 08D0     		beq	.L22
 309:../Shared/Libraries/STM32F4xx_StdPeriph_Driver/src/stm32f4xx_tim.c ****   {
 310:../Shared/Libraries/STM32F4xx_StdPeriph_Driver/src/stm32f4xx_tim.c ****     /* Set the clock division */
 311:../Shared/Libraries/STM32F4xx_StdPeriph_Driver/src/stm32f4xx_tim.c ****     tmpcr1 &=  (uint16_t)(~TIM_CR1_CKD);
 380              		.loc 1 311 12
 381 0066 FB89     		ldrh	r3, [r7, #14]	@ movhi
 382 0068 23F44073 		bic	r3, r3, #768
 383 006c FB81     		strh	r3, [r7, #14]	@ movhi
 312:../Shared/Libraries/STM32F4xx_StdPeriph_Driver/src/stm32f4xx_tim.c ****     tmpcr1 |= (uint32_t)TIM_TimeBaseInitStruct->TIM_ClockDivision;
 384              		.loc 1 312 47
 385 006e 3B68     		ldr	r3, [r7]
 386 0070 1A89     		ldrh	r2, [r3, #8]
 387              		.loc 1 312 12
 388 0072 FB89     		ldrh	r3, [r7, #14]	@ movhi
 389 0074 1343     		orrs	r3, r3, r2
 390 0076 FB81     		strh	r3, [r7, #14]	@ movhi
 391              	.L22:
 313:../Shared/Libraries/STM32F4xx_StdPeriph_Driver/src/stm32f4xx_tim.c ****   }
 314:../Shared/Libraries/STM32F4xx_StdPeriph_Driver/src/stm32f4xx_tim.c **** 
ARM GAS  /tmp/cc2zcHeL.s 			page 14


 315:../Shared/Libraries/STM32F4xx_StdPeriph_Driver/src/stm32f4xx_tim.c ****   TIMx->CR1 = tmpcr1;
 392              		.loc 1 315 13
 393 0078 7B68     		ldr	r3, [r7, #4]
 394 007a FA89     		ldrh	r2, [r7, #14]	@ movhi
 395 007c 1A80     		strh	r2, [r3]	@ movhi
 316:../Shared/Libraries/STM32F4xx_StdPeriph_Driver/src/stm32f4xx_tim.c **** 
 317:../Shared/Libraries/STM32F4xx_StdPeriph_Driver/src/stm32f4xx_tim.c ****   /* Set the Autoreload value */
 318:../Shared/Libraries/STM32F4xx_StdPeriph_Driver/src/stm32f4xx_tim.c ****   TIMx->ARR = TIM_TimeBaseInitStruct->TIM_Period ;
 396              		.loc 1 318 37
 397 007e 3B68     		ldr	r3, [r7]
 398 0080 5A68     		ldr	r2, [r3, #4]
 399              		.loc 1 318 13
 400 0082 7B68     		ldr	r3, [r7, #4]
 401 0084 DA62     		str	r2, [r3, #44]
 319:../Shared/Libraries/STM32F4xx_StdPeriph_Driver/src/stm32f4xx_tim.c ****  
 320:../Shared/Libraries/STM32F4xx_StdPeriph_Driver/src/stm32f4xx_tim.c ****   /* Set the Prescaler value */
 321:../Shared/Libraries/STM32F4xx_StdPeriph_Driver/src/stm32f4xx_tim.c ****   TIMx->PSC = TIM_TimeBaseInitStruct->TIM_Prescaler;
 402              		.loc 1 321 37
 403 0086 3B68     		ldr	r3, [r7]
 404 0088 1A88     		ldrh	r2, [r3]
 405              		.loc 1 321 13
 406 008a 7B68     		ldr	r3, [r7, #4]
 407 008c 1A85     		strh	r2, [r3, #40]	@ movhi
 322:../Shared/Libraries/STM32F4xx_StdPeriph_Driver/src/stm32f4xx_tim.c ****     
 323:../Shared/Libraries/STM32F4xx_StdPeriph_Driver/src/stm32f4xx_tim.c ****   if ((TIMx == TIM1) || (TIMx == TIM8))  
 408              		.loc 1 323 6
 409 008e 7B68     		ldr	r3, [r7, #4]
 410 0090 0A4A     		ldr	r2, .L25
 411 0092 9342     		cmp	r3, r2
 412 0094 03D0     		beq	.L23
 413              		.loc 1 323 22 discriminator 1
 414 0096 7B68     		ldr	r3, [r7, #4]
 415 0098 094A     		ldr	r2, .L25+4
 416 009a 9342     		cmp	r3, r2
 417 009c 04D1     		bne	.L24
 418              	.L23:
 324:../Shared/Libraries/STM32F4xx_StdPeriph_Driver/src/stm32f4xx_tim.c ****   {
 325:../Shared/Libraries/STM32F4xx_StdPeriph_Driver/src/stm32f4xx_tim.c ****     /* Set the Repetition Counter value */
 326:../Shared/Libraries/STM32F4xx_StdPeriph_Driver/src/stm32f4xx_tim.c ****     TIMx->RCR = TIM_TimeBaseInitStruct->TIM_RepetitionCounter;
 419              		.loc 1 326 39
 420 009e 3B68     		ldr	r3, [r7]
 421 00a0 9B7A     		ldrb	r3, [r3, #10]	@ zero_extendqisi2
 422 00a2 1A46     		mov	r2, r3
 423              		.loc 1 326 15
 424 00a4 7B68     		ldr	r3, [r7, #4]
 425 00a6 1A86     		strh	r2, [r3, #48]	@ movhi
 426              	.L24:
 327:../Shared/Libraries/STM32F4xx_StdPeriph_Driver/src/stm32f4xx_tim.c ****   }
 328:../Shared/Libraries/STM32F4xx_StdPeriph_Driver/src/stm32f4xx_tim.c **** 
 329:../Shared/Libraries/STM32F4xx_StdPeriph_Driver/src/stm32f4xx_tim.c ****   /* Generate an update event to reload the Prescaler 
 330:../Shared/Libraries/STM32F4xx_StdPeriph_Driver/src/stm32f4xx_tim.c ****      and the repetition counter(only for TIM1 and TIM8) value immediatly */
 331:../Shared/Libraries/STM32F4xx_StdPeriph_Driver/src/stm32f4xx_tim.c ****   TIMx->EGR = TIM_PSCReloadMode_Immediate;          
 427              		.loc 1 331 13
 428 00a8 7B68     		ldr	r3, [r7, #4]
 429 00aa 0122     		movs	r2, #1
 430 00ac 9A82     		strh	r2, [r3, #20]	@ movhi
 332:../Shared/Libraries/STM32F4xx_StdPeriph_Driver/src/stm32f4xx_tim.c **** }
ARM GAS  /tmp/cc2zcHeL.s 			page 15


 431              		.loc 1 332 1
 432 00ae 00BF     		nop
 433 00b0 1437     		adds	r7, r7, #20
 434              	.LCFI8:
 435              		.cfi_def_cfa_offset 4
 436 00b2 BD46     		mov	sp, r7
 437              	.LCFI9:
 438              		.cfi_def_cfa_register 13
 439              		@ sp needed
 440 00b4 5DF8047B 		ldr	r7, [sp], #4
 441              	.LCFI10:
 442              		.cfi_restore 7
 443              		.cfi_def_cfa_offset 0
 444 00b8 7047     		bx	lr
 445              	.L26:
 446 00ba 00BF     		.align	2
 447              	.L25:
 448 00bc 00000140 		.word	1073807360
 449 00c0 00040140 		.word	1073808384
 450 00c4 00040040 		.word	1073742848
 451 00c8 00080040 		.word	1073743872
 452 00cc 000C0040 		.word	1073744896
 453 00d0 00100040 		.word	1073745920
 454 00d4 00140040 		.word	1073746944
 455              		.cfi_endproc
 456              	.LFE111:
 458              		.section	.text.TIM_TimeBaseStructInit,"ax",%progbits
 459              		.align	1
 460              		.global	TIM_TimeBaseStructInit
 461              		.syntax unified
 462              		.thumb
 463              		.thumb_func
 465              	TIM_TimeBaseStructInit:
 466              	.LFB112:
 333:../Shared/Libraries/STM32F4xx_StdPeriph_Driver/src/stm32f4xx_tim.c **** 
 334:../Shared/Libraries/STM32F4xx_StdPeriph_Driver/src/stm32f4xx_tim.c **** /**
 335:../Shared/Libraries/STM32F4xx_StdPeriph_Driver/src/stm32f4xx_tim.c ****   * @brief  Fills each TIM_TimeBaseInitStruct member with its default value.
 336:../Shared/Libraries/STM32F4xx_StdPeriph_Driver/src/stm32f4xx_tim.c ****   * @param  TIM_TimeBaseInitStruct : pointer to a TIM_TimeBaseInitTypeDef
 337:../Shared/Libraries/STM32F4xx_StdPeriph_Driver/src/stm32f4xx_tim.c ****   *         structure which will be initialized.
 338:../Shared/Libraries/STM32F4xx_StdPeriph_Driver/src/stm32f4xx_tim.c ****   * @retval None
 339:../Shared/Libraries/STM32F4xx_StdPeriph_Driver/src/stm32f4xx_tim.c ****   */
 340:../Shared/Libraries/STM32F4xx_StdPeriph_Driver/src/stm32f4xx_tim.c **** void TIM_TimeBaseStructInit(TIM_TimeBaseInitTypeDef* TIM_TimeBaseInitStruct)
 341:../Shared/Libraries/STM32F4xx_StdPeriph_Driver/src/stm32f4xx_tim.c **** {
 467              		.loc 1 341 1
 468              		.cfi_startproc
 469              		@ args = 0, pretend = 0, frame = 8
 470              		@ frame_needed = 1, uses_anonymous_args = 0
 471              		@ link register save eliminated.
 472 0000 80B4     		push	{r7}
 473              	.LCFI11:
 474              		.cfi_def_cfa_offset 4
 475              		.cfi_offset 7, -4
 476 0002 83B0     		sub	sp, sp, #12
 477              	.LCFI12:
 478              		.cfi_def_cfa_offset 16
 479 0004 00AF     		add	r7, sp, #0
 480              	.LCFI13:
ARM GAS  /tmp/cc2zcHeL.s 			page 16


 481              		.cfi_def_cfa_register 7
 482 0006 7860     		str	r0, [r7, #4]
 342:../Shared/Libraries/STM32F4xx_StdPeriph_Driver/src/stm32f4xx_tim.c ****   /* Set the default configuration */
 343:../Shared/Libraries/STM32F4xx_StdPeriph_Driver/src/stm32f4xx_tim.c ****   TIM_TimeBaseInitStruct->TIM_Period = 0xFFFFFFFF;
 483              		.loc 1 343 38
 484 0008 7B68     		ldr	r3, [r7, #4]
 485 000a 4FF0FF32 		mov	r2, #-1
 486 000e 5A60     		str	r2, [r3, #4]
 344:../Shared/Libraries/STM32F4xx_StdPeriph_Driver/src/stm32f4xx_tim.c ****   TIM_TimeBaseInitStruct->TIM_Prescaler = 0x0000;
 487              		.loc 1 344 41
 488 0010 7B68     		ldr	r3, [r7, #4]
 489 0012 0022     		movs	r2, #0
 490 0014 1A80     		strh	r2, [r3]	@ movhi
 345:../Shared/Libraries/STM32F4xx_StdPeriph_Driver/src/stm32f4xx_tim.c ****   TIM_TimeBaseInitStruct->TIM_ClockDivision = TIM_CKD_DIV1;
 491              		.loc 1 345 45
 492 0016 7B68     		ldr	r3, [r7, #4]
 493 0018 0022     		movs	r2, #0
 494 001a 1A81     		strh	r2, [r3, #8]	@ movhi
 346:../Shared/Libraries/STM32F4xx_StdPeriph_Driver/src/stm32f4xx_tim.c ****   TIM_TimeBaseInitStruct->TIM_CounterMode = TIM_CounterMode_Up;
 495              		.loc 1 346 43
 496 001c 7B68     		ldr	r3, [r7, #4]
 497 001e 0022     		movs	r2, #0
 498 0020 5A80     		strh	r2, [r3, #2]	@ movhi
 347:../Shared/Libraries/STM32F4xx_StdPeriph_Driver/src/stm32f4xx_tim.c ****   TIM_TimeBaseInitStruct->TIM_RepetitionCounter = 0x0000;
 499              		.loc 1 347 49
 500 0022 7B68     		ldr	r3, [r7, #4]
 501 0024 0022     		movs	r2, #0
 502 0026 9A72     		strb	r2, [r3, #10]
 348:../Shared/Libraries/STM32F4xx_StdPeriph_Driver/src/stm32f4xx_tim.c **** }
 503              		.loc 1 348 1
 504 0028 00BF     		nop
 505 002a 0C37     		adds	r7, r7, #12
 506              	.LCFI14:
 507              		.cfi_def_cfa_offset 4
 508 002c BD46     		mov	sp, r7
 509              	.LCFI15:
 510              		.cfi_def_cfa_register 13
 511              		@ sp needed
 512 002e 5DF8047B 		ldr	r7, [sp], #4
 513              	.LCFI16:
 514              		.cfi_restore 7
 515              		.cfi_def_cfa_offset 0
 516 0032 7047     		bx	lr
 517              		.cfi_endproc
 518              	.LFE112:
 520              		.section	.text.TIM_PrescalerConfig,"ax",%progbits
 521              		.align	1
 522              		.global	TIM_PrescalerConfig
 523              		.syntax unified
 524              		.thumb
 525              		.thumb_func
 527              	TIM_PrescalerConfig:
 528              	.LFB113:
 349:../Shared/Libraries/STM32F4xx_StdPeriph_Driver/src/stm32f4xx_tim.c **** 
 350:../Shared/Libraries/STM32F4xx_StdPeriph_Driver/src/stm32f4xx_tim.c **** /**
 351:../Shared/Libraries/STM32F4xx_StdPeriph_Driver/src/stm32f4xx_tim.c ****   * @brief  Configures the TIMx Prescaler.
 352:../Shared/Libraries/STM32F4xx_StdPeriph_Driver/src/stm32f4xx_tim.c ****   * @param  TIMx: where x can be  1 to 14 to select the TIM peripheral.
ARM GAS  /tmp/cc2zcHeL.s 			page 17


 353:../Shared/Libraries/STM32F4xx_StdPeriph_Driver/src/stm32f4xx_tim.c ****   * @param  Prescaler: specifies the Prescaler Register value
 354:../Shared/Libraries/STM32F4xx_StdPeriph_Driver/src/stm32f4xx_tim.c ****   * @param  TIM_PSCReloadMode: specifies the TIM Prescaler Reload mode
 355:../Shared/Libraries/STM32F4xx_StdPeriph_Driver/src/stm32f4xx_tim.c ****   *          This parameter can be one of the following values:
 356:../Shared/Libraries/STM32F4xx_StdPeriph_Driver/src/stm32f4xx_tim.c ****   *            @arg TIM_PSCReloadMode_Update: The Prescaler is loaded at the update event.
 357:../Shared/Libraries/STM32F4xx_StdPeriph_Driver/src/stm32f4xx_tim.c ****   *            @arg TIM_PSCReloadMode_Immediate: The Prescaler is loaded immediatly.
 358:../Shared/Libraries/STM32F4xx_StdPeriph_Driver/src/stm32f4xx_tim.c ****   * @retval None
 359:../Shared/Libraries/STM32F4xx_StdPeriph_Driver/src/stm32f4xx_tim.c ****   */
 360:../Shared/Libraries/STM32F4xx_StdPeriph_Driver/src/stm32f4xx_tim.c **** void TIM_PrescalerConfig(TIM_TypeDef* TIMx, uint16_t Prescaler, uint16_t TIM_PSCReloadMode)
 361:../Shared/Libraries/STM32F4xx_StdPeriph_Driver/src/stm32f4xx_tim.c **** {
 529              		.loc 1 361 1
 530              		.cfi_startproc
 531              		@ args = 0, pretend = 0, frame = 8
 532              		@ frame_needed = 1, uses_anonymous_args = 0
 533              		@ link register save eliminated.
 534 0000 80B4     		push	{r7}
 535              	.LCFI17:
 536              		.cfi_def_cfa_offset 4
 537              		.cfi_offset 7, -4
 538 0002 83B0     		sub	sp, sp, #12
 539              	.LCFI18:
 540              		.cfi_def_cfa_offset 16
 541 0004 00AF     		add	r7, sp, #0
 542              	.LCFI19:
 543              		.cfi_def_cfa_register 7
 544 0006 7860     		str	r0, [r7, #4]
 545 0008 0B46     		mov	r3, r1
 546 000a 7B80     		strh	r3, [r7, #2]	@ movhi
 547 000c 1346     		mov	r3, r2	@ movhi
 548 000e 3B80     		strh	r3, [r7]	@ movhi
 362:../Shared/Libraries/STM32F4xx_StdPeriph_Driver/src/stm32f4xx_tim.c ****   /* Check the parameters */
 363:../Shared/Libraries/STM32F4xx_StdPeriph_Driver/src/stm32f4xx_tim.c ****   assert_param(IS_TIM_ALL_PERIPH(TIMx));
 364:../Shared/Libraries/STM32F4xx_StdPeriph_Driver/src/stm32f4xx_tim.c ****   assert_param(IS_TIM_PRESCALER_RELOAD(TIM_PSCReloadMode));
 365:../Shared/Libraries/STM32F4xx_StdPeriph_Driver/src/stm32f4xx_tim.c ****   /* Set the Prescaler value */
 366:../Shared/Libraries/STM32F4xx_StdPeriph_Driver/src/stm32f4xx_tim.c ****   TIMx->PSC = Prescaler;
 549              		.loc 1 366 13
 550 0010 7B68     		ldr	r3, [r7, #4]
 551 0012 7A88     		ldrh	r2, [r7, #2]	@ movhi
 552 0014 1A85     		strh	r2, [r3, #40]	@ movhi
 367:../Shared/Libraries/STM32F4xx_StdPeriph_Driver/src/stm32f4xx_tim.c ****   /* Set or reset the UG Bit */
 368:../Shared/Libraries/STM32F4xx_StdPeriph_Driver/src/stm32f4xx_tim.c ****   TIMx->EGR = TIM_PSCReloadMode;
 553              		.loc 1 368 13
 554 0016 7B68     		ldr	r3, [r7, #4]
 555 0018 3A88     		ldrh	r2, [r7]	@ movhi
 556 001a 9A82     		strh	r2, [r3, #20]	@ movhi
 369:../Shared/Libraries/STM32F4xx_StdPeriph_Driver/src/stm32f4xx_tim.c **** }
 557              		.loc 1 369 1
 558 001c 00BF     		nop
 559 001e 0C37     		adds	r7, r7, #12
 560              	.LCFI20:
 561              		.cfi_def_cfa_offset 4
 562 0020 BD46     		mov	sp, r7
 563              	.LCFI21:
 564              		.cfi_def_cfa_register 13
 565              		@ sp needed
 566 0022 5DF8047B 		ldr	r7, [sp], #4
 567              	.LCFI22:
 568              		.cfi_restore 7
ARM GAS  /tmp/cc2zcHeL.s 			page 18


 569              		.cfi_def_cfa_offset 0
 570 0026 7047     		bx	lr
 571              		.cfi_endproc
 572              	.LFE113:
 574              		.section	.text.TIM_CounterModeConfig,"ax",%progbits
 575              		.align	1
 576              		.global	TIM_CounterModeConfig
 577              		.syntax unified
 578              		.thumb
 579              		.thumb_func
 581              	TIM_CounterModeConfig:
 582              	.LFB114:
 370:../Shared/Libraries/STM32F4xx_StdPeriph_Driver/src/stm32f4xx_tim.c **** 
 371:../Shared/Libraries/STM32F4xx_StdPeriph_Driver/src/stm32f4xx_tim.c **** /**
 372:../Shared/Libraries/STM32F4xx_StdPeriph_Driver/src/stm32f4xx_tim.c ****   * @brief  Specifies the TIMx Counter Mode to be used.
 373:../Shared/Libraries/STM32F4xx_StdPeriph_Driver/src/stm32f4xx_tim.c ****   * @param  TIMx: where x can be  1, 2, 3, 4, 5 or 8 to select the TIM peripheral.
 374:../Shared/Libraries/STM32F4xx_StdPeriph_Driver/src/stm32f4xx_tim.c ****   * @param  TIM_CounterMode: specifies the Counter Mode to be used
 375:../Shared/Libraries/STM32F4xx_StdPeriph_Driver/src/stm32f4xx_tim.c ****   *          This parameter can be one of the following values:
 376:../Shared/Libraries/STM32F4xx_StdPeriph_Driver/src/stm32f4xx_tim.c ****   *            @arg TIM_CounterMode_Up: TIM Up Counting Mode
 377:../Shared/Libraries/STM32F4xx_StdPeriph_Driver/src/stm32f4xx_tim.c ****   *            @arg TIM_CounterMode_Down: TIM Down Counting Mode
 378:../Shared/Libraries/STM32F4xx_StdPeriph_Driver/src/stm32f4xx_tim.c ****   *            @arg TIM_CounterMode_CenterAligned1: TIM Center Aligned Mode1
 379:../Shared/Libraries/STM32F4xx_StdPeriph_Driver/src/stm32f4xx_tim.c ****   *            @arg TIM_CounterMode_CenterAligned2: TIM Center Aligned Mode2
 380:../Shared/Libraries/STM32F4xx_StdPeriph_Driver/src/stm32f4xx_tim.c ****   *            @arg TIM_CounterMode_CenterAligned3: TIM Center Aligned Mode3
 381:../Shared/Libraries/STM32F4xx_StdPeriph_Driver/src/stm32f4xx_tim.c ****   * @retval None
 382:../Shared/Libraries/STM32F4xx_StdPeriph_Driver/src/stm32f4xx_tim.c ****   */
 383:../Shared/Libraries/STM32F4xx_StdPeriph_Driver/src/stm32f4xx_tim.c **** void TIM_CounterModeConfig(TIM_TypeDef* TIMx, uint16_t TIM_CounterMode)
 384:../Shared/Libraries/STM32F4xx_StdPeriph_Driver/src/stm32f4xx_tim.c **** {
 583              		.loc 1 384 1
 584              		.cfi_startproc
 585              		@ args = 0, pretend = 0, frame = 16
 586              		@ frame_needed = 1, uses_anonymous_args = 0
 587              		@ link register save eliminated.
 588 0000 80B4     		push	{r7}
 589              	.LCFI23:
 590              		.cfi_def_cfa_offset 4
 591              		.cfi_offset 7, -4
 592 0002 85B0     		sub	sp, sp, #20
 593              	.LCFI24:
 594              		.cfi_def_cfa_offset 24
 595 0004 00AF     		add	r7, sp, #0
 596              	.LCFI25:
 597              		.cfi_def_cfa_register 7
 598 0006 7860     		str	r0, [r7, #4]
 599 0008 0B46     		mov	r3, r1
 600 000a 7B80     		strh	r3, [r7, #2]	@ movhi
 385:../Shared/Libraries/STM32F4xx_StdPeriph_Driver/src/stm32f4xx_tim.c ****   uint16_t tmpcr1 = 0;
 601              		.loc 1 385 12
 602 000c 0023     		movs	r3, #0
 603 000e FB81     		strh	r3, [r7, #14]	@ movhi
 386:../Shared/Libraries/STM32F4xx_StdPeriph_Driver/src/stm32f4xx_tim.c **** 
 387:../Shared/Libraries/STM32F4xx_StdPeriph_Driver/src/stm32f4xx_tim.c ****   /* Check the parameters */
 388:../Shared/Libraries/STM32F4xx_StdPeriph_Driver/src/stm32f4xx_tim.c ****   assert_param(IS_TIM_LIST3_PERIPH(TIMx));
 389:../Shared/Libraries/STM32F4xx_StdPeriph_Driver/src/stm32f4xx_tim.c ****   assert_param(IS_TIM_COUNTER_MODE(TIM_CounterMode));
 390:../Shared/Libraries/STM32F4xx_StdPeriph_Driver/src/stm32f4xx_tim.c **** 
 391:../Shared/Libraries/STM32F4xx_StdPeriph_Driver/src/stm32f4xx_tim.c ****   tmpcr1 = TIMx->CR1;
 604              		.loc 1 391 10
 605 0010 7B68     		ldr	r3, [r7, #4]
ARM GAS  /tmp/cc2zcHeL.s 			page 19


 606 0012 1B88     		ldrh	r3, [r3]	@ movhi
 607 0014 FB81     		strh	r3, [r7, #14]	@ movhi
 392:../Shared/Libraries/STM32F4xx_StdPeriph_Driver/src/stm32f4xx_tim.c **** 
 393:../Shared/Libraries/STM32F4xx_StdPeriph_Driver/src/stm32f4xx_tim.c ****   /* Reset the CMS and DIR Bits */
 394:../Shared/Libraries/STM32F4xx_StdPeriph_Driver/src/stm32f4xx_tim.c ****   tmpcr1 &= (uint16_t)~(TIM_CR1_DIR | TIM_CR1_CMS);
 608              		.loc 1 394 10
 609 0016 FB89     		ldrh	r3, [r7, #14]	@ movhi
 610 0018 23F07003 		bic	r3, r3, #112
 611 001c FB81     		strh	r3, [r7, #14]	@ movhi
 395:../Shared/Libraries/STM32F4xx_StdPeriph_Driver/src/stm32f4xx_tim.c **** 
 396:../Shared/Libraries/STM32F4xx_StdPeriph_Driver/src/stm32f4xx_tim.c ****   /* Set the Counter Mode */
 397:../Shared/Libraries/STM32F4xx_StdPeriph_Driver/src/stm32f4xx_tim.c ****   tmpcr1 |= TIM_CounterMode;
 612              		.loc 1 397 10
 613 001e FA89     		ldrh	r2, [r7, #14]	@ movhi
 614 0020 7B88     		ldrh	r3, [r7, #2]	@ movhi
 615 0022 1343     		orrs	r3, r3, r2
 616 0024 FB81     		strh	r3, [r7, #14]	@ movhi
 398:../Shared/Libraries/STM32F4xx_StdPeriph_Driver/src/stm32f4xx_tim.c **** 
 399:../Shared/Libraries/STM32F4xx_StdPeriph_Driver/src/stm32f4xx_tim.c ****   /* Write to TIMx CR1 register */
 400:../Shared/Libraries/STM32F4xx_StdPeriph_Driver/src/stm32f4xx_tim.c ****   TIMx->CR1 = tmpcr1;
 617              		.loc 1 400 13
 618 0026 7B68     		ldr	r3, [r7, #4]
 619 0028 FA89     		ldrh	r2, [r7, #14]	@ movhi
 620 002a 1A80     		strh	r2, [r3]	@ movhi
 401:../Shared/Libraries/STM32F4xx_StdPeriph_Driver/src/stm32f4xx_tim.c **** }
 621              		.loc 1 401 1
 622 002c 00BF     		nop
 623 002e 1437     		adds	r7, r7, #20
 624              	.LCFI26:
 625              		.cfi_def_cfa_offset 4
 626 0030 BD46     		mov	sp, r7
 627              	.LCFI27:
 628              		.cfi_def_cfa_register 13
 629              		@ sp needed
 630 0032 5DF8047B 		ldr	r7, [sp], #4
 631              	.LCFI28:
 632              		.cfi_restore 7
 633              		.cfi_def_cfa_offset 0
 634 0036 7047     		bx	lr
 635              		.cfi_endproc
 636              	.LFE114:
 638              		.section	.text.TIM_SetCounter,"ax",%progbits
 639              		.align	1
 640              		.global	TIM_SetCounter
 641              		.syntax unified
 642              		.thumb
 643              		.thumb_func
 645              	TIM_SetCounter:
 646              	.LFB115:
 402:../Shared/Libraries/STM32F4xx_StdPeriph_Driver/src/stm32f4xx_tim.c **** 
 403:../Shared/Libraries/STM32F4xx_StdPeriph_Driver/src/stm32f4xx_tim.c **** /**
 404:../Shared/Libraries/STM32F4xx_StdPeriph_Driver/src/stm32f4xx_tim.c ****   * @brief  Sets the TIMx Counter Register value
 405:../Shared/Libraries/STM32F4xx_StdPeriph_Driver/src/stm32f4xx_tim.c ****   * @param  TIMx: where x can be 1 to 14 to select the TIM peripheral.
 406:../Shared/Libraries/STM32F4xx_StdPeriph_Driver/src/stm32f4xx_tim.c ****   * @param  Counter: specifies the Counter register new value.
 407:../Shared/Libraries/STM32F4xx_StdPeriph_Driver/src/stm32f4xx_tim.c ****   * @retval None
 408:../Shared/Libraries/STM32F4xx_StdPeriph_Driver/src/stm32f4xx_tim.c ****   */
 409:../Shared/Libraries/STM32F4xx_StdPeriph_Driver/src/stm32f4xx_tim.c **** void TIM_SetCounter(TIM_TypeDef* TIMx, uint32_t Counter)
ARM GAS  /tmp/cc2zcHeL.s 			page 20


 410:../Shared/Libraries/STM32F4xx_StdPeriph_Driver/src/stm32f4xx_tim.c **** {
 647              		.loc 1 410 1
 648              		.cfi_startproc
 649              		@ args = 0, pretend = 0, frame = 8
 650              		@ frame_needed = 1, uses_anonymous_args = 0
 651              		@ link register save eliminated.
 652 0000 80B4     		push	{r7}
 653              	.LCFI29:
 654              		.cfi_def_cfa_offset 4
 655              		.cfi_offset 7, -4
 656 0002 83B0     		sub	sp, sp, #12
 657              	.LCFI30:
 658              		.cfi_def_cfa_offset 16
 659 0004 00AF     		add	r7, sp, #0
 660              	.LCFI31:
 661              		.cfi_def_cfa_register 7
 662 0006 7860     		str	r0, [r7, #4]
 663 0008 3960     		str	r1, [r7]
 411:../Shared/Libraries/STM32F4xx_StdPeriph_Driver/src/stm32f4xx_tim.c ****   /* Check the parameters */
 412:../Shared/Libraries/STM32F4xx_StdPeriph_Driver/src/stm32f4xx_tim.c ****    assert_param(IS_TIM_ALL_PERIPH(TIMx));
 413:../Shared/Libraries/STM32F4xx_StdPeriph_Driver/src/stm32f4xx_tim.c **** 
 414:../Shared/Libraries/STM32F4xx_StdPeriph_Driver/src/stm32f4xx_tim.c ****   /* Set the Counter Register value */
 415:../Shared/Libraries/STM32F4xx_StdPeriph_Driver/src/stm32f4xx_tim.c ****   TIMx->CNT = Counter;
 664              		.loc 1 415 13
 665 000a 7B68     		ldr	r3, [r7, #4]
 666 000c 3A68     		ldr	r2, [r7]
 667 000e 5A62     		str	r2, [r3, #36]
 416:../Shared/Libraries/STM32F4xx_StdPeriph_Driver/src/stm32f4xx_tim.c **** }
 668              		.loc 1 416 1
 669 0010 00BF     		nop
 670 0012 0C37     		adds	r7, r7, #12
 671              	.LCFI32:
 672              		.cfi_def_cfa_offset 4
 673 0014 BD46     		mov	sp, r7
 674              	.LCFI33:
 675              		.cfi_def_cfa_register 13
 676              		@ sp needed
 677 0016 5DF8047B 		ldr	r7, [sp], #4
 678              	.LCFI34:
 679              		.cfi_restore 7
 680              		.cfi_def_cfa_offset 0
 681 001a 7047     		bx	lr
 682              		.cfi_endproc
 683              	.LFE115:
 685              		.section	.text.TIM_SetAutoreload,"ax",%progbits
 686              		.align	1
 687              		.global	TIM_SetAutoreload
 688              		.syntax unified
 689              		.thumb
 690              		.thumb_func
 692              	TIM_SetAutoreload:
 693              	.LFB116:
 417:../Shared/Libraries/STM32F4xx_StdPeriph_Driver/src/stm32f4xx_tim.c **** 
 418:../Shared/Libraries/STM32F4xx_StdPeriph_Driver/src/stm32f4xx_tim.c **** /**
 419:../Shared/Libraries/STM32F4xx_StdPeriph_Driver/src/stm32f4xx_tim.c ****   * @brief  Sets the TIMx Autoreload Register value
 420:../Shared/Libraries/STM32F4xx_StdPeriph_Driver/src/stm32f4xx_tim.c ****   * @param  TIMx: where x can be 1 to 14 to select the TIM peripheral.
 421:../Shared/Libraries/STM32F4xx_StdPeriph_Driver/src/stm32f4xx_tim.c ****   * @param  Autoreload: specifies the Autoreload register new value.
ARM GAS  /tmp/cc2zcHeL.s 			page 21


 422:../Shared/Libraries/STM32F4xx_StdPeriph_Driver/src/stm32f4xx_tim.c ****   * @retval None
 423:../Shared/Libraries/STM32F4xx_StdPeriph_Driver/src/stm32f4xx_tim.c ****   */
 424:../Shared/Libraries/STM32F4xx_StdPeriph_Driver/src/stm32f4xx_tim.c **** void TIM_SetAutoreload(TIM_TypeDef* TIMx, uint32_t Autoreload)
 425:../Shared/Libraries/STM32F4xx_StdPeriph_Driver/src/stm32f4xx_tim.c **** {
 694              		.loc 1 425 1
 695              		.cfi_startproc
 696              		@ args = 0, pretend = 0, frame = 8
 697              		@ frame_needed = 1, uses_anonymous_args = 0
 698              		@ link register save eliminated.
 699 0000 80B4     		push	{r7}
 700              	.LCFI35:
 701              		.cfi_def_cfa_offset 4
 702              		.cfi_offset 7, -4
 703 0002 83B0     		sub	sp, sp, #12
 704              	.LCFI36:
 705              		.cfi_def_cfa_offset 16
 706 0004 00AF     		add	r7, sp, #0
 707              	.LCFI37:
 708              		.cfi_def_cfa_register 7
 709 0006 7860     		str	r0, [r7, #4]
 710 0008 3960     		str	r1, [r7]
 426:../Shared/Libraries/STM32F4xx_StdPeriph_Driver/src/stm32f4xx_tim.c ****   /* Check the parameters */
 427:../Shared/Libraries/STM32F4xx_StdPeriph_Driver/src/stm32f4xx_tim.c ****   assert_param(IS_TIM_ALL_PERIPH(TIMx));
 428:../Shared/Libraries/STM32F4xx_StdPeriph_Driver/src/stm32f4xx_tim.c ****   
 429:../Shared/Libraries/STM32F4xx_StdPeriph_Driver/src/stm32f4xx_tim.c ****   /* Set the Autoreload Register value */
 430:../Shared/Libraries/STM32F4xx_StdPeriph_Driver/src/stm32f4xx_tim.c ****   TIMx->ARR = Autoreload;
 711              		.loc 1 430 13
 712 000a 7B68     		ldr	r3, [r7, #4]
 713 000c 3A68     		ldr	r2, [r7]
 714 000e DA62     		str	r2, [r3, #44]
 431:../Shared/Libraries/STM32F4xx_StdPeriph_Driver/src/stm32f4xx_tim.c **** }
 715              		.loc 1 431 1
 716 0010 00BF     		nop
 717 0012 0C37     		adds	r7, r7, #12
 718              	.LCFI38:
 719              		.cfi_def_cfa_offset 4
 720 0014 BD46     		mov	sp, r7
 721              	.LCFI39:
 722              		.cfi_def_cfa_register 13
 723              		@ sp needed
 724 0016 5DF8047B 		ldr	r7, [sp], #4
 725              	.LCFI40:
 726              		.cfi_restore 7
 727              		.cfi_def_cfa_offset 0
 728 001a 7047     		bx	lr
 729              		.cfi_endproc
 730              	.LFE116:
 732              		.section	.text.TIM_GetCounter,"ax",%progbits
 733              		.align	1
 734              		.global	TIM_GetCounter
 735              		.syntax unified
 736              		.thumb
 737              		.thumb_func
 739              	TIM_GetCounter:
 740              	.LFB117:
 432:../Shared/Libraries/STM32F4xx_StdPeriph_Driver/src/stm32f4xx_tim.c **** 
 433:../Shared/Libraries/STM32F4xx_StdPeriph_Driver/src/stm32f4xx_tim.c **** /**
ARM GAS  /tmp/cc2zcHeL.s 			page 22


 434:../Shared/Libraries/STM32F4xx_StdPeriph_Driver/src/stm32f4xx_tim.c ****   * @brief  Gets the TIMx Counter value.
 435:../Shared/Libraries/STM32F4xx_StdPeriph_Driver/src/stm32f4xx_tim.c ****   * @param  TIMx: where x can be 1 to 14 to select the TIM peripheral.
 436:../Shared/Libraries/STM32F4xx_StdPeriph_Driver/src/stm32f4xx_tim.c ****   * @retval Counter Register value
 437:../Shared/Libraries/STM32F4xx_StdPeriph_Driver/src/stm32f4xx_tim.c ****   */
 438:../Shared/Libraries/STM32F4xx_StdPeriph_Driver/src/stm32f4xx_tim.c **** uint32_t TIM_GetCounter(TIM_TypeDef* TIMx)
 439:../Shared/Libraries/STM32F4xx_StdPeriph_Driver/src/stm32f4xx_tim.c **** {
 741              		.loc 1 439 1
 742              		.cfi_startproc
 743              		@ args = 0, pretend = 0, frame = 8
 744              		@ frame_needed = 1, uses_anonymous_args = 0
 745              		@ link register save eliminated.
 746 0000 80B4     		push	{r7}
 747              	.LCFI41:
 748              		.cfi_def_cfa_offset 4
 749              		.cfi_offset 7, -4
 750 0002 83B0     		sub	sp, sp, #12
 751              	.LCFI42:
 752              		.cfi_def_cfa_offset 16
 753 0004 00AF     		add	r7, sp, #0
 754              	.LCFI43:
 755              		.cfi_def_cfa_register 7
 756 0006 7860     		str	r0, [r7, #4]
 440:../Shared/Libraries/STM32F4xx_StdPeriph_Driver/src/stm32f4xx_tim.c ****   /* Check the parameters */
 441:../Shared/Libraries/STM32F4xx_StdPeriph_Driver/src/stm32f4xx_tim.c ****   assert_param(IS_TIM_ALL_PERIPH(TIMx));
 442:../Shared/Libraries/STM32F4xx_StdPeriph_Driver/src/stm32f4xx_tim.c **** 
 443:../Shared/Libraries/STM32F4xx_StdPeriph_Driver/src/stm32f4xx_tim.c ****   /* Get the Counter Register value */
 444:../Shared/Libraries/STM32F4xx_StdPeriph_Driver/src/stm32f4xx_tim.c ****   return TIMx->CNT;
 757              		.loc 1 444 14
 758 0008 7B68     		ldr	r3, [r7, #4]
 759 000a 5B6A     		ldr	r3, [r3, #36]
 445:../Shared/Libraries/STM32F4xx_StdPeriph_Driver/src/stm32f4xx_tim.c **** }
 760              		.loc 1 445 1
 761 000c 1846     		mov	r0, r3
 762 000e 0C37     		adds	r7, r7, #12
 763              	.LCFI44:
 764              		.cfi_def_cfa_offset 4
 765 0010 BD46     		mov	sp, r7
 766              	.LCFI45:
 767              		.cfi_def_cfa_register 13
 768              		@ sp needed
 769 0012 5DF8047B 		ldr	r7, [sp], #4
 770              	.LCFI46:
 771              		.cfi_restore 7
 772              		.cfi_def_cfa_offset 0
 773 0016 7047     		bx	lr
 774              		.cfi_endproc
 775              	.LFE117:
 777              		.section	.text.TIM_GetPrescaler,"ax",%progbits
 778              		.align	1
 779              		.global	TIM_GetPrescaler
 780              		.syntax unified
 781              		.thumb
 782              		.thumb_func
 784              	TIM_GetPrescaler:
 785              	.LFB118:
 446:../Shared/Libraries/STM32F4xx_StdPeriph_Driver/src/stm32f4xx_tim.c **** 
 447:../Shared/Libraries/STM32F4xx_StdPeriph_Driver/src/stm32f4xx_tim.c **** /**
ARM GAS  /tmp/cc2zcHeL.s 			page 23


 448:../Shared/Libraries/STM32F4xx_StdPeriph_Driver/src/stm32f4xx_tim.c ****   * @brief  Gets the TIMx Prescaler value.
 449:../Shared/Libraries/STM32F4xx_StdPeriph_Driver/src/stm32f4xx_tim.c ****   * @param  TIMx: where x can be 1 to 14 to select the TIM peripheral.
 450:../Shared/Libraries/STM32F4xx_StdPeriph_Driver/src/stm32f4xx_tim.c ****   * @retval Prescaler Register value.
 451:../Shared/Libraries/STM32F4xx_StdPeriph_Driver/src/stm32f4xx_tim.c ****   */
 452:../Shared/Libraries/STM32F4xx_StdPeriph_Driver/src/stm32f4xx_tim.c **** uint16_t TIM_GetPrescaler(TIM_TypeDef* TIMx)
 453:../Shared/Libraries/STM32F4xx_StdPeriph_Driver/src/stm32f4xx_tim.c **** {
 786              		.loc 1 453 1
 787              		.cfi_startproc
 788              		@ args = 0, pretend = 0, frame = 8
 789              		@ frame_needed = 1, uses_anonymous_args = 0
 790              		@ link register save eliminated.
 791 0000 80B4     		push	{r7}
 792              	.LCFI47:
 793              		.cfi_def_cfa_offset 4
 794              		.cfi_offset 7, -4
 795 0002 83B0     		sub	sp, sp, #12
 796              	.LCFI48:
 797              		.cfi_def_cfa_offset 16
 798 0004 00AF     		add	r7, sp, #0
 799              	.LCFI49:
 800              		.cfi_def_cfa_register 7
 801 0006 7860     		str	r0, [r7, #4]
 454:../Shared/Libraries/STM32F4xx_StdPeriph_Driver/src/stm32f4xx_tim.c ****   /* Check the parameters */
 455:../Shared/Libraries/STM32F4xx_StdPeriph_Driver/src/stm32f4xx_tim.c ****   assert_param(IS_TIM_ALL_PERIPH(TIMx));
 456:../Shared/Libraries/STM32F4xx_StdPeriph_Driver/src/stm32f4xx_tim.c **** 
 457:../Shared/Libraries/STM32F4xx_StdPeriph_Driver/src/stm32f4xx_tim.c ****   /* Get the Prescaler Register value */
 458:../Shared/Libraries/STM32F4xx_StdPeriph_Driver/src/stm32f4xx_tim.c ****   return TIMx->PSC;
 802              		.loc 1 458 14
 803 0008 7B68     		ldr	r3, [r7, #4]
 804 000a 1B8D     		ldrh	r3, [r3, #40]	@ movhi
 805 000c 9BB2     		uxth	r3, r3
 459:../Shared/Libraries/STM32F4xx_StdPeriph_Driver/src/stm32f4xx_tim.c **** }
 806              		.loc 1 459 1
 807 000e 1846     		mov	r0, r3
 808 0010 0C37     		adds	r7, r7, #12
 809              	.LCFI50:
 810              		.cfi_def_cfa_offset 4
 811 0012 BD46     		mov	sp, r7
 812              	.LCFI51:
 813              		.cfi_def_cfa_register 13
 814              		@ sp needed
 815 0014 5DF8047B 		ldr	r7, [sp], #4
 816              	.LCFI52:
 817              		.cfi_restore 7
 818              		.cfi_def_cfa_offset 0
 819 0018 7047     		bx	lr
 820              		.cfi_endproc
 821              	.LFE118:
 823              		.section	.text.TIM_UpdateDisableConfig,"ax",%progbits
 824              		.align	1
 825              		.global	TIM_UpdateDisableConfig
 826              		.syntax unified
 827              		.thumb
 828              		.thumb_func
 830              	TIM_UpdateDisableConfig:
 831              	.LFB119:
 460:../Shared/Libraries/STM32F4xx_StdPeriph_Driver/src/stm32f4xx_tim.c **** 
ARM GAS  /tmp/cc2zcHeL.s 			page 24


 461:../Shared/Libraries/STM32F4xx_StdPeriph_Driver/src/stm32f4xx_tim.c **** /**
 462:../Shared/Libraries/STM32F4xx_StdPeriph_Driver/src/stm32f4xx_tim.c ****   * @brief  Enables or Disables the TIMx Update event.
 463:../Shared/Libraries/STM32F4xx_StdPeriph_Driver/src/stm32f4xx_tim.c ****   * @param  TIMx: where x can be 1 to 14 to select the TIM peripheral.
 464:../Shared/Libraries/STM32F4xx_StdPeriph_Driver/src/stm32f4xx_tim.c ****   * @param  NewState: new state of the TIMx UDIS bit
 465:../Shared/Libraries/STM32F4xx_StdPeriph_Driver/src/stm32f4xx_tim.c ****   *          This parameter can be: ENABLE or DISABLE.
 466:../Shared/Libraries/STM32F4xx_StdPeriph_Driver/src/stm32f4xx_tim.c ****   * @retval None
 467:../Shared/Libraries/STM32F4xx_StdPeriph_Driver/src/stm32f4xx_tim.c ****   */
 468:../Shared/Libraries/STM32F4xx_StdPeriph_Driver/src/stm32f4xx_tim.c **** void TIM_UpdateDisableConfig(TIM_TypeDef* TIMx, FunctionalState NewState)
 469:../Shared/Libraries/STM32F4xx_StdPeriph_Driver/src/stm32f4xx_tim.c **** {
 832              		.loc 1 469 1
 833              		.cfi_startproc
 834              		@ args = 0, pretend = 0, frame = 8
 835              		@ frame_needed = 1, uses_anonymous_args = 0
 836              		@ link register save eliminated.
 837 0000 80B4     		push	{r7}
 838              	.LCFI53:
 839              		.cfi_def_cfa_offset 4
 840              		.cfi_offset 7, -4
 841 0002 83B0     		sub	sp, sp, #12
 842              	.LCFI54:
 843              		.cfi_def_cfa_offset 16
 844 0004 00AF     		add	r7, sp, #0
 845              	.LCFI55:
 846              		.cfi_def_cfa_register 7
 847 0006 7860     		str	r0, [r7, #4]
 848 0008 0B46     		mov	r3, r1
 849 000a FB70     		strb	r3, [r7, #3]
 470:../Shared/Libraries/STM32F4xx_StdPeriph_Driver/src/stm32f4xx_tim.c ****   /* Check the parameters */
 471:../Shared/Libraries/STM32F4xx_StdPeriph_Driver/src/stm32f4xx_tim.c ****   assert_param(IS_TIM_ALL_PERIPH(TIMx));
 472:../Shared/Libraries/STM32F4xx_StdPeriph_Driver/src/stm32f4xx_tim.c ****   assert_param(IS_FUNCTIONAL_STATE(NewState));
 473:../Shared/Libraries/STM32F4xx_StdPeriph_Driver/src/stm32f4xx_tim.c **** 
 474:../Shared/Libraries/STM32F4xx_StdPeriph_Driver/src/stm32f4xx_tim.c ****   if (NewState != DISABLE)
 850              		.loc 1 474 6
 851 000c FB78     		ldrb	r3, [r7, #3]	@ zero_extendqisi2
 852 000e 002B     		cmp	r3, #0
 853 0010 08D0     		beq	.L37
 475:../Shared/Libraries/STM32F4xx_StdPeriph_Driver/src/stm32f4xx_tim.c ****   {
 476:../Shared/Libraries/STM32F4xx_StdPeriph_Driver/src/stm32f4xx_tim.c ****     /* Set the Update Disable Bit */
 477:../Shared/Libraries/STM32F4xx_StdPeriph_Driver/src/stm32f4xx_tim.c ****     TIMx->CR1 |= TIM_CR1_UDIS;
 854              		.loc 1 477 9
 855 0012 7B68     		ldr	r3, [r7, #4]
 856 0014 1B88     		ldrh	r3, [r3]	@ movhi
 857 0016 9BB2     		uxth	r3, r3
 858              		.loc 1 477 15
 859 0018 43F00203 		orr	r3, r3, #2
 860 001c 9AB2     		uxth	r2, r3
 861 001e 7B68     		ldr	r3, [r7, #4]
 862 0020 1A80     		strh	r2, [r3]	@ movhi
 478:../Shared/Libraries/STM32F4xx_StdPeriph_Driver/src/stm32f4xx_tim.c ****   }
 479:../Shared/Libraries/STM32F4xx_StdPeriph_Driver/src/stm32f4xx_tim.c ****   else
 480:../Shared/Libraries/STM32F4xx_StdPeriph_Driver/src/stm32f4xx_tim.c ****   {
 481:../Shared/Libraries/STM32F4xx_StdPeriph_Driver/src/stm32f4xx_tim.c ****     /* Reset the Update Disable Bit */
 482:../Shared/Libraries/STM32F4xx_StdPeriph_Driver/src/stm32f4xx_tim.c ****     TIMx->CR1 &= (uint16_t)~TIM_CR1_UDIS;
 483:../Shared/Libraries/STM32F4xx_StdPeriph_Driver/src/stm32f4xx_tim.c ****   }
 484:../Shared/Libraries/STM32F4xx_StdPeriph_Driver/src/stm32f4xx_tim.c **** }
 863              		.loc 1 484 1
 864 0022 07E0     		b	.L39
ARM GAS  /tmp/cc2zcHeL.s 			page 25


 865              	.L37:
 482:../Shared/Libraries/STM32F4xx_StdPeriph_Driver/src/stm32f4xx_tim.c ****   }
 866              		.loc 1 482 9
 867 0024 7B68     		ldr	r3, [r7, #4]
 868 0026 1B88     		ldrh	r3, [r3]	@ movhi
 869 0028 9BB2     		uxth	r3, r3
 482:../Shared/Libraries/STM32F4xx_StdPeriph_Driver/src/stm32f4xx_tim.c ****   }
 870              		.loc 1 482 15
 871 002a 23F00203 		bic	r3, r3, #2
 872 002e 9AB2     		uxth	r2, r3
 873 0030 7B68     		ldr	r3, [r7, #4]
 874 0032 1A80     		strh	r2, [r3]	@ movhi
 875              	.L39:
 876              		.loc 1 484 1
 877 0034 00BF     		nop
 878 0036 0C37     		adds	r7, r7, #12
 879              	.LCFI56:
 880              		.cfi_def_cfa_offset 4
 881 0038 BD46     		mov	sp, r7
 882              	.LCFI57:
 883              		.cfi_def_cfa_register 13
 884              		@ sp needed
 885 003a 5DF8047B 		ldr	r7, [sp], #4
 886              	.LCFI58:
 887              		.cfi_restore 7
 888              		.cfi_def_cfa_offset 0
 889 003e 7047     		bx	lr
 890              		.cfi_endproc
 891              	.LFE119:
 893              		.section	.text.TIM_UpdateRequestConfig,"ax",%progbits
 894              		.align	1
 895              		.global	TIM_UpdateRequestConfig
 896              		.syntax unified
 897              		.thumb
 898              		.thumb_func
 900              	TIM_UpdateRequestConfig:
 901              	.LFB120:
 485:../Shared/Libraries/STM32F4xx_StdPeriph_Driver/src/stm32f4xx_tim.c **** 
 486:../Shared/Libraries/STM32F4xx_StdPeriph_Driver/src/stm32f4xx_tim.c **** /**
 487:../Shared/Libraries/STM32F4xx_StdPeriph_Driver/src/stm32f4xx_tim.c ****   * @brief  Configures the TIMx Update Request Interrupt source.
 488:../Shared/Libraries/STM32F4xx_StdPeriph_Driver/src/stm32f4xx_tim.c ****   * @param  TIMx: where x can be 1 to 14 to select the TIM peripheral.
 489:../Shared/Libraries/STM32F4xx_StdPeriph_Driver/src/stm32f4xx_tim.c ****   * @param  TIM_UpdateSource: specifies the Update source.
 490:../Shared/Libraries/STM32F4xx_StdPeriph_Driver/src/stm32f4xx_tim.c ****   *          This parameter can be one of the following values:
 491:../Shared/Libraries/STM32F4xx_StdPeriph_Driver/src/stm32f4xx_tim.c ****   *            @arg TIM_UpdateSource_Global: Source of update is the counter
 492:../Shared/Libraries/STM32F4xx_StdPeriph_Driver/src/stm32f4xx_tim.c ****   *                 overflow/underflow or the setting of UG bit, or an update
 493:../Shared/Libraries/STM32F4xx_StdPeriph_Driver/src/stm32f4xx_tim.c ****   *                 generation through the slave mode controller.
 494:../Shared/Libraries/STM32F4xx_StdPeriph_Driver/src/stm32f4xx_tim.c ****   *            @arg TIM_UpdateSource_Regular: Source of update is counter overflow/underflow.
 495:../Shared/Libraries/STM32F4xx_StdPeriph_Driver/src/stm32f4xx_tim.c ****   * @retval None
 496:../Shared/Libraries/STM32F4xx_StdPeriph_Driver/src/stm32f4xx_tim.c ****   */
 497:../Shared/Libraries/STM32F4xx_StdPeriph_Driver/src/stm32f4xx_tim.c **** void TIM_UpdateRequestConfig(TIM_TypeDef* TIMx, uint16_t TIM_UpdateSource)
 498:../Shared/Libraries/STM32F4xx_StdPeriph_Driver/src/stm32f4xx_tim.c **** {
 902              		.loc 1 498 1
 903              		.cfi_startproc
 904              		@ args = 0, pretend = 0, frame = 8
 905              		@ frame_needed = 1, uses_anonymous_args = 0
 906              		@ link register save eliminated.
 907 0000 80B4     		push	{r7}
ARM GAS  /tmp/cc2zcHeL.s 			page 26


 908              	.LCFI59:
 909              		.cfi_def_cfa_offset 4
 910              		.cfi_offset 7, -4
 911 0002 83B0     		sub	sp, sp, #12
 912              	.LCFI60:
 913              		.cfi_def_cfa_offset 16
 914 0004 00AF     		add	r7, sp, #0
 915              	.LCFI61:
 916              		.cfi_def_cfa_register 7
 917 0006 7860     		str	r0, [r7, #4]
 918 0008 0B46     		mov	r3, r1
 919 000a 7B80     		strh	r3, [r7, #2]	@ movhi
 499:../Shared/Libraries/STM32F4xx_StdPeriph_Driver/src/stm32f4xx_tim.c ****   /* Check the parameters */
 500:../Shared/Libraries/STM32F4xx_StdPeriph_Driver/src/stm32f4xx_tim.c ****   assert_param(IS_TIM_ALL_PERIPH(TIMx));
 501:../Shared/Libraries/STM32F4xx_StdPeriph_Driver/src/stm32f4xx_tim.c ****   assert_param(IS_TIM_UPDATE_SOURCE(TIM_UpdateSource));
 502:../Shared/Libraries/STM32F4xx_StdPeriph_Driver/src/stm32f4xx_tim.c **** 
 503:../Shared/Libraries/STM32F4xx_StdPeriph_Driver/src/stm32f4xx_tim.c ****   if (TIM_UpdateSource != TIM_UpdateSource_Global)
 920              		.loc 1 503 6
 921 000c 7B88     		ldrh	r3, [r7, #2]
 922 000e 002B     		cmp	r3, #0
 923 0010 08D0     		beq	.L41
 504:../Shared/Libraries/STM32F4xx_StdPeriph_Driver/src/stm32f4xx_tim.c ****   {
 505:../Shared/Libraries/STM32F4xx_StdPeriph_Driver/src/stm32f4xx_tim.c ****     /* Set the URS Bit */
 506:../Shared/Libraries/STM32F4xx_StdPeriph_Driver/src/stm32f4xx_tim.c ****     TIMx->CR1 |= TIM_CR1_URS;
 924              		.loc 1 506 9
 925 0012 7B68     		ldr	r3, [r7, #4]
 926 0014 1B88     		ldrh	r3, [r3]	@ movhi
 927 0016 9BB2     		uxth	r3, r3
 928              		.loc 1 506 15
 929 0018 43F00403 		orr	r3, r3, #4
 930 001c 9AB2     		uxth	r2, r3
 931 001e 7B68     		ldr	r3, [r7, #4]
 932 0020 1A80     		strh	r2, [r3]	@ movhi
 507:../Shared/Libraries/STM32F4xx_StdPeriph_Driver/src/stm32f4xx_tim.c ****   }
 508:../Shared/Libraries/STM32F4xx_StdPeriph_Driver/src/stm32f4xx_tim.c ****   else
 509:../Shared/Libraries/STM32F4xx_StdPeriph_Driver/src/stm32f4xx_tim.c ****   {
 510:../Shared/Libraries/STM32F4xx_StdPeriph_Driver/src/stm32f4xx_tim.c ****     /* Reset the URS Bit */
 511:../Shared/Libraries/STM32F4xx_StdPeriph_Driver/src/stm32f4xx_tim.c ****     TIMx->CR1 &= (uint16_t)~TIM_CR1_URS;
 512:../Shared/Libraries/STM32F4xx_StdPeriph_Driver/src/stm32f4xx_tim.c ****   }
 513:../Shared/Libraries/STM32F4xx_StdPeriph_Driver/src/stm32f4xx_tim.c **** }
 933              		.loc 1 513 1
 934 0022 07E0     		b	.L43
 935              	.L41:
 511:../Shared/Libraries/STM32F4xx_StdPeriph_Driver/src/stm32f4xx_tim.c ****   }
 936              		.loc 1 511 9
 937 0024 7B68     		ldr	r3, [r7, #4]
 938 0026 1B88     		ldrh	r3, [r3]	@ movhi
 939 0028 9BB2     		uxth	r3, r3
 511:../Shared/Libraries/STM32F4xx_StdPeriph_Driver/src/stm32f4xx_tim.c ****   }
 940              		.loc 1 511 15
 941 002a 23F00403 		bic	r3, r3, #4
 942 002e 9AB2     		uxth	r2, r3
 943 0030 7B68     		ldr	r3, [r7, #4]
 944 0032 1A80     		strh	r2, [r3]	@ movhi
 945              	.L43:
 946              		.loc 1 513 1
 947 0034 00BF     		nop
ARM GAS  /tmp/cc2zcHeL.s 			page 27


 948 0036 0C37     		adds	r7, r7, #12
 949              	.LCFI62:
 950              		.cfi_def_cfa_offset 4
 951 0038 BD46     		mov	sp, r7
 952              	.LCFI63:
 953              		.cfi_def_cfa_register 13
 954              		@ sp needed
 955 003a 5DF8047B 		ldr	r7, [sp], #4
 956              	.LCFI64:
 957              		.cfi_restore 7
 958              		.cfi_def_cfa_offset 0
 959 003e 7047     		bx	lr
 960              		.cfi_endproc
 961              	.LFE120:
 963              		.section	.text.TIM_ARRPreloadConfig,"ax",%progbits
 964              		.align	1
 965              		.global	TIM_ARRPreloadConfig
 966              		.syntax unified
 967              		.thumb
 968              		.thumb_func
 970              	TIM_ARRPreloadConfig:
 971              	.LFB121:
 514:../Shared/Libraries/STM32F4xx_StdPeriph_Driver/src/stm32f4xx_tim.c **** 
 515:../Shared/Libraries/STM32F4xx_StdPeriph_Driver/src/stm32f4xx_tim.c **** /**
 516:../Shared/Libraries/STM32F4xx_StdPeriph_Driver/src/stm32f4xx_tim.c ****   * @brief  Enables or disables TIMx peripheral Preload register on ARR.
 517:../Shared/Libraries/STM32F4xx_StdPeriph_Driver/src/stm32f4xx_tim.c ****   * @param  TIMx: where x can be 1 to 14 to select the TIM peripheral.
 518:../Shared/Libraries/STM32F4xx_StdPeriph_Driver/src/stm32f4xx_tim.c ****   * @param  NewState: new state of the TIMx peripheral Preload register
 519:../Shared/Libraries/STM32F4xx_StdPeriph_Driver/src/stm32f4xx_tim.c ****   *          This parameter can be: ENABLE or DISABLE.
 520:../Shared/Libraries/STM32F4xx_StdPeriph_Driver/src/stm32f4xx_tim.c ****   * @retval None
 521:../Shared/Libraries/STM32F4xx_StdPeriph_Driver/src/stm32f4xx_tim.c ****   */
 522:../Shared/Libraries/STM32F4xx_StdPeriph_Driver/src/stm32f4xx_tim.c **** void TIM_ARRPreloadConfig(TIM_TypeDef* TIMx, FunctionalState NewState)
 523:../Shared/Libraries/STM32F4xx_StdPeriph_Driver/src/stm32f4xx_tim.c **** {
 972              		.loc 1 523 1
 973              		.cfi_startproc
 974              		@ args = 0, pretend = 0, frame = 8
 975              		@ frame_needed = 1, uses_anonymous_args = 0
 976              		@ link register save eliminated.
 977 0000 80B4     		push	{r7}
 978              	.LCFI65:
 979              		.cfi_def_cfa_offset 4
 980              		.cfi_offset 7, -4
 981 0002 83B0     		sub	sp, sp, #12
 982              	.LCFI66:
 983              		.cfi_def_cfa_offset 16
 984 0004 00AF     		add	r7, sp, #0
 985              	.LCFI67:
 986              		.cfi_def_cfa_register 7
 987 0006 7860     		str	r0, [r7, #4]
 988 0008 0B46     		mov	r3, r1
 989 000a FB70     		strb	r3, [r7, #3]
 524:../Shared/Libraries/STM32F4xx_StdPeriph_Driver/src/stm32f4xx_tim.c ****   /* Check the parameters */
 525:../Shared/Libraries/STM32F4xx_StdPeriph_Driver/src/stm32f4xx_tim.c ****   assert_param(IS_TIM_ALL_PERIPH(TIMx));
 526:../Shared/Libraries/STM32F4xx_StdPeriph_Driver/src/stm32f4xx_tim.c ****   assert_param(IS_FUNCTIONAL_STATE(NewState));
 527:../Shared/Libraries/STM32F4xx_StdPeriph_Driver/src/stm32f4xx_tim.c **** 
 528:../Shared/Libraries/STM32F4xx_StdPeriph_Driver/src/stm32f4xx_tim.c ****   if (NewState != DISABLE)
 990              		.loc 1 528 6
 991 000c FB78     		ldrb	r3, [r7, #3]	@ zero_extendqisi2
ARM GAS  /tmp/cc2zcHeL.s 			page 28


 992 000e 002B     		cmp	r3, #0
 993 0010 08D0     		beq	.L45
 529:../Shared/Libraries/STM32F4xx_StdPeriph_Driver/src/stm32f4xx_tim.c ****   {
 530:../Shared/Libraries/STM32F4xx_StdPeriph_Driver/src/stm32f4xx_tim.c ****     /* Set the ARR Preload Bit */
 531:../Shared/Libraries/STM32F4xx_StdPeriph_Driver/src/stm32f4xx_tim.c ****     TIMx->CR1 |= TIM_CR1_ARPE;
 994              		.loc 1 531 9
 995 0012 7B68     		ldr	r3, [r7, #4]
 996 0014 1B88     		ldrh	r3, [r3]	@ movhi
 997 0016 9BB2     		uxth	r3, r3
 998              		.loc 1 531 15
 999 0018 43F08003 		orr	r3, r3, #128
 1000 001c 9AB2     		uxth	r2, r3
 1001 001e 7B68     		ldr	r3, [r7, #4]
 1002 0020 1A80     		strh	r2, [r3]	@ movhi
 532:../Shared/Libraries/STM32F4xx_StdPeriph_Driver/src/stm32f4xx_tim.c ****   }
 533:../Shared/Libraries/STM32F4xx_StdPeriph_Driver/src/stm32f4xx_tim.c ****   else
 534:../Shared/Libraries/STM32F4xx_StdPeriph_Driver/src/stm32f4xx_tim.c ****   {
 535:../Shared/Libraries/STM32F4xx_StdPeriph_Driver/src/stm32f4xx_tim.c ****     /* Reset the ARR Preload Bit */
 536:../Shared/Libraries/STM32F4xx_StdPeriph_Driver/src/stm32f4xx_tim.c ****     TIMx->CR1 &= (uint16_t)~TIM_CR1_ARPE;
 537:../Shared/Libraries/STM32F4xx_StdPeriph_Driver/src/stm32f4xx_tim.c ****   }
 538:../Shared/Libraries/STM32F4xx_StdPeriph_Driver/src/stm32f4xx_tim.c **** }
 1003              		.loc 1 538 1
 1004 0022 07E0     		b	.L47
 1005              	.L45:
 536:../Shared/Libraries/STM32F4xx_StdPeriph_Driver/src/stm32f4xx_tim.c ****   }
 1006              		.loc 1 536 9
 1007 0024 7B68     		ldr	r3, [r7, #4]
 1008 0026 1B88     		ldrh	r3, [r3]	@ movhi
 1009 0028 9BB2     		uxth	r3, r3
 536:../Shared/Libraries/STM32F4xx_StdPeriph_Driver/src/stm32f4xx_tim.c ****   }
 1010              		.loc 1 536 15
 1011 002a 23F08003 		bic	r3, r3, #128
 1012 002e 9AB2     		uxth	r2, r3
 1013 0030 7B68     		ldr	r3, [r7, #4]
 1014 0032 1A80     		strh	r2, [r3]	@ movhi
 1015              	.L47:
 1016              		.loc 1 538 1
 1017 0034 00BF     		nop
 1018 0036 0C37     		adds	r7, r7, #12
 1019              	.LCFI68:
 1020              		.cfi_def_cfa_offset 4
 1021 0038 BD46     		mov	sp, r7
 1022              	.LCFI69:
 1023              		.cfi_def_cfa_register 13
 1024              		@ sp needed
 1025 003a 5DF8047B 		ldr	r7, [sp], #4
 1026              	.LCFI70:
 1027              		.cfi_restore 7
 1028              		.cfi_def_cfa_offset 0
 1029 003e 7047     		bx	lr
 1030              		.cfi_endproc
 1031              	.LFE121:
 1033              		.section	.text.TIM_SelectOnePulseMode,"ax",%progbits
 1034              		.align	1
 1035              		.global	TIM_SelectOnePulseMode
 1036              		.syntax unified
 1037              		.thumb
ARM GAS  /tmp/cc2zcHeL.s 			page 29


 1038              		.thumb_func
 1040              	TIM_SelectOnePulseMode:
 1041              	.LFB122:
 539:../Shared/Libraries/STM32F4xx_StdPeriph_Driver/src/stm32f4xx_tim.c **** 
 540:../Shared/Libraries/STM32F4xx_StdPeriph_Driver/src/stm32f4xx_tim.c **** /**
 541:../Shared/Libraries/STM32F4xx_StdPeriph_Driver/src/stm32f4xx_tim.c ****   * @brief  Selects the TIMx's One Pulse Mode.
 542:../Shared/Libraries/STM32F4xx_StdPeriph_Driver/src/stm32f4xx_tim.c ****   * @param  TIMx: where x can be 1 to 14 to select the TIM peripheral.
 543:../Shared/Libraries/STM32F4xx_StdPeriph_Driver/src/stm32f4xx_tim.c ****   * @param  TIM_OPMode: specifies the OPM Mode to be used.
 544:../Shared/Libraries/STM32F4xx_StdPeriph_Driver/src/stm32f4xx_tim.c ****   *          This parameter can be one of the following values:
 545:../Shared/Libraries/STM32F4xx_StdPeriph_Driver/src/stm32f4xx_tim.c ****   *            @arg TIM_OPMode_Single
 546:../Shared/Libraries/STM32F4xx_StdPeriph_Driver/src/stm32f4xx_tim.c ****   *            @arg TIM_OPMode_Repetitive
 547:../Shared/Libraries/STM32F4xx_StdPeriph_Driver/src/stm32f4xx_tim.c ****   * @retval None
 548:../Shared/Libraries/STM32F4xx_StdPeriph_Driver/src/stm32f4xx_tim.c ****   */
 549:../Shared/Libraries/STM32F4xx_StdPeriph_Driver/src/stm32f4xx_tim.c **** void TIM_SelectOnePulseMode(TIM_TypeDef* TIMx, uint16_t TIM_OPMode)
 550:../Shared/Libraries/STM32F4xx_StdPeriph_Driver/src/stm32f4xx_tim.c **** {
 1042              		.loc 1 550 1
 1043              		.cfi_startproc
 1044              		@ args = 0, pretend = 0, frame = 8
 1045              		@ frame_needed = 1, uses_anonymous_args = 0
 1046              		@ link register save eliminated.
 1047 0000 80B4     		push	{r7}
 1048              	.LCFI71:
 1049              		.cfi_def_cfa_offset 4
 1050              		.cfi_offset 7, -4
 1051 0002 83B0     		sub	sp, sp, #12
 1052              	.LCFI72:
 1053              		.cfi_def_cfa_offset 16
 1054 0004 00AF     		add	r7, sp, #0
 1055              	.LCFI73:
 1056              		.cfi_def_cfa_register 7
 1057 0006 7860     		str	r0, [r7, #4]
 1058 0008 0B46     		mov	r3, r1
 1059 000a 7B80     		strh	r3, [r7, #2]	@ movhi
 551:../Shared/Libraries/STM32F4xx_StdPeriph_Driver/src/stm32f4xx_tim.c ****   /* Check the parameters */
 552:../Shared/Libraries/STM32F4xx_StdPeriph_Driver/src/stm32f4xx_tim.c ****   assert_param(IS_TIM_ALL_PERIPH(TIMx));
 553:../Shared/Libraries/STM32F4xx_StdPeriph_Driver/src/stm32f4xx_tim.c ****   assert_param(IS_TIM_OPM_MODE(TIM_OPMode));
 554:../Shared/Libraries/STM32F4xx_StdPeriph_Driver/src/stm32f4xx_tim.c **** 
 555:../Shared/Libraries/STM32F4xx_StdPeriph_Driver/src/stm32f4xx_tim.c ****   /* Reset the OPM Bit */
 556:../Shared/Libraries/STM32F4xx_StdPeriph_Driver/src/stm32f4xx_tim.c ****   TIMx->CR1 &= (uint16_t)~TIM_CR1_OPM;
 1060              		.loc 1 556 7
 1061 000c 7B68     		ldr	r3, [r7, #4]
 1062 000e 1B88     		ldrh	r3, [r3]	@ movhi
 1063 0010 9BB2     		uxth	r3, r3
 1064              		.loc 1 556 13
 1065 0012 23F00803 		bic	r3, r3, #8
 1066 0016 9AB2     		uxth	r2, r3
 1067 0018 7B68     		ldr	r3, [r7, #4]
 1068 001a 1A80     		strh	r2, [r3]	@ movhi
 557:../Shared/Libraries/STM32F4xx_StdPeriph_Driver/src/stm32f4xx_tim.c **** 
 558:../Shared/Libraries/STM32F4xx_StdPeriph_Driver/src/stm32f4xx_tim.c ****   /* Configure the OPM Mode */
 559:../Shared/Libraries/STM32F4xx_StdPeriph_Driver/src/stm32f4xx_tim.c ****   TIMx->CR1 |= TIM_OPMode;
 1069              		.loc 1 559 7
 1070 001c 7B68     		ldr	r3, [r7, #4]
 1071 001e 1B88     		ldrh	r3, [r3]	@ movhi
 1072 0020 9AB2     		uxth	r2, r3
 1073              		.loc 1 559 13
 1074 0022 7B88     		ldrh	r3, [r7, #2]	@ movhi
ARM GAS  /tmp/cc2zcHeL.s 			page 30


 1075 0024 1343     		orrs	r3, r3, r2
 1076 0026 9AB2     		uxth	r2, r3
 1077 0028 7B68     		ldr	r3, [r7, #4]
 1078 002a 1A80     		strh	r2, [r3]	@ movhi
 560:../Shared/Libraries/STM32F4xx_StdPeriph_Driver/src/stm32f4xx_tim.c **** }
 1079              		.loc 1 560 1
 1080 002c 00BF     		nop
 1081 002e 0C37     		adds	r7, r7, #12
 1082              	.LCFI74:
 1083              		.cfi_def_cfa_offset 4
 1084 0030 BD46     		mov	sp, r7
 1085              	.LCFI75:
 1086              		.cfi_def_cfa_register 13
 1087              		@ sp needed
 1088 0032 5DF8047B 		ldr	r7, [sp], #4
 1089              	.LCFI76:
 1090              		.cfi_restore 7
 1091              		.cfi_def_cfa_offset 0
 1092 0036 7047     		bx	lr
 1093              		.cfi_endproc
 1094              	.LFE122:
 1096              		.section	.text.TIM_SetClockDivision,"ax",%progbits
 1097              		.align	1
 1098              		.global	TIM_SetClockDivision
 1099              		.syntax unified
 1100              		.thumb
 1101              		.thumb_func
 1103              	TIM_SetClockDivision:
 1104              	.LFB123:
 561:../Shared/Libraries/STM32F4xx_StdPeriph_Driver/src/stm32f4xx_tim.c **** 
 562:../Shared/Libraries/STM32F4xx_StdPeriph_Driver/src/stm32f4xx_tim.c **** /**
 563:../Shared/Libraries/STM32F4xx_StdPeriph_Driver/src/stm32f4xx_tim.c ****   * @brief  Sets the TIMx Clock Division value.
 564:../Shared/Libraries/STM32F4xx_StdPeriph_Driver/src/stm32f4xx_tim.c ****   * @param  TIMx: where x can be 1 to 14 except 6 and 7, to select the TIM peripheral.
 565:../Shared/Libraries/STM32F4xx_StdPeriph_Driver/src/stm32f4xx_tim.c ****   * @param  TIM_CKD: specifies the clock division value.
 566:../Shared/Libraries/STM32F4xx_StdPeriph_Driver/src/stm32f4xx_tim.c ****   *          This parameter can be one of the following value:
 567:../Shared/Libraries/STM32F4xx_StdPeriph_Driver/src/stm32f4xx_tim.c ****   *            @arg TIM_CKD_DIV1: TDTS = Tck_tim
 568:../Shared/Libraries/STM32F4xx_StdPeriph_Driver/src/stm32f4xx_tim.c ****   *            @arg TIM_CKD_DIV2: TDTS = 2*Tck_tim
 569:../Shared/Libraries/STM32F4xx_StdPeriph_Driver/src/stm32f4xx_tim.c ****   *            @arg TIM_CKD_DIV4: TDTS = 4*Tck_tim
 570:../Shared/Libraries/STM32F4xx_StdPeriph_Driver/src/stm32f4xx_tim.c ****   * @retval None
 571:../Shared/Libraries/STM32F4xx_StdPeriph_Driver/src/stm32f4xx_tim.c ****   */
 572:../Shared/Libraries/STM32F4xx_StdPeriph_Driver/src/stm32f4xx_tim.c **** void TIM_SetClockDivision(TIM_TypeDef* TIMx, uint16_t TIM_CKD)
 573:../Shared/Libraries/STM32F4xx_StdPeriph_Driver/src/stm32f4xx_tim.c **** {
 1105              		.loc 1 573 1
 1106              		.cfi_startproc
 1107              		@ args = 0, pretend = 0, frame = 8
 1108              		@ frame_needed = 1, uses_anonymous_args = 0
 1109              		@ link register save eliminated.
 1110 0000 80B4     		push	{r7}
 1111              	.LCFI77:
 1112              		.cfi_def_cfa_offset 4
 1113              		.cfi_offset 7, -4
 1114 0002 83B0     		sub	sp, sp, #12
 1115              	.LCFI78:
 1116              		.cfi_def_cfa_offset 16
 1117 0004 00AF     		add	r7, sp, #0
 1118              	.LCFI79:
 1119              		.cfi_def_cfa_register 7
ARM GAS  /tmp/cc2zcHeL.s 			page 31


 1120 0006 7860     		str	r0, [r7, #4]
 1121 0008 0B46     		mov	r3, r1
 1122 000a 7B80     		strh	r3, [r7, #2]	@ movhi
 574:../Shared/Libraries/STM32F4xx_StdPeriph_Driver/src/stm32f4xx_tim.c ****   /* Check the parameters */
 575:../Shared/Libraries/STM32F4xx_StdPeriph_Driver/src/stm32f4xx_tim.c ****   assert_param(IS_TIM_LIST1_PERIPH(TIMx));
 576:../Shared/Libraries/STM32F4xx_StdPeriph_Driver/src/stm32f4xx_tim.c ****   assert_param(IS_TIM_CKD_DIV(TIM_CKD));
 577:../Shared/Libraries/STM32F4xx_StdPeriph_Driver/src/stm32f4xx_tim.c **** 
 578:../Shared/Libraries/STM32F4xx_StdPeriph_Driver/src/stm32f4xx_tim.c ****   /* Reset the CKD Bits */
 579:../Shared/Libraries/STM32F4xx_StdPeriph_Driver/src/stm32f4xx_tim.c ****   TIMx->CR1 &= (uint16_t)(~TIM_CR1_CKD);
 1123              		.loc 1 579 7
 1124 000c 7B68     		ldr	r3, [r7, #4]
 1125 000e 1B88     		ldrh	r3, [r3]	@ movhi
 1126 0010 9BB2     		uxth	r3, r3
 1127              		.loc 1 579 13
 1128 0012 23F44073 		bic	r3, r3, #768
 1129 0016 9AB2     		uxth	r2, r3
 1130 0018 7B68     		ldr	r3, [r7, #4]
 1131 001a 1A80     		strh	r2, [r3]	@ movhi
 580:../Shared/Libraries/STM32F4xx_StdPeriph_Driver/src/stm32f4xx_tim.c **** 
 581:../Shared/Libraries/STM32F4xx_StdPeriph_Driver/src/stm32f4xx_tim.c ****   /* Set the CKD value */
 582:../Shared/Libraries/STM32F4xx_StdPeriph_Driver/src/stm32f4xx_tim.c ****   TIMx->CR1 |= TIM_CKD;
 1132              		.loc 1 582 7
 1133 001c 7B68     		ldr	r3, [r7, #4]
 1134 001e 1B88     		ldrh	r3, [r3]	@ movhi
 1135 0020 9AB2     		uxth	r2, r3
 1136              		.loc 1 582 13
 1137 0022 7B88     		ldrh	r3, [r7, #2]	@ movhi
 1138 0024 1343     		orrs	r3, r3, r2
 1139 0026 9AB2     		uxth	r2, r3
 1140 0028 7B68     		ldr	r3, [r7, #4]
 1141 002a 1A80     		strh	r2, [r3]	@ movhi
 583:../Shared/Libraries/STM32F4xx_StdPeriph_Driver/src/stm32f4xx_tim.c **** }
 1142              		.loc 1 583 1
 1143 002c 00BF     		nop
 1144 002e 0C37     		adds	r7, r7, #12
 1145              	.LCFI80:
 1146              		.cfi_def_cfa_offset 4
 1147 0030 BD46     		mov	sp, r7
 1148              	.LCFI81:
 1149              		.cfi_def_cfa_register 13
 1150              		@ sp needed
 1151 0032 5DF8047B 		ldr	r7, [sp], #4
 1152              	.LCFI82:
 1153              		.cfi_restore 7
 1154              		.cfi_def_cfa_offset 0
 1155 0036 7047     		bx	lr
 1156              		.cfi_endproc
 1157              	.LFE123:
 1159              		.section	.text.TIM_Cmd,"ax",%progbits
 1160              		.align	1
 1161              		.global	TIM_Cmd
 1162              		.syntax unified
 1163              		.thumb
 1164              		.thumb_func
 1166              	TIM_Cmd:
 1167              	.LFB124:
 584:../Shared/Libraries/STM32F4xx_StdPeriph_Driver/src/stm32f4xx_tim.c **** 
ARM GAS  /tmp/cc2zcHeL.s 			page 32


 585:../Shared/Libraries/STM32F4xx_StdPeriph_Driver/src/stm32f4xx_tim.c **** /**
 586:../Shared/Libraries/STM32F4xx_StdPeriph_Driver/src/stm32f4xx_tim.c ****   * @brief  Enables or disables the specified TIM peripheral.
 587:../Shared/Libraries/STM32F4xx_StdPeriph_Driver/src/stm32f4xx_tim.c ****   * @param  TIMx: where x can be 1 to 14 to select the TIMx peripheral.
 588:../Shared/Libraries/STM32F4xx_StdPeriph_Driver/src/stm32f4xx_tim.c ****   * @param  NewState: new state of the TIMx peripheral.
 589:../Shared/Libraries/STM32F4xx_StdPeriph_Driver/src/stm32f4xx_tim.c ****   *          This parameter can be: ENABLE or DISABLE.
 590:../Shared/Libraries/STM32F4xx_StdPeriph_Driver/src/stm32f4xx_tim.c ****   * @retval None
 591:../Shared/Libraries/STM32F4xx_StdPeriph_Driver/src/stm32f4xx_tim.c ****   */
 592:../Shared/Libraries/STM32F4xx_StdPeriph_Driver/src/stm32f4xx_tim.c **** void TIM_Cmd(TIM_TypeDef* TIMx, FunctionalState NewState)
 593:../Shared/Libraries/STM32F4xx_StdPeriph_Driver/src/stm32f4xx_tim.c **** {
 1168              		.loc 1 593 1
 1169              		.cfi_startproc
 1170              		@ args = 0, pretend = 0, frame = 8
 1171              		@ frame_needed = 1, uses_anonymous_args = 0
 1172              		@ link register save eliminated.
 1173 0000 80B4     		push	{r7}
 1174              	.LCFI83:
 1175              		.cfi_def_cfa_offset 4
 1176              		.cfi_offset 7, -4
 1177 0002 83B0     		sub	sp, sp, #12
 1178              	.LCFI84:
 1179              		.cfi_def_cfa_offset 16
 1180 0004 00AF     		add	r7, sp, #0
 1181              	.LCFI85:
 1182              		.cfi_def_cfa_register 7
 1183 0006 7860     		str	r0, [r7, #4]
 1184 0008 0B46     		mov	r3, r1
 1185 000a FB70     		strb	r3, [r7, #3]
 594:../Shared/Libraries/STM32F4xx_StdPeriph_Driver/src/stm32f4xx_tim.c ****   /* Check the parameters */
 595:../Shared/Libraries/STM32F4xx_StdPeriph_Driver/src/stm32f4xx_tim.c ****   assert_param(IS_TIM_ALL_PERIPH(TIMx)); 
 596:../Shared/Libraries/STM32F4xx_StdPeriph_Driver/src/stm32f4xx_tim.c ****   assert_param(IS_FUNCTIONAL_STATE(NewState));
 597:../Shared/Libraries/STM32F4xx_StdPeriph_Driver/src/stm32f4xx_tim.c ****   
 598:../Shared/Libraries/STM32F4xx_StdPeriph_Driver/src/stm32f4xx_tim.c ****   if (NewState != DISABLE)
 1186              		.loc 1 598 6
 1187 000c FB78     		ldrb	r3, [r7, #3]	@ zero_extendqisi2
 1188 000e 002B     		cmp	r3, #0
 1189 0010 08D0     		beq	.L51
 599:../Shared/Libraries/STM32F4xx_StdPeriph_Driver/src/stm32f4xx_tim.c ****   {
 600:../Shared/Libraries/STM32F4xx_StdPeriph_Driver/src/stm32f4xx_tim.c ****     /* Enable the TIM Counter */
 601:../Shared/Libraries/STM32F4xx_StdPeriph_Driver/src/stm32f4xx_tim.c ****     TIMx->CR1 |= TIM_CR1_CEN;
 1190              		.loc 1 601 9
 1191 0012 7B68     		ldr	r3, [r7, #4]
 1192 0014 1B88     		ldrh	r3, [r3]	@ movhi
 1193 0016 9BB2     		uxth	r3, r3
 1194              		.loc 1 601 15
 1195 0018 43F00103 		orr	r3, r3, #1
 1196 001c 9AB2     		uxth	r2, r3
 1197 001e 7B68     		ldr	r3, [r7, #4]
 1198 0020 1A80     		strh	r2, [r3]	@ movhi
 602:../Shared/Libraries/STM32F4xx_StdPeriph_Driver/src/stm32f4xx_tim.c ****   }
 603:../Shared/Libraries/STM32F4xx_StdPeriph_Driver/src/stm32f4xx_tim.c ****   else
 604:../Shared/Libraries/STM32F4xx_StdPeriph_Driver/src/stm32f4xx_tim.c ****   {
 605:../Shared/Libraries/STM32F4xx_StdPeriph_Driver/src/stm32f4xx_tim.c ****     /* Disable the TIM Counter */
 606:../Shared/Libraries/STM32F4xx_StdPeriph_Driver/src/stm32f4xx_tim.c ****     TIMx->CR1 &= (uint16_t)~TIM_CR1_CEN;
 607:../Shared/Libraries/STM32F4xx_StdPeriph_Driver/src/stm32f4xx_tim.c ****   }
 608:../Shared/Libraries/STM32F4xx_StdPeriph_Driver/src/stm32f4xx_tim.c **** }
 1199              		.loc 1 608 1
 1200 0022 07E0     		b	.L53
ARM GAS  /tmp/cc2zcHeL.s 			page 33


 1201              	.L51:
 606:../Shared/Libraries/STM32F4xx_StdPeriph_Driver/src/stm32f4xx_tim.c ****   }
 1202              		.loc 1 606 9
 1203 0024 7B68     		ldr	r3, [r7, #4]
 1204 0026 1B88     		ldrh	r3, [r3]	@ movhi
 1205 0028 9BB2     		uxth	r3, r3
 606:../Shared/Libraries/STM32F4xx_StdPeriph_Driver/src/stm32f4xx_tim.c ****   }
 1206              		.loc 1 606 15
 1207 002a 23F00103 		bic	r3, r3, #1
 1208 002e 9AB2     		uxth	r2, r3
 1209 0030 7B68     		ldr	r3, [r7, #4]
 1210 0032 1A80     		strh	r2, [r3]	@ movhi
 1211              	.L53:
 1212              		.loc 1 608 1
 1213 0034 00BF     		nop
 1214 0036 0C37     		adds	r7, r7, #12
 1215              	.LCFI86:
 1216              		.cfi_def_cfa_offset 4
 1217 0038 BD46     		mov	sp, r7
 1218              	.LCFI87:
 1219              		.cfi_def_cfa_register 13
 1220              		@ sp needed
 1221 003a 5DF8047B 		ldr	r7, [sp], #4
 1222              	.LCFI88:
 1223              		.cfi_restore 7
 1224              		.cfi_def_cfa_offset 0
 1225 003e 7047     		bx	lr
 1226              		.cfi_endproc
 1227              	.LFE124:
 1229              		.section	.text.TIM_OC1Init,"ax",%progbits
 1230              		.align	1
 1231              		.global	TIM_OC1Init
 1232              		.syntax unified
 1233              		.thumb
 1234              		.thumb_func
 1236              	TIM_OC1Init:
 1237              	.LFB125:
 609:../Shared/Libraries/STM32F4xx_StdPeriph_Driver/src/stm32f4xx_tim.c **** /**
 610:../Shared/Libraries/STM32F4xx_StdPeriph_Driver/src/stm32f4xx_tim.c ****   * @}
 611:../Shared/Libraries/STM32F4xx_StdPeriph_Driver/src/stm32f4xx_tim.c ****   */
 612:../Shared/Libraries/STM32F4xx_StdPeriph_Driver/src/stm32f4xx_tim.c **** 
 613:../Shared/Libraries/STM32F4xx_StdPeriph_Driver/src/stm32f4xx_tim.c **** /** @defgroup TIM_Group2 Output Compare management functions
 614:../Shared/Libraries/STM32F4xx_StdPeriph_Driver/src/stm32f4xx_tim.c ****  *  @brief    Output Compare management functions 
 615:../Shared/Libraries/STM32F4xx_StdPeriph_Driver/src/stm32f4xx_tim.c ****  *
 616:../Shared/Libraries/STM32F4xx_StdPeriph_Driver/src/stm32f4xx_tim.c **** @verbatim   
 617:../Shared/Libraries/STM32F4xx_StdPeriph_Driver/src/stm32f4xx_tim.c ****  ===============================================================================
 618:../Shared/Libraries/STM32F4xx_StdPeriph_Driver/src/stm32f4xx_tim.c ****                         Output Compare management functions
 619:../Shared/Libraries/STM32F4xx_StdPeriph_Driver/src/stm32f4xx_tim.c ****  ===============================================================================  
 620:../Shared/Libraries/STM32F4xx_StdPeriph_Driver/src/stm32f4xx_tim.c ****    
 621:../Shared/Libraries/STM32F4xx_StdPeriph_Driver/src/stm32f4xx_tim.c ****        ===================================================================      
 622:../Shared/Libraries/STM32F4xx_StdPeriph_Driver/src/stm32f4xx_tim.c ****               TIM Driver: how to use it in Output Compare Mode
 623:../Shared/Libraries/STM32F4xx_StdPeriph_Driver/src/stm32f4xx_tim.c ****        =================================================================== 
 624:../Shared/Libraries/STM32F4xx_StdPeriph_Driver/src/stm32f4xx_tim.c ****        To use the Timer in Output Compare mode, the following steps are mandatory:
 625:../Shared/Libraries/STM32F4xx_StdPeriph_Driver/src/stm32f4xx_tim.c ****        
 626:../Shared/Libraries/STM32F4xx_StdPeriph_Driver/src/stm32f4xx_tim.c ****        1. Enable TIM clock using RCC_APBxPeriphClockCmd(RCC_APBxPeriph_TIMx, ENABLE) function
 627:../Shared/Libraries/STM32F4xx_StdPeriph_Driver/src/stm32f4xx_tim.c ****        
 628:../Shared/Libraries/STM32F4xx_StdPeriph_Driver/src/stm32f4xx_tim.c ****        2. Configure the TIM pins by configuring the corresponding GPIO pins
ARM GAS  /tmp/cc2zcHeL.s 			page 34


 629:../Shared/Libraries/STM32F4xx_StdPeriph_Driver/src/stm32f4xx_tim.c ****        
 630:../Shared/Libraries/STM32F4xx_StdPeriph_Driver/src/stm32f4xx_tim.c ****        2. Configure the Time base unit as described in the first part of this driver, 
 631:../Shared/Libraries/STM32F4xx_StdPeriph_Driver/src/stm32f4xx_tim.c ****           if needed, else the Timer will run with the default configuration:
 632:../Shared/Libraries/STM32F4xx_StdPeriph_Driver/src/stm32f4xx_tim.c ****           - Autoreload value = 0xFFFF
 633:../Shared/Libraries/STM32F4xx_StdPeriph_Driver/src/stm32f4xx_tim.c ****           - Prescaler value = 0x0000
 634:../Shared/Libraries/STM32F4xx_StdPeriph_Driver/src/stm32f4xx_tim.c ****           - Counter mode = Up counting
 635:../Shared/Libraries/STM32F4xx_StdPeriph_Driver/src/stm32f4xx_tim.c ****           - Clock Division = TIM_CKD_DIV1
 636:../Shared/Libraries/STM32F4xx_StdPeriph_Driver/src/stm32f4xx_tim.c ****           
 637:../Shared/Libraries/STM32F4xx_StdPeriph_Driver/src/stm32f4xx_tim.c ****        3. Fill the TIM_OCInitStruct with the desired parameters including:
 638:../Shared/Libraries/STM32F4xx_StdPeriph_Driver/src/stm32f4xx_tim.c ****           - The TIM Output Compare mode: TIM_OCMode
 639:../Shared/Libraries/STM32F4xx_StdPeriph_Driver/src/stm32f4xx_tim.c ****           - TIM Output State: TIM_OutputState
 640:../Shared/Libraries/STM32F4xx_StdPeriph_Driver/src/stm32f4xx_tim.c ****           - TIM Pulse value: TIM_Pulse
 641:../Shared/Libraries/STM32F4xx_StdPeriph_Driver/src/stm32f4xx_tim.c ****           - TIM Output Compare Polarity : TIM_OCPolarity
 642:../Shared/Libraries/STM32F4xx_StdPeriph_Driver/src/stm32f4xx_tim.c ****        
 643:../Shared/Libraries/STM32F4xx_StdPeriph_Driver/src/stm32f4xx_tim.c ****        4. Call TIM_OCxInit(TIMx, &TIM_OCInitStruct) to configure the desired channel with the 
 644:../Shared/Libraries/STM32F4xx_StdPeriph_Driver/src/stm32f4xx_tim.c ****           corresponding configuration
 645:../Shared/Libraries/STM32F4xx_StdPeriph_Driver/src/stm32f4xx_tim.c ****        
 646:../Shared/Libraries/STM32F4xx_StdPeriph_Driver/src/stm32f4xx_tim.c ****        5. Call the TIM_Cmd(ENABLE) function to enable the TIM counter.
 647:../Shared/Libraries/STM32F4xx_StdPeriph_Driver/src/stm32f4xx_tim.c ****        
 648:../Shared/Libraries/STM32F4xx_StdPeriph_Driver/src/stm32f4xx_tim.c ****        Note1: All other functions can be used separately to modify, if needed,
 649:../Shared/Libraries/STM32F4xx_StdPeriph_Driver/src/stm32f4xx_tim.c ****               a specific feature of the Timer. 
 650:../Shared/Libraries/STM32F4xx_StdPeriph_Driver/src/stm32f4xx_tim.c ****           
 651:../Shared/Libraries/STM32F4xx_StdPeriph_Driver/src/stm32f4xx_tim.c ****        Note2: In case of PWM mode, this function is mandatory:
 652:../Shared/Libraries/STM32F4xx_StdPeriph_Driver/src/stm32f4xx_tim.c ****               TIM_OCxPreloadConfig(TIMx, TIM_OCPreload_ENABLE); 
 653:../Shared/Libraries/STM32F4xx_StdPeriph_Driver/src/stm32f4xx_tim.c ****               
 654:../Shared/Libraries/STM32F4xx_StdPeriph_Driver/src/stm32f4xx_tim.c ****        Note3: If the corresponding interrupt or DMA request are needed, the user should:
 655:../Shared/Libraries/STM32F4xx_StdPeriph_Driver/src/stm32f4xx_tim.c ****                 1. Enable the NVIC (or the DMA) to use the TIM interrupts (or DMA requests). 
 656:../Shared/Libraries/STM32F4xx_StdPeriph_Driver/src/stm32f4xx_tim.c ****                 2. Enable the corresponding interrupt (or DMA request) using the function 
 657:../Shared/Libraries/STM32F4xx_StdPeriph_Driver/src/stm32f4xx_tim.c ****                    TIM_ITConfig(TIMx, TIM_IT_CCx) (or TIM_DMA_Cmd(TIMx, TIM_DMA_CCx))   
 658:../Shared/Libraries/STM32F4xx_StdPeriph_Driver/src/stm32f4xx_tim.c **** 
 659:../Shared/Libraries/STM32F4xx_StdPeriph_Driver/src/stm32f4xx_tim.c **** @endverbatim
 660:../Shared/Libraries/STM32F4xx_StdPeriph_Driver/src/stm32f4xx_tim.c ****   * @{
 661:../Shared/Libraries/STM32F4xx_StdPeriph_Driver/src/stm32f4xx_tim.c ****   */
 662:../Shared/Libraries/STM32F4xx_StdPeriph_Driver/src/stm32f4xx_tim.c **** 
 663:../Shared/Libraries/STM32F4xx_StdPeriph_Driver/src/stm32f4xx_tim.c **** /**
 664:../Shared/Libraries/STM32F4xx_StdPeriph_Driver/src/stm32f4xx_tim.c ****   * @brief  Initializes the TIMx Channel1 according to the specified parameters in
 665:../Shared/Libraries/STM32F4xx_StdPeriph_Driver/src/stm32f4xx_tim.c ****   *         the TIM_OCInitStruct.
 666:../Shared/Libraries/STM32F4xx_StdPeriph_Driver/src/stm32f4xx_tim.c ****   * @param  TIMx: where x can be 1 to 14 except 6 and 7, to select the TIM peripheral.
 667:../Shared/Libraries/STM32F4xx_StdPeriph_Driver/src/stm32f4xx_tim.c ****   * @param  TIM_OCInitStruct: pointer to a TIM_OCInitTypeDef structure that contains
 668:../Shared/Libraries/STM32F4xx_StdPeriph_Driver/src/stm32f4xx_tim.c ****   *         the configuration information for the specified TIM peripheral.
 669:../Shared/Libraries/STM32F4xx_StdPeriph_Driver/src/stm32f4xx_tim.c ****   * @retval None
 670:../Shared/Libraries/STM32F4xx_StdPeriph_Driver/src/stm32f4xx_tim.c ****   */
 671:../Shared/Libraries/STM32F4xx_StdPeriph_Driver/src/stm32f4xx_tim.c **** void TIM_OC1Init(TIM_TypeDef* TIMx, TIM_OCInitTypeDef* TIM_OCInitStruct)
 672:../Shared/Libraries/STM32F4xx_StdPeriph_Driver/src/stm32f4xx_tim.c **** {
 1238              		.loc 1 672 1
 1239              		.cfi_startproc
 1240              		@ args = 0, pretend = 0, frame = 16
 1241              		@ frame_needed = 1, uses_anonymous_args = 0
 1242              		@ link register save eliminated.
 1243 0000 80B4     		push	{r7}
 1244              	.LCFI89:
 1245              		.cfi_def_cfa_offset 4
 1246              		.cfi_offset 7, -4
 1247 0002 85B0     		sub	sp, sp, #20
 1248              	.LCFI90:
 1249              		.cfi_def_cfa_offset 24
 1250 0004 00AF     		add	r7, sp, #0
ARM GAS  /tmp/cc2zcHeL.s 			page 35


 1251              	.LCFI91:
 1252              		.cfi_def_cfa_register 7
 1253 0006 7860     		str	r0, [r7, #4]
 1254 0008 3960     		str	r1, [r7]
 673:../Shared/Libraries/STM32F4xx_StdPeriph_Driver/src/stm32f4xx_tim.c ****   uint16_t tmpccmrx = 0, tmpccer = 0, tmpcr2 = 0;
 1255              		.loc 1 673 12
 1256 000a 0023     		movs	r3, #0
 1257 000c 7B81     		strh	r3, [r7, #10]	@ movhi
 1258              		.loc 1 673 26
 1259 000e 0023     		movs	r3, #0
 1260 0010 FB81     		strh	r3, [r7, #14]	@ movhi
 1261              		.loc 1 673 39
 1262 0012 0023     		movs	r3, #0
 1263 0014 BB81     		strh	r3, [r7, #12]	@ movhi
 674:../Shared/Libraries/STM32F4xx_StdPeriph_Driver/src/stm32f4xx_tim.c ****    
 675:../Shared/Libraries/STM32F4xx_StdPeriph_Driver/src/stm32f4xx_tim.c ****   /* Check the parameters */
 676:../Shared/Libraries/STM32F4xx_StdPeriph_Driver/src/stm32f4xx_tim.c ****   assert_param(IS_TIM_LIST1_PERIPH(TIMx)); 
 677:../Shared/Libraries/STM32F4xx_StdPeriph_Driver/src/stm32f4xx_tim.c ****   assert_param(IS_TIM_OC_MODE(TIM_OCInitStruct->TIM_OCMode));
 678:../Shared/Libraries/STM32F4xx_StdPeriph_Driver/src/stm32f4xx_tim.c ****   assert_param(IS_TIM_OUTPUT_STATE(TIM_OCInitStruct->TIM_OutputState));
 679:../Shared/Libraries/STM32F4xx_StdPeriph_Driver/src/stm32f4xx_tim.c ****   assert_param(IS_TIM_OC_POLARITY(TIM_OCInitStruct->TIM_OCPolarity));   
 680:../Shared/Libraries/STM32F4xx_StdPeriph_Driver/src/stm32f4xx_tim.c **** 
 681:../Shared/Libraries/STM32F4xx_StdPeriph_Driver/src/stm32f4xx_tim.c ****   /* Disable the Channel 1: Reset the CC1E Bit */
 682:../Shared/Libraries/STM32F4xx_StdPeriph_Driver/src/stm32f4xx_tim.c ****   TIMx->CCER &= (uint16_t)~TIM_CCER_CC1E;
 1264              		.loc 1 682 7
 1265 0016 7B68     		ldr	r3, [r7, #4]
 1266 0018 1B8C     		ldrh	r3, [r3, #32]	@ movhi
 1267 001a 9BB2     		uxth	r3, r3
 1268              		.loc 1 682 14
 1269 001c 23F00103 		bic	r3, r3, #1
 1270 0020 9AB2     		uxth	r2, r3
 1271 0022 7B68     		ldr	r3, [r7, #4]
 1272 0024 1A84     		strh	r2, [r3, #32]	@ movhi
 683:../Shared/Libraries/STM32F4xx_StdPeriph_Driver/src/stm32f4xx_tim.c ****   
 684:../Shared/Libraries/STM32F4xx_StdPeriph_Driver/src/stm32f4xx_tim.c ****   /* Get the TIMx CCER register value */
 685:../Shared/Libraries/STM32F4xx_StdPeriph_Driver/src/stm32f4xx_tim.c ****   tmpccer = TIMx->CCER;
 1273              		.loc 1 685 11
 1274 0026 7B68     		ldr	r3, [r7, #4]
 1275 0028 1B8C     		ldrh	r3, [r3, #32]	@ movhi
 1276 002a FB81     		strh	r3, [r7, #14]	@ movhi
 686:../Shared/Libraries/STM32F4xx_StdPeriph_Driver/src/stm32f4xx_tim.c ****   /* Get the TIMx CR2 register value */
 687:../Shared/Libraries/STM32F4xx_StdPeriph_Driver/src/stm32f4xx_tim.c ****   tmpcr2 =  TIMx->CR2;
 1277              		.loc 1 687 10
 1278 002c 7B68     		ldr	r3, [r7, #4]
 1279 002e 9B88     		ldrh	r3, [r3, #4]	@ movhi
 1280 0030 BB81     		strh	r3, [r7, #12]	@ movhi
 688:../Shared/Libraries/STM32F4xx_StdPeriph_Driver/src/stm32f4xx_tim.c ****   
 689:../Shared/Libraries/STM32F4xx_StdPeriph_Driver/src/stm32f4xx_tim.c ****   /* Get the TIMx CCMR1 register value */
 690:../Shared/Libraries/STM32F4xx_StdPeriph_Driver/src/stm32f4xx_tim.c ****   tmpccmrx = TIMx->CCMR1;
 1281              		.loc 1 690 12
 1282 0032 7B68     		ldr	r3, [r7, #4]
 1283 0034 1B8B     		ldrh	r3, [r3, #24]	@ movhi
 1284 0036 7B81     		strh	r3, [r7, #10]	@ movhi
 691:../Shared/Libraries/STM32F4xx_StdPeriph_Driver/src/stm32f4xx_tim.c ****     
 692:../Shared/Libraries/STM32F4xx_StdPeriph_Driver/src/stm32f4xx_tim.c ****   /* Reset the Output Compare Mode Bits */
 693:../Shared/Libraries/STM32F4xx_StdPeriph_Driver/src/stm32f4xx_tim.c ****   tmpccmrx &= (uint16_t)~TIM_CCMR1_OC1M;
 1285              		.loc 1 693 12
 1286 0038 7B89     		ldrh	r3, [r7, #10]	@ movhi
ARM GAS  /tmp/cc2zcHeL.s 			page 36


 1287 003a 23F07003 		bic	r3, r3, #112
 1288 003e 7B81     		strh	r3, [r7, #10]	@ movhi
 694:../Shared/Libraries/STM32F4xx_StdPeriph_Driver/src/stm32f4xx_tim.c ****   tmpccmrx &= (uint16_t)~TIM_CCMR1_CC1S;
 1289              		.loc 1 694 12
 1290 0040 7B89     		ldrh	r3, [r7, #10]	@ movhi
 1291 0042 23F00303 		bic	r3, r3, #3
 1292 0046 7B81     		strh	r3, [r7, #10]	@ movhi
 695:../Shared/Libraries/STM32F4xx_StdPeriph_Driver/src/stm32f4xx_tim.c ****   /* Select the Output Compare Mode */
 696:../Shared/Libraries/STM32F4xx_StdPeriph_Driver/src/stm32f4xx_tim.c ****   tmpccmrx |= TIM_OCInitStruct->TIM_OCMode;
 1293              		.loc 1 696 31
 1294 0048 3B68     		ldr	r3, [r7]
 1295 004a 1A88     		ldrh	r2, [r3]
 1296              		.loc 1 696 12
 1297 004c 7B89     		ldrh	r3, [r7, #10]	@ movhi
 1298 004e 1343     		orrs	r3, r3, r2
 1299 0050 7B81     		strh	r3, [r7, #10]	@ movhi
 697:../Shared/Libraries/STM32F4xx_StdPeriph_Driver/src/stm32f4xx_tim.c ****   
 698:../Shared/Libraries/STM32F4xx_StdPeriph_Driver/src/stm32f4xx_tim.c ****   /* Reset the Output Polarity level */
 699:../Shared/Libraries/STM32F4xx_StdPeriph_Driver/src/stm32f4xx_tim.c ****   tmpccer &= (uint16_t)~TIM_CCER_CC1P;
 1300              		.loc 1 699 11
 1301 0052 FB89     		ldrh	r3, [r7, #14]	@ movhi
 1302 0054 23F00203 		bic	r3, r3, #2
 1303 0058 FB81     		strh	r3, [r7, #14]	@ movhi
 700:../Shared/Libraries/STM32F4xx_StdPeriph_Driver/src/stm32f4xx_tim.c ****   /* Set the Output Compare Polarity */
 701:../Shared/Libraries/STM32F4xx_StdPeriph_Driver/src/stm32f4xx_tim.c ****   tmpccer |= TIM_OCInitStruct->TIM_OCPolarity;
 1304              		.loc 1 701 30
 1305 005a 3B68     		ldr	r3, [r7]
 1306 005c 9A89     		ldrh	r2, [r3, #12]
 1307              		.loc 1 701 11
 1308 005e FB89     		ldrh	r3, [r7, #14]	@ movhi
 1309 0060 1343     		orrs	r3, r3, r2
 1310 0062 FB81     		strh	r3, [r7, #14]	@ movhi
 702:../Shared/Libraries/STM32F4xx_StdPeriph_Driver/src/stm32f4xx_tim.c ****   
 703:../Shared/Libraries/STM32F4xx_StdPeriph_Driver/src/stm32f4xx_tim.c ****   /* Set the Output State */
 704:../Shared/Libraries/STM32F4xx_StdPeriph_Driver/src/stm32f4xx_tim.c ****   tmpccer |= TIM_OCInitStruct->TIM_OutputState;
 1311              		.loc 1 704 30
 1312 0064 3B68     		ldr	r3, [r7]
 1313 0066 5A88     		ldrh	r2, [r3, #2]
 1314              		.loc 1 704 11
 1315 0068 FB89     		ldrh	r3, [r7, #14]	@ movhi
 1316 006a 1343     		orrs	r3, r3, r2
 1317 006c FB81     		strh	r3, [r7, #14]	@ movhi
 705:../Shared/Libraries/STM32F4xx_StdPeriph_Driver/src/stm32f4xx_tim.c ****     
 706:../Shared/Libraries/STM32F4xx_StdPeriph_Driver/src/stm32f4xx_tim.c ****   if((TIMx == TIM1) || (TIMx == TIM8))
 1318              		.loc 1 706 5
 1319 006e 7B68     		ldr	r3, [r7, #4]
 1320 0070 1E4A     		ldr	r2, .L57
 1321 0072 9342     		cmp	r3, r2
 1322 0074 03D0     		beq	.L55
 1323              		.loc 1 706 21 discriminator 1
 1324 0076 7B68     		ldr	r3, [r7, #4]
 1325 0078 1D4A     		ldr	r2, .L57+4
 1326 007a 9342     		cmp	r3, r2
 1327 007c 23D1     		bne	.L56
 1328              	.L55:
 707:../Shared/Libraries/STM32F4xx_StdPeriph_Driver/src/stm32f4xx_tim.c ****   {
 708:../Shared/Libraries/STM32F4xx_StdPeriph_Driver/src/stm32f4xx_tim.c ****     assert_param(IS_TIM_OUTPUTN_STATE(TIM_OCInitStruct->TIM_OutputNState));
ARM GAS  /tmp/cc2zcHeL.s 			page 37


 709:../Shared/Libraries/STM32F4xx_StdPeriph_Driver/src/stm32f4xx_tim.c ****     assert_param(IS_TIM_OCN_POLARITY(TIM_OCInitStruct->TIM_OCNPolarity));
 710:../Shared/Libraries/STM32F4xx_StdPeriph_Driver/src/stm32f4xx_tim.c ****     assert_param(IS_TIM_OCNIDLE_STATE(TIM_OCInitStruct->TIM_OCNIdleState));
 711:../Shared/Libraries/STM32F4xx_StdPeriph_Driver/src/stm32f4xx_tim.c ****     assert_param(IS_TIM_OCIDLE_STATE(TIM_OCInitStruct->TIM_OCIdleState));
 712:../Shared/Libraries/STM32F4xx_StdPeriph_Driver/src/stm32f4xx_tim.c ****     
 713:../Shared/Libraries/STM32F4xx_StdPeriph_Driver/src/stm32f4xx_tim.c ****     /* Reset the Output N Polarity level */
 714:../Shared/Libraries/STM32F4xx_StdPeriph_Driver/src/stm32f4xx_tim.c ****     tmpccer &= (uint16_t)~TIM_CCER_CC1NP;
 1329              		.loc 1 714 13
 1330 007e FB89     		ldrh	r3, [r7, #14]	@ movhi
 1331 0080 23F00803 		bic	r3, r3, #8
 1332 0084 FB81     		strh	r3, [r7, #14]	@ movhi
 715:../Shared/Libraries/STM32F4xx_StdPeriph_Driver/src/stm32f4xx_tim.c ****     /* Set the Output N Polarity */
 716:../Shared/Libraries/STM32F4xx_StdPeriph_Driver/src/stm32f4xx_tim.c ****     tmpccer |= TIM_OCInitStruct->TIM_OCNPolarity;
 1333              		.loc 1 716 32
 1334 0086 3B68     		ldr	r3, [r7]
 1335 0088 DA89     		ldrh	r2, [r3, #14]
 1336              		.loc 1 716 13
 1337 008a FB89     		ldrh	r3, [r7, #14]	@ movhi
 1338 008c 1343     		orrs	r3, r3, r2
 1339 008e FB81     		strh	r3, [r7, #14]	@ movhi
 717:../Shared/Libraries/STM32F4xx_StdPeriph_Driver/src/stm32f4xx_tim.c ****     /* Reset the Output N State */
 718:../Shared/Libraries/STM32F4xx_StdPeriph_Driver/src/stm32f4xx_tim.c ****     tmpccer &= (uint16_t)~TIM_CCER_CC1NE;
 1340              		.loc 1 718 13
 1341 0090 FB89     		ldrh	r3, [r7, #14]	@ movhi
 1342 0092 23F00403 		bic	r3, r3, #4
 1343 0096 FB81     		strh	r3, [r7, #14]	@ movhi
 719:../Shared/Libraries/STM32F4xx_StdPeriph_Driver/src/stm32f4xx_tim.c ****     
 720:../Shared/Libraries/STM32F4xx_StdPeriph_Driver/src/stm32f4xx_tim.c ****     /* Set the Output N State */
 721:../Shared/Libraries/STM32F4xx_StdPeriph_Driver/src/stm32f4xx_tim.c ****     tmpccer |= TIM_OCInitStruct->TIM_OutputNState;
 1344              		.loc 1 721 32
 1345 0098 3B68     		ldr	r3, [r7]
 1346 009a 9A88     		ldrh	r2, [r3, #4]
 1347              		.loc 1 721 13
 1348 009c FB89     		ldrh	r3, [r7, #14]	@ movhi
 1349 009e 1343     		orrs	r3, r3, r2
 1350 00a0 FB81     		strh	r3, [r7, #14]	@ movhi
 722:../Shared/Libraries/STM32F4xx_StdPeriph_Driver/src/stm32f4xx_tim.c ****     /* Reset the Output Compare and Output Compare N IDLE State */
 723:../Shared/Libraries/STM32F4xx_StdPeriph_Driver/src/stm32f4xx_tim.c ****     tmpcr2 &= (uint16_t)~TIM_CR2_OIS1;
 1351              		.loc 1 723 12
 1352 00a2 BB89     		ldrh	r3, [r7, #12]	@ movhi
 1353 00a4 23F48073 		bic	r3, r3, #256
 1354 00a8 BB81     		strh	r3, [r7, #12]	@ movhi
 724:../Shared/Libraries/STM32F4xx_StdPeriph_Driver/src/stm32f4xx_tim.c ****     tmpcr2 &= (uint16_t)~TIM_CR2_OIS1N;
 1355              		.loc 1 724 12
 1356 00aa BB89     		ldrh	r3, [r7, #12]	@ movhi
 1357 00ac 23F40073 		bic	r3, r3, #512
 1358 00b0 BB81     		strh	r3, [r7, #12]	@ movhi
 725:../Shared/Libraries/STM32F4xx_StdPeriph_Driver/src/stm32f4xx_tim.c ****     /* Set the Output Idle state */
 726:../Shared/Libraries/STM32F4xx_StdPeriph_Driver/src/stm32f4xx_tim.c ****     tmpcr2 |= TIM_OCInitStruct->TIM_OCIdleState;
 1359              		.loc 1 726 31
 1360 00b2 3B68     		ldr	r3, [r7]
 1361 00b4 1A8A     		ldrh	r2, [r3, #16]
 1362              		.loc 1 726 12
 1363 00b6 BB89     		ldrh	r3, [r7, #12]	@ movhi
 1364 00b8 1343     		orrs	r3, r3, r2
 1365 00ba BB81     		strh	r3, [r7, #12]	@ movhi
 727:../Shared/Libraries/STM32F4xx_StdPeriph_Driver/src/stm32f4xx_tim.c ****     /* Set the Output N Idle state */
 728:../Shared/Libraries/STM32F4xx_StdPeriph_Driver/src/stm32f4xx_tim.c ****     tmpcr2 |= TIM_OCInitStruct->TIM_OCNIdleState;
ARM GAS  /tmp/cc2zcHeL.s 			page 38


 1366              		.loc 1 728 31
 1367 00bc 3B68     		ldr	r3, [r7]
 1368 00be 5A8A     		ldrh	r2, [r3, #18]
 1369              		.loc 1 728 12
 1370 00c0 BB89     		ldrh	r3, [r7, #12]	@ movhi
 1371 00c2 1343     		orrs	r3, r3, r2
 1372 00c4 BB81     		strh	r3, [r7, #12]	@ movhi
 1373              	.L56:
 729:../Shared/Libraries/STM32F4xx_StdPeriph_Driver/src/stm32f4xx_tim.c ****   }
 730:../Shared/Libraries/STM32F4xx_StdPeriph_Driver/src/stm32f4xx_tim.c ****   /* Write to TIMx CR2 */
 731:../Shared/Libraries/STM32F4xx_StdPeriph_Driver/src/stm32f4xx_tim.c ****   TIMx->CR2 = tmpcr2;
 1374              		.loc 1 731 13
 1375 00c6 7B68     		ldr	r3, [r7, #4]
 1376 00c8 BA89     		ldrh	r2, [r7, #12]	@ movhi
 1377 00ca 9A80     		strh	r2, [r3, #4]	@ movhi
 732:../Shared/Libraries/STM32F4xx_StdPeriph_Driver/src/stm32f4xx_tim.c ****   
 733:../Shared/Libraries/STM32F4xx_StdPeriph_Driver/src/stm32f4xx_tim.c ****   /* Write to TIMx CCMR1 */
 734:../Shared/Libraries/STM32F4xx_StdPeriph_Driver/src/stm32f4xx_tim.c ****   TIMx->CCMR1 = tmpccmrx;
 1378              		.loc 1 734 15
 1379 00cc 7B68     		ldr	r3, [r7, #4]
 1380 00ce 7A89     		ldrh	r2, [r7, #10]	@ movhi
 1381 00d0 1A83     		strh	r2, [r3, #24]	@ movhi
 735:../Shared/Libraries/STM32F4xx_StdPeriph_Driver/src/stm32f4xx_tim.c ****   
 736:../Shared/Libraries/STM32F4xx_StdPeriph_Driver/src/stm32f4xx_tim.c ****   /* Set the Capture Compare Register value */
 737:../Shared/Libraries/STM32F4xx_StdPeriph_Driver/src/stm32f4xx_tim.c ****   TIMx->CCR1 = TIM_OCInitStruct->TIM_Pulse;
 1382              		.loc 1 737 32
 1383 00d2 3B68     		ldr	r3, [r7]
 1384 00d4 9A68     		ldr	r2, [r3, #8]
 1385              		.loc 1 737 14
 1386 00d6 7B68     		ldr	r3, [r7, #4]
 1387 00d8 5A63     		str	r2, [r3, #52]
 738:../Shared/Libraries/STM32F4xx_StdPeriph_Driver/src/stm32f4xx_tim.c ****   
 739:../Shared/Libraries/STM32F4xx_StdPeriph_Driver/src/stm32f4xx_tim.c ****   /* Write to TIMx CCER */
 740:../Shared/Libraries/STM32F4xx_StdPeriph_Driver/src/stm32f4xx_tim.c ****   TIMx->CCER = tmpccer;
 1388              		.loc 1 740 14
 1389 00da 7B68     		ldr	r3, [r7, #4]
 1390 00dc FA89     		ldrh	r2, [r7, #14]	@ movhi
 1391 00de 1A84     		strh	r2, [r3, #32]	@ movhi
 741:../Shared/Libraries/STM32F4xx_StdPeriph_Driver/src/stm32f4xx_tim.c **** }
 1392              		.loc 1 741 1
 1393 00e0 00BF     		nop
 1394 00e2 1437     		adds	r7, r7, #20
 1395              	.LCFI92:
 1396              		.cfi_def_cfa_offset 4
 1397 00e4 BD46     		mov	sp, r7
 1398              	.LCFI93:
 1399              		.cfi_def_cfa_register 13
 1400              		@ sp needed
 1401 00e6 5DF8047B 		ldr	r7, [sp], #4
 1402              	.LCFI94:
 1403              		.cfi_restore 7
 1404              		.cfi_def_cfa_offset 0
 1405 00ea 7047     		bx	lr
 1406              	.L58:
 1407              		.align	2
 1408              	.L57:
 1409 00ec 00000140 		.word	1073807360
ARM GAS  /tmp/cc2zcHeL.s 			page 39


 1410 00f0 00040140 		.word	1073808384
 1411              		.cfi_endproc
 1412              	.LFE125:
 1414              		.section	.text.TIM_OC2Init,"ax",%progbits
 1415              		.align	1
 1416              		.global	TIM_OC2Init
 1417              		.syntax unified
 1418              		.thumb
 1419              		.thumb_func
 1421              	TIM_OC2Init:
 1422              	.LFB126:
 742:../Shared/Libraries/STM32F4xx_StdPeriph_Driver/src/stm32f4xx_tim.c **** 
 743:../Shared/Libraries/STM32F4xx_StdPeriph_Driver/src/stm32f4xx_tim.c **** /**
 744:../Shared/Libraries/STM32F4xx_StdPeriph_Driver/src/stm32f4xx_tim.c ****   * @brief  Initializes the TIMx Channel2 according to the specified parameters 
 745:../Shared/Libraries/STM32F4xx_StdPeriph_Driver/src/stm32f4xx_tim.c ****   *         in the TIM_OCInitStruct.
 746:../Shared/Libraries/STM32F4xx_StdPeriph_Driver/src/stm32f4xx_tim.c ****   * @param  TIMx: where x can be 1, 2, 3, 4, 5, 8, 9 or 12 to select the TIM 
 747:../Shared/Libraries/STM32F4xx_StdPeriph_Driver/src/stm32f4xx_tim.c ****   *         peripheral.
 748:../Shared/Libraries/STM32F4xx_StdPeriph_Driver/src/stm32f4xx_tim.c ****   * @param  TIM_OCInitStruct: pointer to a TIM_OCInitTypeDef structure that contains
 749:../Shared/Libraries/STM32F4xx_StdPeriph_Driver/src/stm32f4xx_tim.c ****   *         the configuration information for the specified TIM peripheral.
 750:../Shared/Libraries/STM32F4xx_StdPeriph_Driver/src/stm32f4xx_tim.c ****   * @retval None
 751:../Shared/Libraries/STM32F4xx_StdPeriph_Driver/src/stm32f4xx_tim.c ****   */
 752:../Shared/Libraries/STM32F4xx_StdPeriph_Driver/src/stm32f4xx_tim.c **** void TIM_OC2Init(TIM_TypeDef* TIMx, TIM_OCInitTypeDef* TIM_OCInitStruct)
 753:../Shared/Libraries/STM32F4xx_StdPeriph_Driver/src/stm32f4xx_tim.c **** {
 1423              		.loc 1 753 1
 1424              		.cfi_startproc
 1425              		@ args = 0, pretend = 0, frame = 16
 1426              		@ frame_needed = 1, uses_anonymous_args = 0
 1427              		@ link register save eliminated.
 1428 0000 80B4     		push	{r7}
 1429              	.LCFI95:
 1430              		.cfi_def_cfa_offset 4
 1431              		.cfi_offset 7, -4
 1432 0002 85B0     		sub	sp, sp, #20
 1433              	.LCFI96:
 1434              		.cfi_def_cfa_offset 24
 1435 0004 00AF     		add	r7, sp, #0
 1436              	.LCFI97:
 1437              		.cfi_def_cfa_register 7
 1438 0006 7860     		str	r0, [r7, #4]
 1439 0008 3960     		str	r1, [r7]
 754:../Shared/Libraries/STM32F4xx_StdPeriph_Driver/src/stm32f4xx_tim.c ****   uint16_t tmpccmrx = 0, tmpccer = 0, tmpcr2 = 0;
 1440              		.loc 1 754 12
 1441 000a 0023     		movs	r3, #0
 1442 000c 7B81     		strh	r3, [r7, #10]	@ movhi
 1443              		.loc 1 754 26
 1444 000e 0023     		movs	r3, #0
 1445 0010 FB81     		strh	r3, [r7, #14]	@ movhi
 1446              		.loc 1 754 39
 1447 0012 0023     		movs	r3, #0
 1448 0014 BB81     		strh	r3, [r7, #12]	@ movhi
 755:../Shared/Libraries/STM32F4xx_StdPeriph_Driver/src/stm32f4xx_tim.c ****    
 756:../Shared/Libraries/STM32F4xx_StdPeriph_Driver/src/stm32f4xx_tim.c ****   /* Check the parameters */
 757:../Shared/Libraries/STM32F4xx_StdPeriph_Driver/src/stm32f4xx_tim.c ****   assert_param(IS_TIM_LIST2_PERIPH(TIMx)); 
 758:../Shared/Libraries/STM32F4xx_StdPeriph_Driver/src/stm32f4xx_tim.c ****   assert_param(IS_TIM_OC_MODE(TIM_OCInitStruct->TIM_OCMode));
 759:../Shared/Libraries/STM32F4xx_StdPeriph_Driver/src/stm32f4xx_tim.c ****   assert_param(IS_TIM_OUTPUT_STATE(TIM_OCInitStruct->TIM_OutputState));
 760:../Shared/Libraries/STM32F4xx_StdPeriph_Driver/src/stm32f4xx_tim.c ****   assert_param(IS_TIM_OC_POLARITY(TIM_OCInitStruct->TIM_OCPolarity));   
 761:../Shared/Libraries/STM32F4xx_StdPeriph_Driver/src/stm32f4xx_tim.c **** 
ARM GAS  /tmp/cc2zcHeL.s 			page 40


 762:../Shared/Libraries/STM32F4xx_StdPeriph_Driver/src/stm32f4xx_tim.c ****   /* Disable the Channel 2: Reset the CC2E Bit */
 763:../Shared/Libraries/STM32F4xx_StdPeriph_Driver/src/stm32f4xx_tim.c ****   TIMx->CCER &= (uint16_t)~TIM_CCER_CC2E;
 1449              		.loc 1 763 7
 1450 0016 7B68     		ldr	r3, [r7, #4]
 1451 0018 1B8C     		ldrh	r3, [r3, #32]	@ movhi
 1452 001a 9BB2     		uxth	r3, r3
 1453              		.loc 1 763 14
 1454 001c 23F01003 		bic	r3, r3, #16
 1455 0020 9AB2     		uxth	r2, r3
 1456 0022 7B68     		ldr	r3, [r7, #4]
 1457 0024 1A84     		strh	r2, [r3, #32]	@ movhi
 764:../Shared/Libraries/STM32F4xx_StdPeriph_Driver/src/stm32f4xx_tim.c ****   
 765:../Shared/Libraries/STM32F4xx_StdPeriph_Driver/src/stm32f4xx_tim.c ****   /* Get the TIMx CCER register value */  
 766:../Shared/Libraries/STM32F4xx_StdPeriph_Driver/src/stm32f4xx_tim.c ****   tmpccer = TIMx->CCER;
 1458              		.loc 1 766 11
 1459 0026 7B68     		ldr	r3, [r7, #4]
 1460 0028 1B8C     		ldrh	r3, [r3, #32]	@ movhi
 1461 002a FB81     		strh	r3, [r7, #14]	@ movhi
 767:../Shared/Libraries/STM32F4xx_StdPeriph_Driver/src/stm32f4xx_tim.c ****   /* Get the TIMx CR2 register value */
 768:../Shared/Libraries/STM32F4xx_StdPeriph_Driver/src/stm32f4xx_tim.c ****   tmpcr2 =  TIMx->CR2;
 1462              		.loc 1 768 10
 1463 002c 7B68     		ldr	r3, [r7, #4]
 1464 002e 9B88     		ldrh	r3, [r3, #4]	@ movhi
 1465 0030 BB81     		strh	r3, [r7, #12]	@ movhi
 769:../Shared/Libraries/STM32F4xx_StdPeriph_Driver/src/stm32f4xx_tim.c ****   
 770:../Shared/Libraries/STM32F4xx_StdPeriph_Driver/src/stm32f4xx_tim.c ****   /* Get the TIMx CCMR1 register value */
 771:../Shared/Libraries/STM32F4xx_StdPeriph_Driver/src/stm32f4xx_tim.c ****   tmpccmrx = TIMx->CCMR1;
 1466              		.loc 1 771 12
 1467 0032 7B68     		ldr	r3, [r7, #4]
 1468 0034 1B8B     		ldrh	r3, [r3, #24]	@ movhi
 1469 0036 7B81     		strh	r3, [r7, #10]	@ movhi
 772:../Shared/Libraries/STM32F4xx_StdPeriph_Driver/src/stm32f4xx_tim.c ****     
 773:../Shared/Libraries/STM32F4xx_StdPeriph_Driver/src/stm32f4xx_tim.c ****   /* Reset the Output Compare mode and Capture/Compare selection Bits */
 774:../Shared/Libraries/STM32F4xx_StdPeriph_Driver/src/stm32f4xx_tim.c ****   tmpccmrx &= (uint16_t)~TIM_CCMR1_OC2M;
 1470              		.loc 1 774 12
 1471 0038 7B89     		ldrh	r3, [r7, #10]	@ movhi
 1472 003a 23F4E043 		bic	r3, r3, #28672
 1473 003e 7B81     		strh	r3, [r7, #10]	@ movhi
 775:../Shared/Libraries/STM32F4xx_StdPeriph_Driver/src/stm32f4xx_tim.c ****   tmpccmrx &= (uint16_t)~TIM_CCMR1_CC2S;
 1474              		.loc 1 775 12
 1475 0040 7B89     		ldrh	r3, [r7, #10]	@ movhi
 1476 0042 23F44073 		bic	r3, r3, #768
 1477 0046 7B81     		strh	r3, [r7, #10]	@ movhi
 776:../Shared/Libraries/STM32F4xx_StdPeriph_Driver/src/stm32f4xx_tim.c ****   
 777:../Shared/Libraries/STM32F4xx_StdPeriph_Driver/src/stm32f4xx_tim.c ****   /* Select the Output Compare Mode */
 778:../Shared/Libraries/STM32F4xx_StdPeriph_Driver/src/stm32f4xx_tim.c ****   tmpccmrx |= (uint16_t)(TIM_OCInitStruct->TIM_OCMode << 8);
 1478              		.loc 1 778 42
 1479 0048 3B68     		ldr	r3, [r7]
 1480 004a 1B88     		ldrh	r3, [r3]
 1481              		.loc 1 778 15
 1482 004c 1B02     		lsls	r3, r3, #8
 1483 004e 9AB2     		uxth	r2, r3
 1484              		.loc 1 778 12
 1485 0050 7B89     		ldrh	r3, [r7, #10]	@ movhi
 1486 0052 1343     		orrs	r3, r3, r2
 1487 0054 7B81     		strh	r3, [r7, #10]	@ movhi
 779:../Shared/Libraries/STM32F4xx_StdPeriph_Driver/src/stm32f4xx_tim.c ****   
ARM GAS  /tmp/cc2zcHeL.s 			page 41


 780:../Shared/Libraries/STM32F4xx_StdPeriph_Driver/src/stm32f4xx_tim.c ****   /* Reset the Output Polarity level */
 781:../Shared/Libraries/STM32F4xx_StdPeriph_Driver/src/stm32f4xx_tim.c ****   tmpccer &= (uint16_t)~TIM_CCER_CC2P;
 1488              		.loc 1 781 11
 1489 0056 FB89     		ldrh	r3, [r7, #14]	@ movhi
 1490 0058 23F02003 		bic	r3, r3, #32
 1491 005c FB81     		strh	r3, [r7, #14]	@ movhi
 782:../Shared/Libraries/STM32F4xx_StdPeriph_Driver/src/stm32f4xx_tim.c ****   /* Set the Output Compare Polarity */
 783:../Shared/Libraries/STM32F4xx_StdPeriph_Driver/src/stm32f4xx_tim.c ****   tmpccer |= (uint16_t)(TIM_OCInitStruct->TIM_OCPolarity << 4);
 1492              		.loc 1 783 41
 1493 005e 3B68     		ldr	r3, [r7]
 1494 0060 9B89     		ldrh	r3, [r3, #12]
 1495              		.loc 1 783 14
 1496 0062 1B01     		lsls	r3, r3, #4
 1497 0064 9AB2     		uxth	r2, r3
 1498              		.loc 1 783 11
 1499 0066 FB89     		ldrh	r3, [r7, #14]	@ movhi
 1500 0068 1343     		orrs	r3, r3, r2
 1501 006a FB81     		strh	r3, [r7, #14]	@ movhi
 784:../Shared/Libraries/STM32F4xx_StdPeriph_Driver/src/stm32f4xx_tim.c ****   
 785:../Shared/Libraries/STM32F4xx_StdPeriph_Driver/src/stm32f4xx_tim.c ****   /* Set the Output State */
 786:../Shared/Libraries/STM32F4xx_StdPeriph_Driver/src/stm32f4xx_tim.c ****   tmpccer |= (uint16_t)(TIM_OCInitStruct->TIM_OutputState << 4);
 1502              		.loc 1 786 41
 1503 006c 3B68     		ldr	r3, [r7]
 1504 006e 5B88     		ldrh	r3, [r3, #2]
 1505              		.loc 1 786 14
 1506 0070 1B01     		lsls	r3, r3, #4
 1507 0072 9AB2     		uxth	r2, r3
 1508              		.loc 1 786 11
 1509 0074 FB89     		ldrh	r3, [r7, #14]	@ movhi
 1510 0076 1343     		orrs	r3, r3, r2
 1511 0078 FB81     		strh	r3, [r7, #14]	@ movhi
 787:../Shared/Libraries/STM32F4xx_StdPeriph_Driver/src/stm32f4xx_tim.c ****     
 788:../Shared/Libraries/STM32F4xx_StdPeriph_Driver/src/stm32f4xx_tim.c ****   if((TIMx == TIM1) || (TIMx == TIM8))
 1512              		.loc 1 788 5
 1513 007a 7B68     		ldr	r3, [r7, #4]
 1514 007c 224A     		ldr	r2, .L62
 1515 007e 9342     		cmp	r3, r2
 1516 0080 03D0     		beq	.L60
 1517              		.loc 1 788 21 discriminator 1
 1518 0082 7B68     		ldr	r3, [r7, #4]
 1519 0084 214A     		ldr	r2, .L62+4
 1520 0086 9342     		cmp	r3, r2
 1521 0088 2BD1     		bne	.L61
 1522              	.L60:
 789:../Shared/Libraries/STM32F4xx_StdPeriph_Driver/src/stm32f4xx_tim.c ****   {
 790:../Shared/Libraries/STM32F4xx_StdPeriph_Driver/src/stm32f4xx_tim.c ****     assert_param(IS_TIM_OUTPUTN_STATE(TIM_OCInitStruct->TIM_OutputNState));
 791:../Shared/Libraries/STM32F4xx_StdPeriph_Driver/src/stm32f4xx_tim.c ****     assert_param(IS_TIM_OCN_POLARITY(TIM_OCInitStruct->TIM_OCNPolarity));
 792:../Shared/Libraries/STM32F4xx_StdPeriph_Driver/src/stm32f4xx_tim.c ****     assert_param(IS_TIM_OCNIDLE_STATE(TIM_OCInitStruct->TIM_OCNIdleState));
 793:../Shared/Libraries/STM32F4xx_StdPeriph_Driver/src/stm32f4xx_tim.c ****     assert_param(IS_TIM_OCIDLE_STATE(TIM_OCInitStruct->TIM_OCIdleState));
 794:../Shared/Libraries/STM32F4xx_StdPeriph_Driver/src/stm32f4xx_tim.c ****     
 795:../Shared/Libraries/STM32F4xx_StdPeriph_Driver/src/stm32f4xx_tim.c ****     /* Reset the Output N Polarity level */
 796:../Shared/Libraries/STM32F4xx_StdPeriph_Driver/src/stm32f4xx_tim.c ****     tmpccer &= (uint16_t)~TIM_CCER_CC2NP;
 1523              		.loc 1 796 13
 1524 008a FB89     		ldrh	r3, [r7, #14]	@ movhi
 1525 008c 23F08003 		bic	r3, r3, #128
 1526 0090 FB81     		strh	r3, [r7, #14]	@ movhi
 797:../Shared/Libraries/STM32F4xx_StdPeriph_Driver/src/stm32f4xx_tim.c ****     /* Set the Output N Polarity */
ARM GAS  /tmp/cc2zcHeL.s 			page 42


 798:../Shared/Libraries/STM32F4xx_StdPeriph_Driver/src/stm32f4xx_tim.c ****     tmpccer |= (uint16_t)(TIM_OCInitStruct->TIM_OCNPolarity << 4);
 1527              		.loc 1 798 43
 1528 0092 3B68     		ldr	r3, [r7]
 1529 0094 DB89     		ldrh	r3, [r3, #14]
 1530              		.loc 1 798 16
 1531 0096 1B01     		lsls	r3, r3, #4
 1532 0098 9AB2     		uxth	r2, r3
 1533              		.loc 1 798 13
 1534 009a FB89     		ldrh	r3, [r7, #14]	@ movhi
 1535 009c 1343     		orrs	r3, r3, r2
 1536 009e FB81     		strh	r3, [r7, #14]	@ movhi
 799:../Shared/Libraries/STM32F4xx_StdPeriph_Driver/src/stm32f4xx_tim.c ****     /* Reset the Output N State */
 800:../Shared/Libraries/STM32F4xx_StdPeriph_Driver/src/stm32f4xx_tim.c ****     tmpccer &= (uint16_t)~TIM_CCER_CC2NE;
 1537              		.loc 1 800 13
 1538 00a0 FB89     		ldrh	r3, [r7, #14]	@ movhi
 1539 00a2 23F04003 		bic	r3, r3, #64
 1540 00a6 FB81     		strh	r3, [r7, #14]	@ movhi
 801:../Shared/Libraries/STM32F4xx_StdPeriph_Driver/src/stm32f4xx_tim.c ****     
 802:../Shared/Libraries/STM32F4xx_StdPeriph_Driver/src/stm32f4xx_tim.c ****     /* Set the Output N State */
 803:../Shared/Libraries/STM32F4xx_StdPeriph_Driver/src/stm32f4xx_tim.c ****     tmpccer |= (uint16_t)(TIM_OCInitStruct->TIM_OutputNState << 4);
 1541              		.loc 1 803 43
 1542 00a8 3B68     		ldr	r3, [r7]
 1543 00aa 9B88     		ldrh	r3, [r3, #4]
 1544              		.loc 1 803 16
 1545 00ac 1B01     		lsls	r3, r3, #4
 1546 00ae 9AB2     		uxth	r2, r3
 1547              		.loc 1 803 13
 1548 00b0 FB89     		ldrh	r3, [r7, #14]	@ movhi
 1549 00b2 1343     		orrs	r3, r3, r2
 1550 00b4 FB81     		strh	r3, [r7, #14]	@ movhi
 804:../Shared/Libraries/STM32F4xx_StdPeriph_Driver/src/stm32f4xx_tim.c ****     /* Reset the Output Compare and Output Compare N IDLE State */
 805:../Shared/Libraries/STM32F4xx_StdPeriph_Driver/src/stm32f4xx_tim.c ****     tmpcr2 &= (uint16_t)~TIM_CR2_OIS2;
 1551              		.loc 1 805 12
 1552 00b6 BB89     		ldrh	r3, [r7, #12]	@ movhi
 1553 00b8 23F48063 		bic	r3, r3, #1024
 1554 00bc BB81     		strh	r3, [r7, #12]	@ movhi
 806:../Shared/Libraries/STM32F4xx_StdPeriph_Driver/src/stm32f4xx_tim.c ****     tmpcr2 &= (uint16_t)~TIM_CR2_OIS2N;
 1555              		.loc 1 806 12
 1556 00be BB89     		ldrh	r3, [r7, #12]	@ movhi
 1557 00c0 23F40063 		bic	r3, r3, #2048
 1558 00c4 BB81     		strh	r3, [r7, #12]	@ movhi
 807:../Shared/Libraries/STM32F4xx_StdPeriph_Driver/src/stm32f4xx_tim.c ****     /* Set the Output Idle state */
 808:../Shared/Libraries/STM32F4xx_StdPeriph_Driver/src/stm32f4xx_tim.c ****     tmpcr2 |= (uint16_t)(TIM_OCInitStruct->TIM_OCIdleState << 2);
 1559              		.loc 1 808 42
 1560 00c6 3B68     		ldr	r3, [r7]
 1561 00c8 1B8A     		ldrh	r3, [r3, #16]
 1562              		.loc 1 808 15
 1563 00ca 9B00     		lsls	r3, r3, #2
 1564 00cc 9AB2     		uxth	r2, r3
 1565              		.loc 1 808 12
 1566 00ce BB89     		ldrh	r3, [r7, #12]	@ movhi
 1567 00d0 1343     		orrs	r3, r3, r2
 1568 00d2 BB81     		strh	r3, [r7, #12]	@ movhi
 809:../Shared/Libraries/STM32F4xx_StdPeriph_Driver/src/stm32f4xx_tim.c ****     /* Set the Output N Idle state */
 810:../Shared/Libraries/STM32F4xx_StdPeriph_Driver/src/stm32f4xx_tim.c ****     tmpcr2 |= (uint16_t)(TIM_OCInitStruct->TIM_OCNIdleState << 2);
 1569              		.loc 1 810 42
 1570 00d4 3B68     		ldr	r3, [r7]
ARM GAS  /tmp/cc2zcHeL.s 			page 43


 1571 00d6 5B8A     		ldrh	r3, [r3, #18]
 1572              		.loc 1 810 15
 1573 00d8 9B00     		lsls	r3, r3, #2
 1574 00da 9AB2     		uxth	r2, r3
 1575              		.loc 1 810 12
 1576 00dc BB89     		ldrh	r3, [r7, #12]	@ movhi
 1577 00de 1343     		orrs	r3, r3, r2
 1578 00e0 BB81     		strh	r3, [r7, #12]	@ movhi
 1579              	.L61:
 811:../Shared/Libraries/STM32F4xx_StdPeriph_Driver/src/stm32f4xx_tim.c ****   }
 812:../Shared/Libraries/STM32F4xx_StdPeriph_Driver/src/stm32f4xx_tim.c ****   /* Write to TIMx CR2 */
 813:../Shared/Libraries/STM32F4xx_StdPeriph_Driver/src/stm32f4xx_tim.c ****   TIMx->CR2 = tmpcr2;
 1580              		.loc 1 813 13
 1581 00e2 7B68     		ldr	r3, [r7, #4]
 1582 00e4 BA89     		ldrh	r2, [r7, #12]	@ movhi
 1583 00e6 9A80     		strh	r2, [r3, #4]	@ movhi
 814:../Shared/Libraries/STM32F4xx_StdPeriph_Driver/src/stm32f4xx_tim.c ****   
 815:../Shared/Libraries/STM32F4xx_StdPeriph_Driver/src/stm32f4xx_tim.c ****   /* Write to TIMx CCMR1 */
 816:../Shared/Libraries/STM32F4xx_StdPeriph_Driver/src/stm32f4xx_tim.c ****   TIMx->CCMR1 = tmpccmrx;
 1584              		.loc 1 816 15
 1585 00e8 7B68     		ldr	r3, [r7, #4]
 1586 00ea 7A89     		ldrh	r2, [r7, #10]	@ movhi
 1587 00ec 1A83     		strh	r2, [r3, #24]	@ movhi
 817:../Shared/Libraries/STM32F4xx_StdPeriph_Driver/src/stm32f4xx_tim.c ****   
 818:../Shared/Libraries/STM32F4xx_StdPeriph_Driver/src/stm32f4xx_tim.c ****   /* Set the Capture Compare Register value */
 819:../Shared/Libraries/STM32F4xx_StdPeriph_Driver/src/stm32f4xx_tim.c ****   TIMx->CCR2 = TIM_OCInitStruct->TIM_Pulse;
 1588              		.loc 1 819 32
 1589 00ee 3B68     		ldr	r3, [r7]
 1590 00f0 9A68     		ldr	r2, [r3, #8]
 1591              		.loc 1 819 14
 1592 00f2 7B68     		ldr	r3, [r7, #4]
 1593 00f4 9A63     		str	r2, [r3, #56]
 820:../Shared/Libraries/STM32F4xx_StdPeriph_Driver/src/stm32f4xx_tim.c ****   
 821:../Shared/Libraries/STM32F4xx_StdPeriph_Driver/src/stm32f4xx_tim.c ****   /* Write to TIMx CCER */
 822:../Shared/Libraries/STM32F4xx_StdPeriph_Driver/src/stm32f4xx_tim.c ****   TIMx->CCER = tmpccer;
 1594              		.loc 1 822 14
 1595 00f6 7B68     		ldr	r3, [r7, #4]
 1596 00f8 FA89     		ldrh	r2, [r7, #14]	@ movhi
 1597 00fa 1A84     		strh	r2, [r3, #32]	@ movhi
 823:../Shared/Libraries/STM32F4xx_StdPeriph_Driver/src/stm32f4xx_tim.c **** }
 1598              		.loc 1 823 1
 1599 00fc 00BF     		nop
 1600 00fe 1437     		adds	r7, r7, #20
 1601              	.LCFI98:
 1602              		.cfi_def_cfa_offset 4
 1603 0100 BD46     		mov	sp, r7
 1604              	.LCFI99:
 1605              		.cfi_def_cfa_register 13
 1606              		@ sp needed
 1607 0102 5DF8047B 		ldr	r7, [sp], #4
 1608              	.LCFI100:
 1609              		.cfi_restore 7
 1610              		.cfi_def_cfa_offset 0
 1611 0106 7047     		bx	lr
 1612              	.L63:
 1613              		.align	2
 1614              	.L62:
ARM GAS  /tmp/cc2zcHeL.s 			page 44


 1615 0108 00000140 		.word	1073807360
 1616 010c 00040140 		.word	1073808384
 1617              		.cfi_endproc
 1618              	.LFE126:
 1620              		.section	.text.TIM_OC3Init,"ax",%progbits
 1621              		.align	1
 1622              		.global	TIM_OC3Init
 1623              		.syntax unified
 1624              		.thumb
 1625              		.thumb_func
 1627              	TIM_OC3Init:
 1628              	.LFB127:
 824:../Shared/Libraries/STM32F4xx_StdPeriph_Driver/src/stm32f4xx_tim.c **** 
 825:../Shared/Libraries/STM32F4xx_StdPeriph_Driver/src/stm32f4xx_tim.c **** /**
 826:../Shared/Libraries/STM32F4xx_StdPeriph_Driver/src/stm32f4xx_tim.c ****   * @brief  Initializes the TIMx Channel3 according to the specified parameters
 827:../Shared/Libraries/STM32F4xx_StdPeriph_Driver/src/stm32f4xx_tim.c ****   *         in the TIM_OCInitStruct.
 828:../Shared/Libraries/STM32F4xx_StdPeriph_Driver/src/stm32f4xx_tim.c ****   * @param  TIMx: where x can be 1, 2, 3, 4, 5 or 8 to select the TIM peripheral.
 829:../Shared/Libraries/STM32F4xx_StdPeriph_Driver/src/stm32f4xx_tim.c ****   * @param  TIM_OCInitStruct: pointer to a TIM_OCInitTypeDef structure that contains
 830:../Shared/Libraries/STM32F4xx_StdPeriph_Driver/src/stm32f4xx_tim.c ****   *         the configuration information for the specified TIM peripheral.
 831:../Shared/Libraries/STM32F4xx_StdPeriph_Driver/src/stm32f4xx_tim.c ****   * @retval None
 832:../Shared/Libraries/STM32F4xx_StdPeriph_Driver/src/stm32f4xx_tim.c ****   */
 833:../Shared/Libraries/STM32F4xx_StdPeriph_Driver/src/stm32f4xx_tim.c **** void TIM_OC3Init(TIM_TypeDef* TIMx, TIM_OCInitTypeDef* TIM_OCInitStruct)
 834:../Shared/Libraries/STM32F4xx_StdPeriph_Driver/src/stm32f4xx_tim.c **** {
 1629              		.loc 1 834 1
 1630              		.cfi_startproc
 1631              		@ args = 0, pretend = 0, frame = 16
 1632              		@ frame_needed = 1, uses_anonymous_args = 0
 1633              		@ link register save eliminated.
 1634 0000 80B4     		push	{r7}
 1635              	.LCFI101:
 1636              		.cfi_def_cfa_offset 4
 1637              		.cfi_offset 7, -4
 1638 0002 85B0     		sub	sp, sp, #20
 1639              	.LCFI102:
 1640              		.cfi_def_cfa_offset 24
 1641 0004 00AF     		add	r7, sp, #0
 1642              	.LCFI103:
 1643              		.cfi_def_cfa_register 7
 1644 0006 7860     		str	r0, [r7, #4]
 1645 0008 3960     		str	r1, [r7]
 835:../Shared/Libraries/STM32F4xx_StdPeriph_Driver/src/stm32f4xx_tim.c ****   uint16_t tmpccmrx = 0, tmpccer = 0, tmpcr2 = 0;
 1646              		.loc 1 835 12
 1647 000a 0023     		movs	r3, #0
 1648 000c 7B81     		strh	r3, [r7, #10]	@ movhi
 1649              		.loc 1 835 26
 1650 000e 0023     		movs	r3, #0
 1651 0010 FB81     		strh	r3, [r7, #14]	@ movhi
 1652              		.loc 1 835 39
 1653 0012 0023     		movs	r3, #0
 1654 0014 BB81     		strh	r3, [r7, #12]	@ movhi
 836:../Shared/Libraries/STM32F4xx_StdPeriph_Driver/src/stm32f4xx_tim.c ****    
 837:../Shared/Libraries/STM32F4xx_StdPeriph_Driver/src/stm32f4xx_tim.c ****   /* Check the parameters */
 838:../Shared/Libraries/STM32F4xx_StdPeriph_Driver/src/stm32f4xx_tim.c ****   assert_param(IS_TIM_LIST3_PERIPH(TIMx)); 
 839:../Shared/Libraries/STM32F4xx_StdPeriph_Driver/src/stm32f4xx_tim.c ****   assert_param(IS_TIM_OC_MODE(TIM_OCInitStruct->TIM_OCMode));
 840:../Shared/Libraries/STM32F4xx_StdPeriph_Driver/src/stm32f4xx_tim.c ****   assert_param(IS_TIM_OUTPUT_STATE(TIM_OCInitStruct->TIM_OutputState));
 841:../Shared/Libraries/STM32F4xx_StdPeriph_Driver/src/stm32f4xx_tim.c ****   assert_param(IS_TIM_OC_POLARITY(TIM_OCInitStruct->TIM_OCPolarity));   
 842:../Shared/Libraries/STM32F4xx_StdPeriph_Driver/src/stm32f4xx_tim.c **** 
ARM GAS  /tmp/cc2zcHeL.s 			page 45


 843:../Shared/Libraries/STM32F4xx_StdPeriph_Driver/src/stm32f4xx_tim.c ****   /* Disable the Channel 3: Reset the CC2E Bit */
 844:../Shared/Libraries/STM32F4xx_StdPeriph_Driver/src/stm32f4xx_tim.c ****   TIMx->CCER &= (uint16_t)~TIM_CCER_CC3E;
 1655              		.loc 1 844 7
 1656 0016 7B68     		ldr	r3, [r7, #4]
 1657 0018 1B8C     		ldrh	r3, [r3, #32]	@ movhi
 1658 001a 9BB2     		uxth	r3, r3
 1659              		.loc 1 844 14
 1660 001c 23F48073 		bic	r3, r3, #256
 1661 0020 9AB2     		uxth	r2, r3
 1662 0022 7B68     		ldr	r3, [r7, #4]
 1663 0024 1A84     		strh	r2, [r3, #32]	@ movhi
 845:../Shared/Libraries/STM32F4xx_StdPeriph_Driver/src/stm32f4xx_tim.c ****   
 846:../Shared/Libraries/STM32F4xx_StdPeriph_Driver/src/stm32f4xx_tim.c ****   /* Get the TIMx CCER register value */
 847:../Shared/Libraries/STM32F4xx_StdPeriph_Driver/src/stm32f4xx_tim.c ****   tmpccer = TIMx->CCER;
 1664              		.loc 1 847 11
 1665 0026 7B68     		ldr	r3, [r7, #4]
 1666 0028 1B8C     		ldrh	r3, [r3, #32]	@ movhi
 1667 002a FB81     		strh	r3, [r7, #14]	@ movhi
 848:../Shared/Libraries/STM32F4xx_StdPeriph_Driver/src/stm32f4xx_tim.c ****   /* Get the TIMx CR2 register value */
 849:../Shared/Libraries/STM32F4xx_StdPeriph_Driver/src/stm32f4xx_tim.c ****   tmpcr2 =  TIMx->CR2;
 1668              		.loc 1 849 10
 1669 002c 7B68     		ldr	r3, [r7, #4]
 1670 002e 9B88     		ldrh	r3, [r3, #4]	@ movhi
 1671 0030 BB81     		strh	r3, [r7, #12]	@ movhi
 850:../Shared/Libraries/STM32F4xx_StdPeriph_Driver/src/stm32f4xx_tim.c ****   
 851:../Shared/Libraries/STM32F4xx_StdPeriph_Driver/src/stm32f4xx_tim.c ****   /* Get the TIMx CCMR2 register value */
 852:../Shared/Libraries/STM32F4xx_StdPeriph_Driver/src/stm32f4xx_tim.c ****   tmpccmrx = TIMx->CCMR2;
 1672              		.loc 1 852 12
 1673 0032 7B68     		ldr	r3, [r7, #4]
 1674 0034 9B8B     		ldrh	r3, [r3, #28]	@ movhi
 1675 0036 7B81     		strh	r3, [r7, #10]	@ movhi
 853:../Shared/Libraries/STM32F4xx_StdPeriph_Driver/src/stm32f4xx_tim.c ****     
 854:../Shared/Libraries/STM32F4xx_StdPeriph_Driver/src/stm32f4xx_tim.c ****   /* Reset the Output Compare mode and Capture/Compare selection Bits */
 855:../Shared/Libraries/STM32F4xx_StdPeriph_Driver/src/stm32f4xx_tim.c ****   tmpccmrx &= (uint16_t)~TIM_CCMR2_OC3M;
 1676              		.loc 1 855 12
 1677 0038 7B89     		ldrh	r3, [r7, #10]	@ movhi
 1678 003a 23F07003 		bic	r3, r3, #112
 1679 003e 7B81     		strh	r3, [r7, #10]	@ movhi
 856:../Shared/Libraries/STM32F4xx_StdPeriph_Driver/src/stm32f4xx_tim.c ****   tmpccmrx &= (uint16_t)~TIM_CCMR2_CC3S;  
 1680              		.loc 1 856 12
 1681 0040 7B89     		ldrh	r3, [r7, #10]	@ movhi
 1682 0042 23F00303 		bic	r3, r3, #3
 1683 0046 7B81     		strh	r3, [r7, #10]	@ movhi
 857:../Shared/Libraries/STM32F4xx_StdPeriph_Driver/src/stm32f4xx_tim.c ****   /* Select the Output Compare Mode */
 858:../Shared/Libraries/STM32F4xx_StdPeriph_Driver/src/stm32f4xx_tim.c ****   tmpccmrx |= TIM_OCInitStruct->TIM_OCMode;
 1684              		.loc 1 858 31
 1685 0048 3B68     		ldr	r3, [r7]
 1686 004a 1A88     		ldrh	r2, [r3]
 1687              		.loc 1 858 12
 1688 004c 7B89     		ldrh	r3, [r7, #10]	@ movhi
 1689 004e 1343     		orrs	r3, r3, r2
 1690 0050 7B81     		strh	r3, [r7, #10]	@ movhi
 859:../Shared/Libraries/STM32F4xx_StdPeriph_Driver/src/stm32f4xx_tim.c ****   
 860:../Shared/Libraries/STM32F4xx_StdPeriph_Driver/src/stm32f4xx_tim.c ****   /* Reset the Output Polarity level */
 861:../Shared/Libraries/STM32F4xx_StdPeriph_Driver/src/stm32f4xx_tim.c ****   tmpccer &= (uint16_t)~TIM_CCER_CC3P;
 1691              		.loc 1 861 11
 1692 0052 FB89     		ldrh	r3, [r7, #14]	@ movhi
ARM GAS  /tmp/cc2zcHeL.s 			page 46


 1693 0054 23F40073 		bic	r3, r3, #512
 1694 0058 FB81     		strh	r3, [r7, #14]	@ movhi
 862:../Shared/Libraries/STM32F4xx_StdPeriph_Driver/src/stm32f4xx_tim.c ****   /* Set the Output Compare Polarity */
 863:../Shared/Libraries/STM32F4xx_StdPeriph_Driver/src/stm32f4xx_tim.c ****   tmpccer |= (uint16_t)(TIM_OCInitStruct->TIM_OCPolarity << 8);
 1695              		.loc 1 863 41
 1696 005a 3B68     		ldr	r3, [r7]
 1697 005c 9B89     		ldrh	r3, [r3, #12]
 1698              		.loc 1 863 14
 1699 005e 1B02     		lsls	r3, r3, #8
 1700 0060 9AB2     		uxth	r2, r3
 1701              		.loc 1 863 11
 1702 0062 FB89     		ldrh	r3, [r7, #14]	@ movhi
 1703 0064 1343     		orrs	r3, r3, r2
 1704 0066 FB81     		strh	r3, [r7, #14]	@ movhi
 864:../Shared/Libraries/STM32F4xx_StdPeriph_Driver/src/stm32f4xx_tim.c ****   
 865:../Shared/Libraries/STM32F4xx_StdPeriph_Driver/src/stm32f4xx_tim.c ****   /* Set the Output State */
 866:../Shared/Libraries/STM32F4xx_StdPeriph_Driver/src/stm32f4xx_tim.c ****   tmpccer |= (uint16_t)(TIM_OCInitStruct->TIM_OutputState << 8);
 1705              		.loc 1 866 41
 1706 0068 3B68     		ldr	r3, [r7]
 1707 006a 5B88     		ldrh	r3, [r3, #2]
 1708              		.loc 1 866 14
 1709 006c 1B02     		lsls	r3, r3, #8
 1710 006e 9AB2     		uxth	r2, r3
 1711              		.loc 1 866 11
 1712 0070 FB89     		ldrh	r3, [r7, #14]	@ movhi
 1713 0072 1343     		orrs	r3, r3, r2
 1714 0074 FB81     		strh	r3, [r7, #14]	@ movhi
 867:../Shared/Libraries/STM32F4xx_StdPeriph_Driver/src/stm32f4xx_tim.c ****     
 868:../Shared/Libraries/STM32F4xx_StdPeriph_Driver/src/stm32f4xx_tim.c ****   if((TIMx == TIM1) || (TIMx == TIM8))
 1715              		.loc 1 868 5
 1716 0076 7B68     		ldr	r3, [r7, #4]
 1717 0078 224A     		ldr	r2, .L67
 1718 007a 9342     		cmp	r3, r2
 1719 007c 03D0     		beq	.L65
 1720              		.loc 1 868 21 discriminator 1
 1721 007e 7B68     		ldr	r3, [r7, #4]
 1722 0080 214A     		ldr	r2, .L67+4
 1723 0082 9342     		cmp	r3, r2
 1724 0084 2BD1     		bne	.L66
 1725              	.L65:
 869:../Shared/Libraries/STM32F4xx_StdPeriph_Driver/src/stm32f4xx_tim.c ****   {
 870:../Shared/Libraries/STM32F4xx_StdPeriph_Driver/src/stm32f4xx_tim.c ****     assert_param(IS_TIM_OUTPUTN_STATE(TIM_OCInitStruct->TIM_OutputNState));
 871:../Shared/Libraries/STM32F4xx_StdPeriph_Driver/src/stm32f4xx_tim.c ****     assert_param(IS_TIM_OCN_POLARITY(TIM_OCInitStruct->TIM_OCNPolarity));
 872:../Shared/Libraries/STM32F4xx_StdPeriph_Driver/src/stm32f4xx_tim.c ****     assert_param(IS_TIM_OCNIDLE_STATE(TIM_OCInitStruct->TIM_OCNIdleState));
 873:../Shared/Libraries/STM32F4xx_StdPeriph_Driver/src/stm32f4xx_tim.c ****     assert_param(IS_TIM_OCIDLE_STATE(TIM_OCInitStruct->TIM_OCIdleState));
 874:../Shared/Libraries/STM32F4xx_StdPeriph_Driver/src/stm32f4xx_tim.c ****     
 875:../Shared/Libraries/STM32F4xx_StdPeriph_Driver/src/stm32f4xx_tim.c ****     /* Reset the Output N Polarity level */
 876:../Shared/Libraries/STM32F4xx_StdPeriph_Driver/src/stm32f4xx_tim.c ****     tmpccer &= (uint16_t)~TIM_CCER_CC3NP;
 1726              		.loc 1 876 13
 1727 0086 FB89     		ldrh	r3, [r7, #14]	@ movhi
 1728 0088 23F40063 		bic	r3, r3, #2048
 1729 008c FB81     		strh	r3, [r7, #14]	@ movhi
 877:../Shared/Libraries/STM32F4xx_StdPeriph_Driver/src/stm32f4xx_tim.c ****     /* Set the Output N Polarity */
 878:../Shared/Libraries/STM32F4xx_StdPeriph_Driver/src/stm32f4xx_tim.c ****     tmpccer |= (uint16_t)(TIM_OCInitStruct->TIM_OCNPolarity << 8);
 1730              		.loc 1 878 43
 1731 008e 3B68     		ldr	r3, [r7]
 1732 0090 DB89     		ldrh	r3, [r3, #14]
ARM GAS  /tmp/cc2zcHeL.s 			page 47


 1733              		.loc 1 878 16
 1734 0092 1B02     		lsls	r3, r3, #8
 1735 0094 9AB2     		uxth	r2, r3
 1736              		.loc 1 878 13
 1737 0096 FB89     		ldrh	r3, [r7, #14]	@ movhi
 1738 0098 1343     		orrs	r3, r3, r2
 1739 009a FB81     		strh	r3, [r7, #14]	@ movhi
 879:../Shared/Libraries/STM32F4xx_StdPeriph_Driver/src/stm32f4xx_tim.c ****     /* Reset the Output N State */
 880:../Shared/Libraries/STM32F4xx_StdPeriph_Driver/src/stm32f4xx_tim.c ****     tmpccer &= (uint16_t)~TIM_CCER_CC3NE;
 1740              		.loc 1 880 13
 1741 009c FB89     		ldrh	r3, [r7, #14]	@ movhi
 1742 009e 23F48063 		bic	r3, r3, #1024
 1743 00a2 FB81     		strh	r3, [r7, #14]	@ movhi
 881:../Shared/Libraries/STM32F4xx_StdPeriph_Driver/src/stm32f4xx_tim.c ****     
 882:../Shared/Libraries/STM32F4xx_StdPeriph_Driver/src/stm32f4xx_tim.c ****     /* Set the Output N State */
 883:../Shared/Libraries/STM32F4xx_StdPeriph_Driver/src/stm32f4xx_tim.c ****     tmpccer |= (uint16_t)(TIM_OCInitStruct->TIM_OutputNState << 8);
 1744              		.loc 1 883 43
 1745 00a4 3B68     		ldr	r3, [r7]
 1746 00a6 9B88     		ldrh	r3, [r3, #4]
 1747              		.loc 1 883 16
 1748 00a8 1B02     		lsls	r3, r3, #8
 1749 00aa 9AB2     		uxth	r2, r3
 1750              		.loc 1 883 13
 1751 00ac FB89     		ldrh	r3, [r7, #14]	@ movhi
 1752 00ae 1343     		orrs	r3, r3, r2
 1753 00b0 FB81     		strh	r3, [r7, #14]	@ movhi
 884:../Shared/Libraries/STM32F4xx_StdPeriph_Driver/src/stm32f4xx_tim.c ****     /* Reset the Output Compare and Output Compare N IDLE State */
 885:../Shared/Libraries/STM32F4xx_StdPeriph_Driver/src/stm32f4xx_tim.c ****     tmpcr2 &= (uint16_t)~TIM_CR2_OIS3;
 1754              		.loc 1 885 12
 1755 00b2 BB89     		ldrh	r3, [r7, #12]	@ movhi
 1756 00b4 23F48053 		bic	r3, r3, #4096
 1757 00b8 BB81     		strh	r3, [r7, #12]	@ movhi
 886:../Shared/Libraries/STM32F4xx_StdPeriph_Driver/src/stm32f4xx_tim.c ****     tmpcr2 &= (uint16_t)~TIM_CR2_OIS3N;
 1758              		.loc 1 886 12
 1759 00ba BB89     		ldrh	r3, [r7, #12]	@ movhi
 1760 00bc 23F40053 		bic	r3, r3, #8192
 1761 00c0 BB81     		strh	r3, [r7, #12]	@ movhi
 887:../Shared/Libraries/STM32F4xx_StdPeriph_Driver/src/stm32f4xx_tim.c ****     /* Set the Output Idle state */
 888:../Shared/Libraries/STM32F4xx_StdPeriph_Driver/src/stm32f4xx_tim.c ****     tmpcr2 |= (uint16_t)(TIM_OCInitStruct->TIM_OCIdleState << 4);
 1762              		.loc 1 888 42
 1763 00c2 3B68     		ldr	r3, [r7]
 1764 00c4 1B8A     		ldrh	r3, [r3, #16]
 1765              		.loc 1 888 15
 1766 00c6 1B01     		lsls	r3, r3, #4
 1767 00c8 9AB2     		uxth	r2, r3
 1768              		.loc 1 888 12
 1769 00ca BB89     		ldrh	r3, [r7, #12]	@ movhi
 1770 00cc 1343     		orrs	r3, r3, r2
 1771 00ce BB81     		strh	r3, [r7, #12]	@ movhi
 889:../Shared/Libraries/STM32F4xx_StdPeriph_Driver/src/stm32f4xx_tim.c ****     /* Set the Output N Idle state */
 890:../Shared/Libraries/STM32F4xx_StdPeriph_Driver/src/stm32f4xx_tim.c ****     tmpcr2 |= (uint16_t)(TIM_OCInitStruct->TIM_OCNIdleState << 4);
 1772              		.loc 1 890 42
 1773 00d0 3B68     		ldr	r3, [r7]
 1774 00d2 5B8A     		ldrh	r3, [r3, #18]
 1775              		.loc 1 890 15
 1776 00d4 1B01     		lsls	r3, r3, #4
 1777 00d6 9AB2     		uxth	r2, r3
ARM GAS  /tmp/cc2zcHeL.s 			page 48


 1778              		.loc 1 890 12
 1779 00d8 BB89     		ldrh	r3, [r7, #12]	@ movhi
 1780 00da 1343     		orrs	r3, r3, r2
 1781 00dc BB81     		strh	r3, [r7, #12]	@ movhi
 1782              	.L66:
 891:../Shared/Libraries/STM32F4xx_StdPeriph_Driver/src/stm32f4xx_tim.c ****   }
 892:../Shared/Libraries/STM32F4xx_StdPeriph_Driver/src/stm32f4xx_tim.c ****   /* Write to TIMx CR2 */
 893:../Shared/Libraries/STM32F4xx_StdPeriph_Driver/src/stm32f4xx_tim.c ****   TIMx->CR2 = tmpcr2;
 1783              		.loc 1 893 13
 1784 00de 7B68     		ldr	r3, [r7, #4]
 1785 00e0 BA89     		ldrh	r2, [r7, #12]	@ movhi
 1786 00e2 9A80     		strh	r2, [r3, #4]	@ movhi
 894:../Shared/Libraries/STM32F4xx_StdPeriph_Driver/src/stm32f4xx_tim.c ****   
 895:../Shared/Libraries/STM32F4xx_StdPeriph_Driver/src/stm32f4xx_tim.c ****   /* Write to TIMx CCMR2 */
 896:../Shared/Libraries/STM32F4xx_StdPeriph_Driver/src/stm32f4xx_tim.c ****   TIMx->CCMR2 = tmpccmrx;
 1787              		.loc 1 896 15
 1788 00e4 7B68     		ldr	r3, [r7, #4]
 1789 00e6 7A89     		ldrh	r2, [r7, #10]	@ movhi
 1790 00e8 9A83     		strh	r2, [r3, #28]	@ movhi
 897:../Shared/Libraries/STM32F4xx_StdPeriph_Driver/src/stm32f4xx_tim.c ****   
 898:../Shared/Libraries/STM32F4xx_StdPeriph_Driver/src/stm32f4xx_tim.c ****   /* Set the Capture Compare Register value */
 899:../Shared/Libraries/STM32F4xx_StdPeriph_Driver/src/stm32f4xx_tim.c ****   TIMx->CCR3 = TIM_OCInitStruct->TIM_Pulse;
 1791              		.loc 1 899 32
 1792 00ea 3B68     		ldr	r3, [r7]
 1793 00ec 9A68     		ldr	r2, [r3, #8]
 1794              		.loc 1 899 14
 1795 00ee 7B68     		ldr	r3, [r7, #4]
 1796 00f0 DA63     		str	r2, [r3, #60]
 900:../Shared/Libraries/STM32F4xx_StdPeriph_Driver/src/stm32f4xx_tim.c ****   
 901:../Shared/Libraries/STM32F4xx_StdPeriph_Driver/src/stm32f4xx_tim.c ****   /* Write to TIMx CCER */
 902:../Shared/Libraries/STM32F4xx_StdPeriph_Driver/src/stm32f4xx_tim.c ****   TIMx->CCER = tmpccer;
 1797              		.loc 1 902 14
 1798 00f2 7B68     		ldr	r3, [r7, #4]
 1799 00f4 FA89     		ldrh	r2, [r7, #14]	@ movhi
 1800 00f6 1A84     		strh	r2, [r3, #32]	@ movhi
 903:../Shared/Libraries/STM32F4xx_StdPeriph_Driver/src/stm32f4xx_tim.c **** }
 1801              		.loc 1 903 1
 1802 00f8 00BF     		nop
 1803 00fa 1437     		adds	r7, r7, #20
 1804              	.LCFI104:
 1805              		.cfi_def_cfa_offset 4
 1806 00fc BD46     		mov	sp, r7
 1807              	.LCFI105:
 1808              		.cfi_def_cfa_register 13
 1809              		@ sp needed
 1810 00fe 5DF8047B 		ldr	r7, [sp], #4
 1811              	.LCFI106:
 1812              		.cfi_restore 7
 1813              		.cfi_def_cfa_offset 0
 1814 0102 7047     		bx	lr
 1815              	.L68:
 1816              		.align	2
 1817              	.L67:
 1818 0104 00000140 		.word	1073807360
 1819 0108 00040140 		.word	1073808384
 1820              		.cfi_endproc
 1821              	.LFE127:
ARM GAS  /tmp/cc2zcHeL.s 			page 49


 1823              		.section	.text.TIM_OC4Init,"ax",%progbits
 1824              		.align	1
 1825              		.global	TIM_OC4Init
 1826              		.syntax unified
 1827              		.thumb
 1828              		.thumb_func
 1830              	TIM_OC4Init:
 1831              	.LFB128:
 904:../Shared/Libraries/STM32F4xx_StdPeriph_Driver/src/stm32f4xx_tim.c **** 
 905:../Shared/Libraries/STM32F4xx_StdPeriph_Driver/src/stm32f4xx_tim.c **** /**
 906:../Shared/Libraries/STM32F4xx_StdPeriph_Driver/src/stm32f4xx_tim.c ****   * @brief  Initializes the TIMx Channel4 according to the specified parameters
 907:../Shared/Libraries/STM32F4xx_StdPeriph_Driver/src/stm32f4xx_tim.c ****   *         in the TIM_OCInitStruct.
 908:../Shared/Libraries/STM32F4xx_StdPeriph_Driver/src/stm32f4xx_tim.c ****   * @param  TIMx: where x can be 1, 2, 3, 4, 5 or 8 to select the TIM peripheral.
 909:../Shared/Libraries/STM32F4xx_StdPeriph_Driver/src/stm32f4xx_tim.c ****   * @param  TIM_OCInitStruct: pointer to a TIM_OCInitTypeDef structure that contains
 910:../Shared/Libraries/STM32F4xx_StdPeriph_Driver/src/stm32f4xx_tim.c ****   *         the configuration information for the specified TIM peripheral.
 911:../Shared/Libraries/STM32F4xx_StdPeriph_Driver/src/stm32f4xx_tim.c ****   * @retval None
 912:../Shared/Libraries/STM32F4xx_StdPeriph_Driver/src/stm32f4xx_tim.c ****   */
 913:../Shared/Libraries/STM32F4xx_StdPeriph_Driver/src/stm32f4xx_tim.c **** void TIM_OC4Init(TIM_TypeDef* TIMx, TIM_OCInitTypeDef* TIM_OCInitStruct)
 914:../Shared/Libraries/STM32F4xx_StdPeriph_Driver/src/stm32f4xx_tim.c **** {
 1832              		.loc 1 914 1
 1833              		.cfi_startproc
 1834              		@ args = 0, pretend = 0, frame = 16
 1835              		@ frame_needed = 1, uses_anonymous_args = 0
 1836              		@ link register save eliminated.
 1837 0000 80B4     		push	{r7}
 1838              	.LCFI107:
 1839              		.cfi_def_cfa_offset 4
 1840              		.cfi_offset 7, -4
 1841 0002 85B0     		sub	sp, sp, #20
 1842              	.LCFI108:
 1843              		.cfi_def_cfa_offset 24
 1844 0004 00AF     		add	r7, sp, #0
 1845              	.LCFI109:
 1846              		.cfi_def_cfa_register 7
 1847 0006 7860     		str	r0, [r7, #4]
 1848 0008 3960     		str	r1, [r7]
 915:../Shared/Libraries/STM32F4xx_StdPeriph_Driver/src/stm32f4xx_tim.c ****   uint16_t tmpccmrx = 0, tmpccer = 0, tmpcr2 = 0;
 1849              		.loc 1 915 12
 1850 000a 0023     		movs	r3, #0
 1851 000c BB81     		strh	r3, [r7, #12]	@ movhi
 1852              		.loc 1 915 26
 1853 000e 0023     		movs	r3, #0
 1854 0010 7B81     		strh	r3, [r7, #10]	@ movhi
 1855              		.loc 1 915 39
 1856 0012 0023     		movs	r3, #0
 1857 0014 FB81     		strh	r3, [r7, #14]	@ movhi
 916:../Shared/Libraries/STM32F4xx_StdPeriph_Driver/src/stm32f4xx_tim.c ****    
 917:../Shared/Libraries/STM32F4xx_StdPeriph_Driver/src/stm32f4xx_tim.c ****   /* Check the parameters */
 918:../Shared/Libraries/STM32F4xx_StdPeriph_Driver/src/stm32f4xx_tim.c ****   assert_param(IS_TIM_LIST3_PERIPH(TIMx)); 
 919:../Shared/Libraries/STM32F4xx_StdPeriph_Driver/src/stm32f4xx_tim.c ****   assert_param(IS_TIM_OC_MODE(TIM_OCInitStruct->TIM_OCMode));
 920:../Shared/Libraries/STM32F4xx_StdPeriph_Driver/src/stm32f4xx_tim.c ****   assert_param(IS_TIM_OUTPUT_STATE(TIM_OCInitStruct->TIM_OutputState));
 921:../Shared/Libraries/STM32F4xx_StdPeriph_Driver/src/stm32f4xx_tim.c ****   assert_param(IS_TIM_OC_POLARITY(TIM_OCInitStruct->TIM_OCPolarity));   
 922:../Shared/Libraries/STM32F4xx_StdPeriph_Driver/src/stm32f4xx_tim.c **** 
 923:../Shared/Libraries/STM32F4xx_StdPeriph_Driver/src/stm32f4xx_tim.c ****   /* Disable the Channel 4: Reset the CC4E Bit */
 924:../Shared/Libraries/STM32F4xx_StdPeriph_Driver/src/stm32f4xx_tim.c ****   TIMx->CCER &= (uint16_t)~TIM_CCER_CC4E;
 1858              		.loc 1 924 7
 1859 0016 7B68     		ldr	r3, [r7, #4]
ARM GAS  /tmp/cc2zcHeL.s 			page 50


 1860 0018 1B8C     		ldrh	r3, [r3, #32]	@ movhi
 1861 001a 9BB2     		uxth	r3, r3
 1862              		.loc 1 924 14
 1863 001c 23F48053 		bic	r3, r3, #4096
 1864 0020 9AB2     		uxth	r2, r3
 1865 0022 7B68     		ldr	r3, [r7, #4]
 1866 0024 1A84     		strh	r2, [r3, #32]	@ movhi
 925:../Shared/Libraries/STM32F4xx_StdPeriph_Driver/src/stm32f4xx_tim.c ****   
 926:../Shared/Libraries/STM32F4xx_StdPeriph_Driver/src/stm32f4xx_tim.c ****   /* Get the TIMx CCER register value */
 927:../Shared/Libraries/STM32F4xx_StdPeriph_Driver/src/stm32f4xx_tim.c ****   tmpccer = TIMx->CCER;
 1867              		.loc 1 927 11
 1868 0026 7B68     		ldr	r3, [r7, #4]
 1869 0028 1B8C     		ldrh	r3, [r3, #32]	@ movhi
 1870 002a 7B81     		strh	r3, [r7, #10]	@ movhi
 928:../Shared/Libraries/STM32F4xx_StdPeriph_Driver/src/stm32f4xx_tim.c ****   /* Get the TIMx CR2 register value */
 929:../Shared/Libraries/STM32F4xx_StdPeriph_Driver/src/stm32f4xx_tim.c ****   tmpcr2 =  TIMx->CR2;
 1871              		.loc 1 929 10
 1872 002c 7B68     		ldr	r3, [r7, #4]
 1873 002e 9B88     		ldrh	r3, [r3, #4]	@ movhi
 1874 0030 FB81     		strh	r3, [r7, #14]	@ movhi
 930:../Shared/Libraries/STM32F4xx_StdPeriph_Driver/src/stm32f4xx_tim.c ****   
 931:../Shared/Libraries/STM32F4xx_StdPeriph_Driver/src/stm32f4xx_tim.c ****   /* Get the TIMx CCMR2 register value */
 932:../Shared/Libraries/STM32F4xx_StdPeriph_Driver/src/stm32f4xx_tim.c ****   tmpccmrx = TIMx->CCMR2;
 1875              		.loc 1 932 12
 1876 0032 7B68     		ldr	r3, [r7, #4]
 1877 0034 9B8B     		ldrh	r3, [r3, #28]	@ movhi
 1878 0036 BB81     		strh	r3, [r7, #12]	@ movhi
 933:../Shared/Libraries/STM32F4xx_StdPeriph_Driver/src/stm32f4xx_tim.c ****     
 934:../Shared/Libraries/STM32F4xx_StdPeriph_Driver/src/stm32f4xx_tim.c ****   /* Reset the Output Compare mode and Capture/Compare selection Bits */
 935:../Shared/Libraries/STM32F4xx_StdPeriph_Driver/src/stm32f4xx_tim.c ****   tmpccmrx &= (uint16_t)~TIM_CCMR2_OC4M;
 1879              		.loc 1 935 12
 1880 0038 BB89     		ldrh	r3, [r7, #12]	@ movhi
 1881 003a 23F4E043 		bic	r3, r3, #28672
 1882 003e BB81     		strh	r3, [r7, #12]	@ movhi
 936:../Shared/Libraries/STM32F4xx_StdPeriph_Driver/src/stm32f4xx_tim.c ****   tmpccmrx &= (uint16_t)~TIM_CCMR2_CC4S;
 1883              		.loc 1 936 12
 1884 0040 BB89     		ldrh	r3, [r7, #12]	@ movhi
 1885 0042 23F44073 		bic	r3, r3, #768
 1886 0046 BB81     		strh	r3, [r7, #12]	@ movhi
 937:../Shared/Libraries/STM32F4xx_StdPeriph_Driver/src/stm32f4xx_tim.c ****   
 938:../Shared/Libraries/STM32F4xx_StdPeriph_Driver/src/stm32f4xx_tim.c ****   /* Select the Output Compare Mode */
 939:../Shared/Libraries/STM32F4xx_StdPeriph_Driver/src/stm32f4xx_tim.c ****   tmpccmrx |= (uint16_t)(TIM_OCInitStruct->TIM_OCMode << 8);
 1887              		.loc 1 939 42
 1888 0048 3B68     		ldr	r3, [r7]
 1889 004a 1B88     		ldrh	r3, [r3]
 1890              		.loc 1 939 15
 1891 004c 1B02     		lsls	r3, r3, #8
 1892 004e 9AB2     		uxth	r2, r3
 1893              		.loc 1 939 12
 1894 0050 BB89     		ldrh	r3, [r7, #12]	@ movhi
 1895 0052 1343     		orrs	r3, r3, r2
 1896 0054 BB81     		strh	r3, [r7, #12]	@ movhi
 940:../Shared/Libraries/STM32F4xx_StdPeriph_Driver/src/stm32f4xx_tim.c ****   
 941:../Shared/Libraries/STM32F4xx_StdPeriph_Driver/src/stm32f4xx_tim.c ****   /* Reset the Output Polarity level */
 942:../Shared/Libraries/STM32F4xx_StdPeriph_Driver/src/stm32f4xx_tim.c ****   tmpccer &= (uint16_t)~TIM_CCER_CC4P;
 1897              		.loc 1 942 11
 1898 0056 7B89     		ldrh	r3, [r7, #10]	@ movhi
ARM GAS  /tmp/cc2zcHeL.s 			page 51


 1899 0058 23F40053 		bic	r3, r3, #8192
 1900 005c 7B81     		strh	r3, [r7, #10]	@ movhi
 943:../Shared/Libraries/STM32F4xx_StdPeriph_Driver/src/stm32f4xx_tim.c ****   /* Set the Output Compare Polarity */
 944:../Shared/Libraries/STM32F4xx_StdPeriph_Driver/src/stm32f4xx_tim.c ****   tmpccer |= (uint16_t)(TIM_OCInitStruct->TIM_OCPolarity << 12);
 1901              		.loc 1 944 41
 1902 005e 3B68     		ldr	r3, [r7]
 1903 0060 9B89     		ldrh	r3, [r3, #12]
 1904              		.loc 1 944 14
 1905 0062 1B03     		lsls	r3, r3, #12
 1906 0064 9AB2     		uxth	r2, r3
 1907              		.loc 1 944 11
 1908 0066 7B89     		ldrh	r3, [r7, #10]	@ movhi
 1909 0068 1343     		orrs	r3, r3, r2
 1910 006a 7B81     		strh	r3, [r7, #10]	@ movhi
 945:../Shared/Libraries/STM32F4xx_StdPeriph_Driver/src/stm32f4xx_tim.c ****   
 946:../Shared/Libraries/STM32F4xx_StdPeriph_Driver/src/stm32f4xx_tim.c ****   /* Set the Output State */
 947:../Shared/Libraries/STM32F4xx_StdPeriph_Driver/src/stm32f4xx_tim.c ****   tmpccer |= (uint16_t)(TIM_OCInitStruct->TIM_OutputState << 12);
 1911              		.loc 1 947 41
 1912 006c 3B68     		ldr	r3, [r7]
 1913 006e 5B88     		ldrh	r3, [r3, #2]
 1914              		.loc 1 947 14
 1915 0070 1B03     		lsls	r3, r3, #12
 1916 0072 9AB2     		uxth	r2, r3
 1917              		.loc 1 947 11
 1918 0074 7B89     		ldrh	r3, [r7, #10]	@ movhi
 1919 0076 1343     		orrs	r3, r3, r2
 1920 0078 7B81     		strh	r3, [r7, #10]	@ movhi
 948:../Shared/Libraries/STM32F4xx_StdPeriph_Driver/src/stm32f4xx_tim.c ****   
 949:../Shared/Libraries/STM32F4xx_StdPeriph_Driver/src/stm32f4xx_tim.c ****   if((TIMx == TIM1) || (TIMx == TIM8))
 1921              		.loc 1 949 5
 1922 007a 7B68     		ldr	r3, [r7, #4]
 1923 007c 124A     		ldr	r2, .L72
 1924 007e 9342     		cmp	r3, r2
 1925 0080 03D0     		beq	.L70
 1926              		.loc 1 949 21 discriminator 1
 1927 0082 7B68     		ldr	r3, [r7, #4]
 1928 0084 114A     		ldr	r2, .L72+4
 1929 0086 9342     		cmp	r3, r2
 1930 0088 0AD1     		bne	.L71
 1931              	.L70:
 950:../Shared/Libraries/STM32F4xx_StdPeriph_Driver/src/stm32f4xx_tim.c ****   {
 951:../Shared/Libraries/STM32F4xx_StdPeriph_Driver/src/stm32f4xx_tim.c ****     assert_param(IS_TIM_OCIDLE_STATE(TIM_OCInitStruct->TIM_OCIdleState));
 952:../Shared/Libraries/STM32F4xx_StdPeriph_Driver/src/stm32f4xx_tim.c ****     /* Reset the Output Compare IDLE State */
 953:../Shared/Libraries/STM32F4xx_StdPeriph_Driver/src/stm32f4xx_tim.c ****     tmpcr2 &=(uint16_t) ~TIM_CR2_OIS4;
 1932              		.loc 1 953 12
 1933 008a FB89     		ldrh	r3, [r7, #14]	@ movhi
 1934 008c 23F48043 		bic	r3, r3, #16384
 1935 0090 FB81     		strh	r3, [r7, #14]	@ movhi
 954:../Shared/Libraries/STM32F4xx_StdPeriph_Driver/src/stm32f4xx_tim.c ****     /* Set the Output Idle state */
 955:../Shared/Libraries/STM32F4xx_StdPeriph_Driver/src/stm32f4xx_tim.c ****     tmpcr2 |= (uint16_t)(TIM_OCInitStruct->TIM_OCIdleState << 6);
 1936              		.loc 1 955 42
 1937 0092 3B68     		ldr	r3, [r7]
 1938 0094 1B8A     		ldrh	r3, [r3, #16]
 1939              		.loc 1 955 15
 1940 0096 9B01     		lsls	r3, r3, #6
 1941 0098 9AB2     		uxth	r2, r3
 1942              		.loc 1 955 12
ARM GAS  /tmp/cc2zcHeL.s 			page 52


 1943 009a FB89     		ldrh	r3, [r7, #14]	@ movhi
 1944 009c 1343     		orrs	r3, r3, r2
 1945 009e FB81     		strh	r3, [r7, #14]	@ movhi
 1946              	.L71:
 956:../Shared/Libraries/STM32F4xx_StdPeriph_Driver/src/stm32f4xx_tim.c ****   }
 957:../Shared/Libraries/STM32F4xx_StdPeriph_Driver/src/stm32f4xx_tim.c ****   /* Write to TIMx CR2 */
 958:../Shared/Libraries/STM32F4xx_StdPeriph_Driver/src/stm32f4xx_tim.c ****   TIMx->CR2 = tmpcr2;
 1947              		.loc 1 958 13
 1948 00a0 7B68     		ldr	r3, [r7, #4]
 1949 00a2 FA89     		ldrh	r2, [r7, #14]	@ movhi
 1950 00a4 9A80     		strh	r2, [r3, #4]	@ movhi
 959:../Shared/Libraries/STM32F4xx_StdPeriph_Driver/src/stm32f4xx_tim.c ****   
 960:../Shared/Libraries/STM32F4xx_StdPeriph_Driver/src/stm32f4xx_tim.c ****   /* Write to TIMx CCMR2 */  
 961:../Shared/Libraries/STM32F4xx_StdPeriph_Driver/src/stm32f4xx_tim.c ****   TIMx->CCMR2 = tmpccmrx;
 1951              		.loc 1 961 15
 1952 00a6 7B68     		ldr	r3, [r7, #4]
 1953 00a8 BA89     		ldrh	r2, [r7, #12]	@ movhi
 1954 00aa 9A83     		strh	r2, [r3, #28]	@ movhi
 962:../Shared/Libraries/STM32F4xx_StdPeriph_Driver/src/stm32f4xx_tim.c ****     
 963:../Shared/Libraries/STM32F4xx_StdPeriph_Driver/src/stm32f4xx_tim.c ****   /* Set the Capture Compare Register value */
 964:../Shared/Libraries/STM32F4xx_StdPeriph_Driver/src/stm32f4xx_tim.c ****   TIMx->CCR4 = TIM_OCInitStruct->TIM_Pulse;
 1955              		.loc 1 964 32
 1956 00ac 3B68     		ldr	r3, [r7]
 1957 00ae 9A68     		ldr	r2, [r3, #8]
 1958              		.loc 1 964 14
 1959 00b0 7B68     		ldr	r3, [r7, #4]
 1960 00b2 1A64     		str	r2, [r3, #64]
 965:../Shared/Libraries/STM32F4xx_StdPeriph_Driver/src/stm32f4xx_tim.c ****   
 966:../Shared/Libraries/STM32F4xx_StdPeriph_Driver/src/stm32f4xx_tim.c ****   /* Write to TIMx CCER */
 967:../Shared/Libraries/STM32F4xx_StdPeriph_Driver/src/stm32f4xx_tim.c ****   TIMx->CCER = tmpccer;
 1961              		.loc 1 967 14
 1962 00b4 7B68     		ldr	r3, [r7, #4]
 1963 00b6 7A89     		ldrh	r2, [r7, #10]	@ movhi
 1964 00b8 1A84     		strh	r2, [r3, #32]	@ movhi
 968:../Shared/Libraries/STM32F4xx_StdPeriph_Driver/src/stm32f4xx_tim.c **** }
 1965              		.loc 1 968 1
 1966 00ba 00BF     		nop
 1967 00bc 1437     		adds	r7, r7, #20
 1968              	.LCFI110:
 1969              		.cfi_def_cfa_offset 4
 1970 00be BD46     		mov	sp, r7
 1971              	.LCFI111:
 1972              		.cfi_def_cfa_register 13
 1973              		@ sp needed
 1974 00c0 5DF8047B 		ldr	r7, [sp], #4
 1975              	.LCFI112:
 1976              		.cfi_restore 7
 1977              		.cfi_def_cfa_offset 0
 1978 00c4 7047     		bx	lr
 1979              	.L73:
 1980 00c6 00BF     		.align	2
 1981              	.L72:
 1982 00c8 00000140 		.word	1073807360
 1983 00cc 00040140 		.word	1073808384
 1984              		.cfi_endproc
 1985              	.LFE128:
 1987              		.section	.text.TIM_OCStructInit,"ax",%progbits
ARM GAS  /tmp/cc2zcHeL.s 			page 53


 1988              		.align	1
 1989              		.global	TIM_OCStructInit
 1990              		.syntax unified
 1991              		.thumb
 1992              		.thumb_func
 1994              	TIM_OCStructInit:
 1995              	.LFB129:
 969:../Shared/Libraries/STM32F4xx_StdPeriph_Driver/src/stm32f4xx_tim.c **** 
 970:../Shared/Libraries/STM32F4xx_StdPeriph_Driver/src/stm32f4xx_tim.c **** /**
 971:../Shared/Libraries/STM32F4xx_StdPeriph_Driver/src/stm32f4xx_tim.c ****   * @brief  Fills each TIM_OCInitStruct member with its default value.
 972:../Shared/Libraries/STM32F4xx_StdPeriph_Driver/src/stm32f4xx_tim.c ****   * @param  TIM_OCInitStruct: pointer to a TIM_OCInitTypeDef structure which will
 973:../Shared/Libraries/STM32F4xx_StdPeriph_Driver/src/stm32f4xx_tim.c ****   *         be initialized.
 974:../Shared/Libraries/STM32F4xx_StdPeriph_Driver/src/stm32f4xx_tim.c ****   * @retval None
 975:../Shared/Libraries/STM32F4xx_StdPeriph_Driver/src/stm32f4xx_tim.c ****   */
 976:../Shared/Libraries/STM32F4xx_StdPeriph_Driver/src/stm32f4xx_tim.c **** void TIM_OCStructInit(TIM_OCInitTypeDef* TIM_OCInitStruct)
 977:../Shared/Libraries/STM32F4xx_StdPeriph_Driver/src/stm32f4xx_tim.c **** {
 1996              		.loc 1 977 1
 1997              		.cfi_startproc
 1998              		@ args = 0, pretend = 0, frame = 8
 1999              		@ frame_needed = 1, uses_anonymous_args = 0
 2000              		@ link register save eliminated.
 2001 0000 80B4     		push	{r7}
 2002              	.LCFI113:
 2003              		.cfi_def_cfa_offset 4
 2004              		.cfi_offset 7, -4
 2005 0002 83B0     		sub	sp, sp, #12
 2006              	.LCFI114:
 2007              		.cfi_def_cfa_offset 16
 2008 0004 00AF     		add	r7, sp, #0
 2009              	.LCFI115:
 2010              		.cfi_def_cfa_register 7
 2011 0006 7860     		str	r0, [r7, #4]
 978:../Shared/Libraries/STM32F4xx_StdPeriph_Driver/src/stm32f4xx_tim.c ****   /* Set the default configuration */
 979:../Shared/Libraries/STM32F4xx_StdPeriph_Driver/src/stm32f4xx_tim.c ****   TIM_OCInitStruct->TIM_OCMode = TIM_OCMode_Timing;
 2012              		.loc 1 979 32
 2013 0008 7B68     		ldr	r3, [r7, #4]
 2014 000a 0022     		movs	r2, #0
 2015 000c 1A80     		strh	r2, [r3]	@ movhi
 980:../Shared/Libraries/STM32F4xx_StdPeriph_Driver/src/stm32f4xx_tim.c ****   TIM_OCInitStruct->TIM_OutputState = TIM_OutputState_Disable;
 2016              		.loc 1 980 37
 2017 000e 7B68     		ldr	r3, [r7, #4]
 2018 0010 0022     		movs	r2, #0
 2019 0012 5A80     		strh	r2, [r3, #2]	@ movhi
 981:../Shared/Libraries/STM32F4xx_StdPeriph_Driver/src/stm32f4xx_tim.c ****   TIM_OCInitStruct->TIM_OutputNState = TIM_OutputNState_Disable;
 2020              		.loc 1 981 38
 2021 0014 7B68     		ldr	r3, [r7, #4]
 2022 0016 0022     		movs	r2, #0
 2023 0018 9A80     		strh	r2, [r3, #4]	@ movhi
 982:../Shared/Libraries/STM32F4xx_StdPeriph_Driver/src/stm32f4xx_tim.c ****   TIM_OCInitStruct->TIM_Pulse = 0x00000000;
 2024              		.loc 1 982 31
 2025 001a 7B68     		ldr	r3, [r7, #4]
 2026 001c 0022     		movs	r2, #0
 2027 001e 9A60     		str	r2, [r3, #8]
 983:../Shared/Libraries/STM32F4xx_StdPeriph_Driver/src/stm32f4xx_tim.c ****   TIM_OCInitStruct->TIM_OCPolarity = TIM_OCPolarity_High;
 2028              		.loc 1 983 36
 2029 0020 7B68     		ldr	r3, [r7, #4]
 2030 0022 0022     		movs	r2, #0
ARM GAS  /tmp/cc2zcHeL.s 			page 54


 2031 0024 9A81     		strh	r2, [r3, #12]	@ movhi
 984:../Shared/Libraries/STM32F4xx_StdPeriph_Driver/src/stm32f4xx_tim.c ****   TIM_OCInitStruct->TIM_OCNPolarity = TIM_OCPolarity_High;
 2032              		.loc 1 984 37
 2033 0026 7B68     		ldr	r3, [r7, #4]
 2034 0028 0022     		movs	r2, #0
 2035 002a DA81     		strh	r2, [r3, #14]	@ movhi
 985:../Shared/Libraries/STM32F4xx_StdPeriph_Driver/src/stm32f4xx_tim.c ****   TIM_OCInitStruct->TIM_OCIdleState = TIM_OCIdleState_Reset;
 2036              		.loc 1 985 37
 2037 002c 7B68     		ldr	r3, [r7, #4]
 2038 002e 0022     		movs	r2, #0
 2039 0030 1A82     		strh	r2, [r3, #16]	@ movhi
 986:../Shared/Libraries/STM32F4xx_StdPeriph_Driver/src/stm32f4xx_tim.c ****   TIM_OCInitStruct->TIM_OCNIdleState = TIM_OCNIdleState_Reset;
 2040              		.loc 1 986 38
 2041 0032 7B68     		ldr	r3, [r7, #4]
 2042 0034 0022     		movs	r2, #0
 2043 0036 5A82     		strh	r2, [r3, #18]	@ movhi
 987:../Shared/Libraries/STM32F4xx_StdPeriph_Driver/src/stm32f4xx_tim.c **** }
 2044              		.loc 1 987 1
 2045 0038 00BF     		nop
 2046 003a 0C37     		adds	r7, r7, #12
 2047              	.LCFI116:
 2048              		.cfi_def_cfa_offset 4
 2049 003c BD46     		mov	sp, r7
 2050              	.LCFI117:
 2051              		.cfi_def_cfa_register 13
 2052              		@ sp needed
 2053 003e 5DF8047B 		ldr	r7, [sp], #4
 2054              	.LCFI118:
 2055              		.cfi_restore 7
 2056              		.cfi_def_cfa_offset 0
 2057 0042 7047     		bx	lr
 2058              		.cfi_endproc
 2059              	.LFE129:
 2061              		.section	.text.TIM_SelectOCxM,"ax",%progbits
 2062              		.align	1
 2063              		.global	TIM_SelectOCxM
 2064              		.syntax unified
 2065              		.thumb
 2066              		.thumb_func
 2068              	TIM_SelectOCxM:
 2069              	.LFB130:
 988:../Shared/Libraries/STM32F4xx_StdPeriph_Driver/src/stm32f4xx_tim.c **** 
 989:../Shared/Libraries/STM32F4xx_StdPeriph_Driver/src/stm32f4xx_tim.c **** /**
 990:../Shared/Libraries/STM32F4xx_StdPeriph_Driver/src/stm32f4xx_tim.c ****   * @brief  Selects the TIM Output Compare Mode.
 991:../Shared/Libraries/STM32F4xx_StdPeriph_Driver/src/stm32f4xx_tim.c ****   * @note   This function disables the selected channel before changing the Output
 992:../Shared/Libraries/STM32F4xx_StdPeriph_Driver/src/stm32f4xx_tim.c ****   *         Compare Mode. If needed, user has to enable this channel using
 993:../Shared/Libraries/STM32F4xx_StdPeriph_Driver/src/stm32f4xx_tim.c ****   *         TIM_CCxCmd() and TIM_CCxNCmd() functions.
 994:../Shared/Libraries/STM32F4xx_StdPeriph_Driver/src/stm32f4xx_tim.c ****   * @param  TIMx: where x can be 1 to 14 except 6 and 7, to select the TIM peripheral.
 995:../Shared/Libraries/STM32F4xx_StdPeriph_Driver/src/stm32f4xx_tim.c ****   * @param  TIM_Channel: specifies the TIM Channel
 996:../Shared/Libraries/STM32F4xx_StdPeriph_Driver/src/stm32f4xx_tim.c ****   *          This parameter can be one of the following values:
 997:../Shared/Libraries/STM32F4xx_StdPeriph_Driver/src/stm32f4xx_tim.c ****   *            @arg TIM_Channel_1: TIM Channel 1
 998:../Shared/Libraries/STM32F4xx_StdPeriph_Driver/src/stm32f4xx_tim.c ****   *            @arg TIM_Channel_2: TIM Channel 2
 999:../Shared/Libraries/STM32F4xx_StdPeriph_Driver/src/stm32f4xx_tim.c ****   *            @arg TIM_Channel_3: TIM Channel 3
1000:../Shared/Libraries/STM32F4xx_StdPeriph_Driver/src/stm32f4xx_tim.c ****   *            @arg TIM_Channel_4: TIM Channel 4
1001:../Shared/Libraries/STM32F4xx_StdPeriph_Driver/src/stm32f4xx_tim.c ****   * @param  TIM_OCMode: specifies the TIM Output Compare Mode.
1002:../Shared/Libraries/STM32F4xx_StdPeriph_Driver/src/stm32f4xx_tim.c ****   *           This parameter can be one of the following values:
1003:../Shared/Libraries/STM32F4xx_StdPeriph_Driver/src/stm32f4xx_tim.c ****   *            @arg TIM_OCMode_Timing
ARM GAS  /tmp/cc2zcHeL.s 			page 55


1004:../Shared/Libraries/STM32F4xx_StdPeriph_Driver/src/stm32f4xx_tim.c ****   *            @arg TIM_OCMode_Active
1005:../Shared/Libraries/STM32F4xx_StdPeriph_Driver/src/stm32f4xx_tim.c ****   *            @arg TIM_OCMode_Toggle
1006:../Shared/Libraries/STM32F4xx_StdPeriph_Driver/src/stm32f4xx_tim.c ****   *            @arg TIM_OCMode_PWM1
1007:../Shared/Libraries/STM32F4xx_StdPeriph_Driver/src/stm32f4xx_tim.c ****   *            @arg TIM_OCMode_PWM2
1008:../Shared/Libraries/STM32F4xx_StdPeriph_Driver/src/stm32f4xx_tim.c ****   *            @arg TIM_ForcedAction_Active
1009:../Shared/Libraries/STM32F4xx_StdPeriph_Driver/src/stm32f4xx_tim.c ****   *            @arg TIM_ForcedAction_InActive
1010:../Shared/Libraries/STM32F4xx_StdPeriph_Driver/src/stm32f4xx_tim.c ****   * @retval None
1011:../Shared/Libraries/STM32F4xx_StdPeriph_Driver/src/stm32f4xx_tim.c ****   */
1012:../Shared/Libraries/STM32F4xx_StdPeriph_Driver/src/stm32f4xx_tim.c **** void TIM_SelectOCxM(TIM_TypeDef* TIMx, uint16_t TIM_Channel, uint16_t TIM_OCMode)
1013:../Shared/Libraries/STM32F4xx_StdPeriph_Driver/src/stm32f4xx_tim.c **** {
 2070              		.loc 1 1013 1
 2071              		.cfi_startproc
 2072              		@ args = 0, pretend = 0, frame = 16
 2073              		@ frame_needed = 1, uses_anonymous_args = 0
 2074              		@ link register save eliminated.
 2075 0000 80B4     		push	{r7}
 2076              	.LCFI119:
 2077              		.cfi_def_cfa_offset 4
 2078              		.cfi_offset 7, -4
 2079 0002 85B0     		sub	sp, sp, #20
 2080              	.LCFI120:
 2081              		.cfi_def_cfa_offset 24
 2082 0004 00AF     		add	r7, sp, #0
 2083              	.LCFI121:
 2084              		.cfi_def_cfa_register 7
 2085 0006 7860     		str	r0, [r7, #4]
 2086 0008 0B46     		mov	r3, r1
 2087 000a 7B80     		strh	r3, [r7, #2]	@ movhi
 2088 000c 1346     		mov	r3, r2	@ movhi
 2089 000e 3B80     		strh	r3, [r7]	@ movhi
1014:../Shared/Libraries/STM32F4xx_StdPeriph_Driver/src/stm32f4xx_tim.c ****   uint32_t tmp = 0;
 2090              		.loc 1 1014 12
 2091 0010 0023     		movs	r3, #0
 2092 0012 FB60     		str	r3, [r7, #12]
1015:../Shared/Libraries/STM32F4xx_StdPeriph_Driver/src/stm32f4xx_tim.c ****   uint16_t tmp1 = 0;
 2093              		.loc 1 1015 12
 2094 0014 0023     		movs	r3, #0
 2095 0016 7B81     		strh	r3, [r7, #10]	@ movhi
1016:../Shared/Libraries/STM32F4xx_StdPeriph_Driver/src/stm32f4xx_tim.c **** 
1017:../Shared/Libraries/STM32F4xx_StdPeriph_Driver/src/stm32f4xx_tim.c ****   /* Check the parameters */
1018:../Shared/Libraries/STM32F4xx_StdPeriph_Driver/src/stm32f4xx_tim.c ****   assert_param(IS_TIM_LIST1_PERIPH(TIMx));
1019:../Shared/Libraries/STM32F4xx_StdPeriph_Driver/src/stm32f4xx_tim.c ****   assert_param(IS_TIM_CHANNEL(TIM_Channel));
1020:../Shared/Libraries/STM32F4xx_StdPeriph_Driver/src/stm32f4xx_tim.c ****   assert_param(IS_TIM_OCM(TIM_OCMode));
1021:../Shared/Libraries/STM32F4xx_StdPeriph_Driver/src/stm32f4xx_tim.c **** 
1022:../Shared/Libraries/STM32F4xx_StdPeriph_Driver/src/stm32f4xx_tim.c ****   tmp = (uint32_t) TIMx;
 2096              		.loc 1 1022 7
 2097 0018 7B68     		ldr	r3, [r7, #4]
 2098 001a FB60     		str	r3, [r7, #12]
1023:../Shared/Libraries/STM32F4xx_StdPeriph_Driver/src/stm32f4xx_tim.c ****   tmp += CCMR_OFFSET;
 2099              		.loc 1 1023 7
 2100 001c FB68     		ldr	r3, [r7, #12]
 2101 001e 1833     		adds	r3, r3, #24
 2102 0020 FB60     		str	r3, [r7, #12]
1024:../Shared/Libraries/STM32F4xx_StdPeriph_Driver/src/stm32f4xx_tim.c **** 
1025:../Shared/Libraries/STM32F4xx_StdPeriph_Driver/src/stm32f4xx_tim.c ****   tmp1 = CCER_CCE_SET << (uint16_t)TIM_Channel;
 2103              		.loc 1 1025 26
 2104 0022 7B88     		ldrh	r3, [r7, #2]
ARM GAS  /tmp/cc2zcHeL.s 			page 56


 2105              		.loc 1 1025 23
 2106 0024 0122     		movs	r2, #1
 2107 0026 02FA03F3 		lsl	r3, r2, r3
 2108              		.loc 1 1025 8
 2109 002a 7B81     		strh	r3, [r7, #10]	@ movhi
1026:../Shared/Libraries/STM32F4xx_StdPeriph_Driver/src/stm32f4xx_tim.c **** 
1027:../Shared/Libraries/STM32F4xx_StdPeriph_Driver/src/stm32f4xx_tim.c ****   /* Disable the Channel: Reset the CCxE Bit */
1028:../Shared/Libraries/STM32F4xx_StdPeriph_Driver/src/stm32f4xx_tim.c ****   TIMx->CCER &= (uint16_t) ~tmp1;
 2110              		.loc 1 1028 7
 2111 002c 7B68     		ldr	r3, [r7, #4]
 2112 002e 1B8C     		ldrh	r3, [r3, #32]	@ movhi
 2113 0030 9AB2     		uxth	r2, r3
 2114              		.loc 1 1028 17
 2115 0032 7B89     		ldrh	r3, [r7, #10]	@ movhi
 2116 0034 DB43     		mvns	r3, r3
 2117 0036 9BB2     		uxth	r3, r3
 2118              		.loc 1 1028 14
 2119 0038 1340     		ands	r3, r3, r2
 2120 003a 9AB2     		uxth	r2, r3
 2121 003c 7B68     		ldr	r3, [r7, #4]
 2122 003e 1A84     		strh	r2, [r3, #32]	@ movhi
1029:../Shared/Libraries/STM32F4xx_StdPeriph_Driver/src/stm32f4xx_tim.c **** 
1030:../Shared/Libraries/STM32F4xx_StdPeriph_Driver/src/stm32f4xx_tim.c ****   if((TIM_Channel == TIM_Channel_1) ||(TIM_Channel == TIM_Channel_3))
 2123              		.loc 1 1030 5
 2124 0040 7B88     		ldrh	r3, [r7, #2]
 2125 0042 002B     		cmp	r3, #0
 2126 0044 02D0     		beq	.L76
 2127              		.loc 1 1030 37 discriminator 1
 2128 0046 7B88     		ldrh	r3, [r7, #2]
 2129 0048 082B     		cmp	r3, #8
 2130 004a 14D1     		bne	.L77
 2131              	.L76:
1031:../Shared/Libraries/STM32F4xx_StdPeriph_Driver/src/stm32f4xx_tim.c ****   {
1032:../Shared/Libraries/STM32F4xx_StdPeriph_Driver/src/stm32f4xx_tim.c ****     tmp += (TIM_Channel>>1);
 2132              		.loc 1 1032 24
 2133 004c 7B88     		ldrh	r3, [r7, #2]
 2134 004e 5B08     		lsrs	r3, r3, #1
 2135 0050 9BB2     		uxth	r3, r3
 2136 0052 1A46     		mov	r2, r3
 2137              		.loc 1 1032 9
 2138 0054 FB68     		ldr	r3, [r7, #12]
 2139 0056 1344     		add	r3, r3, r2
 2140 0058 FB60     		str	r3, [r7, #12]
1033:../Shared/Libraries/STM32F4xx_StdPeriph_Driver/src/stm32f4xx_tim.c **** 
1034:../Shared/Libraries/STM32F4xx_StdPeriph_Driver/src/stm32f4xx_tim.c ****     /* Reset the OCxM bits in the CCMRx register */
1035:../Shared/Libraries/STM32F4xx_StdPeriph_Driver/src/stm32f4xx_tim.c ****     *(__IO uint32_t *) tmp &= CCMR_OC13M_MASK;
 2141              		.loc 1 1035 5
 2142 005a FB68     		ldr	r3, [r7, #12]
 2143 005c 1968     		ldr	r1, [r3]
 2144 005e FA68     		ldr	r2, [r7, #12]
 2145              		.loc 1 1035 28
 2146 0060 4FF68F73 		movw	r3, #65423
 2147 0064 0B40     		ands	r3, r3, r1
 2148 0066 1360     		str	r3, [r2]
1036:../Shared/Libraries/STM32F4xx_StdPeriph_Driver/src/stm32f4xx_tim.c ****    
1037:../Shared/Libraries/STM32F4xx_StdPeriph_Driver/src/stm32f4xx_tim.c ****     /* Configure the OCxM bits in the CCMRx register */
1038:../Shared/Libraries/STM32F4xx_StdPeriph_Driver/src/stm32f4xx_tim.c ****     *(__IO uint32_t *) tmp |= TIM_OCMode;
ARM GAS  /tmp/cc2zcHeL.s 			page 57


 2149              		.loc 1 1038 5
 2150 0068 FB68     		ldr	r3, [r7, #12]
 2151 006a 1968     		ldr	r1, [r3]
 2152              		.loc 1 1038 28
 2153 006c 3A88     		ldrh	r2, [r7]
 2154              		.loc 1 1038 5
 2155 006e FB68     		ldr	r3, [r7, #12]
 2156              		.loc 1 1038 28
 2157 0070 0A43     		orrs	r2, r2, r1
 2158 0072 1A60     		str	r2, [r3]
 2159 0074 19E0     		b	.L78
 2160              	.L77:
1039:../Shared/Libraries/STM32F4xx_StdPeriph_Driver/src/stm32f4xx_tim.c ****   }
1040:../Shared/Libraries/STM32F4xx_StdPeriph_Driver/src/stm32f4xx_tim.c ****   else
1041:../Shared/Libraries/STM32F4xx_StdPeriph_Driver/src/stm32f4xx_tim.c ****   {
1042:../Shared/Libraries/STM32F4xx_StdPeriph_Driver/src/stm32f4xx_tim.c ****     tmp += (uint16_t)(TIM_Channel - (uint16_t)4)>> (uint16_t)1;
 2161              		.loc 1 1042 12
 2162 0076 7B88     		ldrh	r3, [r7, #2]	@ movhi
 2163 0078 043B     		subs	r3, r3, #4
 2164 007a 9BB2     		uxth	r3, r3
 2165              		.loc 1 1042 49
 2166 007c 5B08     		lsrs	r3, r3, #1
 2167 007e 9BB2     		uxth	r3, r3
 2168 0080 1A46     		mov	r2, r3
 2169              		.loc 1 1042 9
 2170 0082 FB68     		ldr	r3, [r7, #12]
 2171 0084 1344     		add	r3, r3, r2
 2172 0086 FB60     		str	r3, [r7, #12]
1043:../Shared/Libraries/STM32F4xx_StdPeriph_Driver/src/stm32f4xx_tim.c **** 
1044:../Shared/Libraries/STM32F4xx_StdPeriph_Driver/src/stm32f4xx_tim.c ****     /* Reset the OCxM bits in the CCMRx register */
1045:../Shared/Libraries/STM32F4xx_StdPeriph_Driver/src/stm32f4xx_tim.c ****     *(__IO uint32_t *) tmp &= CCMR_OC24M_MASK;
 2173              		.loc 1 1045 5
 2174 0088 FB68     		ldr	r3, [r7, #12]
 2175 008a 1968     		ldr	r1, [r3]
 2176 008c FA68     		ldr	r2, [r7, #12]
 2177              		.loc 1 1045 28
 2178 008e 48F6FF73 		movw	r3, #36863
 2179 0092 0B40     		ands	r3, r3, r1
 2180 0094 1360     		str	r3, [r2]
1046:../Shared/Libraries/STM32F4xx_StdPeriph_Driver/src/stm32f4xx_tim.c ****     
1047:../Shared/Libraries/STM32F4xx_StdPeriph_Driver/src/stm32f4xx_tim.c ****     /* Configure the OCxM bits in the CCMRx register */
1048:../Shared/Libraries/STM32F4xx_StdPeriph_Driver/src/stm32f4xx_tim.c ****     *(__IO uint32_t *) tmp |= (uint16_t)(TIM_OCMode << 8);
 2181              		.loc 1 1048 5
 2182 0096 FB68     		ldr	r3, [r7, #12]
 2183 0098 1A68     		ldr	r2, [r3]
 2184              		.loc 1 1048 31
 2185 009a 3B88     		ldrh	r3, [r7]	@ movhi
 2186 009c 1B02     		lsls	r3, r3, #8
 2187 009e 9BB2     		uxth	r3, r3
 2188 00a0 1946     		mov	r1, r3
 2189              		.loc 1 1048 5
 2190 00a2 FB68     		ldr	r3, [r7, #12]
 2191              		.loc 1 1048 28
 2192 00a4 0A43     		orrs	r2, r2, r1
 2193 00a6 1A60     		str	r2, [r3]
1049:../Shared/Libraries/STM32F4xx_StdPeriph_Driver/src/stm32f4xx_tim.c ****   }
1050:../Shared/Libraries/STM32F4xx_StdPeriph_Driver/src/stm32f4xx_tim.c **** }
ARM GAS  /tmp/cc2zcHeL.s 			page 58


 2194              		.loc 1 1050 1
 2195 00a8 00BF     		nop
 2196              	.L78:
 2197 00aa 00BF     		nop
 2198 00ac 1437     		adds	r7, r7, #20
 2199              	.LCFI122:
 2200              		.cfi_def_cfa_offset 4
 2201 00ae BD46     		mov	sp, r7
 2202              	.LCFI123:
 2203              		.cfi_def_cfa_register 13
 2204              		@ sp needed
 2205 00b0 5DF8047B 		ldr	r7, [sp], #4
 2206              	.LCFI124:
 2207              		.cfi_restore 7
 2208              		.cfi_def_cfa_offset 0
 2209 00b4 7047     		bx	lr
 2210              		.cfi_endproc
 2211              	.LFE130:
 2213              		.section	.text.TIM_SetCompare1,"ax",%progbits
 2214              		.align	1
 2215              		.global	TIM_SetCompare1
 2216              		.syntax unified
 2217              		.thumb
 2218              		.thumb_func
 2220              	TIM_SetCompare1:
 2221              	.LFB131:
1051:../Shared/Libraries/STM32F4xx_StdPeriph_Driver/src/stm32f4xx_tim.c **** 
1052:../Shared/Libraries/STM32F4xx_StdPeriph_Driver/src/stm32f4xx_tim.c **** /**
1053:../Shared/Libraries/STM32F4xx_StdPeriph_Driver/src/stm32f4xx_tim.c ****   * @brief  Sets the TIMx Capture Compare1 Register value
1054:../Shared/Libraries/STM32F4xx_StdPeriph_Driver/src/stm32f4xx_tim.c ****   * @param  TIMx: where x can be 1 to 14 except 6 and 7, to select the TIM peripheral.
1055:../Shared/Libraries/STM32F4xx_StdPeriph_Driver/src/stm32f4xx_tim.c ****   * @param  Compare1: specifies the Capture Compare1 register new value.
1056:../Shared/Libraries/STM32F4xx_StdPeriph_Driver/src/stm32f4xx_tim.c ****   * @retval None
1057:../Shared/Libraries/STM32F4xx_StdPeriph_Driver/src/stm32f4xx_tim.c ****   */
1058:../Shared/Libraries/STM32F4xx_StdPeriph_Driver/src/stm32f4xx_tim.c **** void TIM_SetCompare1(TIM_TypeDef* TIMx, uint32_t Compare1)
1059:../Shared/Libraries/STM32F4xx_StdPeriph_Driver/src/stm32f4xx_tim.c **** {
 2222              		.loc 1 1059 1
 2223              		.cfi_startproc
 2224              		@ args = 0, pretend = 0, frame = 8
 2225              		@ frame_needed = 1, uses_anonymous_args = 0
 2226              		@ link register save eliminated.
 2227 0000 80B4     		push	{r7}
 2228              	.LCFI125:
 2229              		.cfi_def_cfa_offset 4
 2230              		.cfi_offset 7, -4
 2231 0002 83B0     		sub	sp, sp, #12
 2232              	.LCFI126:
 2233              		.cfi_def_cfa_offset 16
 2234 0004 00AF     		add	r7, sp, #0
 2235              	.LCFI127:
 2236              		.cfi_def_cfa_register 7
 2237 0006 7860     		str	r0, [r7, #4]
 2238 0008 3960     		str	r1, [r7]
1060:../Shared/Libraries/STM32F4xx_StdPeriph_Driver/src/stm32f4xx_tim.c ****   /* Check the parameters */
1061:../Shared/Libraries/STM32F4xx_StdPeriph_Driver/src/stm32f4xx_tim.c ****   assert_param(IS_TIM_LIST1_PERIPH(TIMx));
1062:../Shared/Libraries/STM32F4xx_StdPeriph_Driver/src/stm32f4xx_tim.c **** 
1063:../Shared/Libraries/STM32F4xx_StdPeriph_Driver/src/stm32f4xx_tim.c ****   /* Set the Capture Compare1 Register value */
1064:../Shared/Libraries/STM32F4xx_StdPeriph_Driver/src/stm32f4xx_tim.c ****   TIMx->CCR1 = Compare1;
ARM GAS  /tmp/cc2zcHeL.s 			page 59


 2239              		.loc 1 1064 14
 2240 000a 7B68     		ldr	r3, [r7, #4]
 2241 000c 3A68     		ldr	r2, [r7]
 2242 000e 5A63     		str	r2, [r3, #52]
1065:../Shared/Libraries/STM32F4xx_StdPeriph_Driver/src/stm32f4xx_tim.c **** }
 2243              		.loc 1 1065 1
 2244 0010 00BF     		nop
 2245 0012 0C37     		adds	r7, r7, #12
 2246              	.LCFI128:
 2247              		.cfi_def_cfa_offset 4
 2248 0014 BD46     		mov	sp, r7
 2249              	.LCFI129:
 2250              		.cfi_def_cfa_register 13
 2251              		@ sp needed
 2252 0016 5DF8047B 		ldr	r7, [sp], #4
 2253              	.LCFI130:
 2254              		.cfi_restore 7
 2255              		.cfi_def_cfa_offset 0
 2256 001a 7047     		bx	lr
 2257              		.cfi_endproc
 2258              	.LFE131:
 2260              		.section	.text.TIM_SetCompare2,"ax",%progbits
 2261              		.align	1
 2262              		.global	TIM_SetCompare2
 2263              		.syntax unified
 2264              		.thumb
 2265              		.thumb_func
 2267              	TIM_SetCompare2:
 2268              	.LFB132:
1066:../Shared/Libraries/STM32F4xx_StdPeriph_Driver/src/stm32f4xx_tim.c **** 
1067:../Shared/Libraries/STM32F4xx_StdPeriph_Driver/src/stm32f4xx_tim.c **** /**
1068:../Shared/Libraries/STM32F4xx_StdPeriph_Driver/src/stm32f4xx_tim.c ****   * @brief  Sets the TIMx Capture Compare2 Register value
1069:../Shared/Libraries/STM32F4xx_StdPeriph_Driver/src/stm32f4xx_tim.c ****   * @param  TIMx: where x can be 1, 2, 3, 4, 5, 8, 9 or 12 to select the TIM 
1070:../Shared/Libraries/STM32F4xx_StdPeriph_Driver/src/stm32f4xx_tim.c ****   *         peripheral.
1071:../Shared/Libraries/STM32F4xx_StdPeriph_Driver/src/stm32f4xx_tim.c ****   * @param  Compare2: specifies the Capture Compare2 register new value.
1072:../Shared/Libraries/STM32F4xx_StdPeriph_Driver/src/stm32f4xx_tim.c ****   * @retval None
1073:../Shared/Libraries/STM32F4xx_StdPeriph_Driver/src/stm32f4xx_tim.c ****   */
1074:../Shared/Libraries/STM32F4xx_StdPeriph_Driver/src/stm32f4xx_tim.c **** void TIM_SetCompare2(TIM_TypeDef* TIMx, uint32_t Compare2)
1075:../Shared/Libraries/STM32F4xx_StdPeriph_Driver/src/stm32f4xx_tim.c **** {
 2269              		.loc 1 1075 1
 2270              		.cfi_startproc
 2271              		@ args = 0, pretend = 0, frame = 8
 2272              		@ frame_needed = 1, uses_anonymous_args = 0
 2273              		@ link register save eliminated.
 2274 0000 80B4     		push	{r7}
 2275              	.LCFI131:
 2276              		.cfi_def_cfa_offset 4
 2277              		.cfi_offset 7, -4
 2278 0002 83B0     		sub	sp, sp, #12
 2279              	.LCFI132:
 2280              		.cfi_def_cfa_offset 16
 2281 0004 00AF     		add	r7, sp, #0
 2282              	.LCFI133:
 2283              		.cfi_def_cfa_register 7
 2284 0006 7860     		str	r0, [r7, #4]
 2285 0008 3960     		str	r1, [r7]
1076:../Shared/Libraries/STM32F4xx_StdPeriph_Driver/src/stm32f4xx_tim.c ****   /* Check the parameters */
ARM GAS  /tmp/cc2zcHeL.s 			page 60


1077:../Shared/Libraries/STM32F4xx_StdPeriph_Driver/src/stm32f4xx_tim.c ****   assert_param(IS_TIM_LIST2_PERIPH(TIMx));
1078:../Shared/Libraries/STM32F4xx_StdPeriph_Driver/src/stm32f4xx_tim.c **** 
1079:../Shared/Libraries/STM32F4xx_StdPeriph_Driver/src/stm32f4xx_tim.c ****   /* Set the Capture Compare2 Register value */
1080:../Shared/Libraries/STM32F4xx_StdPeriph_Driver/src/stm32f4xx_tim.c ****   TIMx->CCR2 = Compare2;
 2286              		.loc 1 1080 14
 2287 000a 7B68     		ldr	r3, [r7, #4]
 2288 000c 3A68     		ldr	r2, [r7]
 2289 000e 9A63     		str	r2, [r3, #56]
1081:../Shared/Libraries/STM32F4xx_StdPeriph_Driver/src/stm32f4xx_tim.c **** }
 2290              		.loc 1 1081 1
 2291 0010 00BF     		nop
 2292 0012 0C37     		adds	r7, r7, #12
 2293              	.LCFI134:
 2294              		.cfi_def_cfa_offset 4
 2295 0014 BD46     		mov	sp, r7
 2296              	.LCFI135:
 2297              		.cfi_def_cfa_register 13
 2298              		@ sp needed
 2299 0016 5DF8047B 		ldr	r7, [sp], #4
 2300              	.LCFI136:
 2301              		.cfi_restore 7
 2302              		.cfi_def_cfa_offset 0
 2303 001a 7047     		bx	lr
 2304              		.cfi_endproc
 2305              	.LFE132:
 2307              		.section	.text.TIM_SetCompare3,"ax",%progbits
 2308              		.align	1
 2309              		.global	TIM_SetCompare3
 2310              		.syntax unified
 2311              		.thumb
 2312              		.thumb_func
 2314              	TIM_SetCompare3:
 2315              	.LFB133:
1082:../Shared/Libraries/STM32F4xx_StdPeriph_Driver/src/stm32f4xx_tim.c **** 
1083:../Shared/Libraries/STM32F4xx_StdPeriph_Driver/src/stm32f4xx_tim.c **** /**
1084:../Shared/Libraries/STM32F4xx_StdPeriph_Driver/src/stm32f4xx_tim.c ****   * @brief  Sets the TIMx Capture Compare3 Register value
1085:../Shared/Libraries/STM32F4xx_StdPeriph_Driver/src/stm32f4xx_tim.c ****   * @param  TIMx: where x can be 1, 2, 3, 4, 5 or 8 to select the TIM peripheral.
1086:../Shared/Libraries/STM32F4xx_StdPeriph_Driver/src/stm32f4xx_tim.c ****   * @param  Compare3: specifies the Capture Compare3 register new value.
1087:../Shared/Libraries/STM32F4xx_StdPeriph_Driver/src/stm32f4xx_tim.c ****   * @retval None
1088:../Shared/Libraries/STM32F4xx_StdPeriph_Driver/src/stm32f4xx_tim.c ****   */
1089:../Shared/Libraries/STM32F4xx_StdPeriph_Driver/src/stm32f4xx_tim.c **** void TIM_SetCompare3(TIM_TypeDef* TIMx, uint32_t Compare3)
1090:../Shared/Libraries/STM32F4xx_StdPeriph_Driver/src/stm32f4xx_tim.c **** {
 2316              		.loc 1 1090 1
 2317              		.cfi_startproc
 2318              		@ args = 0, pretend = 0, frame = 8
 2319              		@ frame_needed = 1, uses_anonymous_args = 0
 2320              		@ link register save eliminated.
 2321 0000 80B4     		push	{r7}
 2322              	.LCFI137:
 2323              		.cfi_def_cfa_offset 4
 2324              		.cfi_offset 7, -4
 2325 0002 83B0     		sub	sp, sp, #12
 2326              	.LCFI138:
 2327              		.cfi_def_cfa_offset 16
 2328 0004 00AF     		add	r7, sp, #0
 2329              	.LCFI139:
 2330              		.cfi_def_cfa_register 7
ARM GAS  /tmp/cc2zcHeL.s 			page 61


 2331 0006 7860     		str	r0, [r7, #4]
 2332 0008 3960     		str	r1, [r7]
1091:../Shared/Libraries/STM32F4xx_StdPeriph_Driver/src/stm32f4xx_tim.c ****   /* Check the parameters */
1092:../Shared/Libraries/STM32F4xx_StdPeriph_Driver/src/stm32f4xx_tim.c ****   assert_param(IS_TIM_LIST3_PERIPH(TIMx));
1093:../Shared/Libraries/STM32F4xx_StdPeriph_Driver/src/stm32f4xx_tim.c **** 
1094:../Shared/Libraries/STM32F4xx_StdPeriph_Driver/src/stm32f4xx_tim.c ****   /* Set the Capture Compare3 Register value */
1095:../Shared/Libraries/STM32F4xx_StdPeriph_Driver/src/stm32f4xx_tim.c ****   TIMx->CCR3 = Compare3;
 2333              		.loc 1 1095 14
 2334 000a 7B68     		ldr	r3, [r7, #4]
 2335 000c 3A68     		ldr	r2, [r7]
 2336 000e DA63     		str	r2, [r3, #60]
1096:../Shared/Libraries/STM32F4xx_StdPeriph_Driver/src/stm32f4xx_tim.c **** }
 2337              		.loc 1 1096 1
 2338 0010 00BF     		nop
 2339 0012 0C37     		adds	r7, r7, #12
 2340              	.LCFI140:
 2341              		.cfi_def_cfa_offset 4
 2342 0014 BD46     		mov	sp, r7
 2343              	.LCFI141:
 2344              		.cfi_def_cfa_register 13
 2345              		@ sp needed
 2346 0016 5DF8047B 		ldr	r7, [sp], #4
 2347              	.LCFI142:
 2348              		.cfi_restore 7
 2349              		.cfi_def_cfa_offset 0
 2350 001a 7047     		bx	lr
 2351              		.cfi_endproc
 2352              	.LFE133:
 2354              		.section	.text.TIM_SetCompare4,"ax",%progbits
 2355              		.align	1
 2356              		.global	TIM_SetCompare4
 2357              		.syntax unified
 2358              		.thumb
 2359              		.thumb_func
 2361              	TIM_SetCompare4:
 2362              	.LFB134:
1097:../Shared/Libraries/STM32F4xx_StdPeriph_Driver/src/stm32f4xx_tim.c **** 
1098:../Shared/Libraries/STM32F4xx_StdPeriph_Driver/src/stm32f4xx_tim.c **** /**
1099:../Shared/Libraries/STM32F4xx_StdPeriph_Driver/src/stm32f4xx_tim.c ****   * @brief  Sets the TIMx Capture Compare4 Register value
1100:../Shared/Libraries/STM32F4xx_StdPeriph_Driver/src/stm32f4xx_tim.c ****   * @param  TIMx: where x can be 1, 2, 3, 4, 5 or 8 to select the TIM peripheral.
1101:../Shared/Libraries/STM32F4xx_StdPeriph_Driver/src/stm32f4xx_tim.c ****   * @param  Compare4: specifies the Capture Compare4 register new value.
1102:../Shared/Libraries/STM32F4xx_StdPeriph_Driver/src/stm32f4xx_tim.c ****   * @retval None
1103:../Shared/Libraries/STM32F4xx_StdPeriph_Driver/src/stm32f4xx_tim.c ****   */
1104:../Shared/Libraries/STM32F4xx_StdPeriph_Driver/src/stm32f4xx_tim.c **** void TIM_SetCompare4(TIM_TypeDef* TIMx, uint32_t Compare4)
1105:../Shared/Libraries/STM32F4xx_StdPeriph_Driver/src/stm32f4xx_tim.c **** {
 2363              		.loc 1 1105 1
 2364              		.cfi_startproc
 2365              		@ args = 0, pretend = 0, frame = 8
 2366              		@ frame_needed = 1, uses_anonymous_args = 0
 2367              		@ link register save eliminated.
 2368 0000 80B4     		push	{r7}
 2369              	.LCFI143:
 2370              		.cfi_def_cfa_offset 4
 2371              		.cfi_offset 7, -4
 2372 0002 83B0     		sub	sp, sp, #12
 2373              	.LCFI144:
 2374              		.cfi_def_cfa_offset 16
ARM GAS  /tmp/cc2zcHeL.s 			page 62


 2375 0004 00AF     		add	r7, sp, #0
 2376              	.LCFI145:
 2377              		.cfi_def_cfa_register 7
 2378 0006 7860     		str	r0, [r7, #4]
 2379 0008 3960     		str	r1, [r7]
1106:../Shared/Libraries/STM32F4xx_StdPeriph_Driver/src/stm32f4xx_tim.c ****   /* Check the parameters */
1107:../Shared/Libraries/STM32F4xx_StdPeriph_Driver/src/stm32f4xx_tim.c ****   assert_param(IS_TIM_LIST3_PERIPH(TIMx));
1108:../Shared/Libraries/STM32F4xx_StdPeriph_Driver/src/stm32f4xx_tim.c **** 
1109:../Shared/Libraries/STM32F4xx_StdPeriph_Driver/src/stm32f4xx_tim.c ****   /* Set the Capture Compare4 Register value */
1110:../Shared/Libraries/STM32F4xx_StdPeriph_Driver/src/stm32f4xx_tim.c ****   TIMx->CCR4 = Compare4;
 2380              		.loc 1 1110 14
 2381 000a 7B68     		ldr	r3, [r7, #4]
 2382 000c 3A68     		ldr	r2, [r7]
 2383 000e 1A64     		str	r2, [r3, #64]
1111:../Shared/Libraries/STM32F4xx_StdPeriph_Driver/src/stm32f4xx_tim.c **** }
 2384              		.loc 1 1111 1
 2385 0010 00BF     		nop
 2386 0012 0C37     		adds	r7, r7, #12
 2387              	.LCFI146:
 2388              		.cfi_def_cfa_offset 4
 2389 0014 BD46     		mov	sp, r7
 2390              	.LCFI147:
 2391              		.cfi_def_cfa_register 13
 2392              		@ sp needed
 2393 0016 5DF8047B 		ldr	r7, [sp], #4
 2394              	.LCFI148:
 2395              		.cfi_restore 7
 2396              		.cfi_def_cfa_offset 0
 2397 001a 7047     		bx	lr
 2398              		.cfi_endproc
 2399              	.LFE134:
 2401              		.section	.text.TIM_ForcedOC1Config,"ax",%progbits
 2402              		.align	1
 2403              		.global	TIM_ForcedOC1Config
 2404              		.syntax unified
 2405              		.thumb
 2406              		.thumb_func
 2408              	TIM_ForcedOC1Config:
 2409              	.LFB135:
1112:../Shared/Libraries/STM32F4xx_StdPeriph_Driver/src/stm32f4xx_tim.c **** 
1113:../Shared/Libraries/STM32F4xx_StdPeriph_Driver/src/stm32f4xx_tim.c **** /**
1114:../Shared/Libraries/STM32F4xx_StdPeriph_Driver/src/stm32f4xx_tim.c ****   * @brief  Forces the TIMx output 1 waveform to active or inactive level.
1115:../Shared/Libraries/STM32F4xx_StdPeriph_Driver/src/stm32f4xx_tim.c ****   * @param  TIMx: where x can be 1 to 14 except 6 and 7, to select the TIM peripheral.
1116:../Shared/Libraries/STM32F4xx_StdPeriph_Driver/src/stm32f4xx_tim.c ****   * @param  TIM_ForcedAction: specifies the forced Action to be set to the output waveform.
1117:../Shared/Libraries/STM32F4xx_StdPeriph_Driver/src/stm32f4xx_tim.c ****   *          This parameter can be one of the following values:
1118:../Shared/Libraries/STM32F4xx_StdPeriph_Driver/src/stm32f4xx_tim.c ****   *            @arg TIM_ForcedAction_Active: Force active level on OC1REF
1119:../Shared/Libraries/STM32F4xx_StdPeriph_Driver/src/stm32f4xx_tim.c ****   *            @arg TIM_ForcedAction_InActive: Force inactive level on OC1REF.
1120:../Shared/Libraries/STM32F4xx_StdPeriph_Driver/src/stm32f4xx_tim.c ****   * @retval None
1121:../Shared/Libraries/STM32F4xx_StdPeriph_Driver/src/stm32f4xx_tim.c ****   */
1122:../Shared/Libraries/STM32F4xx_StdPeriph_Driver/src/stm32f4xx_tim.c **** void TIM_ForcedOC1Config(TIM_TypeDef* TIMx, uint16_t TIM_ForcedAction)
1123:../Shared/Libraries/STM32F4xx_StdPeriph_Driver/src/stm32f4xx_tim.c **** {
 2410              		.loc 1 1123 1
 2411              		.cfi_startproc
 2412              		@ args = 0, pretend = 0, frame = 16
 2413              		@ frame_needed = 1, uses_anonymous_args = 0
 2414              		@ link register save eliminated.
 2415 0000 80B4     		push	{r7}
ARM GAS  /tmp/cc2zcHeL.s 			page 63


 2416              	.LCFI149:
 2417              		.cfi_def_cfa_offset 4
 2418              		.cfi_offset 7, -4
 2419 0002 85B0     		sub	sp, sp, #20
 2420              	.LCFI150:
 2421              		.cfi_def_cfa_offset 24
 2422 0004 00AF     		add	r7, sp, #0
 2423              	.LCFI151:
 2424              		.cfi_def_cfa_register 7
 2425 0006 7860     		str	r0, [r7, #4]
 2426 0008 0B46     		mov	r3, r1
 2427 000a 7B80     		strh	r3, [r7, #2]	@ movhi
1124:../Shared/Libraries/STM32F4xx_StdPeriph_Driver/src/stm32f4xx_tim.c ****   uint16_t tmpccmr1 = 0;
 2428              		.loc 1 1124 12
 2429 000c 0023     		movs	r3, #0
 2430 000e FB81     		strh	r3, [r7, #14]	@ movhi
1125:../Shared/Libraries/STM32F4xx_StdPeriph_Driver/src/stm32f4xx_tim.c **** 
1126:../Shared/Libraries/STM32F4xx_StdPeriph_Driver/src/stm32f4xx_tim.c ****   /* Check the parameters */
1127:../Shared/Libraries/STM32F4xx_StdPeriph_Driver/src/stm32f4xx_tim.c ****   assert_param(IS_TIM_LIST1_PERIPH(TIMx));
1128:../Shared/Libraries/STM32F4xx_StdPeriph_Driver/src/stm32f4xx_tim.c ****   assert_param(IS_TIM_FORCED_ACTION(TIM_ForcedAction));
1129:../Shared/Libraries/STM32F4xx_StdPeriph_Driver/src/stm32f4xx_tim.c ****   tmpccmr1 = TIMx->CCMR1;
 2431              		.loc 1 1129 12
 2432 0010 7B68     		ldr	r3, [r7, #4]
 2433 0012 1B8B     		ldrh	r3, [r3, #24]	@ movhi
 2434 0014 FB81     		strh	r3, [r7, #14]	@ movhi
1130:../Shared/Libraries/STM32F4xx_StdPeriph_Driver/src/stm32f4xx_tim.c **** 
1131:../Shared/Libraries/STM32F4xx_StdPeriph_Driver/src/stm32f4xx_tim.c ****   /* Reset the OC1M Bits */
1132:../Shared/Libraries/STM32F4xx_StdPeriph_Driver/src/stm32f4xx_tim.c ****   tmpccmr1 &= (uint16_t)~TIM_CCMR1_OC1M;
 2435              		.loc 1 1132 12
 2436 0016 FB89     		ldrh	r3, [r7, #14]	@ movhi
 2437 0018 23F07003 		bic	r3, r3, #112
 2438 001c FB81     		strh	r3, [r7, #14]	@ movhi
1133:../Shared/Libraries/STM32F4xx_StdPeriph_Driver/src/stm32f4xx_tim.c **** 
1134:../Shared/Libraries/STM32F4xx_StdPeriph_Driver/src/stm32f4xx_tim.c ****   /* Configure The Forced output Mode */
1135:../Shared/Libraries/STM32F4xx_StdPeriph_Driver/src/stm32f4xx_tim.c ****   tmpccmr1 |= TIM_ForcedAction;
 2439              		.loc 1 1135 12
 2440 001e FA89     		ldrh	r2, [r7, #14]	@ movhi
 2441 0020 7B88     		ldrh	r3, [r7, #2]	@ movhi
 2442 0022 1343     		orrs	r3, r3, r2
 2443 0024 FB81     		strh	r3, [r7, #14]	@ movhi
1136:../Shared/Libraries/STM32F4xx_StdPeriph_Driver/src/stm32f4xx_tim.c **** 
1137:../Shared/Libraries/STM32F4xx_StdPeriph_Driver/src/stm32f4xx_tim.c ****   /* Write to TIMx CCMR1 register */
1138:../Shared/Libraries/STM32F4xx_StdPeriph_Driver/src/stm32f4xx_tim.c ****   TIMx->CCMR1 = tmpccmr1;
 2444              		.loc 1 1138 15
 2445 0026 7B68     		ldr	r3, [r7, #4]
 2446 0028 FA89     		ldrh	r2, [r7, #14]	@ movhi
 2447 002a 1A83     		strh	r2, [r3, #24]	@ movhi
1139:../Shared/Libraries/STM32F4xx_StdPeriph_Driver/src/stm32f4xx_tim.c **** }
 2448              		.loc 1 1139 1
 2449 002c 00BF     		nop
 2450 002e 1437     		adds	r7, r7, #20
 2451              	.LCFI152:
 2452              		.cfi_def_cfa_offset 4
 2453 0030 BD46     		mov	sp, r7
 2454              	.LCFI153:
 2455              		.cfi_def_cfa_register 13
 2456              		@ sp needed
ARM GAS  /tmp/cc2zcHeL.s 			page 64


 2457 0032 5DF8047B 		ldr	r7, [sp], #4
 2458              	.LCFI154:
 2459              		.cfi_restore 7
 2460              		.cfi_def_cfa_offset 0
 2461 0036 7047     		bx	lr
 2462              		.cfi_endproc
 2463              	.LFE135:
 2465              		.section	.text.TIM_ForcedOC2Config,"ax",%progbits
 2466              		.align	1
 2467              		.global	TIM_ForcedOC2Config
 2468              		.syntax unified
 2469              		.thumb
 2470              		.thumb_func
 2472              	TIM_ForcedOC2Config:
 2473              	.LFB136:
1140:../Shared/Libraries/STM32F4xx_StdPeriph_Driver/src/stm32f4xx_tim.c **** 
1141:../Shared/Libraries/STM32F4xx_StdPeriph_Driver/src/stm32f4xx_tim.c **** /**
1142:../Shared/Libraries/STM32F4xx_StdPeriph_Driver/src/stm32f4xx_tim.c ****   * @brief  Forces the TIMx output 2 waveform to active or inactive level.
1143:../Shared/Libraries/STM32F4xx_StdPeriph_Driver/src/stm32f4xx_tim.c ****   * @param  TIMx: where x can be  1, 2, 3, 4, 5, 8, 9 or 12 to select the TIM 
1144:../Shared/Libraries/STM32F4xx_StdPeriph_Driver/src/stm32f4xx_tim.c ****   *         peripheral.
1145:../Shared/Libraries/STM32F4xx_StdPeriph_Driver/src/stm32f4xx_tim.c ****   * @param  TIM_ForcedAction: specifies the forced Action to be set to the output waveform.
1146:../Shared/Libraries/STM32F4xx_StdPeriph_Driver/src/stm32f4xx_tim.c ****   *          This parameter can be one of the following values:
1147:../Shared/Libraries/STM32F4xx_StdPeriph_Driver/src/stm32f4xx_tim.c ****   *            @arg TIM_ForcedAction_Active: Force active level on OC2REF
1148:../Shared/Libraries/STM32F4xx_StdPeriph_Driver/src/stm32f4xx_tim.c ****   *            @arg TIM_ForcedAction_InActive: Force inactive level on OC2REF.
1149:../Shared/Libraries/STM32F4xx_StdPeriph_Driver/src/stm32f4xx_tim.c ****   * @retval None
1150:../Shared/Libraries/STM32F4xx_StdPeriph_Driver/src/stm32f4xx_tim.c ****   */
1151:../Shared/Libraries/STM32F4xx_StdPeriph_Driver/src/stm32f4xx_tim.c **** void TIM_ForcedOC2Config(TIM_TypeDef* TIMx, uint16_t TIM_ForcedAction)
1152:../Shared/Libraries/STM32F4xx_StdPeriph_Driver/src/stm32f4xx_tim.c **** {
 2474              		.loc 1 1152 1
 2475              		.cfi_startproc
 2476              		@ args = 0, pretend = 0, frame = 16
 2477              		@ frame_needed = 1, uses_anonymous_args = 0
 2478              		@ link register save eliminated.
 2479 0000 80B4     		push	{r7}
 2480              	.LCFI155:
 2481              		.cfi_def_cfa_offset 4
 2482              		.cfi_offset 7, -4
 2483 0002 85B0     		sub	sp, sp, #20
 2484              	.LCFI156:
 2485              		.cfi_def_cfa_offset 24
 2486 0004 00AF     		add	r7, sp, #0
 2487              	.LCFI157:
 2488              		.cfi_def_cfa_register 7
 2489 0006 7860     		str	r0, [r7, #4]
 2490 0008 0B46     		mov	r3, r1
 2491 000a 7B80     		strh	r3, [r7, #2]	@ movhi
1153:../Shared/Libraries/STM32F4xx_StdPeriph_Driver/src/stm32f4xx_tim.c ****   uint16_t tmpccmr1 = 0;
 2492              		.loc 1 1153 12
 2493 000c 0023     		movs	r3, #0
 2494 000e FB81     		strh	r3, [r7, #14]	@ movhi
1154:../Shared/Libraries/STM32F4xx_StdPeriph_Driver/src/stm32f4xx_tim.c **** 
1155:../Shared/Libraries/STM32F4xx_StdPeriph_Driver/src/stm32f4xx_tim.c ****   /* Check the parameters */
1156:../Shared/Libraries/STM32F4xx_StdPeriph_Driver/src/stm32f4xx_tim.c ****   assert_param(IS_TIM_LIST2_PERIPH(TIMx));
1157:../Shared/Libraries/STM32F4xx_StdPeriph_Driver/src/stm32f4xx_tim.c ****   assert_param(IS_TIM_FORCED_ACTION(TIM_ForcedAction));
1158:../Shared/Libraries/STM32F4xx_StdPeriph_Driver/src/stm32f4xx_tim.c ****   tmpccmr1 = TIMx->CCMR1;
 2495              		.loc 1 1158 12
 2496 0010 7B68     		ldr	r3, [r7, #4]
ARM GAS  /tmp/cc2zcHeL.s 			page 65


 2497 0012 1B8B     		ldrh	r3, [r3, #24]	@ movhi
 2498 0014 FB81     		strh	r3, [r7, #14]	@ movhi
1159:../Shared/Libraries/STM32F4xx_StdPeriph_Driver/src/stm32f4xx_tim.c **** 
1160:../Shared/Libraries/STM32F4xx_StdPeriph_Driver/src/stm32f4xx_tim.c ****   /* Reset the OC2M Bits */
1161:../Shared/Libraries/STM32F4xx_StdPeriph_Driver/src/stm32f4xx_tim.c ****   tmpccmr1 &= (uint16_t)~TIM_CCMR1_OC2M;
 2499              		.loc 1 1161 12
 2500 0016 FB89     		ldrh	r3, [r7, #14]	@ movhi
 2501 0018 23F4E043 		bic	r3, r3, #28672
 2502 001c FB81     		strh	r3, [r7, #14]	@ movhi
1162:../Shared/Libraries/STM32F4xx_StdPeriph_Driver/src/stm32f4xx_tim.c **** 
1163:../Shared/Libraries/STM32F4xx_StdPeriph_Driver/src/stm32f4xx_tim.c ****   /* Configure The Forced output Mode */
1164:../Shared/Libraries/STM32F4xx_StdPeriph_Driver/src/stm32f4xx_tim.c ****   tmpccmr1 |= (uint16_t)(TIM_ForcedAction << 8);
 2503              		.loc 1 1164 15
 2504 001e 7B88     		ldrh	r3, [r7, #2]	@ movhi
 2505 0020 1B02     		lsls	r3, r3, #8
 2506 0022 9AB2     		uxth	r2, r3
 2507              		.loc 1 1164 12
 2508 0024 FB89     		ldrh	r3, [r7, #14]	@ movhi
 2509 0026 1343     		orrs	r3, r3, r2
 2510 0028 FB81     		strh	r3, [r7, #14]	@ movhi
1165:../Shared/Libraries/STM32F4xx_StdPeriph_Driver/src/stm32f4xx_tim.c **** 
1166:../Shared/Libraries/STM32F4xx_StdPeriph_Driver/src/stm32f4xx_tim.c ****   /* Write to TIMx CCMR1 register */
1167:../Shared/Libraries/STM32F4xx_StdPeriph_Driver/src/stm32f4xx_tim.c ****   TIMx->CCMR1 = tmpccmr1;
 2511              		.loc 1 1167 15
 2512 002a 7B68     		ldr	r3, [r7, #4]
 2513 002c FA89     		ldrh	r2, [r7, #14]	@ movhi
 2514 002e 1A83     		strh	r2, [r3, #24]	@ movhi
1168:../Shared/Libraries/STM32F4xx_StdPeriph_Driver/src/stm32f4xx_tim.c **** }
 2515              		.loc 1 1168 1
 2516 0030 00BF     		nop
 2517 0032 1437     		adds	r7, r7, #20
 2518              	.LCFI158:
 2519              		.cfi_def_cfa_offset 4
 2520 0034 BD46     		mov	sp, r7
 2521              	.LCFI159:
 2522              		.cfi_def_cfa_register 13
 2523              		@ sp needed
 2524 0036 5DF8047B 		ldr	r7, [sp], #4
 2525              	.LCFI160:
 2526              		.cfi_restore 7
 2527              		.cfi_def_cfa_offset 0
 2528 003a 7047     		bx	lr
 2529              		.cfi_endproc
 2530              	.LFE136:
 2532              		.section	.text.TIM_ForcedOC3Config,"ax",%progbits
 2533              		.align	1
 2534              		.global	TIM_ForcedOC3Config
 2535              		.syntax unified
 2536              		.thumb
 2537              		.thumb_func
 2539              	TIM_ForcedOC3Config:
 2540              	.LFB137:
1169:../Shared/Libraries/STM32F4xx_StdPeriph_Driver/src/stm32f4xx_tim.c **** 
1170:../Shared/Libraries/STM32F4xx_StdPeriph_Driver/src/stm32f4xx_tim.c **** /**
1171:../Shared/Libraries/STM32F4xx_StdPeriph_Driver/src/stm32f4xx_tim.c ****   * @brief  Forces the TIMx output 3 waveform to active or inactive level.
1172:../Shared/Libraries/STM32F4xx_StdPeriph_Driver/src/stm32f4xx_tim.c ****   * @param  TIMx: where x can be  1, 2, 3, 4, 5 or 8 to select the TIM peripheral.
1173:../Shared/Libraries/STM32F4xx_StdPeriph_Driver/src/stm32f4xx_tim.c ****   * @param  TIM_ForcedAction: specifies the forced Action to be set to the output waveform.
ARM GAS  /tmp/cc2zcHeL.s 			page 66


1174:../Shared/Libraries/STM32F4xx_StdPeriph_Driver/src/stm32f4xx_tim.c ****   *          This parameter can be one of the following values:
1175:../Shared/Libraries/STM32F4xx_StdPeriph_Driver/src/stm32f4xx_tim.c ****   *            @arg TIM_ForcedAction_Active: Force active level on OC3REF
1176:../Shared/Libraries/STM32F4xx_StdPeriph_Driver/src/stm32f4xx_tim.c ****   *            @arg TIM_ForcedAction_InActive: Force inactive level on OC3REF.
1177:../Shared/Libraries/STM32F4xx_StdPeriph_Driver/src/stm32f4xx_tim.c ****   * @retval None
1178:../Shared/Libraries/STM32F4xx_StdPeriph_Driver/src/stm32f4xx_tim.c ****   */
1179:../Shared/Libraries/STM32F4xx_StdPeriph_Driver/src/stm32f4xx_tim.c **** void TIM_ForcedOC3Config(TIM_TypeDef* TIMx, uint16_t TIM_ForcedAction)
1180:../Shared/Libraries/STM32F4xx_StdPeriph_Driver/src/stm32f4xx_tim.c **** {
 2541              		.loc 1 1180 1
 2542              		.cfi_startproc
 2543              		@ args = 0, pretend = 0, frame = 16
 2544              		@ frame_needed = 1, uses_anonymous_args = 0
 2545              		@ link register save eliminated.
 2546 0000 80B4     		push	{r7}
 2547              	.LCFI161:
 2548              		.cfi_def_cfa_offset 4
 2549              		.cfi_offset 7, -4
 2550 0002 85B0     		sub	sp, sp, #20
 2551              	.LCFI162:
 2552              		.cfi_def_cfa_offset 24
 2553 0004 00AF     		add	r7, sp, #0
 2554              	.LCFI163:
 2555              		.cfi_def_cfa_register 7
 2556 0006 7860     		str	r0, [r7, #4]
 2557 0008 0B46     		mov	r3, r1
 2558 000a 7B80     		strh	r3, [r7, #2]	@ movhi
1181:../Shared/Libraries/STM32F4xx_StdPeriph_Driver/src/stm32f4xx_tim.c ****   uint16_t tmpccmr2 = 0;
 2559              		.loc 1 1181 12
 2560 000c 0023     		movs	r3, #0
 2561 000e FB81     		strh	r3, [r7, #14]	@ movhi
1182:../Shared/Libraries/STM32F4xx_StdPeriph_Driver/src/stm32f4xx_tim.c **** 
1183:../Shared/Libraries/STM32F4xx_StdPeriph_Driver/src/stm32f4xx_tim.c ****   /* Check the parameters */
1184:../Shared/Libraries/STM32F4xx_StdPeriph_Driver/src/stm32f4xx_tim.c ****   assert_param(IS_TIM_LIST3_PERIPH(TIMx));
1185:../Shared/Libraries/STM32F4xx_StdPeriph_Driver/src/stm32f4xx_tim.c ****   assert_param(IS_TIM_FORCED_ACTION(TIM_ForcedAction));
1186:../Shared/Libraries/STM32F4xx_StdPeriph_Driver/src/stm32f4xx_tim.c **** 
1187:../Shared/Libraries/STM32F4xx_StdPeriph_Driver/src/stm32f4xx_tim.c ****   tmpccmr2 = TIMx->CCMR2;
 2562              		.loc 1 1187 12
 2563 0010 7B68     		ldr	r3, [r7, #4]
 2564 0012 9B8B     		ldrh	r3, [r3, #28]	@ movhi
 2565 0014 FB81     		strh	r3, [r7, #14]	@ movhi
1188:../Shared/Libraries/STM32F4xx_StdPeriph_Driver/src/stm32f4xx_tim.c **** 
1189:../Shared/Libraries/STM32F4xx_StdPeriph_Driver/src/stm32f4xx_tim.c ****   /* Reset the OC1M Bits */
1190:../Shared/Libraries/STM32F4xx_StdPeriph_Driver/src/stm32f4xx_tim.c ****   tmpccmr2 &= (uint16_t)~TIM_CCMR2_OC3M;
 2566              		.loc 1 1190 12
 2567 0016 FB89     		ldrh	r3, [r7, #14]	@ movhi
 2568 0018 23F07003 		bic	r3, r3, #112
 2569 001c FB81     		strh	r3, [r7, #14]	@ movhi
1191:../Shared/Libraries/STM32F4xx_StdPeriph_Driver/src/stm32f4xx_tim.c **** 
1192:../Shared/Libraries/STM32F4xx_StdPeriph_Driver/src/stm32f4xx_tim.c ****   /* Configure The Forced output Mode */
1193:../Shared/Libraries/STM32F4xx_StdPeriph_Driver/src/stm32f4xx_tim.c ****   tmpccmr2 |= TIM_ForcedAction;
 2570              		.loc 1 1193 12
 2571 001e FA89     		ldrh	r2, [r7, #14]	@ movhi
 2572 0020 7B88     		ldrh	r3, [r7, #2]	@ movhi
 2573 0022 1343     		orrs	r3, r3, r2
 2574 0024 FB81     		strh	r3, [r7, #14]	@ movhi
1194:../Shared/Libraries/STM32F4xx_StdPeriph_Driver/src/stm32f4xx_tim.c **** 
1195:../Shared/Libraries/STM32F4xx_StdPeriph_Driver/src/stm32f4xx_tim.c ****   /* Write to TIMx CCMR2 register */
1196:../Shared/Libraries/STM32F4xx_StdPeriph_Driver/src/stm32f4xx_tim.c ****   TIMx->CCMR2 = tmpccmr2;
ARM GAS  /tmp/cc2zcHeL.s 			page 67


 2575              		.loc 1 1196 15
 2576 0026 7B68     		ldr	r3, [r7, #4]
 2577 0028 FA89     		ldrh	r2, [r7, #14]	@ movhi
 2578 002a 9A83     		strh	r2, [r3, #28]	@ movhi
1197:../Shared/Libraries/STM32F4xx_StdPeriph_Driver/src/stm32f4xx_tim.c **** }
 2579              		.loc 1 1197 1
 2580 002c 00BF     		nop
 2581 002e 1437     		adds	r7, r7, #20
 2582              	.LCFI164:
 2583              		.cfi_def_cfa_offset 4
 2584 0030 BD46     		mov	sp, r7
 2585              	.LCFI165:
 2586              		.cfi_def_cfa_register 13
 2587              		@ sp needed
 2588 0032 5DF8047B 		ldr	r7, [sp], #4
 2589              	.LCFI166:
 2590              		.cfi_restore 7
 2591              		.cfi_def_cfa_offset 0
 2592 0036 7047     		bx	lr
 2593              		.cfi_endproc
 2594              	.LFE137:
 2596              		.section	.text.TIM_ForcedOC4Config,"ax",%progbits
 2597              		.align	1
 2598              		.global	TIM_ForcedOC4Config
 2599              		.syntax unified
 2600              		.thumb
 2601              		.thumb_func
 2603              	TIM_ForcedOC4Config:
 2604              	.LFB138:
1198:../Shared/Libraries/STM32F4xx_StdPeriph_Driver/src/stm32f4xx_tim.c **** 
1199:../Shared/Libraries/STM32F4xx_StdPeriph_Driver/src/stm32f4xx_tim.c **** /**
1200:../Shared/Libraries/STM32F4xx_StdPeriph_Driver/src/stm32f4xx_tim.c ****   * @brief  Forces the TIMx output 4 waveform to active or inactive level.
1201:../Shared/Libraries/STM32F4xx_StdPeriph_Driver/src/stm32f4xx_tim.c ****   * @param  TIMx: where x can be  1, 2, 3, 4, 5 or 8 to select the TIM peripheral.
1202:../Shared/Libraries/STM32F4xx_StdPeriph_Driver/src/stm32f4xx_tim.c ****   * @param  TIM_ForcedAction: specifies the forced Action to be set to the output waveform.
1203:../Shared/Libraries/STM32F4xx_StdPeriph_Driver/src/stm32f4xx_tim.c ****   *          This parameter can be one of the following values:
1204:../Shared/Libraries/STM32F4xx_StdPeriph_Driver/src/stm32f4xx_tim.c ****   *            @arg TIM_ForcedAction_Active: Force active level on OC4REF
1205:../Shared/Libraries/STM32F4xx_StdPeriph_Driver/src/stm32f4xx_tim.c ****   *            @arg TIM_ForcedAction_InActive: Force inactive level on OC4REF.
1206:../Shared/Libraries/STM32F4xx_StdPeriph_Driver/src/stm32f4xx_tim.c ****   * @retval None
1207:../Shared/Libraries/STM32F4xx_StdPeriph_Driver/src/stm32f4xx_tim.c ****   */
1208:../Shared/Libraries/STM32F4xx_StdPeriph_Driver/src/stm32f4xx_tim.c **** void TIM_ForcedOC4Config(TIM_TypeDef* TIMx, uint16_t TIM_ForcedAction)
1209:../Shared/Libraries/STM32F4xx_StdPeriph_Driver/src/stm32f4xx_tim.c **** {
 2605              		.loc 1 1209 1
 2606              		.cfi_startproc
 2607              		@ args = 0, pretend = 0, frame = 16
 2608              		@ frame_needed = 1, uses_anonymous_args = 0
 2609              		@ link register save eliminated.
 2610 0000 80B4     		push	{r7}
 2611              	.LCFI167:
 2612              		.cfi_def_cfa_offset 4
 2613              		.cfi_offset 7, -4
 2614 0002 85B0     		sub	sp, sp, #20
 2615              	.LCFI168:
 2616              		.cfi_def_cfa_offset 24
 2617 0004 00AF     		add	r7, sp, #0
 2618              	.LCFI169:
 2619              		.cfi_def_cfa_register 7
 2620 0006 7860     		str	r0, [r7, #4]
ARM GAS  /tmp/cc2zcHeL.s 			page 68


 2621 0008 0B46     		mov	r3, r1
 2622 000a 7B80     		strh	r3, [r7, #2]	@ movhi
1210:../Shared/Libraries/STM32F4xx_StdPeriph_Driver/src/stm32f4xx_tim.c ****   uint16_t tmpccmr2 = 0;
 2623              		.loc 1 1210 12
 2624 000c 0023     		movs	r3, #0
 2625 000e FB81     		strh	r3, [r7, #14]	@ movhi
1211:../Shared/Libraries/STM32F4xx_StdPeriph_Driver/src/stm32f4xx_tim.c **** 
1212:../Shared/Libraries/STM32F4xx_StdPeriph_Driver/src/stm32f4xx_tim.c ****   /* Check the parameters */
1213:../Shared/Libraries/STM32F4xx_StdPeriph_Driver/src/stm32f4xx_tim.c ****   assert_param(IS_TIM_LIST3_PERIPH(TIMx));
1214:../Shared/Libraries/STM32F4xx_StdPeriph_Driver/src/stm32f4xx_tim.c ****   assert_param(IS_TIM_FORCED_ACTION(TIM_ForcedAction));
1215:../Shared/Libraries/STM32F4xx_StdPeriph_Driver/src/stm32f4xx_tim.c ****   tmpccmr2 = TIMx->CCMR2;
 2626              		.loc 1 1215 12
 2627 0010 7B68     		ldr	r3, [r7, #4]
 2628 0012 9B8B     		ldrh	r3, [r3, #28]	@ movhi
 2629 0014 FB81     		strh	r3, [r7, #14]	@ movhi
1216:../Shared/Libraries/STM32F4xx_StdPeriph_Driver/src/stm32f4xx_tim.c **** 
1217:../Shared/Libraries/STM32F4xx_StdPeriph_Driver/src/stm32f4xx_tim.c ****   /* Reset the OC2M Bits */
1218:../Shared/Libraries/STM32F4xx_StdPeriph_Driver/src/stm32f4xx_tim.c ****   tmpccmr2 &= (uint16_t)~TIM_CCMR2_OC4M;
 2630              		.loc 1 1218 12
 2631 0016 FB89     		ldrh	r3, [r7, #14]	@ movhi
 2632 0018 23F4E043 		bic	r3, r3, #28672
 2633 001c FB81     		strh	r3, [r7, #14]	@ movhi
1219:../Shared/Libraries/STM32F4xx_StdPeriph_Driver/src/stm32f4xx_tim.c **** 
1220:../Shared/Libraries/STM32F4xx_StdPeriph_Driver/src/stm32f4xx_tim.c ****   /* Configure The Forced output Mode */
1221:../Shared/Libraries/STM32F4xx_StdPeriph_Driver/src/stm32f4xx_tim.c ****   tmpccmr2 |= (uint16_t)(TIM_ForcedAction << 8);
 2634              		.loc 1 1221 15
 2635 001e 7B88     		ldrh	r3, [r7, #2]	@ movhi
 2636 0020 1B02     		lsls	r3, r3, #8
 2637 0022 9AB2     		uxth	r2, r3
 2638              		.loc 1 1221 12
 2639 0024 FB89     		ldrh	r3, [r7, #14]	@ movhi
 2640 0026 1343     		orrs	r3, r3, r2
 2641 0028 FB81     		strh	r3, [r7, #14]	@ movhi
1222:../Shared/Libraries/STM32F4xx_StdPeriph_Driver/src/stm32f4xx_tim.c **** 
1223:../Shared/Libraries/STM32F4xx_StdPeriph_Driver/src/stm32f4xx_tim.c ****   /* Write to TIMx CCMR2 register */
1224:../Shared/Libraries/STM32F4xx_StdPeriph_Driver/src/stm32f4xx_tim.c ****   TIMx->CCMR2 = tmpccmr2;
 2642              		.loc 1 1224 15
 2643 002a 7B68     		ldr	r3, [r7, #4]
 2644 002c FA89     		ldrh	r2, [r7, #14]	@ movhi
 2645 002e 9A83     		strh	r2, [r3, #28]	@ movhi
1225:../Shared/Libraries/STM32F4xx_StdPeriph_Driver/src/stm32f4xx_tim.c **** }
 2646              		.loc 1 1225 1
 2647 0030 00BF     		nop
 2648 0032 1437     		adds	r7, r7, #20
 2649              	.LCFI170:
 2650              		.cfi_def_cfa_offset 4
 2651 0034 BD46     		mov	sp, r7
 2652              	.LCFI171:
 2653              		.cfi_def_cfa_register 13
 2654              		@ sp needed
 2655 0036 5DF8047B 		ldr	r7, [sp], #4
 2656              	.LCFI172:
 2657              		.cfi_restore 7
 2658              		.cfi_def_cfa_offset 0
 2659 003a 7047     		bx	lr
 2660              		.cfi_endproc
 2661              	.LFE138:
ARM GAS  /tmp/cc2zcHeL.s 			page 69


 2663              		.section	.text.TIM_OC1PreloadConfig,"ax",%progbits
 2664              		.align	1
 2665              		.global	TIM_OC1PreloadConfig
 2666              		.syntax unified
 2667              		.thumb
 2668              		.thumb_func
 2670              	TIM_OC1PreloadConfig:
 2671              	.LFB139:
1226:../Shared/Libraries/STM32F4xx_StdPeriph_Driver/src/stm32f4xx_tim.c **** 
1227:../Shared/Libraries/STM32F4xx_StdPeriph_Driver/src/stm32f4xx_tim.c **** /**
1228:../Shared/Libraries/STM32F4xx_StdPeriph_Driver/src/stm32f4xx_tim.c ****   * @brief  Enables or disables the TIMx peripheral Preload register on CCR1.
1229:../Shared/Libraries/STM32F4xx_StdPeriph_Driver/src/stm32f4xx_tim.c ****   * @param  TIMx: where x can be 1 to 14 except 6 and 7, to select the TIM peripheral.
1230:../Shared/Libraries/STM32F4xx_StdPeriph_Driver/src/stm32f4xx_tim.c ****   * @param  TIM_OCPreload: new state of the TIMx peripheral Preload register
1231:../Shared/Libraries/STM32F4xx_StdPeriph_Driver/src/stm32f4xx_tim.c ****   *          This parameter can be one of the following values:
1232:../Shared/Libraries/STM32F4xx_StdPeriph_Driver/src/stm32f4xx_tim.c ****   *            @arg TIM_OCPreload_Enable
1233:../Shared/Libraries/STM32F4xx_StdPeriph_Driver/src/stm32f4xx_tim.c ****   *            @arg TIM_OCPreload_Disable
1234:../Shared/Libraries/STM32F4xx_StdPeriph_Driver/src/stm32f4xx_tim.c ****   * @retval None
1235:../Shared/Libraries/STM32F4xx_StdPeriph_Driver/src/stm32f4xx_tim.c ****   */
1236:../Shared/Libraries/STM32F4xx_StdPeriph_Driver/src/stm32f4xx_tim.c **** void TIM_OC1PreloadConfig(TIM_TypeDef* TIMx, uint16_t TIM_OCPreload)
1237:../Shared/Libraries/STM32F4xx_StdPeriph_Driver/src/stm32f4xx_tim.c **** {
 2672              		.loc 1 1237 1
 2673              		.cfi_startproc
 2674              		@ args = 0, pretend = 0, frame = 16
 2675              		@ frame_needed = 1, uses_anonymous_args = 0
 2676              		@ link register save eliminated.
 2677 0000 80B4     		push	{r7}
 2678              	.LCFI173:
 2679              		.cfi_def_cfa_offset 4
 2680              		.cfi_offset 7, -4
 2681 0002 85B0     		sub	sp, sp, #20
 2682              	.LCFI174:
 2683              		.cfi_def_cfa_offset 24
 2684 0004 00AF     		add	r7, sp, #0
 2685              	.LCFI175:
 2686              		.cfi_def_cfa_register 7
 2687 0006 7860     		str	r0, [r7, #4]
 2688 0008 0B46     		mov	r3, r1
 2689 000a 7B80     		strh	r3, [r7, #2]	@ movhi
1238:../Shared/Libraries/STM32F4xx_StdPeriph_Driver/src/stm32f4xx_tim.c ****   uint16_t tmpccmr1 = 0;
 2690              		.loc 1 1238 12
 2691 000c 0023     		movs	r3, #0
 2692 000e FB81     		strh	r3, [r7, #14]	@ movhi
1239:../Shared/Libraries/STM32F4xx_StdPeriph_Driver/src/stm32f4xx_tim.c **** 
1240:../Shared/Libraries/STM32F4xx_StdPeriph_Driver/src/stm32f4xx_tim.c ****   /* Check the parameters */
1241:../Shared/Libraries/STM32F4xx_StdPeriph_Driver/src/stm32f4xx_tim.c ****   assert_param(IS_TIM_LIST1_PERIPH(TIMx));
1242:../Shared/Libraries/STM32F4xx_StdPeriph_Driver/src/stm32f4xx_tim.c ****   assert_param(IS_TIM_OCPRELOAD_STATE(TIM_OCPreload));
1243:../Shared/Libraries/STM32F4xx_StdPeriph_Driver/src/stm32f4xx_tim.c **** 
1244:../Shared/Libraries/STM32F4xx_StdPeriph_Driver/src/stm32f4xx_tim.c ****   tmpccmr1 = TIMx->CCMR1;
 2693              		.loc 1 1244 12
 2694 0010 7B68     		ldr	r3, [r7, #4]
 2695 0012 1B8B     		ldrh	r3, [r3, #24]	@ movhi
 2696 0014 FB81     		strh	r3, [r7, #14]	@ movhi
1245:../Shared/Libraries/STM32F4xx_StdPeriph_Driver/src/stm32f4xx_tim.c **** 
1246:../Shared/Libraries/STM32F4xx_StdPeriph_Driver/src/stm32f4xx_tim.c ****   /* Reset the OC1PE Bit */
1247:../Shared/Libraries/STM32F4xx_StdPeriph_Driver/src/stm32f4xx_tim.c ****   tmpccmr1 &= (uint16_t)(~TIM_CCMR1_OC1PE);
 2697              		.loc 1 1247 12
 2698 0016 FB89     		ldrh	r3, [r7, #14]	@ movhi
ARM GAS  /tmp/cc2zcHeL.s 			page 70


 2699 0018 23F00803 		bic	r3, r3, #8
 2700 001c FB81     		strh	r3, [r7, #14]	@ movhi
1248:../Shared/Libraries/STM32F4xx_StdPeriph_Driver/src/stm32f4xx_tim.c **** 
1249:../Shared/Libraries/STM32F4xx_StdPeriph_Driver/src/stm32f4xx_tim.c ****   /* Enable or Disable the Output Compare Preload feature */
1250:../Shared/Libraries/STM32F4xx_StdPeriph_Driver/src/stm32f4xx_tim.c ****   tmpccmr1 |= TIM_OCPreload;
 2701              		.loc 1 1250 12
 2702 001e FA89     		ldrh	r2, [r7, #14]	@ movhi
 2703 0020 7B88     		ldrh	r3, [r7, #2]	@ movhi
 2704 0022 1343     		orrs	r3, r3, r2
 2705 0024 FB81     		strh	r3, [r7, #14]	@ movhi
1251:../Shared/Libraries/STM32F4xx_StdPeriph_Driver/src/stm32f4xx_tim.c **** 
1252:../Shared/Libraries/STM32F4xx_StdPeriph_Driver/src/stm32f4xx_tim.c ****   /* Write to TIMx CCMR1 register */
1253:../Shared/Libraries/STM32F4xx_StdPeriph_Driver/src/stm32f4xx_tim.c ****   TIMx->CCMR1 = tmpccmr1;
 2706              		.loc 1 1253 15
 2707 0026 7B68     		ldr	r3, [r7, #4]
 2708 0028 FA89     		ldrh	r2, [r7, #14]	@ movhi
 2709 002a 1A83     		strh	r2, [r3, #24]	@ movhi
1254:../Shared/Libraries/STM32F4xx_StdPeriph_Driver/src/stm32f4xx_tim.c **** }
 2710              		.loc 1 1254 1
 2711 002c 00BF     		nop
 2712 002e 1437     		adds	r7, r7, #20
 2713              	.LCFI176:
 2714              		.cfi_def_cfa_offset 4
 2715 0030 BD46     		mov	sp, r7
 2716              	.LCFI177:
 2717              		.cfi_def_cfa_register 13
 2718              		@ sp needed
 2719 0032 5DF8047B 		ldr	r7, [sp], #4
 2720              	.LCFI178:
 2721              		.cfi_restore 7
 2722              		.cfi_def_cfa_offset 0
 2723 0036 7047     		bx	lr
 2724              		.cfi_endproc
 2725              	.LFE139:
 2727              		.section	.text.TIM_OC2PreloadConfig,"ax",%progbits
 2728              		.align	1
 2729              		.global	TIM_OC2PreloadConfig
 2730              		.syntax unified
 2731              		.thumb
 2732              		.thumb_func
 2734              	TIM_OC2PreloadConfig:
